libQt63DAnimation.so.6:_ZN13Qt3DAnimation12QMorphTarget11qt_metacallEN11QMetaObject4CallEiPPv
libQt63DAnimation.so.6:_ZN13Qt3DAnimation12QMorphTarget11qt_metacastEPKc
libQt63DAnimation.so.6:_ZN13Qt3DAnimation12QMorphTarget12addAttributeEPN8Qt3DCore10QAttributeE
libQt63DAnimation.so.6:_ZN13Qt3DAnimation12QMorphTarget12fromGeometryEPN8Qt3DCore9QGeometryERK5QListI7QStringE
libQt63DAnimation.so.6:_ZN13Qt3DAnimation12QMorphTarget13setAttributesERK5QListIPN8Qt3DCore10QAttributeEE
libQt63DAnimation.so.6:_ZN13Qt3DAnimation12QMorphTarget15removeAttributeEPN8Qt3DCore10QAttributeE
libQt63DAnimation.so.6:_ZN13Qt3DAnimation12QMorphTarget16staticMetaObjectE
libQt63DAnimation.so.6:_ZN13Qt3DAnimation12QMorphTarget21attributeNamesChangedERK5QListI7QStringE
libQt63DAnimation.so.6:_ZN13Qt3DAnimation12QMorphTargetC1EP7QObject
libQt63DAnimation.so.6:_ZN13Qt3DAnimation12QMorphTargetC2EP7QObject
libQt63DAnimation.so.6:_ZN13Qt3DAnimation13QClipAnimator11clipChangedEPNS_22QAbstractAnimationClipE
libQt63DAnimation.so.6:_ZN13Qt3DAnimation13QClipAnimator11qt_metacallEN11QMetaObject4CallEiPPv
libQt63DAnimation.so.6:_ZN13Qt3DAnimation13QClipAnimator11qt_metacastEPKc
libQt63DAnimation.so.6:_ZN13Qt3DAnimation13QClipAnimator16staticMetaObjectE
libQt63DAnimation.so.6:_ZN13Qt3DAnimation13QClipAnimator7setClipEPNS_22QAbstractAnimationClipE
libQt63DAnimation.so.6:_ZN13Qt3DAnimation13QClipAnimatorC1EPN8Qt3DCore5QNodeE
libQt63DAnimation.so.6:_ZN13Qt3DAnimation13QClipAnimatorC1ERNS_20QClipAnimatorPrivateEPN8Qt3DCore5QNodeE
libQt63DAnimation.so.6:_ZN13Qt3DAnimation13QClipAnimatorC2EPN8Qt3DCore5QNodeE
libQt63DAnimation.so.6:_ZN13Qt3DAnimation13QClipAnimatorC2ERNS_20QClipAnimatorPrivateEPN8Qt3DCore5QNodeE
libQt63DAnimation.so.6:_ZN13Qt3DAnimation13QClipAnimatorD0Ev
libQt63DAnimation.so.6:_ZN13Qt3DAnimation13QClipAnimatorD1Ev
libQt63DAnimation.so.6:_ZN13Qt3DAnimation13QClipAnimatorD2Ev
libQt63DAnimation.so.6:_ZN13Qt3DAnimation14QAnimationClip11qt_metacallEN11QMetaObject4CallEiPPv
libQt63DAnimation.so.6:_ZN13Qt3DAnimation14QAnimationClip11qt_metacastEPKc
libQt63DAnimation.so.6:_ZN13Qt3DAnimation14QAnimationClip11setClipDataERKNS_18QAnimationClipDataE
libQt63DAnimation.so.6:_ZN13Qt3DAnimation14QAnimationClip15clipDataChangedENS_18QAnimationClipDataE
libQt63DAnimation.so.6:_ZN13Qt3DAnimation14QAnimationClip16staticMetaObjectE
libQt63DAnimation.so.6:_ZN13Qt3DAnimation14QAnimationClipC1EPN8Qt3DCore5QNodeE
libQt63DAnimation.so.6:_ZN13Qt3DAnimation14QAnimationClipC1ERNS_21QAnimationClipPrivateEPN8Qt3DCore5QNodeE
libQt63DAnimation.so.6:_ZN13Qt3DAnimation14QAnimationClipC2EPN8Qt3DCore5QNodeE
libQt63DAnimation.so.6:_ZN13Qt3DAnimation14QAnimationClipC2ERNS_21QAnimationClipPrivateEPN8Qt3DCore5QNodeE
libQt63DAnimation.so.6:_ZN13Qt3DAnimation14QAnimationClipD0Ev
libQt63DAnimation.so.6:_ZN13Qt3DAnimation14QAnimationClipD1Ev
libQt63DAnimation.so.6:_ZN13Qt3DAnimation14QAnimationClipD2Ev
libQt63DAnimation.so.6:_ZN13Qt3DAnimation14QChannelMapper10addMappingEPNS_23QAbstractChannelMappingE
libQt63DAnimation.so.6:_ZN13Qt3DAnimation14QChannelMapper11qt_metacallEN11QMetaObject4CallEiPPv
libQt63DAnimation.so.6:_ZN13Qt3DAnimation14QChannelMapper11qt_metacastEPKc
libQt63DAnimation.so.6:_ZN13Qt3DAnimation14QChannelMapper13removeMappingEPNS_23QAbstractChannelMappingE
libQt63DAnimation.so.6:_ZN13Qt3DAnimation14QChannelMapper16staticMetaObjectE
libQt63DAnimation.so.6:_ZN13Qt3DAnimation14QChannelMapperC1EPN8Qt3DCore5QNodeE
libQt63DAnimation.so.6:_ZN13Qt3DAnimation14QChannelMapperC1ERNS_21QChannelMapperPrivateEPN8Qt3DCore5QNodeE
libQt63DAnimation.so.6:_ZN13Qt3DAnimation14QChannelMapperC2EPN8Qt3DCore5QNodeE
libQt63DAnimation.so.6:_ZN13Qt3DAnimation14QChannelMapperC2ERNS_21QChannelMapperPrivateEPN8Qt3DCore5QNodeE
libQt63DAnimation.so.6:_ZN13Qt3DAnimation14QChannelMapperD0Ev
libQt63DAnimation.so.6:_ZN13Qt3DAnimation14QChannelMapperD1Ev
libQt63DAnimation.so.6:_ZN13Qt3DAnimation14QChannelMapperD2Ev
libQt63DAnimation.so.6:_ZN13Qt3DAnimation14QLerpClipBlend10setEndClipEPNS_22QAbstractClipBlendNodeE
libQt63DAnimation.so.6:_ZN13Qt3DAnimation14QLerpClipBlend11qt_metacallEN11QMetaObject4CallEiPPv
libQt63DAnimation.so.6:_ZN13Qt3DAnimation14QLerpClipBlend11qt_metacastEPKc
libQt63DAnimation.so.6:_ZN13Qt3DAnimation14QLerpClipBlend12setStartClipEPNS_22QAbstractClipBlendNodeE
libQt63DAnimation.so.6:_ZN13Qt3DAnimation14QLerpClipBlend14endClipChangedEPNS_22QAbstractClipBlendNodeE
libQt63DAnimation.so.6:_ZN13Qt3DAnimation14QLerpClipBlend14setBlendFactorEf
libQt63DAnimation.so.6:_ZN13Qt3DAnimation14QLerpClipBlend16startClipChangedEPNS_22QAbstractClipBlendNodeE
libQt63DAnimation.so.6:_ZN13Qt3DAnimation14QLerpClipBlend16staticMetaObjectE
libQt63DAnimation.so.6:_ZN13Qt3DAnimation14QLerpClipBlend18blendFactorChangedEf
libQt63DAnimation.so.6:_ZN13Qt3DAnimation14QLerpClipBlendC1EPN8Qt3DCore5QNodeE
libQt63DAnimation.so.6:_ZN13Qt3DAnimation14QLerpClipBlendC1ERNS_21QLerpClipBlendPrivateEPN8Qt3DCore5QNodeE
libQt63DAnimation.so.6:_ZN13Qt3DAnimation14QLerpClipBlendC2EPN8Qt3DCore5QNodeE
libQt63DAnimation.so.6:_ZN13Qt3DAnimation14QLerpClipBlendC2ERNS_21QLerpClipBlendPrivateEPN8Qt3DCore5QNodeE
libQt63DAnimation.so.6:_ZN13Qt3DAnimation14QLerpClipBlendD0Ev
libQt63DAnimation.so.6:_ZN13Qt3DAnimation14QLerpClipBlendD1Ev
libQt63DAnimation.so.6:_ZN13Qt3DAnimation14QLerpClipBlendD2Ev
libQt63DAnimation.so.6:_ZN13Qt3DAnimation15QAnimationGroup11nameChangedERK7QString
libQt63DAnimation.so.6:_ZN13Qt3DAnimation15QAnimationGroup11qt_metacallEN11QMetaObject4CallEiPPv
libQt63DAnimation.so.6:_ZN13Qt3DAnimation15QAnimationGroup11qt_metacastEPKc
libQt63DAnimation.so.6:_ZN13Qt3DAnimation15QAnimationGroup11setPositionEf
libQt63DAnimation.so.6:_ZN13Qt3DAnimation15QAnimationGroup12addAnimationEPNS_18QAbstractAnimationE
libQt63DAnimation.so.6:_ZN13Qt3DAnimation15QAnimationGroup13animationListEv
libQt63DAnimation.so.6:_ZN13Qt3DAnimation15QAnimationGroup13setAnimationsERK5QListIPNS_18QAbstractAnimationEE
libQt63DAnimation.so.6:_ZN13Qt3DAnimation15QAnimationGroup15durationChangedEf
libQt63DAnimation.so.6:_ZN13Qt3DAnimation15QAnimationGroup15positionChangedEf
libQt63DAnimation.so.6:_ZN13Qt3DAnimation15QAnimationGroup15removeAnimationEPNS_18QAbstractAnimationE
libQt63DAnimation.so.6:_ZN13Qt3DAnimation15QAnimationGroup16staticMetaObjectE
libQt63DAnimation.so.6:_ZN13Qt3DAnimation15QAnimationGroup7setNameERK7QString
libQt63DAnimation.so.6:_ZN13Qt3DAnimation15QAnimationGroupC1EP7QObject
libQt63DAnimation.so.6:_ZN13Qt3DAnimation15QAnimationGroupC2EP7QObject
libQt63DAnimation.so.6:_ZN13Qt3DAnimation15QChannelMapping11qt_metacallEN11QMetaObject4CallEiPPv
libQt63DAnimation.so.6:_ZN13Qt3DAnimation15QChannelMapping11qt_metacastEPKc
libQt63DAnimation.so.6:_ZN13Qt3DAnimation15QChannelMapping11setPropertyERK7QString
libQt63DAnimation.so.6:_ZN13Qt3DAnimation15QChannelMapping13targetChangedEPN8Qt3DCore5QNodeE
libQt63DAnimation.so.6:_ZN13Qt3DAnimation15QChannelMapping14setChannelNameERK7QString
libQt63DAnimation.so.6:_ZN13Qt3DAnimation15QChannelMapping15propertyChangedE7QString
libQt63DAnimation.so.6:_ZN13Qt3DAnimation15QChannelMapping16staticMetaObjectE
libQt63DAnimation.so.6:_ZN13Qt3DAnimation15QChannelMapping18channelNameChangedE7QString
libQt63DAnimation.so.6:_ZN13Qt3DAnimation15QChannelMapping9setTargetEPN8Qt3DCore5QNodeE
libQt63DAnimation.so.6:_ZN13Qt3DAnimation15QChannelMappingC1EPN8Qt3DCore5QNodeE
libQt63DAnimation.so.6:_ZN13Qt3DAnimation15QChannelMappingC1ERNS_22QChannelMappingPrivateEPN8Qt3DCore5QNodeE
libQt63DAnimation.so.6:_ZN13Qt3DAnimation15QChannelMappingC2EPN8Qt3DCore5QNodeE
libQt63DAnimation.so.6:_ZN13Qt3DAnimation15QChannelMappingC2ERNS_22QChannelMappingPrivateEPN8Qt3DCore5QNodeE
libQt63DAnimation.so.6:_ZN13Qt3DAnimation15QChannelMappingD0Ev
libQt63DAnimation.so.6:_ZN13Qt3DAnimation15QChannelMappingD1Ev
libQt63DAnimation.so.6:_ZN13Qt3DAnimation15QChannelMappingD2Ev
libQt63DAnimation.so.6:_ZN13Qt3DAnimation15QClipBlendValue11clipChangedEPNS_22QAbstractAnimationClipE
libQt63DAnimation.so.6:_ZN13Qt3DAnimation15QClipBlendValue11qt_metacallEN11QMetaObject4CallEiPPv
libQt63DAnimation.so.6:_ZN13Qt3DAnimation15QClipBlendValue11qt_metacastEPKc
libQt63DAnimation.so.6:_ZN13Qt3DAnimation15QClipBlendValue16staticMetaObjectE
libQt63DAnimation.so.6:_ZN13Qt3DAnimation15QClipBlendValue7setClipEPNS_22QAbstractAnimationClipE
libQt63DAnimation.so.6:_ZN13Qt3DAnimation15QClipBlendValueC1EPN8Qt3DCore5QNodeE
libQt63DAnimation.so.6:_ZN13Qt3DAnimation15QClipBlendValueC1EPNS_22QAbstractAnimationClipEPN8Qt3DCore5QNodeE
libQt63DAnimation.so.6:_ZN13Qt3DAnimation15QClipBlendValueC1ERNS_22QClipBlendValuePrivateEPN8Qt3DCore5QNodeE
libQt63DAnimation.so.6:_ZN13Qt3DAnimation15QClipBlendValueC2EPN8Qt3DCore5QNodeE
libQt63DAnimation.so.6:_ZN13Qt3DAnimation15QClipBlendValueC2EPNS_22QAbstractAnimationClipEPN8Qt3DCore5QNodeE
libQt63DAnimation.so.6:_ZN13Qt3DAnimation15QClipBlendValueC2ERNS_22QClipBlendValuePrivateEPN8Qt3DCore5QNodeE
libQt63DAnimation.so.6:_ZN13Qt3DAnimation15QClipBlendValueD0Ev
libQt63DAnimation.so.6:_ZN13Qt3DAnimation15QClipBlendValueD1Ev
libQt63DAnimation.so.6:_ZN13Qt3DAnimation15QClipBlendValueD2Ev
libQt63DAnimation.so.6:_ZN13Qt3DAnimation16QAnimationAspect11qt_metacallEN11QMetaObject4CallEiPPv
libQt63DAnimation.so.6:_ZN13Qt3DAnimation16QAnimationAspect11qt_metacastEPKc
libQt63DAnimation.so.6:_ZN13Qt3DAnimation16QAnimationAspect13jobsToExecuteEx
libQt63DAnimation.so.6:_ZN13Qt3DAnimation16QAnimationAspect16staticMetaObjectE
libQt63DAnimation.so.6:_ZN13Qt3DAnimation16QAnimationAspectC1EP7QObject
libQt63DAnimation.so.6:_ZN13Qt3DAnimation16QAnimationAspectC1ERNS_23QAnimationAspectPrivateEP7QObject
libQt63DAnimation.so.6:_ZN13Qt3DAnimation16QAnimationAspectC2EP7QObject
libQt63DAnimation.so.6:_ZN13Qt3DAnimation16QAnimationAspectC2ERNS_23QAnimationAspectPrivateEP7QObject
libQt63DAnimation.so.6:_ZN13Qt3DAnimation16QAnimationAspectD0Ev
libQt63DAnimation.so.6:_ZN13Qt3DAnimation16QAnimationAspectD1Ev
libQt63DAnimation.so.6:_ZN13Qt3DAnimation16QAnimationAspectD2Ev
libQt63DAnimation.so.6:_ZN13Qt3DAnimation16QCallbackMapping11qt_metacallEN11QMetaObject4CallEiPPv
libQt63DAnimation.so.6:_ZN13Qt3DAnimation16QCallbackMapping11qt_metacastEPKc
libQt63DAnimation.so.6:_ZN13Qt3DAnimation16QCallbackMapping11setCallbackEiPNS_18QAnimationCallbackE6QFlagsINS1_4FlagEE
libQt63DAnimation.so.6:_ZN13Qt3DAnimation16QCallbackMapping14setChannelNameERK7QString
libQt63DAnimation.so.6:_ZN13Qt3DAnimation16QCallbackMapping16staticMetaObjectE
libQt63DAnimation.so.6:_ZN13Qt3DAnimation16QCallbackMapping18channelNameChangedE7QString
libQt63DAnimation.so.6:_ZN13Qt3DAnimation16QCallbackMappingC1EPN8Qt3DCore5QNodeE
libQt63DAnimation.so.6:_ZN13Qt3DAnimation16QCallbackMappingC1ERNS_23QCallbackMappingPrivateEPN8Qt3DCore5QNodeE
libQt63DAnimation.so.6:_ZN13Qt3DAnimation16QCallbackMappingC2EPN8Qt3DCore5QNodeE
libQt63DAnimation.so.6:_ZN13Qt3DAnimation16QCallbackMappingC2ERNS_23QCallbackMappingPrivateEPN8Qt3DCore5QNodeE
libQt63DAnimation.so.6:_ZN13Qt3DAnimation16QCallbackMappingD0Ev
libQt63DAnimation.so.6:_ZN13Qt3DAnimation16QCallbackMappingD1Ev
libQt63DAnimation.so.6:_ZN13Qt3DAnimation16QCallbackMappingD2Ev
libQt63DAnimation.so.6:_ZN13Qt3DAnimation16QSkeletonMapping11qt_metacallEN11QMetaObject4CallEiPPv
libQt63DAnimation.so.6:_ZN13Qt3DAnimation16QSkeletonMapping11qt_metacastEPKc
libQt63DAnimation.so.6:_ZN13Qt3DAnimation16QSkeletonMapping11setSkeletonEPN8Qt3DCore17QAbstractSkeletonE
libQt63DAnimation.so.6:_ZN13Qt3DAnimation16QSkeletonMapping15skeletonChangedEPN8Qt3DCore17QAbstractSkeletonE
libQt63DAnimation.so.6:_ZN13Qt3DAnimation16QSkeletonMapping16staticMetaObjectE
libQt63DAnimation.so.6:_ZN13Qt3DAnimation16QSkeletonMappingC1EPN8Qt3DCore5QNodeE
libQt63DAnimation.so.6:_ZN13Qt3DAnimation16QSkeletonMappingC1ERNS_23QSkeletonMappingPrivateEPN8Qt3DCore5QNodeE
libQt63DAnimation.so.6:_ZN13Qt3DAnimation16QSkeletonMappingC2EPN8Qt3DCore5QNodeE
libQt63DAnimation.so.6:_ZN13Qt3DAnimation16QSkeletonMappingC2ERNS_23QSkeletonMappingPrivateEPN8Qt3DCore5QNodeE
libQt63DAnimation.so.6:_ZN13Qt3DAnimation16QSkeletonMappingD0Ev
libQt63DAnimation.so.6:_ZN13Qt3DAnimation16QSkeletonMappingD1Ev
libQt63DAnimation.so.6:_ZN13Qt3DAnimation16QSkeletonMappingD2Ev
libQt63DAnimation.so.6:_ZN13Qt3DAnimation17QChannelComponent14appendKeyFrameERKNS_9QKeyFrameE
libQt63DAnimation.so.6:_ZN13Qt3DAnimation17QChannelComponent14clearKeyFramesEv
libQt63DAnimation.so.6:_ZN13Qt3DAnimation17QChannelComponent14insertKeyFrameEiRKNS_9QKeyFrameE
libQt63DAnimation.so.6:_ZN13Qt3DAnimation17QChannelComponent14removeKeyFrameEi
libQt63DAnimation.so.6:_ZN13Qt3DAnimation17QChannelComponent7setNameERK7QString
libQt63DAnimation.so.6:_ZN13Qt3DAnimation17QChannelComponentC1ERK7QString
libQt63DAnimation.so.6:_ZN13Qt3DAnimation17QChannelComponentC1ERKS0_
libQt63DAnimation.so.6:_ZN13Qt3DAnimation17QChannelComponentC1Ev
libQt63DAnimation.so.6:_ZN13Qt3DAnimation17QChannelComponentC2ERK7QString
libQt63DAnimation.so.6:_ZN13Qt3DAnimation17QChannelComponentC2ERKS0_
libQt63DAnimation.so.6:_ZN13Qt3DAnimation17QChannelComponentC2Ev
libQt63DAnimation.so.6:_ZN13Qt3DAnimation17QChannelComponentD1Ev
libQt63DAnimation.so.6:_ZN13Qt3DAnimation17QChannelComponentD2Ev
libQt63DAnimation.so.6:_ZN13Qt3DAnimation17QChannelComponentaSERKS0_
libQt63DAnimation.so.6:_ZN13Qt3DAnimation18QAbstractAnimation11qt_metacallEN11QMetaObject4CallEiPPv
libQt63DAnimation.so.6:_ZN13Qt3DAnimation18QAbstractAnimation11qt_metacastEPKc
libQt63DAnimation.so.6:_ZN13Qt3DAnimation18QAbstractAnimation11setDurationEf
libQt63DAnimation.so.6:_ZN13Qt3DAnimation18QAbstractAnimation11setPositionEf
libQt63DAnimation.so.6:_ZN13Qt3DAnimation18QAbstractAnimation15durationChangedEf
libQt63DAnimation.so.6:_ZN13Qt3DAnimation18QAbstractAnimation15positionChangedEf
libQt63DAnimation.so.6:_ZN13Qt3DAnimation18QAbstractAnimation16setAnimationNameERK7QString
libQt63DAnimation.so.6:_ZN13Qt3DAnimation18QAbstractAnimation16staticMetaObjectE
libQt63DAnimation.so.6:_ZN13Qt3DAnimation18QAbstractAnimation20animationNameChangedERK7QString
libQt63DAnimation.so.6:_ZN13Qt3DAnimation18QAbstractAnimationC1ERNS_25QAbstractAnimationPrivateEP7QObject
libQt63DAnimation.so.6:_ZN13Qt3DAnimation18QAbstractAnimationC2ERNS_25QAbstractAnimationPrivateEP7QObject
libQt63DAnimation.so.6:_ZN13Qt3DAnimation18QAdditiveClipBlend11qt_metacallEN11QMetaObject4CallEiPPv
libQt63DAnimation.so.6:_ZN13Qt3DAnimation18QAdditiveClipBlend11qt_metacastEPKc
libQt63DAnimation.so.6:_ZN13Qt3DAnimation18QAdditiveClipBlend11setBaseClipEPNS_22QAbstractClipBlendNodeE
libQt63DAnimation.so.6:_ZN13Qt3DAnimation18QAdditiveClipBlend15baseClipChangedEPNS_22QAbstractClipBlendNodeE
libQt63DAnimation.so.6:_ZN13Qt3DAnimation18QAdditiveClipBlend15setAdditiveClipEPNS_22QAbstractClipBlendNodeE
libQt63DAnimation.so.6:_ZN13Qt3DAnimation18QAdditiveClipBlend16staticMetaObjectE
libQt63DAnimation.so.6:_ZN13Qt3DAnimation18QAdditiveClipBlend17setAdditiveFactorEf
libQt63DAnimation.so.6:_ZN13Qt3DAnimation18QAdditiveClipBlend19additiveClipChangedEPNS_22QAbstractClipBlendNodeE
libQt63DAnimation.so.6:_ZN13Qt3DAnimation18QAdditiveClipBlend21additiveFactorChangedEf
libQt63DAnimation.so.6:_ZN13Qt3DAnimation18QAdditiveClipBlendC1EPN8Qt3DCore5QNodeE
libQt63DAnimation.so.6:_ZN13Qt3DAnimation18QAdditiveClipBlendC1ERNS_25QAdditiveClipBlendPrivateEPN8Qt3DCore5QNodeE
libQt63DAnimation.so.6:_ZN13Qt3DAnimation18QAdditiveClipBlendC2EPN8Qt3DCore5QNodeE
libQt63DAnimation.so.6:_ZN13Qt3DAnimation18QAdditiveClipBlendC2ERNS_25QAdditiveClipBlendPrivateEPN8Qt3DCore5QNodeE
libQt63DAnimation.so.6:_ZN13Qt3DAnimation18QAdditiveClipBlendD0Ev
libQt63DAnimation.so.6:_ZN13Qt3DAnimation18QAdditiveClipBlendD1Ev
libQt63DAnimation.so.6:_ZN13Qt3DAnimation18QAdditiveClipBlendD2Ev
libQt63DAnimation.so.6:_ZN13Qt3DAnimation18QAnimationCallbackD0Ev
libQt63DAnimation.so.6:_ZN13Qt3DAnimation18QAnimationCallbackD1Ev
libQt63DAnimation.so.6:_ZN13Qt3DAnimation18QAnimationCallbackD2Ev
libQt63DAnimation.so.6:_ZN13Qt3DAnimation18QAnimationClipData13appendChannelERKNS_8QChannelE
libQt63DAnimation.so.6:_ZN13Qt3DAnimation18QAnimationClipData13clearChannelsEv
libQt63DAnimation.so.6:_ZN13Qt3DAnimation18QAnimationClipData13insertChannelEiRKNS_8QChannelE
libQt63DAnimation.so.6:_ZN13Qt3DAnimation18QAnimationClipData13removeChannelEi
libQt63DAnimation.so.6:_ZN13Qt3DAnimation18QAnimationClipData7setNameERK7QString
libQt63DAnimation.so.6:_ZN13Qt3DAnimation18QAnimationClipDataC1ERKS0_
libQt63DAnimation.so.6:_ZN13Qt3DAnimation18QAnimationClipDataC1Ev
libQt63DAnimation.so.6:_ZN13Qt3DAnimation18QAnimationClipDataC2ERKS0_
libQt63DAnimation.so.6:_ZN13Qt3DAnimation18QAnimationClipDataC2Ev
libQt63DAnimation.so.6:_ZN13Qt3DAnimation18QAnimationClipDataD1Ev
libQt63DAnimation.so.6:_ZN13Qt3DAnimation18QAnimationClipDataD2Ev
libQt63DAnimation.so.6:_ZN13Qt3DAnimation18QAnimationClipDataaSERKS0_
libQt63DAnimation.so.6:_ZN13Qt3DAnimation18QKeyframeAnimation10setEndModeENS0_10RepeatModeE
libQt63DAnimation.so.6:_ZN13Qt3DAnimation18QKeyframeAnimation11addKeyframeEPN8Qt3DCore10QTransformE
libQt63DAnimation.so.6:_ZN13Qt3DAnimation18QKeyframeAnimation11qt_metacallEN11QMetaObject4CallEiPPv
libQt63DAnimation.so.6:_ZN13Qt3DAnimation18QKeyframeAnimation11qt_metacastEPKc
libQt63DAnimation.so.6:_ZN13Qt3DAnimation18QKeyframeAnimation12setKeyframesERK5QListIPN8Qt3DCore10QTransformEE
libQt63DAnimation.so.6:_ZN13Qt3DAnimation18QKeyframeAnimation12setStartModeENS0_10RepeatModeE
libQt63DAnimation.so.6:_ZN13Qt3DAnimation18QKeyframeAnimation13easingChangedERK12QEasingCurve
libQt63DAnimation.so.6:_ZN13Qt3DAnimation18QKeyframeAnimation13setTargetNameERK7QString
libQt63DAnimation.so.6:_ZN13Qt3DAnimation18QKeyframeAnimation13targetChangedEPN8Qt3DCore10QTransformE
libQt63DAnimation.so.6:_ZN13Qt3DAnimation18QKeyframeAnimation14endModeChangedENS0_10RepeatModeE
libQt63DAnimation.so.6:_ZN13Qt3DAnimation18QKeyframeAnimation14removeKeyframeEPN8Qt3DCore10QTransformE
libQt63DAnimation.so.6:_ZN13Qt3DAnimation18QKeyframeAnimation15updateAnimationEf
libQt63DAnimation.so.6:_ZN13Qt3DAnimation18QKeyframeAnimation16startModeChangedENS0_10RepeatModeE
libQt63DAnimation.so.6:_ZN13Qt3DAnimation18QKeyframeAnimation16staticMetaObjectE
libQt63DAnimation.so.6:_ZN13Qt3DAnimation18QKeyframeAnimation17setFramePositionsERK5QListIfE
libQt63DAnimation.so.6:_ZN13Qt3DAnimation18QKeyframeAnimation17targetNameChangedERK7QString
libQt63DAnimation.so.6:_ZN13Qt3DAnimation18QKeyframeAnimation21framePositionsChangedERK5QListIfE
libQt63DAnimation.so.6:_ZN13Qt3DAnimation18QKeyframeAnimation9setEasingERK12QEasingCurve
libQt63DAnimation.so.6:_ZN13Qt3DAnimation18QKeyframeAnimation9setTargetEPN8Qt3DCore10QTransformE
libQt63DAnimation.so.6:_ZN13Qt3DAnimation18QKeyframeAnimationC1EP7QObject
libQt63DAnimation.so.6:_ZN13Qt3DAnimation18QKeyframeAnimationC2EP7QObject
libQt63DAnimation.so.6:_ZN13Qt3DAnimation18QMorphingAnimation10getWeightsEi
libQt63DAnimation.so.6:_ZN13Qt3DAnimation18QMorphingAnimation10setWeightsEiRK5QListIfE
libQt63DAnimation.so.6:_ZN13Qt3DAnimation18QMorphingAnimation11qt_metacallEN11QMetaObject4CallEiPPv
libQt63DAnimation.so.6:_ZN13Qt3DAnimation18QMorphingAnimation11qt_metacastEPKc
libQt63DAnimation.so.6:_ZN13Qt3DAnimation18QMorphingAnimation13easingChangedERK12QEasingCurve
libQt63DAnimation.so.6:_ZN13Qt3DAnimation18QMorphingAnimation13methodChangedENS0_6MethodE
libQt63DAnimation.so.6:_ZN13Qt3DAnimation18QMorphingAnimation13setTargetNameE7QString
libQt63DAnimation.so.6:_ZN13Qt3DAnimation18QMorphingAnimation13targetChangedEPN10Qt3DRender17QGeometryRendererE
libQt63DAnimation.so.6:_ZN13Qt3DAnimation18QMorphingAnimation14addMorphTargetEPNS_12QMorphTargetE
libQt63DAnimation.so.6:_ZN13Qt3DAnimation18QMorphingAnimation15morphTargetListEv
libQt63DAnimation.so.6:_ZN13Qt3DAnimation18QMorphingAnimation15setMorphTargetsERK5QListIPNS_12QMorphTargetEE
libQt63DAnimation.so.6:_ZN13Qt3DAnimation18QMorphingAnimation15updateAnimationEf
libQt63DAnimation.so.6:_ZN13Qt3DAnimation18QMorphingAnimation16staticMetaObjectE
libQt63DAnimation.so.6:_ZN13Qt3DAnimation18QMorphingAnimation17removeMorphTargetEPNS_12QMorphTargetE
libQt63DAnimation.so.6:_ZN13Qt3DAnimation18QMorphingAnimation17targetNameChangedERK7QString
libQt63DAnimation.so.6:_ZN13Qt3DAnimation18QMorphingAnimation18setTargetPositionsERK5QListIfE
libQt63DAnimation.so.6:_ZN13Qt3DAnimation18QMorphingAnimation19interpolatorChangedEf
libQt63DAnimation.so.6:_ZN13Qt3DAnimation18QMorphingAnimation22targetPositionsChangedERK5QListIfE
libQt63DAnimation.so.6:_ZN13Qt3DAnimation18QMorphingAnimation9setEasingERK12QEasingCurve
libQt63DAnimation.so.6:_ZN13Qt3DAnimation18QMorphingAnimation9setMethodENS0_6MethodE
libQt63DAnimation.so.6:_ZN13Qt3DAnimation18QMorphingAnimation9setTargetEPN10Qt3DRender17QGeometryRendererE
libQt63DAnimation.so.6:_ZN13Qt3DAnimation18QMorphingAnimationC1EP7QObject
libQt63DAnimation.so.6:_ZN13Qt3DAnimation18QMorphingAnimationC2EP7QObject
libQt63DAnimation.so.6:_ZN13Qt3DAnimation20QAnimationClipLoader11qt_metacallEN11QMetaObject4CallEiPPv
libQt63DAnimation.so.6:_ZN13Qt3DAnimation20QAnimationClipLoader11qt_metacastEPKc
libQt63DAnimation.so.6:_ZN13Qt3DAnimation20QAnimationClipLoader13sourceChangedERK4QUrl
libQt63DAnimation.so.6:_ZN13Qt3DAnimation20QAnimationClipLoader13statusChangedENS0_6StatusE
libQt63DAnimation.so.6:_ZN13Qt3DAnimation20QAnimationClipLoader16staticMetaObjectE
libQt63DAnimation.so.6:_ZN13Qt3DAnimation20QAnimationClipLoader9setSourceERK4QUrl
libQt63DAnimation.so.6:_ZN13Qt3DAnimation20QAnimationClipLoaderC1EPN8Qt3DCore5QNodeE
libQt63DAnimation.so.6:_ZN13Qt3DAnimation20QAnimationClipLoaderC1ERK4QUrlPN8Qt3DCore5QNodeE
libQt63DAnimation.so.6:_ZN13Qt3DAnimation20QAnimationClipLoaderC1ERNS_27QAnimationClipLoaderPrivateEPN8Qt3DCore5QNodeE
libQt63DAnimation.so.6:_ZN13Qt3DAnimation20QAnimationClipLoaderC2EPN8Qt3DCore5QNodeE
libQt63DAnimation.so.6:_ZN13Qt3DAnimation20QAnimationClipLoaderC2ERK4QUrlPN8Qt3DCore5QNodeE
libQt63DAnimation.so.6:_ZN13Qt3DAnimation20QAnimationClipLoaderC2ERNS_27QAnimationClipLoaderPrivateEPN8Qt3DCore5QNodeE
libQt63DAnimation.so.6:_ZN13Qt3DAnimation20QAnimationClipLoaderD0Ev
libQt63DAnimation.so.6:_ZN13Qt3DAnimation20QAnimationClipLoaderD1Ev
libQt63DAnimation.so.6:_ZN13Qt3DAnimation20QAnimationClipLoaderD2Ev
libQt63DAnimation.so.6:_ZN13Qt3DAnimation20QAnimationController11qt_metacallEN11QMetaObject4CallEiPPv
libQt63DAnimation.so.6:_ZN13Qt3DAnimation20QAnimationController11qt_metacastEPKc
libQt63DAnimation.so.6:_ZN13Qt3DAnimation20QAnimationController11setPositionEf
libQt63DAnimation.so.6:_ZN13Qt3DAnimation20QAnimationController12setRecursiveEb
libQt63DAnimation.so.6:_ZN13Qt3DAnimation20QAnimationController13entityChangedEPN8Qt3DCore7QEntityE
libQt63DAnimation.so.6:_ZN13Qt3DAnimation20QAnimationController15positionChangedEf
libQt63DAnimation.so.6:_ZN13Qt3DAnimation20QAnimationController16recursiveChangedEb
libQt63DAnimation.so.6:_ZN13Qt3DAnimation20QAnimationController16setPositionScaleEf
libQt63DAnimation.so.6:_ZN13Qt3DAnimation20QAnimationController16staticMetaObjectE
libQt63DAnimation.so.6:_ZN13Qt3DAnimation20QAnimationController17addAnimationGroupEPNS_15QAnimationGroupE
libQt63DAnimation.so.6:_ZN13Qt3DAnimation20QAnimationController17setPositionOffsetEf
libQt63DAnimation.so.6:_ZN13Qt3DAnimation20QAnimationController18animationGroupListEv
libQt63DAnimation.so.6:_ZN13Qt3DAnimation20QAnimationController18setAnimationGroupsERK5QListIPNS_15QAnimationGroupEE
libQt63DAnimation.so.6:_ZN13Qt3DAnimation20QAnimationController20positionScaleChangedEf
libQt63DAnimation.so.6:_ZN13Qt3DAnimation20QAnimationController20removeAnimationGroupEPNS_15QAnimationGroupE
libQt63DAnimation.so.6:_ZN13Qt3DAnimation20QAnimationController21positionOffsetChangedEf
libQt63DAnimation.so.6:_ZN13Qt3DAnimation20QAnimationController23setActiveAnimationGroupEi
libQt63DAnimation.so.6:_ZN13Qt3DAnimation20QAnimationController27activeAnimationGroupChangedEi
libQt63DAnimation.so.6:_ZN13Qt3DAnimation20QAnimationController9setEntityEPN8Qt3DCore7QEntityE
libQt63DAnimation.so.6:_ZN13Qt3DAnimation20QAnimationControllerC1EP7QObject
libQt63DAnimation.so.6:_ZN13Qt3DAnimation20QAnimationControllerC2EP7QObject
libQt63DAnimation.so.6:_ZN13Qt3DAnimation20QBlendedClipAnimator11qt_metacallEN11QMetaObject4CallEiPPv
libQt63DAnimation.so.6:_ZN13Qt3DAnimation20QBlendedClipAnimator11qt_metacastEPKc
libQt63DAnimation.so.6:_ZN13Qt3DAnimation20QBlendedClipAnimator12setBlendTreeEPNS_22QAbstractClipBlendNodeE
libQt63DAnimation.so.6:_ZN13Qt3DAnimation20QBlendedClipAnimator16blendTreeChangedEPNS_22QAbstractClipBlendNodeE
libQt63DAnimation.so.6:_ZN13Qt3DAnimation20QBlendedClipAnimator16staticMetaObjectE
libQt63DAnimation.so.6:_ZN13Qt3DAnimation20QBlendedClipAnimatorC1EPN8Qt3DCore5QNodeE
libQt63DAnimation.so.6:_ZN13Qt3DAnimation20QBlendedClipAnimatorC1ERNS_27QBlendedClipAnimatorPrivateEPN8Qt3DCore5QNodeE
libQt63DAnimation.so.6:_ZN13Qt3DAnimation20QBlendedClipAnimatorC2EPN8Qt3DCore5QNodeE
libQt63DAnimation.so.6:_ZN13Qt3DAnimation20QBlendedClipAnimatorC2ERNS_27QBlendedClipAnimatorPrivateEPN8Qt3DCore5QNodeE
libQt63DAnimation.so.6:_ZN13Qt3DAnimation20QBlendedClipAnimatorD0Ev
libQt63DAnimation.so.6:_ZN13Qt3DAnimation20QBlendedClipAnimatorD1Ev
libQt63DAnimation.so.6:_ZN13Qt3DAnimation20QBlendedClipAnimatorD2Ev
libQt63DAnimation.so.6:_ZN13Qt3DAnimation21QAbstractClipAnimator10setRunningEb
libQt63DAnimation.so.6:_ZN13Qt3DAnimation21QAbstractClipAnimator11qt_metacallEN11QMetaObject4CallEiPPv
libQt63DAnimation.so.6:_ZN13Qt3DAnimation21QAbstractClipAnimator11qt_metacastEPKc
libQt63DAnimation.so.6:_ZN13Qt3DAnimation21QAbstractClipAnimator12clockChangedEPNS_6QClockE
libQt63DAnimation.so.6:_ZN13Qt3DAnimation21QAbstractClipAnimator12setLoopCountEi
libQt63DAnimation.so.6:_ZN13Qt3DAnimation21QAbstractClipAnimator14runningChangedEb
libQt63DAnimation.so.6:_ZN13Qt3DAnimation21QAbstractClipAnimator16loopCountChangedEi
libQt63DAnimation.so.6:_ZN13Qt3DAnimation21QAbstractClipAnimator16setChannelMapperEPNS_14QChannelMapperE
libQt63DAnimation.so.6:_ZN13Qt3DAnimation21QAbstractClipAnimator16staticMetaObjectE
libQt63DAnimation.so.6:_ZN13Qt3DAnimation21QAbstractClipAnimator17setNormalizedTimeEf
libQt63DAnimation.so.6:_ZN13Qt3DAnimation21QAbstractClipAnimator20channelMapperChangedEPNS_14QChannelMapperE
libQt63DAnimation.so.6:_ZN13Qt3DAnimation21QAbstractClipAnimator21normalizedTimeChangedEf
libQt63DAnimation.so.6:_ZN13Qt3DAnimation21QAbstractClipAnimator4stopEv
libQt63DAnimation.so.6:_ZN13Qt3DAnimation21QAbstractClipAnimator5startEv
libQt63DAnimation.so.6:_ZN13Qt3DAnimation21QAbstractClipAnimator8setClockEPNS_6QClockE
libQt63DAnimation.so.6:_ZN13Qt3DAnimation21QAbstractClipAnimatorC1EPN8Qt3DCore5QNodeE
libQt63DAnimation.so.6:_ZN13Qt3DAnimation21QAbstractClipAnimatorC1ERNS_28QAbstractClipAnimatorPrivateEPN8Qt3DCore5QNodeE
libQt63DAnimation.so.6:_ZN13Qt3DAnimation21QAbstractClipAnimatorC2EPN8Qt3DCore5QNodeE
libQt63DAnimation.so.6:_ZN13Qt3DAnimation21QAbstractClipAnimatorC2ERNS_28QAbstractClipAnimatorPrivateEPN8Qt3DCore5QNodeE
libQt63DAnimation.so.6:_ZN13Qt3DAnimation21QAbstractClipAnimatorD0Ev
libQt63DAnimation.so.6:_ZN13Qt3DAnimation21QAbstractClipAnimatorD1Ev
libQt63DAnimation.so.6:_ZN13Qt3DAnimation21QAbstractClipAnimatorD2Ev
libQt63DAnimation.so.6:_ZN13Qt3DAnimation21QVertexBlendAnimation11qt_metacallEN11QMetaObject4CallEiPPv
libQt63DAnimation.so.6:_ZN13Qt3DAnimation21QVertexBlendAnimation11qt_metacastEPKc
libQt63DAnimation.so.6:_ZN13Qt3DAnimation21QVertexBlendAnimation13setTargetNameE7QString
libQt63DAnimation.so.6:_ZN13Qt3DAnimation21QVertexBlendAnimation13targetChangedEPN10Qt3DRender17QGeometryRendererE
libQt63DAnimation.so.6:_ZN13Qt3DAnimation21QVertexBlendAnimation14addMorphTargetEPNS_12QMorphTargetE
libQt63DAnimation.so.6:_ZN13Qt3DAnimation21QVertexBlendAnimation15morphTargetListEv
libQt63DAnimation.so.6:_ZN13Qt3DAnimation21QVertexBlendAnimation15setMorphTargetsERK5QListIPNS_12QMorphTargetEE
libQt63DAnimation.so.6:_ZN13Qt3DAnimation21QVertexBlendAnimation15updateAnimationEf
libQt63DAnimation.so.6:_ZN13Qt3DAnimation21QVertexBlendAnimation16staticMetaObjectE
libQt63DAnimation.so.6:_ZN13Qt3DAnimation21QVertexBlendAnimation17removeMorphTargetEPNS_12QMorphTargetE
libQt63DAnimation.so.6:_ZN13Qt3DAnimation21QVertexBlendAnimation17targetNameChangedERK7QString
libQt63DAnimation.so.6:_ZN13Qt3DAnimation21QVertexBlendAnimation18setTargetPositionsERK5QListIfE
libQt63DAnimation.so.6:_ZN13Qt3DAnimation21QVertexBlendAnimation19interpolatorChangedEf
libQt63DAnimation.so.6:_ZN13Qt3DAnimation21QVertexBlendAnimation22targetPositionsChangedERK5QListIfE
libQt63DAnimation.so.6:_ZN13Qt3DAnimation21QVertexBlendAnimation9setTargetEPN10Qt3DRender17QGeometryRendererE
libQt63DAnimation.so.6:_ZN13Qt3DAnimation21QVertexBlendAnimationC1EP7QObject
libQt63DAnimation.so.6:_ZN13Qt3DAnimation21QVertexBlendAnimationC2EP7QObject
libQt63DAnimation.so.6:_ZN13Qt3DAnimation22QAbstractAnimationClip11qt_metacallEN11QMetaObject4CallEiPPv
libQt63DAnimation.so.6:_ZN13Qt3DAnimation22QAbstractAnimationClip11qt_metacastEPKc
libQt63DAnimation.so.6:_ZN13Qt3DAnimation22QAbstractAnimationClip15durationChangedEf
libQt63DAnimation.so.6:_ZN13Qt3DAnimation22QAbstractAnimationClip16staticMetaObjectE
libQt63DAnimation.so.6:_ZN13Qt3DAnimation22QAbstractAnimationClipC1ERNS_29QAbstractAnimationClipPrivateEPN8Qt3DCore5QNodeE
libQt63DAnimation.so.6:_ZN13Qt3DAnimation22QAbstractAnimationClipC2ERNS_29QAbstractAnimationClipPrivateEPN8Qt3DCore5QNodeE
libQt63DAnimation.so.6:_ZN13Qt3DAnimation22QAbstractAnimationClipD0Ev
libQt63DAnimation.so.6:_ZN13Qt3DAnimation22QAbstractAnimationClipD1Ev
libQt63DAnimation.so.6:_ZN13Qt3DAnimation22QAbstractAnimationClipD2Ev
libQt63DAnimation.so.6:_ZN13Qt3DAnimation22QAbstractClipBlendNode11qt_metacallEN11QMetaObject4CallEiPPv
libQt63DAnimation.so.6:_ZN13Qt3DAnimation22QAbstractClipBlendNode11qt_metacastEPKc
libQt63DAnimation.so.6:_ZN13Qt3DAnimation22QAbstractClipBlendNode16staticMetaObjectE
libQt63DAnimation.so.6:_ZN13Qt3DAnimation22QAbstractClipBlendNodeC1EPN8Qt3DCore5QNodeE
libQt63DAnimation.so.6:_ZN13Qt3DAnimation22QAbstractClipBlendNodeC1ERNS_29QAbstractClipBlendNodePrivateEPN8Qt3DCore5QNodeE
libQt63DAnimation.so.6:_ZN13Qt3DAnimation22QAbstractClipBlendNodeC2EPN8Qt3DCore5QNodeE
libQt63DAnimation.so.6:_ZN13Qt3DAnimation22QAbstractClipBlendNodeC2ERNS_29QAbstractClipBlendNodePrivateEPN8Qt3DCore5QNodeE
libQt63DAnimation.so.6:_ZN13Qt3DAnimation22QAbstractClipBlendNodeD0Ev
libQt63DAnimation.so.6:_ZN13Qt3DAnimation22QAbstractClipBlendNodeD1Ev
libQt63DAnimation.so.6:_ZN13Qt3DAnimation22QAbstractClipBlendNodeD2Ev
libQt63DAnimation.so.6:_ZN13Qt3DAnimation23QAbstractChannelMapping11qt_metacallEN11QMetaObject4CallEiPPv
libQt63DAnimation.so.6:_ZN13Qt3DAnimation23QAbstractChannelMapping11qt_metacastEPKc
libQt63DAnimation.so.6:_ZN13Qt3DAnimation23QAbstractChannelMapping16staticMetaObjectE
libQt63DAnimation.so.6:_ZN13Qt3DAnimation23QAbstractChannelMappingC1ERNS_30QAbstractChannelMappingPrivateEPN8Qt3DCore5QNodeE
libQt63DAnimation.so.6:_ZN13Qt3DAnimation23QAbstractChannelMappingC2ERNS_30QAbstractChannelMappingPrivateEPN8Qt3DCore5QNodeE
libQt63DAnimation.so.6:_ZN13Qt3DAnimation23QAbstractChannelMappingD0Ev
libQt63DAnimation.so.6:_ZN13Qt3DAnimation23QAbstractChannelMappingD1Ev
libQt63DAnimation.so.6:_ZN13Qt3DAnimation23QAbstractChannelMappingD2Ev
libQt63DAnimation.so.6:_ZN13Qt3DAnimation6QClock11qt_metacallEN11QMetaObject4CallEiPPv
libQt63DAnimation.so.6:_ZN13Qt3DAnimation6QClock11qt_metacastEPKc
libQt63DAnimation.so.6:_ZN13Qt3DAnimation6QClock15setPlaybackRateEd
libQt63DAnimation.so.6:_ZN13Qt3DAnimation6QClock16staticMetaObjectE
libQt63DAnimation.so.6:_ZN13Qt3DAnimation6QClock19playbackRateChangedEd
libQt63DAnimation.so.6:_ZN13Qt3DAnimation6QClockC1EPN8Qt3DCore5QNodeE
libQt63DAnimation.so.6:_ZN13Qt3DAnimation6QClockC1ERNS_13QClockPrivateEPN8Qt3DCore5QNodeE
libQt63DAnimation.so.6:_ZN13Qt3DAnimation6QClockC2EPN8Qt3DCore5QNodeE
libQt63DAnimation.so.6:_ZN13Qt3DAnimation6QClockC2ERNS_13QClockPrivateEPN8Qt3DCore5QNodeE
libQt63DAnimation.so.6:_ZN13Qt3DAnimation6QClockD0Ev
libQt63DAnimation.so.6:_ZN13Qt3DAnimation6QClockD1Ev
libQt63DAnimation.so.6:_ZN13Qt3DAnimation6QClockD2Ev
libQt63DAnimation.so.6:_ZN13Qt3DAnimation8QChannel13setJointIndexEi
libQt63DAnimation.so.6:_ZN13Qt3DAnimation8QChannel22appendChannelComponentERKNS_17QChannelComponentE
libQt63DAnimation.so.6:_ZN13Qt3DAnimation8QChannel22clearChannelComponentsEv
libQt63DAnimation.so.6:_ZN13Qt3DAnimation8QChannel22insertChannelComponentEiRKNS_17QChannelComponentE
libQt63DAnimation.so.6:_ZN13Qt3DAnimation8QChannel22removeChannelComponentEi
libQt63DAnimation.so.6:_ZN13Qt3DAnimation8QChannel7setNameERK7QString
libQt63DAnimation.so.6:_ZN13Qt3DAnimation8QChannelC1ERK7QString
libQt63DAnimation.so.6:_ZN13Qt3DAnimation8QChannelC1ERKS0_
libQt63DAnimation.so.6:_ZN13Qt3DAnimation8QChannelC1Ev
libQt63DAnimation.so.6:_ZN13Qt3DAnimation8QChannelC2ERK7QString
libQt63DAnimation.so.6:_ZN13Qt3DAnimation8QChannelC2ERKS0_
libQt63DAnimation.so.6:_ZN13Qt3DAnimation8QChannelC2Ev
libQt63DAnimation.so.6:_ZN13Qt3DAnimation8QChannelD1Ev
libQt63DAnimation.so.6:_ZN13Qt3DAnimation8QChannelD2Ev
libQt63DAnimation.so.6:_ZN13Qt3DAnimation8QChannelaSERKS0_
libQt63DAnimation.so.6:_ZN13Qt3DAnimationeqERKNS_17QChannelComponentES2_
libQt63DAnimation.so.6:_ZN13Qt3DAnimationeqERKNS_18QAnimationClipDataES2_
libQt63DAnimation.so.6:_ZN13Qt3DAnimationeqERKNS_8QChannelES2_
libQt63DAnimation.so.6:_ZN13Qt3DAnimationneERKNS_17QChannelComponentES2_
libQt63DAnimation.so.6:_ZN13Qt3DAnimationneERKNS_18QAnimationClipDataES2_
libQt63DAnimation.so.6:_ZN13Qt3DAnimationneERKNS_8QChannelES2_
libQt63DAnimation.so.6:_ZNK13Qt3DAnimation12QMorphTarget10metaObjectEv
libQt63DAnimation.so.6:_ZNK13Qt3DAnimation12QMorphTarget13attributeListEv
libQt63DAnimation.so.6:_ZNK13Qt3DAnimation12QMorphTarget14attributeNamesEv
libQt63DAnimation.so.6:_ZNK13Qt3DAnimation13QClipAnimator10metaObjectEv
libQt63DAnimation.so.6:_ZNK13Qt3DAnimation13QClipAnimator4clipEv
libQt63DAnimation.so.6:_ZNK13Qt3DAnimation14QAnimationClip10metaObjectEv
libQt63DAnimation.so.6:_ZNK13Qt3DAnimation14QAnimationClip8clipDataEv
libQt63DAnimation.so.6:_ZNK13Qt3DAnimation14QChannelMapper10metaObjectEv
libQt63DAnimation.so.6:_ZNK13Qt3DAnimation14QChannelMapper8mappingsEv
libQt63DAnimation.so.6:_ZNK13Qt3DAnimation14QLerpClipBlend10metaObjectEv
libQt63DAnimation.so.6:_ZNK13Qt3DAnimation14QLerpClipBlend11blendFactorEv
libQt63DAnimation.so.6:_ZNK13Qt3DAnimation14QLerpClipBlend7endClipEv
libQt63DAnimation.so.6:_ZNK13Qt3DAnimation14QLerpClipBlend9startClipEv
libQt63DAnimation.so.6:_ZNK13Qt3DAnimation15QAnimationGroup10metaObjectEv
libQt63DAnimation.so.6:_ZNK13Qt3DAnimation15QAnimationGroup4nameEv
libQt63DAnimation.so.6:_ZNK13Qt3DAnimation15QAnimationGroup8durationEv
libQt63DAnimation.so.6:_ZNK13Qt3DAnimation15QAnimationGroup8positionEv
libQt63DAnimation.so.6:_ZNK13Qt3DAnimation15QChannelMapping10metaObjectEv
libQt63DAnimation.so.6:_ZNK13Qt3DAnimation15QChannelMapping11channelNameEv
libQt63DAnimation.so.6:_ZNK13Qt3DAnimation15QChannelMapping6targetEv
libQt63DAnimation.so.6:_ZNK13Qt3DAnimation15QChannelMapping8propertyEv
libQt63DAnimation.so.6:_ZNK13Qt3DAnimation15QClipBlendValue10metaObjectEv
libQt63DAnimation.so.6:_ZNK13Qt3DAnimation15QClipBlendValue4clipEv
libQt63DAnimation.so.6:_ZNK13Qt3DAnimation16QAnimationAspect10metaObjectEv
libQt63DAnimation.so.6:_ZNK13Qt3DAnimation16QCallbackMapping10metaObjectEv
libQt63DAnimation.so.6:_ZNK13Qt3DAnimation16QCallbackMapping11channelNameEv
libQt63DAnimation.so.6:_ZNK13Qt3DAnimation16QCallbackMapping8callbackEv
libQt63DAnimation.so.6:_ZNK13Qt3DAnimation16QSkeletonMapping10metaObjectEv
libQt63DAnimation.so.6:_ZNK13Qt3DAnimation16QSkeletonMapping8skeletonEv
libQt63DAnimation.so.6:_ZNK13Qt3DAnimation17QChannelComponent13keyFrameCountEv
libQt63DAnimation.so.6:_ZNK13Qt3DAnimation17QChannelComponent3endEv
libQt63DAnimation.so.6:_ZNK13Qt3DAnimation17QChannelComponent4nameEv
libQt63DAnimation.so.6:_ZNK13Qt3DAnimation17QChannelComponent5beginEv
libQt63DAnimation.so.6:_ZNK13Qt3DAnimation18QAbstractAnimation10metaObjectEv
libQt63DAnimation.so.6:_ZNK13Qt3DAnimation18QAbstractAnimation13animationNameEv
libQt63DAnimation.so.6:_ZNK13Qt3DAnimation18QAbstractAnimation13animationTypeEv
libQt63DAnimation.so.6:_ZNK13Qt3DAnimation18QAbstractAnimation8durationEv
libQt63DAnimation.so.6:_ZNK13Qt3DAnimation18QAbstractAnimation8positionEv
libQt63DAnimation.so.6:_ZNK13Qt3DAnimation18QAdditiveClipBlend10metaObjectEv
libQt63DAnimation.so.6:_ZNK13Qt3DAnimation18QAdditiveClipBlend12additiveClipEv
libQt63DAnimation.so.6:_ZNK13Qt3DAnimation18QAdditiveClipBlend14additiveFactorEv
libQt63DAnimation.so.6:_ZNK13Qt3DAnimation18QAdditiveClipBlend8baseClipEv
libQt63DAnimation.so.6:_ZNK13Qt3DAnimation18QAnimationClipData12channelCountEv
libQt63DAnimation.so.6:_ZNK13Qt3DAnimation18QAnimationClipData3endEv
libQt63DAnimation.so.6:_ZNK13Qt3DAnimation18QAnimationClipData4nameEv
libQt63DAnimation.so.6:_ZNK13Qt3DAnimation18QAnimationClipData5beginEv
libQt63DAnimation.so.6:_ZNK13Qt3DAnimation18QAnimationClipData7isValidEv
libQt63DAnimation.so.6:_ZNK13Qt3DAnimation18QKeyframeAnimation10metaObjectEv
libQt63DAnimation.so.6:_ZNK13Qt3DAnimation18QKeyframeAnimation10targetNameEv
libQt63DAnimation.so.6:_ZNK13Qt3DAnimation18QKeyframeAnimation12keyframeListEv
libQt63DAnimation.so.6:_ZNK13Qt3DAnimation18QKeyframeAnimation14framePositionsEv
libQt63DAnimation.so.6:_ZNK13Qt3DAnimation18QKeyframeAnimation6easingEv
libQt63DAnimation.so.6:_ZNK13Qt3DAnimation18QKeyframeAnimation6targetEv
libQt63DAnimation.so.6:_ZNK13Qt3DAnimation18QKeyframeAnimation7endModeEv
libQt63DAnimation.so.6:_ZNK13Qt3DAnimation18QKeyframeAnimation9startModeEv
libQt63DAnimation.so.6:_ZNK13Qt3DAnimation18QMorphingAnimation10metaObjectEv
libQt63DAnimation.so.6:_ZNK13Qt3DAnimation18QMorphingAnimation10targetNameEv
libQt63DAnimation.so.6:_ZNK13Qt3DAnimation18QMorphingAnimation12interpolatorEv
libQt63DAnimation.so.6:_ZNK13Qt3DAnimation18QMorphingAnimation15targetPositionsEv
libQt63DAnimation.so.6:_ZNK13Qt3DAnimation18QMorphingAnimation6easingEv
libQt63DAnimation.so.6:_ZNK13Qt3DAnimation18QMorphingAnimation6methodEv
libQt63DAnimation.so.6:_ZNK13Qt3DAnimation18QMorphingAnimation6targetEv
libQt63DAnimation.so.6:_ZNK13Qt3DAnimation20QAnimationClipLoader10metaObjectEv
libQt63DAnimation.so.6:_ZNK13Qt3DAnimation20QAnimationClipLoader6sourceEv
libQt63DAnimation.so.6:_ZNK13Qt3DAnimation20QAnimationClipLoader6statusEv
libQt63DAnimation.so.6:_ZNK13Qt3DAnimation20QAnimationController10metaObjectEv
libQt63DAnimation.so.6:_ZNK13Qt3DAnimation20QAnimationController13positionScaleEv
libQt63DAnimation.so.6:_ZNK13Qt3DAnimation20QAnimationController14positionOffsetEv
libQt63DAnimation.so.6:_ZNK13Qt3DAnimation20QAnimationController17getAnimationIndexERK7QString
libQt63DAnimation.so.6:_ZNK13Qt3DAnimation20QAnimationController20activeAnimationGroupEv
libQt63DAnimation.so.6:_ZNK13Qt3DAnimation20QAnimationController6entityEv
libQt63DAnimation.so.6:_ZNK13Qt3DAnimation20QAnimationController8getGroupEi
libQt63DAnimation.so.6:_ZNK13Qt3DAnimation20QAnimationController8positionEv
libQt63DAnimation.so.6:_ZNK13Qt3DAnimation20QAnimationController9recursiveEv
libQt63DAnimation.so.6:_ZNK13Qt3DAnimation20QBlendedClipAnimator10metaObjectEv
libQt63DAnimation.so.6:_ZNK13Qt3DAnimation20QBlendedClipAnimator9blendTreeEv
libQt63DAnimation.so.6:_ZNK13Qt3DAnimation21QAbstractClipAnimator10metaObjectEv
libQt63DAnimation.so.6:_ZNK13Qt3DAnimation21QAbstractClipAnimator13channelMapperEv
libQt63DAnimation.so.6:_ZNK13Qt3DAnimation21QAbstractClipAnimator14normalizedTimeEv
libQt63DAnimation.so.6:_ZNK13Qt3DAnimation21QAbstractClipAnimator5clockEv
libQt63DAnimation.so.6:_ZNK13Qt3DAnimation21QAbstractClipAnimator9isRunningEv
libQt63DAnimation.so.6:_ZNK13Qt3DAnimation21QAbstractClipAnimator9loopCountEv
libQt63DAnimation.so.6:_ZNK13Qt3DAnimation21QVertexBlendAnimation10metaObjectEv
libQt63DAnimation.so.6:_ZNK13Qt3DAnimation21QVertexBlendAnimation10targetNameEv
libQt63DAnimation.so.6:_ZNK13Qt3DAnimation21QVertexBlendAnimation12interpolatorEv
libQt63DAnimation.so.6:_ZNK13Qt3DAnimation21QVertexBlendAnimation15targetPositionsEv
libQt63DAnimation.so.6:_ZNK13Qt3DAnimation21QVertexBlendAnimation6targetEv
libQt63DAnimation.so.6:_ZNK13Qt3DAnimation22QAbstractAnimationClip10metaObjectEv
libQt63DAnimation.so.6:_ZNK13Qt3DAnimation22QAbstractAnimationClip8durationEv
libQt63DAnimation.so.6:_ZNK13Qt3DAnimation22QAbstractClipBlendNode10metaObjectEv
libQt63DAnimation.so.6:_ZNK13Qt3DAnimation23QAbstractChannelMapping10metaObjectEv
libQt63DAnimation.so.6:_ZNK13Qt3DAnimation6QClock10metaObjectEv
libQt63DAnimation.so.6:_ZNK13Qt3DAnimation6QClock12playbackRateEv
libQt63DAnimation.so.6:_ZNK13Qt3DAnimation8QChannel10jointIndexEv
libQt63DAnimation.so.6:_ZNK13Qt3DAnimation8QChannel21channelComponentCountEv
libQt63DAnimation.so.6:_ZNK13Qt3DAnimation8QChannel3endEv
libQt63DAnimation.so.6:_ZNK13Qt3DAnimation8QChannel4nameEv
libQt63DAnimation.so.6:_ZNK13Qt3DAnimation8QChannel5beginEv
libQt63DAnimation.so.6:_ZTIN13Qt3DAnimation12QMorphTargetE
libQt63DAnimation.so.6:_ZTIN13Qt3DAnimation13QClipAnimatorE
libQt63DAnimation.so.6:_ZTIN13Qt3DAnimation14QAnimationClipE
libQt63DAnimation.so.6:_ZTIN13Qt3DAnimation14QChannelMapperE
libQt63DAnimation.so.6:_ZTIN13Qt3DAnimation14QLerpClipBlendE
libQt63DAnimation.so.6:_ZTIN13Qt3DAnimation15QAnimationGroupE
libQt63DAnimation.so.6:_ZTIN13Qt3DAnimation15QChannelMappingE
libQt63DAnimation.so.6:_ZTIN13Qt3DAnimation15QClipBlendValueE
libQt63DAnimation.so.6:_ZTIN13Qt3DAnimation16QAnimationAspectE
libQt63DAnimation.so.6:_ZTIN13Qt3DAnimation16QCallbackMappingE
libQt63DAnimation.so.6:_ZTIN13Qt3DAnimation16QSkeletonMappingE
libQt63DAnimation.so.6:_ZTIN13Qt3DAnimation18QAbstractAnimationE
libQt63DAnimation.so.6:_ZTIN13Qt3DAnimation18QAdditiveClipBlendE
libQt63DAnimation.so.6:_ZTIN13Qt3DAnimation18QAnimationCallbackE
libQt63DAnimation.so.6:_ZTIN13Qt3DAnimation18QKeyframeAnimationE
libQt63DAnimation.so.6:_ZTIN13Qt3DAnimation18QMorphingAnimationE
libQt63DAnimation.so.6:_ZTIN13Qt3DAnimation20QAnimationClipLoaderE
libQt63DAnimation.so.6:_ZTIN13Qt3DAnimation20QAnimationControllerE
libQt63DAnimation.so.6:_ZTIN13Qt3DAnimation20QBlendedClipAnimatorE
libQt63DAnimation.so.6:_ZTIN13Qt3DAnimation21QAbstractClipAnimatorE
libQt63DAnimation.so.6:_ZTIN13Qt3DAnimation21QVertexBlendAnimationE
libQt63DAnimation.so.6:_ZTIN13Qt3DAnimation22QAbstractAnimationClipE
libQt63DAnimation.so.6:_ZTIN13Qt3DAnimation22QAbstractClipBlendNodeE
libQt63DAnimation.so.6:_ZTIN13Qt3DAnimation23QAbstractChannelMappingE
libQt63DAnimation.so.6:_ZTIN13Qt3DAnimation6QClockE
libQt63DAnimation.so.6:_ZTSN13Qt3DAnimation12QMorphTargetE
libQt63DAnimation.so.6:_ZTSN13Qt3DAnimation13QClipAnimatorE
libQt63DAnimation.so.6:_ZTSN13Qt3DAnimation14QAnimationClipE
libQt63DAnimation.so.6:_ZTSN13Qt3DAnimation14QChannelMapperE
libQt63DAnimation.so.6:_ZTSN13Qt3DAnimation14QLerpClipBlendE
libQt63DAnimation.so.6:_ZTSN13Qt3DAnimation15QAnimationGroupE
libQt63DAnimation.so.6:_ZTSN13Qt3DAnimation15QChannelMappingE
libQt63DAnimation.so.6:_ZTSN13Qt3DAnimation15QClipBlendValueE
libQt63DAnimation.so.6:_ZTSN13Qt3DAnimation16QAnimationAspectE
libQt63DAnimation.so.6:_ZTSN13Qt3DAnimation16QCallbackMappingE
libQt63DAnimation.so.6:_ZTSN13Qt3DAnimation16QSkeletonMappingE
libQt63DAnimation.so.6:_ZTSN13Qt3DAnimation18QAbstractAnimationE
libQt63DAnimation.so.6:_ZTSN13Qt3DAnimation18QAdditiveClipBlendE
libQt63DAnimation.so.6:_ZTSN13Qt3DAnimation18QAnimationCallbackE
libQt63DAnimation.so.6:_ZTSN13Qt3DAnimation18QKeyframeAnimationE
libQt63DAnimation.so.6:_ZTSN13Qt3DAnimation18QMorphingAnimationE
libQt63DAnimation.so.6:_ZTSN13Qt3DAnimation20QAnimationClipLoaderE
libQt63DAnimation.so.6:_ZTSN13Qt3DAnimation20QAnimationControllerE
libQt63DAnimation.so.6:_ZTSN13Qt3DAnimation20QBlendedClipAnimatorE
libQt63DAnimation.so.6:_ZTSN13Qt3DAnimation21QAbstractClipAnimatorE
libQt63DAnimation.so.6:_ZTSN13Qt3DAnimation21QVertexBlendAnimationE
libQt63DAnimation.so.6:_ZTSN13Qt3DAnimation22QAbstractAnimationClipE
libQt63DAnimation.so.6:_ZTSN13Qt3DAnimation22QAbstractClipBlendNodeE
libQt63DAnimation.so.6:_ZTSN13Qt3DAnimation23QAbstractChannelMappingE
libQt63DAnimation.so.6:_ZTSN13Qt3DAnimation6QClockE
libQt63DAnimation.so.6:_ZTVN13Qt3DAnimation12QMorphTargetE
libQt63DAnimation.so.6:_ZTVN13Qt3DAnimation13QClipAnimatorE
libQt63DAnimation.so.6:_ZTVN13Qt3DAnimation14QAnimationClipE
libQt63DAnimation.so.6:_ZTVN13Qt3DAnimation14QChannelMapperE
libQt63DAnimation.so.6:_ZTVN13Qt3DAnimation14QLerpClipBlendE
libQt63DAnimation.so.6:_ZTVN13Qt3DAnimation15QAnimationGroupE
libQt63DAnimation.so.6:_ZTVN13Qt3DAnimation15QChannelMappingE
libQt63DAnimation.so.6:_ZTVN13Qt3DAnimation15QClipBlendValueE
libQt63DAnimation.so.6:_ZTVN13Qt3DAnimation16QAnimationAspectE
libQt63DAnimation.so.6:_ZTVN13Qt3DAnimation16QCallbackMappingE
libQt63DAnimation.so.6:_ZTVN13Qt3DAnimation16QSkeletonMappingE
libQt63DAnimation.so.6:_ZTVN13Qt3DAnimation18QAbstractAnimationE
libQt63DAnimation.so.6:_ZTVN13Qt3DAnimation18QAdditiveClipBlendE
libQt63DAnimation.so.6:_ZTVN13Qt3DAnimation18QAnimationCallbackE
libQt63DAnimation.so.6:_ZTVN13Qt3DAnimation18QKeyframeAnimationE
libQt63DAnimation.so.6:_ZTVN13Qt3DAnimation18QMorphingAnimationE
libQt63DAnimation.so.6:_ZTVN13Qt3DAnimation20QAnimationClipLoaderE
libQt63DAnimation.so.6:_ZTVN13Qt3DAnimation20QAnimationControllerE
libQt63DAnimation.so.6:_ZTVN13Qt3DAnimation20QBlendedClipAnimatorE
libQt63DAnimation.so.6:_ZTVN13Qt3DAnimation21QAbstractClipAnimatorE
libQt63DAnimation.so.6:_ZTVN13Qt3DAnimation21QVertexBlendAnimationE
libQt63DAnimation.so.6:_ZTVN13Qt3DAnimation22QAbstractAnimationClipE
libQt63DAnimation.so.6:_ZTVN13Qt3DAnimation22QAbstractClipBlendNodeE
libQt63DAnimation.so.6:_ZTVN13Qt3DAnimation23QAbstractChannelMappingE
libQt63DAnimation.so.6:_ZTVN13Qt3DAnimation6QClockE
libQt63DCore.so.6:_ZN8Qt3DCore10QAspectJob10isRequiredEv
libQt63DCore.so.6:_ZN8Qt3DCore10QAspectJob13addDependencyE12QWeakPointerIS0_E
libQt63DCore.so.6:_ZN8Qt3DCore10QAspectJob16removeDependencyE12QWeakPointerIS0_E
libQt63DCore.so.6:_ZN8Qt3DCore10QAspectJob9postFrameEPNS_13QAspectEngineE
libQt63DCore.so.6:_ZN8Qt3DCore10QAspectJobC2ERNS_17QAspectJobPrivateE
libQt63DCore.so.6:_ZN8Qt3DCore10QAspectJobC2Ev
libQt63DCore.so.6:_ZN8Qt3DCore10QAspectJobD0Ev
libQt63DCore.so.6:_ZN8Qt3DCore10QAspectJobD1Ev
libQt63DCore.so.6:_ZN8Qt3DCore10QAspectJobD2Ev
libQt63DCore.so.6:_ZN8Qt3DCore10QAttribute10setDivisorEj
libQt63DCore.so.6:_ZN8Qt3DCore10QAttribute11nameChangedERK7QString
libQt63DCore.so.6:_ZN8Qt3DCore10QAttribute11qt_metacallEN11QMetaObject4CallEiPPv
libQt63DCore.so.6:_ZN8Qt3DCore10QAttribute11qt_metacastEPKc
libQt63DCore.so.6:_ZN8Qt3DCore10QAttribute12countChangedEj
libQt63DCore.so.6:_ZN8Qt3DCore10QAttribute13bufferChangedEPNS_7QBufferE
libQt63DCore.so.6:_ZN8Qt3DCore10QAttribute13setByteOffsetEj
libQt63DCore.so.6:_ZN8Qt3DCore10QAttribute13setByteStrideEj
libQt63DCore.so.6:_ZN8Qt3DCore10QAttribute13setVertexSizeEj
libQt63DCore.so.6:_ZN8Qt3DCore10QAttribute14divisorChangedEj
libQt63DCore.so.6:_ZN8Qt3DCore10QAttribute15dataSizeChangedEj
libQt63DCore.so.6:_ZN8Qt3DCore10QAttribute15dataTypeChangedENS0_14VertexBaseTypeE
libQt63DCore.so.6:_ZN8Qt3DCore10QAttribute16setAttributeTypeENS0_13AttributeTypeE
libQt63DCore.so.6:_ZN8Qt3DCore10QAttribute16staticMetaObjectE
libQt63DCore.so.6:_ZN8Qt3DCore10QAttribute17byteOffsetChangedEj
libQt63DCore.so.6:_ZN8Qt3DCore10QAttribute17byteStrideChangedEj
libQt63DCore.so.6:_ZN8Qt3DCore10QAttribute17setVertexBaseTypeENS0_14VertexBaseTypeE
libQt63DCore.so.6:_ZN8Qt3DCore10QAttribute17vertexSizeChangedEj
libQt63DCore.so.6:_ZN8Qt3DCore10QAttribute20attributeTypeChangedENS0_13AttributeTypeE
libQt63DCore.so.6:_ZN8Qt3DCore10QAttribute21vertexBaseTypeChangedENS0_14VertexBaseTypeE
libQt63DCore.so.6:_ZN8Qt3DCore10QAttribute25defaultColorAttributeNameEv
libQt63DCore.so.6:_ZN8Qt3DCore10QAttribute26defaultNormalAttributeNameEv
libQt63DCore.so.6:_ZN8Qt3DCore10QAttribute27defaultTangentAttributeNameEv
libQt63DCore.so.6:_ZN8Qt3DCore10QAttribute28defaultPositionAttributeNameEv
libQt63DCore.so.6:_ZN8Qt3DCore10QAttribute32defaultJointIndicesAttributeNameEv
libQt63DCore.so.6:_ZN8Qt3DCore10QAttribute32defaultJointWeightsAttributeNameEv
libQt63DCore.so.6:_ZN8Qt3DCore10QAttribute37defaultTextureCoordinateAttributeNameEv
libQt63DCore.so.6:_ZN8Qt3DCore10QAttribute38defaultTextureCoordinate1AttributeNameEv
libQt63DCore.so.6:_ZN8Qt3DCore10QAttribute38defaultTextureCoordinate2AttributeNameEv
libQt63DCore.so.6:_ZN8Qt3DCore10QAttribute7setNameERK7QString
libQt63DCore.so.6:_ZN8Qt3DCore10QAttribute8setCountEj
libQt63DCore.so.6:_ZN8Qt3DCore10QAttribute9setBufferEPNS_7QBufferE
libQt63DCore.so.6:_ZN8Qt3DCore10QAttributeC1EPNS_5QNodeE
libQt63DCore.so.6:_ZN8Qt3DCore10QAttributeC1EPNS_7QBufferENS0_14VertexBaseTypeEjjjjPNS_5QNodeE
libQt63DCore.so.6:_ZN8Qt3DCore10QAttributeC1EPNS_7QBufferERK7QStringNS0_14VertexBaseTypeEjjjjPNS_5QNodeE
libQt63DCore.so.6:_ZN8Qt3DCore10QAttributeC2EPNS_5QNodeE
libQt63DCore.so.6:_ZN8Qt3DCore10QAttributeC2EPNS_7QBufferENS0_14VertexBaseTypeEjjjjPNS_5QNodeE
libQt63DCore.so.6:_ZN8Qt3DCore10QAttributeC2EPNS_7QBufferERK7QStringNS0_14VertexBaseTypeEjjjjPNS_5QNodeE
libQt63DCore.so.6:_ZN8Qt3DCore10QAttributeD0Ev
libQt63DCore.so.6:_ZN8Qt3DCore10QAttributeD1Ev
libQt63DCore.so.6:_ZN8Qt3DCore10QAttributeD2Ev
libQt63DCore.so.6:_ZN8Qt3DCore10QComponent11qt_metacallEN11QMetaObject4CallEiPPv
libQt63DCore.so.6:_ZN8Qt3DCore10QComponent11qt_metacastEPKc
libQt63DCore.so.6:_ZN8Qt3DCore10QComponent12setShareableEb
libQt63DCore.so.6:_ZN8Qt3DCore10QComponent13addedToEntityEPNS_7QEntityE
libQt63DCore.so.6:_ZN8Qt3DCore10QComponent16shareableChangedEb
libQt63DCore.so.6:_ZN8Qt3DCore10QComponent16staticMetaObjectE
libQt63DCore.so.6:_ZN8Qt3DCore10QComponent17removedFromEntityEPNS_7QEntityE
libQt63DCore.so.6:_ZN8Qt3DCore10QComponentC1EPNS_5QNodeE
libQt63DCore.so.6:_ZN8Qt3DCore10QComponentC1ERNS_17QComponentPrivateEPNS_5QNodeE
libQt63DCore.so.6:_ZN8Qt3DCore10QComponentC2EPNS_5QNodeE
libQt63DCore.so.6:_ZN8Qt3DCore10QComponentC2ERNS_17QComponentPrivateEPNS_5QNodeE
libQt63DCore.so.6:_ZN8Qt3DCore10QComponentD0Ev
libQt63DCore.so.6:_ZN8Qt3DCore10QComponentD1Ev
libQt63DCore.so.6:_ZN8Qt3DCore10QComponentD2Ev
libQt63DCore.so.6:_ZN8Qt3DCore10QTransform10setScale3DERK9QVector3D
libQt63DCore.so.6:_ZN8Qt3DCore10QTransform11qt_metacallEN11QMetaObject4CallEiPPv
libQt63DCore.so.6:_ZN8Qt3DCore10QTransform11qt_metacastEPKc
libQt63DCore.so.6:_ZN8Qt3DCore10QTransform11setRotationERK11QQuaternion
libQt63DCore.so.6:_ZN8Qt3DCore10QTransform12rotateAroundERK9QVector3DfS3_
libQt63DCore.so.6:_ZN8Qt3DCore10QTransform12scaleChangedEf
libQt63DCore.so.6:_ZN8Qt3DCore10QTransform12setRotationXEf
libQt63DCore.so.6:_ZN8Qt3DCore10QTransform12setRotationYEf
libQt63DCore.so.6:_ZN8Qt3DCore10QTransform12setRotationZEf
libQt63DCore.so.6:_ZN8Qt3DCore10QTransform13matrixChangedEv
libQt63DCore.so.6:_ZN8Qt3DCore10QTransform14rotateFromAxesERK9QVector3DS3_S3_
libQt63DCore.so.6:_ZN8Qt3DCore10QTransform14scale3DChangedERK9QVector3D
libQt63DCore.so.6:_ZN8Qt3DCore10QTransform14setTranslationERK9QVector3D
libQt63DCore.so.6:_ZN8Qt3DCore10QTransform15fromEulerAnglesERK9QVector3D
libQt63DCore.so.6:_ZN8Qt3DCore10QTransform15fromEulerAnglesEfff
libQt63DCore.so.6:_ZN8Qt3DCore10QTransform15rotationChangedERK11QQuaternion
libQt63DCore.so.6:_ZN8Qt3DCore10QTransform16fromAxisAndAngleERK9QVector3Df
libQt63DCore.so.6:_ZN8Qt3DCore10QTransform16fromAxisAndAngleEffff
libQt63DCore.so.6:_ZN8Qt3DCore10QTransform16rotationXChangedEf
libQt63DCore.so.6:_ZN8Qt3DCore10QTransform16rotationYChangedEf
libQt63DCore.so.6:_ZN8Qt3DCore10QTransform16rotationZChangedEf
libQt63DCore.so.6:_ZN8Qt3DCore10QTransform16staticMetaObjectE
libQt63DCore.so.6:_ZN8Qt3DCore10QTransform17fromAxesAndAnglesERK9QVector3DfS3_f
libQt63DCore.so.6:_ZN8Qt3DCore10QTransform17fromAxesAndAnglesERK9QVector3DfS3_fS3_f
libQt63DCore.so.6:_ZN8Qt3DCore10QTransform18translationChangedERK9QVector3D
libQt63DCore.so.6:_ZN8Qt3DCore10QTransform18worldMatrixChangedERK10QMatrix4x4
libQt63DCore.so.6:_ZN8Qt3DCore10QTransform8fromAxesERK9QVector3DS3_S3_
libQt63DCore.so.6:_ZN8Qt3DCore10QTransform8setScaleEf
libQt63DCore.so.6:_ZN8Qt3DCore10QTransform9setMatrixERK10QMatrix4x4
libQt63DCore.so.6:_ZN8Qt3DCore10QTransformC1EPNS_5QNodeE
libQt63DCore.so.6:_ZN8Qt3DCore10QTransformC1ERNS_17QTransformPrivateEPNS_5QNodeE
libQt63DCore.so.6:_ZN8Qt3DCore10QTransformC2EPNS_5QNodeE
libQt63DCore.so.6:_ZN8Qt3DCore10QTransformC2ERNS_17QTransformPrivateEPNS_5QNodeE
libQt63DCore.so.6:_ZN8Qt3DCore10QTransformD0Ev
libQt63DCore.so.6:_ZN8Qt3DCore10QTransformD1Ev
libQt63DCore.so.6:_ZN8Qt3DCore10QTransformD2Ev
libQt63DCore.so.6:_ZN8Qt3DCore10QUrlHelper19urlToLocalFileOrQrcERK4QUrl
libQt63DCore.so.6:_ZN8Qt3DCore11QCoreAspect11qt_metacallEN11QMetaObject4CallEiPPv
libQt63DCore.so.6:_ZN8Qt3DCore11QCoreAspect11qt_metacastEPKc
libQt63DCore.so.6:_ZN8Qt3DCore11QCoreAspect12onRegisteredEv
libQt63DCore.so.6:_ZN8Qt3DCore11QCoreAspect13jobsToExecuteEx
libQt63DCore.so.6:_ZN8Qt3DCore11QCoreAspect14executeCommandERK5QListI7QStringE
libQt63DCore.so.6:_ZN8Qt3DCore11QCoreAspect14onUnregisteredEv
libQt63DCore.so.6:_ZN8Qt3DCore11QCoreAspect15onEngineStartupEv
libQt63DCore.so.6:_ZN8Qt3DCore11QCoreAspect16staticMetaObjectE
libQt63DCore.so.6:_ZN8Qt3DCore11QCoreAspect9frameDoneEv
libQt63DCore.so.6:_ZN8Qt3DCore11QCoreAspectC1EP7QObject
libQt63DCore.so.6:_ZN8Qt3DCore11QCoreAspectC2EP7QObject
libQt63DCore.so.6:_ZN8Qt3DCore11QCoreAspectD0Ev
libQt63DCore.so.6:_ZN8Qt3DCore11QCoreAspectD1Ev
libQt63DCore.so.6:_ZN8Qt3DCore11QCoreAspectD2Ev
libQt63DCore.so.6:_ZN8Qt3DCore11QTaskLogger3endEx
libQt63DCore.so.6:_ZN8Qt3DCore11QTaskLogger7restartEv
libQt63DCore.so.6:_ZN8Qt3DCore11QTaskLoggerC1EPNS_25QSystemInformationServiceERKNS_5JobIdENS0_4TypeE
libQt63DCore.so.6:_ZN8Qt3DCore11QTaskLoggerC1EPNS_25QSystemInformationServiceEjjNS0_4TypeE
libQt63DCore.so.6:_ZN8Qt3DCore11QTaskLoggerC2EPNS_25QSystemInformationServiceERKNS_5JobIdENS0_4TypeE
libQt63DCore.so.6:_ZN8Qt3DCore11QTaskLoggerC2EPNS_25QSystemInformationServiceEjjNS0_4TypeE
libQt63DCore.so.6:_ZN8Qt3DCore11QTaskLoggerD1Ev
libQt63DCore.so.6:_ZN8Qt3DCore11QTaskLoggerD2Ev
libQt63DCore.so.6:_ZN8Qt3DCore12CoreSettings16syncFromFrontEndEPKNS_5QNodeEb
libQt63DCore.so.6:_ZN8Qt3DCore12CoreSettingsC1Ev
libQt63DCore.so.6:_ZN8Qt3DCore12CoreSettingsC2Ev
libQt63DCore.so.6:_ZN8Qt3DCore12QBackendNode10setEnabledEb
libQt63DCore.so.6:_ZN8Qt3DCore12QBackendNode16syncFromFrontEndEPKNS_5QNodeEb
libQt63DCore.so.6:_ZN8Qt3DCore12QBackendNode9setPeerIdENS_7QNodeIdE
libQt63DCore.so.6:_ZN8Qt3DCore12QBackendNodeC1ENS0_4ModeE
libQt63DCore.so.6:_ZN8Qt3DCore12QBackendNodeC1ERNS_19QBackendNodePrivateE
libQt63DCore.so.6:_ZN8Qt3DCore12QBackendNodeC2ENS0_4ModeE
libQt63DCore.so.6:_ZN8Qt3DCore12QBackendNodeC2ERNS_19QBackendNodePrivateE
libQt63DCore.so.6:_ZN8Qt3DCore12QBackendNodeD0Ev
libQt63DCore.so.6:_ZN8Qt3DCore12QBackendNodeD1Ev
libQt63DCore.so.6:_ZN8Qt3DCore12QBackendNodeD2Ev
libQt63DCore.so.6:_ZN8Qt3DCore12QNodePrivate10insertTreeEPNS_5QNodeEi
libQt63DCore.so.6:_ZN8Qt3DCore12QNodePrivate10setArbiterEPNS_14QChangeArbiterE
libQt63DCore.so.6:_ZN8Qt3DCore12QNodePrivate11_q_addChildEPNS_5QNodeE
libQt63DCore.so.6:_ZN8Qt3DCore12QNodePrivate14_q_removeChildEPNS_5QNodeE
libQt63DCore.so.6:_ZN8Qt3DCore12QNodePrivate14nodePtrDeleterEPNS_5QNodeE
libQt63DCore.so.6:_ZN8Qt3DCore12QNodePrivate14setSceneHelperEPNS_5QNodeE
libQt63DCore.so.6:_ZN8Qt3DCore12QNodePrivate15propertyChangedEi
libQt63DCore.so.6:_ZN8Qt3DCore12QNodePrivate16unsetSceneHelperEPNS_5QNodeE
libQt63DCore.so.6:_ZN8Qt3DCore12QNodePrivate17createBackendNodeEv
libQt63DCore.so.6:_ZN8Qt3DCore12QNodePrivate18_q_setParentHelperEPNS_5QNodeE
libQt63DCore.so.6:_ZN8Qt3DCore12QNodePrivate20findStaticMetaObjectEPK11QMetaObject
libQt63DCore.so.6:_ZN8Qt3DCore12QNodePrivate20notifyPropertyChangeEPKcRK8QVariant
libQt63DCore.so.6:_ZN8Qt3DCore12QNodePrivate22_q_postConstructorInitEv
libQt63DCore.so.6:_ZN8Qt3DCore12QNodePrivate25addEntityComponentToSceneEPNS_5QNodeE
libQt63DCore.so.6:_ZN8Qt3DCore12QNodePrivate26registerNotifiedPropertiesEv
libQt63DCore.so.6:_ZN8Qt3DCore12QNodePrivate27_q_ensureBackendNodeCreatedEv
libQt63DCore.so.6:_ZN8Qt3DCore12QNodePrivate27notifyDynamicPropertyChangeERK10QByteArrayRK8QVariant
libQt63DCore.so.6:_ZN8Qt3DCore12QNodePrivate28unregisterNotifiedPropertiesEv
libQt63DCore.so.6:_ZN8Qt3DCore12QNodePrivate3getEPKNS_5QNodeE
libQt63DCore.so.6:_ZN8Qt3DCore12QNodePrivate3getEPNS_5QNodeE
libQt63DCore.so.6:_ZN8Qt3DCore12QNodePrivate42notifyDestructionChangesAndRemoveFromSceneEv
libQt63DCore.so.6:_ZN8Qt3DCore12QNodePrivate4initEPNS_5QNodeE
libQt63DCore.so.6:_ZN8Qt3DCore12QNodePrivate6updateEv
libQt63DCore.so.6:_ZN8Qt3DCore12QNodePrivate8setSceneEPNS_6QSceneE
libQt63DCore.so.6:_ZN8Qt3DCore12QNodePrivate9markDirtyE6QFlagsINS_6QScene13DirtyNodeFlagEE
libQt63DCore.so.6:_ZN8Qt3DCore12QNodePrivateC1Ev
libQt63DCore.so.6:_ZN8Qt3DCore12QNodePrivateC2Ev
libQt63DCore.so.6:_ZN8Qt3DCore12QNodePrivateD0Ev
libQt63DCore.so.6:_ZN8Qt3DCore12QNodePrivateD1Ev
libQt63DCore.so.6:_ZN8Qt3DCore12QNodePrivateD2Ev
libQt63DCore.so.6:_ZN8Qt3DCore12QNodeVisitor6appendEPNS_5QNodeE
libQt63DCore.so.6:_ZN8Qt3DCore12QNodeVisitor7setPathE5QListIPNS_5QNodeEE
libQt63DCore.so.6:_ZN8Qt3DCore12QNodeVisitor8pop_backEv
libQt63DCore.so.6:_ZN8Qt3DCore12QNodeVisitorC1Ev
libQt63DCore.so.6:_ZN8Qt3DCore12QNodeVisitorC2Ev
libQt63DCore.so.6:_ZN8Qt3DCore12QNodeVisitorD0Ev
libQt63DCore.so.6:_ZN8Qt3DCore12QNodeVisitorD1Ev
libQt63DCore.so.6:_ZN8Qt3DCore12QNodeVisitorD2Ev
libQt63DCore.so.6:_ZN8Qt3DCore12Vector3D_SSEC1ERKNS_12Vector4D_SSEE
libQt63DCore.so.6:_ZN8Qt3DCore12Vector3D_SSEC2ERKNS_12Vector4D_SSEE
libQt63DCore.so.6:_ZN8Qt3DCore13QAspectEngine10setRunModeENS0_7RunModeE
libQt63DCore.so.6:_ZN8Qt3DCore13QAspectEngine11qt_metacallEN11QMetaObject4CallEiPPv
libQt63DCore.so.6:_ZN8Qt3DCore13QAspectEngine11qt_metacastEPKc
libQt63DCore.so.6:_ZN8Qt3DCore13QAspectEngine12processFrameEv
libQt63DCore.so.6:_ZN8Qt3DCore13QAspectEngine13setRootEntityE14QSharedPointerINS_7QEntityEE
libQt63DCore.so.6:_ZN8Qt3DCore13QAspectEngine14executeCommandERK7QString
libQt63DCore.so.6:_ZN8Qt3DCore13QAspectEngine14registerAspectEPNS_15QAbstractAspectE
libQt63DCore.so.6:_ZN8Qt3DCore13QAspectEngine14registerAspectERK7QString
libQt63DCore.so.6:_ZN8Qt3DCore13QAspectEngine16staticMetaObjectE
libQt63DCore.so.6:_ZN8Qt3DCore13QAspectEngine16unregisterAspectEPNS_15QAbstractAspectE
libQt63DCore.so.6:_ZN8Qt3DCore13QAspectEngine16unregisterAspectERK7QString
libQt63DCore.so.6:_ZN8Qt3DCore13QAspectEngineC1EP7QObject
libQt63DCore.so.6:_ZN8Qt3DCore13QAspectEngineC2EP7QObject
libQt63DCore.so.6:_ZN8Qt3DCore13QAspectEngineD0Ev
libQt63DCore.so.6:_ZN8Qt3DCore13QAspectEngineD1Ev
libQt63DCore.so.6:_ZN8Qt3DCore13QAspectEngineD2Ev
libQt63DCore.so.6:_ZN8Qt3DCore13QCoreSettings11qt_metacallEN11QMetaObject4CallEiPPv
libQt63DCore.so.6:_ZN8Qt3DCore13QCoreSettings11qt_metacastEPKc
libQt63DCore.so.6:_ZN8Qt3DCore13QCoreSettings16staticMetaObjectE
libQt63DCore.so.6:_ZN8Qt3DCore13QCoreSettings25setBoundingVolumesEnabledEb
libQt63DCore.so.6:_ZN8Qt3DCore13QCoreSettings29boundingVolumesEnabledChangedEb
libQt63DCore.so.6:_ZN8Qt3DCore13QCoreSettingsC1EPNS_5QNodeE
libQt63DCore.so.6:_ZN8Qt3DCore13QCoreSettingsC2EPNS_5QNodeE
libQt63DCore.so.6:_ZN8Qt3DCore13QCoreSettingsD0Ev
libQt63DCore.so.6:_ZN8Qt3DCore13QCoreSettingsD1Ev
libQt63DCore.so.6:_ZN8Qt3DCore13QCoreSettingsD2Ev
libQt63DCore.so.6:_ZN8Qt3DCore13QGeometryView11qt_metacallEN11QMetaObject4CallEiPPv
libQt63DCore.so.6:_ZN8Qt3DCore13QGeometryView11qt_metacastEPKc
libQt63DCore.so.6:_ZN8Qt3DCore13QGeometryView11setGeometryEPNS_9QGeometryE
libQt63DCore.so.6:_ZN8Qt3DCore13QGeometryView14setFirstVertexEi
libQt63DCore.so.6:_ZN8Qt3DCore13QGeometryView14setIndexOffsetEi
libQt63DCore.so.6:_ZN8Qt3DCore13QGeometryView14setVertexCountEi
libQt63DCore.so.6:_ZN8Qt3DCore13QGeometryView15geometryChangedEPNS_9QGeometryE
libQt63DCore.so.6:_ZN8Qt3DCore13QGeometryView16setFirstInstanceEi
libQt63DCore.so.6:_ZN8Qt3DCore13QGeometryView16setInstanceCountEi
libQt63DCore.so.6:_ZN8Qt3DCore13QGeometryView16setPrimitiveTypeENS0_13PrimitiveTypeE
libQt63DCore.so.6:_ZN8Qt3DCore13QGeometryView16staticMetaObjectE
libQt63DCore.so.6:_ZN8Qt3DCore13QGeometryView18firstVertexChangedEi
libQt63DCore.so.6:_ZN8Qt3DCore13QGeometryView18indexOffsetChangedEi
libQt63DCore.so.6:_ZN8Qt3DCore13QGeometryView18vertexCountChangedEi
libQt63DCore.so.6:_ZN8Qt3DCore13QGeometryView19setVerticesPerPatchEi
libQt63DCore.so.6:_ZN8Qt3DCore13QGeometryView20firstInstanceChangedEi
libQt63DCore.so.6:_ZN8Qt3DCore13QGeometryView20instanceCountChangedEi
libQt63DCore.so.6:_ZN8Qt3DCore13QGeometryView20primitiveTypeChangedENS0_13PrimitiveTypeE
libQt63DCore.so.6:_ZN8Qt3DCore13QGeometryView20setRestartIndexValueEi
libQt63DCore.so.6:_ZN8Qt3DCore13QGeometryView23verticesPerPatchChangedEi
libQt63DCore.so.6:_ZN8Qt3DCore13QGeometryView24restartIndexValueChangedEi
libQt63DCore.so.6:_ZN8Qt3DCore13QGeometryView24setIndexBufferByteOffsetEi
libQt63DCore.so.6:_ZN8Qt3DCore13QGeometryView26setPrimitiveRestartEnabledEb
libQt63DCore.so.6:_ZN8Qt3DCore13QGeometryView28indexBufferByteOffsetChangedEi
libQt63DCore.so.6:_ZN8Qt3DCore13QGeometryView30primitiveRestartEnabledChangedEb
libQt63DCore.so.6:_ZN8Qt3DCore13QGeometryViewC1EPNS_5QNodeE
libQt63DCore.so.6:_ZN8Qt3DCore13QGeometryViewC1ERNS_20QGeometryViewPrivateEPNS_5QNodeE
libQt63DCore.so.6:_ZN8Qt3DCore13QGeometryViewC2EPNS_5QNodeE
libQt63DCore.so.6:_ZN8Qt3DCore13QGeometryViewC2ERNS_20QGeometryViewPrivateEPNS_5QNodeE
libQt63DCore.so.6:_ZN8Qt3DCore13QGeometryViewD0Ev
libQt63DCore.so.6:_ZN8Qt3DCore13QGeometryViewD1Ev
libQt63DCore.so.6:_ZN8Qt3DCore13QGeometryViewD2Ev
libQt63DCore.so.6:_ZN8Qt3DCore13QJointPrivateC1Ev
libQt63DCore.so.6:_ZN8Qt3DCore13QJointPrivateC2Ev
libQt63DCore.so.6:_ZN8Qt3DCore13QThreadPooler11qt_metacallEN11QMetaObject4CallEiPPv
libQt63DCore.so.6:_ZN8Qt3DCore13QThreadPooler11qt_metacastEPKc
libQt63DCore.so.6:_ZN8Qt3DCore13QThreadPooler12enqueueTasksERK5QListIPNS_17RunnableInterfaceEE
libQt63DCore.so.6:_ZN8Qt3DCore13QThreadPooler12taskFinishedEPNS_17RunnableInterfaceE
libQt63DCore.so.6:_ZN8Qt3DCore13QThreadPooler14mapDependablesER5QListIPNS_17RunnableInterfaceEE
libQt63DCore.so.6:_ZN8Qt3DCore13QThreadPooler14waitForAllJobsEv
libQt63DCore.so.6:_ZN8Qt3DCore13QThreadPooler16enqueueDepenciesEPNS_17RunnableInterfaceE
libQt63DCore.so.6:_ZN8Qt3DCore13QThreadPooler16staticMetaObjectE
libQt63DCore.so.6:_ZN8Qt3DCore13QThreadPooler6futureEv
libQt63DCore.so.6:_ZN8Qt3DCore13QThreadPooler7acquireEi
libQt63DCore.so.6:_ZN8Qt3DCore13QThreadPooler7releaseEv
libQt63DCore.so.6:_ZN8Qt3DCore13QThreadPooler8skipTaskEPNS_17RunnableInterfaceE
libQt63DCore.so.6:_ZN8Qt3DCore13QThreadPoolerC1EP7QObject
libQt63DCore.so.6:_ZN8Qt3DCore13QThreadPoolerC2EP7QObject
libQt63DCore.so.6:_ZN8Qt3DCore13QThreadPoolerD0Ev
libQt63DCore.so.6:_ZN8Qt3DCore13QThreadPoolerD1Ev
libQt63DCore.so.6:_ZN8Qt3DCore13QThreadPoolerD2Ev
libQt63DCore.so.6:_ZN8Qt3DCore14QAspectFactoryC1ERKS0_
libQt63DCore.so.6:_ZN8Qt3DCore14QAspectFactoryC1Ev
libQt63DCore.so.6:_ZN8Qt3DCore14QAspectFactoryC2ERKS0_
libQt63DCore.so.6:_ZN8Qt3DCore14QAspectFactoryC2Ev
libQt63DCore.so.6:_ZN8Qt3DCore14QAspectFactoryD1Ev
libQt63DCore.so.6:_ZN8Qt3DCore14QAspectFactoryD2Ev
libQt63DCore.so.6:_ZN8Qt3DCore14QAspectFactoryaSERKS0_
libQt63DCore.so.6:_ZN8Qt3DCore14QAspectManager10initializeEv
libQt63DCore.so.6:_ZN8Qt3DCore14QAspectManager10setRunModeENS_13QAspectEngine7RunModeE
libQt63DCore.so.6:_ZN8Qt3DCore14QAspectManager11qt_metacallEN11QMetaObject4CallEiPPv
libQt63DCore.so.6:_ZN8Qt3DCore14QAspectManager11qt_metacastEPKc
libQt63DCore.so.6:_ZN8Qt3DCore14QAspectManager11removeNodesERK5QListIPNS_5QNodeEE
libQt63DCore.so.6:_ZN8Qt3DCore14QAspectManager12processFrameEv
libQt63DCore.so.6:_ZN8Qt3DCore14QAspectManager13setRootEntityEPNS_7QEntityERK5QListIPNS_5QNodeEE
libQt63DCore.so.6:_ZN8Qt3DCore14QAspectManager14registerAspectEPNS_15QAbstractAspectE
libQt63DCore.so.6:_ZN8Qt3DCore14QAspectManager16requestNextFrameEv
libQt63DCore.so.6:_ZN8Qt3DCore14QAspectManager16staticMetaObjectE
libQt63DCore.so.6:_ZN8Qt3DCore14QAspectManager16unregisterAspectEPNS_15QAbstractAspectE
libQt63DCore.so.6:_ZN8Qt3DCore14QAspectManager18exitSimulationLoopEv
libQt63DCore.so.6:_ZN8Qt3DCore14QAspectManager19dumpJobsOnNextFrameEv
libQt63DCore.so.6:_ZN8Qt3DCore14QAspectManager19enterSimulationLoopEv
libQt63DCore.so.6:_ZN8Qt3DCore14QAspectManager22setPostConstructorInitEPNS_23NodePostConstructorInitE
libQt63DCore.so.6:_ZN8Qt3DCore14QAspectManager8addNodesERK5QListIPNS_5QNodeEE
libQt63DCore.so.6:_ZN8Qt3DCore14QAspectManager8shutdownEv
libQt63DCore.so.6:_ZN8Qt3DCore14QAspectManagerC1EPNS_13QAspectEngineE
libQt63DCore.so.6:_ZN8Qt3DCore14QAspectManagerC2EPNS_13QAspectEngineE
libQt63DCore.so.6:_ZN8Qt3DCore14QAspectManagerD0Ev
libQt63DCore.so.6:_ZN8Qt3DCore14QAspectManagerD1Ev
libQt63DCore.so.6:_ZN8Qt3DCore14QAspectManagerD2Ev
libQt63DCore.so.6:_ZN8Qt3DCore14QBufferPrivate22UpdateDataPropertyNameE
libQt63DCore.so.6:_ZN8Qt3DCore14QBufferPrivate3getEPNS_7QBufferE
libQt63DCore.so.6:_ZN8Qt3DCore14QBufferPrivate6updateEv
libQt63DCore.so.6:_ZN8Qt3DCore14QBufferPrivate7setDataERK10QByteArray
libQt63DCore.so.6:_ZN8Qt3DCore14QBufferPrivateC1Ev
libQt63DCore.so.6:_ZN8Qt3DCore14QBufferPrivateC2Ev
libQt63DCore.so.6:_ZN8Qt3DCore14QChangeArbiter11qt_metacallEN11QMetaObject4CallEiPPv
libQt63DCore.so.6:_ZN8Qt3DCore14QChangeArbiter11qt_metacastEPKc
libQt63DCore.so.6:_ZN8Qt3DCore14QChangeArbiter14receivedChangeEv
libQt63DCore.so.6:_ZN8Qt3DCore14QChangeArbiter16staticMetaObjectE
libQt63DCore.so.6:_ZN8Qt3DCore14QChangeArbiter20addDirtyFrontEndNodeEPNS_5QNodeE
libQt63DCore.so.6:_ZN8Qt3DCore14QChangeArbiter22takeDirtyFrontEndNodesEv
libQt63DCore.so.6:_ZN8Qt3DCore14QChangeArbiter23removeDirtyFrontEndNodeEPNS_5QNodeE
libQt63DCore.so.6:_ZN8Qt3DCore14QChangeArbiter28addDirtyEntityComponentNodesEPNS_7QEntityEPNS_10QComponentENS_27ComponentRelationshipChange12RelationShipE
libQt63DCore.so.6:_ZN8Qt3DCore14QChangeArbiter29takeDirtyEntityComponentNodesEv
libQt63DCore.so.6:_ZN8Qt3DCore14QChangeArbiter8setSceneEPNS_6QSceneE
libQt63DCore.so.6:_ZN8Qt3DCore14QChangeArbiterC1EP7QObject
libQt63DCore.so.6:_ZN8Qt3DCore14QChangeArbiterC2EP7QObject
libQt63DCore.so.6:_ZN8Qt3DCore14QChangeArbiterD0Ev
libQt63DCore.so.6:_ZN8Qt3DCore14QChangeArbiterD1Ev
libQt63DCore.so.6:_ZN8Qt3DCore14QChangeArbiterD2Ev
libQt63DCore.so.6:_ZN8Qt3DCore14QEntityPrivate24removeDestroyedComponentEPNS_10QComponentE
libQt63DCore.so.6:_ZN8Qt3DCore14QEntityPrivate27updateComponentRelationShipEPNS_10QComponentENS_27ComponentRelationshipChange12RelationShipE
libQt63DCore.so.6:_ZN8Qt3DCore14QEntityPrivate3getEPNS_7QEntityE
libQt63DCore.so.6:_ZN8Qt3DCore14QEntityPrivateC1Ev
libQt63DCore.so.6:_ZN8Qt3DCore14QEntityPrivateC2Ev
libQt63DCore.so.6:_ZN8Qt3DCore14QEntityPrivateD0Ev
libQt63DCore.so.6:_ZN8Qt3DCore14QEntityPrivateD1Ev
libQt63DCore.so.6:_ZN8Qt3DCore14QEntityPrivateD2Ev
libQt63DCore.so.6:_ZN8Qt3DCore15QAbstractAspect11qt_metacallEN11QMetaObject4CallEiPPv
libQt63DCore.so.6:_ZN8Qt3DCore15QAbstractAspect11qt_metacastEPKc
libQt63DCore.so.6:_ZN8Qt3DCore15QAbstractAspect12onRegisteredEv
libQt63DCore.so.6:_ZN8Qt3DCore15QAbstractAspect13jobsToExecuteEx
libQt63DCore.so.6:_ZN8Qt3DCore15QAbstractAspect14executeCommandERK5QListI7QStringE
libQt63DCore.so.6:_ZN8Qt3DCore15QAbstractAspect14onUnregisteredEv
libQt63DCore.so.6:_ZN8Qt3DCore15QAbstractAspect15onEngineStartupEv
libQt63DCore.so.6:_ZN8Qt3DCore15QAbstractAspect16onEngineShutdownEv
libQt63DCore.so.6:_ZN8Qt3DCore15QAbstractAspect16staticMetaObjectE
libQt63DCore.so.6:_ZN8Qt3DCore15QAbstractAspect19registerBackendTypeERK11QMetaObjectRK14QSharedPointerINS_18QBackendNodeMapperEE
libQt63DCore.so.6:_ZN8Qt3DCore15QAbstractAspect21scheduleSingleShotJobERK14QSharedPointerINS_10QAspectJobEE
libQt63DCore.so.6:_ZN8Qt3DCore15QAbstractAspect21unregisterBackendTypeERK11QMetaObject
libQt63DCore.so.6:_ZN8Qt3DCore15QAbstractAspect8jobsDoneEv
libQt63DCore.so.6:_ZN8Qt3DCore15QAbstractAspect9frameDoneEv
libQt63DCore.so.6:_ZN8Qt3DCore15QAbstractAspectC1EP7QObject
libQt63DCore.so.6:_ZN8Qt3DCore15QAbstractAspectC1ERNS_22QAbstractAspectPrivateEP7QObject
libQt63DCore.so.6:_ZN8Qt3DCore15QAbstractAspectC2EP7QObject
libQt63DCore.so.6:_ZN8Qt3DCore15QAbstractAspectC2ERNS_22QAbstractAspectPrivateEP7QObject
libQt63DCore.so.6:_ZN8Qt3DCore15QAbstractAspectD0Ev
libQt63DCore.so.6:_ZN8Qt3DCore15QAbstractAspectD1Ev
libQt63DCore.so.6:_ZN8Qt3DCore15QAbstractAspectD2Ev
libQt63DCore.so.6:_ZN8Qt3DCore15QBoundingVolume11qt_metacallEN11QMetaObject4CallEiPPv
libQt63DCore.so.6:_ZN8Qt3DCore15QBoundingVolume11qt_metacastEPKc
libQt63DCore.so.6:_ZN8Qt3DCore15QBoundingVolume11setMaxPointERK9QVector3D
libQt63DCore.so.6:_ZN8Qt3DCore15QBoundingVolume11setMinPointERK9QVector3D
libQt63DCore.so.6:_ZN8Qt3DCore15QBoundingVolume11viewChangedEPNS_13QGeometryViewE
libQt63DCore.so.6:_ZN8Qt3DCore15QBoundingVolume15maxPointChangedE9QVector3D
libQt63DCore.so.6:_ZN8Qt3DCore15QBoundingVolume15minPointChangedE9QVector3D
libQt63DCore.so.6:_ZN8Qt3DCore15QBoundingVolume16staticMetaObjectE
libQt63DCore.so.6:_ZN8Qt3DCore15QBoundingVolume20updateImplicitBoundsEv
libQt63DCore.so.6:_ZN8Qt3DCore15QBoundingVolume23implicitMaxPointChangedERK9QVector3D
libQt63DCore.so.6:_ZN8Qt3DCore15QBoundingVolume23implicitMinPointChangedERK9QVector3D
libQt63DCore.so.6:_ZN8Qt3DCore15QBoundingVolume26implicitPointsValidChangedEb
libQt63DCore.so.6:_ZN8Qt3DCore15QBoundingVolume7setViewEPNS_13QGeometryViewE
libQt63DCore.so.6:_ZN8Qt3DCore15QBoundingVolumeC1EPNS_5QNodeE
libQt63DCore.so.6:_ZN8Qt3DCore15QBoundingVolumeC1ERNS_22QBoundingVolumePrivateEPNS_5QNodeE
libQt63DCore.so.6:_ZN8Qt3DCore15QBoundingVolumeC2EPNS_5QNodeE
libQt63DCore.so.6:_ZN8Qt3DCore15QBoundingVolumeC2ERNS_22QBoundingVolumePrivateEPNS_5QNodeE
libQt63DCore.so.6:_ZN8Qt3DCore15QBoundingVolumeD0Ev
libQt63DCore.so.6:_ZN8Qt3DCore15QBoundingVolumeD1Ev
libQt63DCore.so.6:_ZN8Qt3DCore15QBoundingVolumeD2Ev
libQt63DCore.so.6:_ZN8Qt3DCore15QServiceLocator17openGLInformationEv
libQt63DCore.so.6:_ZN8Qt3DCore15QServiceLocator17systemInformationEv
libQt63DCore.so.6:_ZN8Qt3DCore15QServiceLocator18eventFilterServiceEv
libQt63DCore.so.6:_ZN8Qt3DCore15QServiceLocator19_q_getServiceHelperEi
libQt63DCore.so.6:_ZN8Qt3DCore15QServiceLocator19frameAdvanceServiceEv
libQt63DCore.so.6:_ZN8Qt3DCore15QServiceLocator21downloadHelperServiceEv
libQt63DCore.so.6:_ZN8Qt3DCore15QServiceLocator23registerServiceProviderEiPNS_24QAbstractServiceProviderE
libQt63DCore.so.6:_ZN8Qt3DCore15QServiceLocator25unregisterServiceProviderEi
libQt63DCore.so.6:_ZN8Qt3DCore15QServiceLocatorC1EPNS_13QAspectEngineE
libQt63DCore.so.6:_ZN8Qt3DCore15QServiceLocatorC2EPNS_13QAspectEngineE
libQt63DCore.so.6:_ZN8Qt3DCore15QServiceLocatorD1Ev
libQt63DCore.so.6:_ZN8Qt3DCore15QServiceLocatorD2Ev
libQt63DCore.so.6:_ZN8Qt3DCore15QSkeletonLoader11qt_metacallEN11QMetaObject4CallEiPPv
libQt63DCore.so.6:_ZN8Qt3DCore15QSkeletonLoader11qt_metacastEPKc
libQt63DCore.so.6:_ZN8Qt3DCore15QSkeletonLoader12setRootJointEPNS_6QJointE
libQt63DCore.so.6:_ZN8Qt3DCore15QSkeletonLoader13sourceChangedERK4QUrl
libQt63DCore.so.6:_ZN8Qt3DCore15QSkeletonLoader13statusChangedENS0_6StatusE
libQt63DCore.so.6:_ZN8Qt3DCore15QSkeletonLoader16rootJointChangedEPNS_6QJointE
libQt63DCore.so.6:_ZN8Qt3DCore15QSkeletonLoader16staticMetaObjectE
libQt63DCore.so.6:_ZN8Qt3DCore15QSkeletonLoader22setCreateJointsEnabledEb
libQt63DCore.so.6:_ZN8Qt3DCore15QSkeletonLoader26createJointsEnabledChangedEb
libQt63DCore.so.6:_ZN8Qt3DCore15QSkeletonLoader9setSourceERK4QUrl
libQt63DCore.so.6:_ZN8Qt3DCore15QSkeletonLoaderC1EPNS_5QNodeE
libQt63DCore.so.6:_ZN8Qt3DCore15QSkeletonLoaderC1ERK4QUrlPNS_5QNodeE
libQt63DCore.so.6:_ZN8Qt3DCore15QSkeletonLoaderC1ERNS_22QSkeletonLoaderPrivateEPNS_5QNodeE
libQt63DCore.so.6:_ZN8Qt3DCore15QSkeletonLoaderC2EPNS_5QNodeE
libQt63DCore.so.6:_ZN8Qt3DCore15QSkeletonLoaderC2ERK4QUrlPNS_5QNodeE
libQt63DCore.so.6:_ZN8Qt3DCore15QSkeletonLoaderC2ERNS_22QSkeletonLoaderPrivateEPNS_5QNodeE
libQt63DCore.so.6:_ZN8Qt3DCore15QSkeletonLoaderD0Ev
libQt63DCore.so.6:_ZN8Qt3DCore15QSkeletonLoaderD1Ev
libQt63DCore.so.6:_ZN8Qt3DCore15QSkeletonLoaderD2Ev
libQt63DCore.so.6:_ZN8Qt3DCore16AlignedAllocator7releaseEPv
libQt63DCore.so.6:_ZN8Qt3DCore16AlignedAllocator8allocateEj
libQt63DCore.so.6:_ZN8Qt3DCore16QAbstractFunctorD0Ev
libQt63DCore.so.6:_ZN8Qt3DCore16QAbstractFunctorD1Ev
libQt63DCore.so.6:_ZN8Qt3DCore16QAbstractFunctorD2Ev
libQt63DCore.so.6:_ZN8Qt3DCore16QArmaturePrivateC1Ev
libQt63DCore.so.6:_ZN8Qt3DCore16QArmaturePrivateC2Ev
libQt63DCore.so.6:_ZN8Qt3DCore16QDownloadRequest12onDownloadedEv
libQt63DCore.so.6:_ZN8Qt3DCore16QDownloadRequestC2ERK4QUrl
libQt63DCore.so.6:_ZN8Qt3DCore16QDownloadRequestD0Ev
libQt63DCore.so.6:_ZN8Qt3DCore16QDownloadRequestD1Ev
libQt63DCore.so.6:_ZN8Qt3DCore16QDownloadRequestD2Ev
libQt63DCore.so.6:_ZN8Qt3DCore16QGeometryFactoryD0Ev
libQt63DCore.so.6:_ZN8Qt3DCore16QGeometryFactoryD1Ev
libQt63DCore.so.6:_ZN8Qt3DCore16QGeometryFactoryD2Ev
libQt63DCore.so.6:_ZN8Qt3DCore16QGeometryPrivate3getEPNS_9QGeometryE
libQt63DCore.so.6:_ZN8Qt3DCore16QGeometryPrivate6updateEv
libQt63DCore.so.6:_ZN8Qt3DCore16QGeometryPrivate8setSceneEPNS_6QSceneE
libQt63DCore.so.6:_ZN8Qt3DCore16QGeometryPrivate9setExtentERK9QVector3DS3_
libQt63DCore.so.6:_ZN8Qt3DCore16QGeometryPrivateC1Ev
libQt63DCore.so.6:_ZN8Qt3DCore16QGeometryPrivateC2Ev
libQt63DCore.so.6:_ZN8Qt3DCore16QGeometryPrivateD0Ev
libQt63DCore.so.6:_ZN8Qt3DCore16QGeometryPrivateD1Ev
libQt63DCore.so.6:_ZN8Qt3DCore16QGeometryPrivateD2Ev
libQt63DCore.so.6:_ZN8Qt3DCore16QSkeletonPrivateC1Ev
libQt63DCore.so.6:_ZN8Qt3DCore16QSkeletonPrivateC2Ev
libQt63DCore.so.6:_ZN8Qt3DCore17QAbstractSkeleton11qt_metacallEN11QMetaObject4CallEiPPv
libQt63DCore.so.6:_ZN8Qt3DCore17QAbstractSkeleton11qt_metacastEPKc
libQt63DCore.so.6:_ZN8Qt3DCore17QAbstractSkeleton16staticMetaObjectE
libQt63DCore.so.6:_ZN8Qt3DCore17QAbstractSkeleton17jointCountChangedEi
libQt63DCore.so.6:_ZN8Qt3DCore17QAbstractSkeletonC1ERNS_24QAbstractSkeletonPrivateEPNS_5QNodeE
libQt63DCore.so.6:_ZN8Qt3DCore17QAbstractSkeletonC2ERNS_24QAbstractSkeletonPrivateEPNS_5QNodeE
libQt63DCore.so.6:_ZN8Qt3DCore17QAbstractSkeletonD0Ev
libQt63DCore.so.6:_ZN8Qt3DCore17QAbstractSkeletonD1Ev
libQt63DCore.so.6:_ZN8Qt3DCore17QAbstractSkeletonD2Ev
libQt63DCore.so.6:_ZN8Qt3DCore17QAspectJobManager10initializeEv
libQt63DCore.so.6:_ZN8Qt3DCore17QAspectJobManager11enqueueJobsERKSt6vectorI14QSharedPointerINS_10QAspectJobEESaIS4_EE
libQt63DCore.so.6:_ZN8Qt3DCore17QAspectJobManager11qt_metacallEN11QMetaObject4CallEiPPv
libQt63DCore.so.6:_ZN8Qt3DCore17QAspectJobManager11qt_metacastEPKc
libQt63DCore.so.6:_ZN8Qt3DCore17QAspectJobManager14waitForAllJobsEv
libQt63DCore.so.6:_ZN8Qt3DCore17QAspectJobManager16idealThreadCountEv
libQt63DCore.so.6:_ZN8Qt3DCore17QAspectJobManager16staticMetaObjectE
libQt63DCore.so.6:_ZN8Qt3DCore17QAspectJobManager24waitForPerThreadFunctionEPFvPvES1_
libQt63DCore.so.6:_ZN8Qt3DCore17QAspectJobManagerC1EPNS_14QAspectManagerE
libQt63DCore.so.6:_ZN8Qt3DCore17QAspectJobManagerC2EPNS_14QAspectManagerE
libQt63DCore.so.6:_ZN8Qt3DCore17QAspectJobManagerD0Ev
libQt63DCore.so.6:_ZN8Qt3DCore17QAspectJobManagerD1Ev
libQt63DCore.so.6:_ZN8Qt3DCore17QAspectJobManagerD2Ev
libQt63DCore.so.6:_ZN8Qt3DCore17QAspectJobPrivate3getEPNS_10QAspectJobE
libQt63DCore.so.6:_ZN8Qt3DCore17QAspectJobPrivate9postFrameEPNS_14QAspectManagerE
libQt63DCore.so.6:_ZN8Qt3DCore17QAspectJobPrivateC1Ev
libQt63DCore.so.6:_ZN8Qt3DCore17QAspectJobPrivateC2Ev
libQt63DCore.so.6:_ZN8Qt3DCore17QAspectJobPrivateD0Ev
libQt63DCore.so.6:_ZN8Qt3DCore17QAspectJobPrivateD1Ev
libQt63DCore.so.6:_ZN8Qt3DCore17QAspectJobPrivateD2Ev
libQt63DCore.so.6:_ZN8Qt3DCore17QAttributePrivate3getEPNS_10QAttributeE
libQt63DCore.so.6:_ZN8Qt3DCore17QAttributePrivate6updateEv
libQt63DCore.so.6:_ZN8Qt3DCore17QAttributePrivateC1Ev
libQt63DCore.so.6:_ZN8Qt3DCore17QAttributePrivateC2Ev
libQt63DCore.so.6:_ZN8Qt3DCore17QComponentPrivate12removeEntityEPNS_7QEntityE
libQt63DCore.so.6:_ZN8Qt3DCore17QComponentPrivate9addEntityEPNS_7QEntityE
libQt63DCore.so.6:_ZN8Qt3DCore17QComponentPrivateC1Ev
libQt63DCore.so.6:_ZN8Qt3DCore17QComponentPrivateC2Ev
libQt63DCore.so.6:_ZN8Qt3DCore17QComponentPrivateD0Ev
libQt63DCore.so.6:_ZN8Qt3DCore17QComponentPrivateD1Ev
libQt63DCore.so.6:_ZN8Qt3DCore17QComponentPrivateD2Ev
libQt63DCore.so.6:_ZN8Qt3DCore17QTransformPrivate14setWorldMatrixERK10QMatrix4x4
libQt63DCore.so.6:_ZN8Qt3DCore17QTransformPrivate6updateEv
libQt63DCore.so.6:_ZN8Qt3DCore17QTransformPrivateC1Ev
libQt63DCore.so.6:_ZN8Qt3DCore17QTransformPrivateC2Ev
libQt63DCore.so.6:_ZN8Qt3DCore17QTransformPrivateD0Ev
libQt63DCore.so.6:_ZN8Qt3DCore17QTransformPrivateD1Ev
libQt63DCore.so.6:_ZN8Qt3DCore17QTransformPrivateD2Ev
libQt63DCore.so.6:_ZN8Qt3DCore18QBackendNodeMapperD0Ev
libQt63DCore.so.6:_ZN8Qt3DCore18QBackendNodeMapperD1Ev
libQt63DCore.so.6:_ZN8Qt3DCore18QBackendNodeMapperD2Ev
libQt63DCore.so.6:_ZN8Qt3DCore18QCoreAspectPrivate3getEPNS_11QCoreAspectE
libQt63DCore.so.6:_ZN8Qt3DCore18QCoreAspectPrivate8jobsDoneEv
libQt63DCore.so.6:_ZN8Qt3DCore18QCoreAspectPrivate9frameDoneEv
libQt63DCore.so.6:_ZN8Qt3DCore18QCoreAspectPrivateC1Ev
libQt63DCore.so.6:_ZN8Qt3DCore18QCoreAspectPrivateC2Ev
libQt63DCore.so.6:_ZN8Qt3DCore18QCoreAspectPrivateD0Ev
libQt63DCore.so.6:_ZN8Qt3DCore18QCoreAspectPrivateD1Ev
libQt63DCore.so.6:_ZN8Qt3DCore18QCoreAspectPrivateD2Ev
libQt63DCore.so.6:_ZN8Qt3DCore19QBackendNodePrivate10setEnabledEb
libQt63DCore.so.6:_ZN8Qt3DCore19QBackendNodePrivate13addedToEntityEPNS_5QNodeE
libQt63DCore.so.6:_ZN8Qt3DCore19QBackendNodePrivate14componentAddedEPNS_5QNodeE
libQt63DCore.so.6:_ZN8Qt3DCore19QBackendNodePrivate16componentRemovedEPNS_5QNodeE
libQt63DCore.so.6:_ZN8Qt3DCore19QBackendNodePrivate17removedFromEntityEPNS_5QNodeE
libQt63DCore.so.6:_ZN8Qt3DCore19QBackendNodePrivate3getEPNS_12QBackendNodeE
libQt63DCore.so.6:_ZN8Qt3DCore19QBackendNodePrivateC1ENS_12QBackendNode4ModeE
libQt63DCore.so.6:_ZN8Qt3DCore19QBackendNodePrivateC2ENS_12QBackendNode4ModeE
libQt63DCore.so.6:_ZN8Qt3DCore19QBackendNodePrivateD0Ev
libQt63DCore.so.6:_ZN8Qt3DCore19QBackendNodePrivateD1Ev
libQt63DCore.so.6:_ZN8Qt3DCore19QBackendNodePrivateD2Ev
libQt63DCore.so.6:_ZN8Qt3DCore19QEventFilterService10initializeEP7QObject
libQt63DCore.so.6:_ZN8Qt3DCore19QEventFilterService11qt_metacallEN11QMetaObject4CallEiPPv
libQt63DCore.so.6:_ZN8Qt3DCore19QEventFilterService11qt_metacastEPKc
libQt63DCore.so.6:_ZN8Qt3DCore19QEventFilterService16staticMetaObjectE
libQt63DCore.so.6:_ZN8Qt3DCore19QEventFilterService19registerEventFilterEP7QObjecti
libQt63DCore.so.6:_ZN8Qt3DCore19QEventFilterService21unregisterEventFilterEP7QObject
libQt63DCore.so.6:_ZN8Qt3DCore19QEventFilterService8shutdownEP7QObject
libQt63DCore.so.6:_ZN8Qt3DCore19QEventFilterServiceC1Ev
libQt63DCore.so.6:_ZN8Qt3DCore19QEventFilterServiceC2Ev
libQt63DCore.so.6:_ZN8Qt3DCore19QEventFilterServiceD0Ev
libQt63DCore.so.6:_ZN8Qt3DCore19QEventFilterServiceD1Ev
libQt63DCore.so.6:_ZN8Qt3DCore19QEventFilterServiceD2Ev
libQt63DCore.so.6:_ZN8Qt3DCore20QAbstractNodeFactory13nodeFactoriesEv
libQt63DCore.so.6:_ZN8Qt3DCore20QAbstractNodeFactory19registerNodeFactoryEPS0_
libQt63DCore.so.6:_ZN8Qt3DCore20QAbstractNodeFactoryD0Ev
libQt63DCore.so.6:_ZN8Qt3DCore20QAbstractNodeFactoryD1Ev
libQt63DCore.so.6:_ZN8Qt3DCore20QAbstractNodeFactoryD2Ev
libQt63DCore.so.6:_ZN8Qt3DCore20QAspectEnginePrivate10initEntityEPNS_7QEntityE
libQt63DCore.so.6:_ZN8Qt3DCore20QAspectEnginePrivate10initializeEv
libQt63DCore.so.6:_ZN8Qt3DCore20QAspectEnginePrivate10removeNodeEPNS_5QNodeE
libQt63DCore.so.6:_ZN8Qt3DCore20QAspectEnginePrivate12initNodeTreeEPNS_5QNodeE
libQt63DCore.so.6:_ZN8Qt3DCore20QAspectEnginePrivate18exitSimulationLoopEv
libQt63DCore.so.6:_ZN8Qt3DCore20QAspectEnginePrivate3getEPNS_13QAspectEngineE
libQt63DCore.so.6:_ZN8Qt3DCore20QAspectEnginePrivate7addNodeEPNS_5QNodeE
libQt63DCore.so.6:_ZN8Qt3DCore20QAspectEnginePrivate8initNodeEPNS_5QNodeE
libQt63DCore.so.6:_ZN8Qt3DCore20QAspectEnginePrivate8shutdownEv
libQt63DCore.so.6:_ZN8Qt3DCore20QAspectEnginePrivateC1Ev
libQt63DCore.so.6:_ZN8Qt3DCore20QAspectEnginePrivateC2Ev
libQt63DCore.so.6:_ZN8Qt3DCore20QAspectEnginePrivateD0Ev
libQt63DCore.so.6:_ZN8Qt3DCore20QAspectEnginePrivateD1Ev
libQt63DCore.so.6:_ZN8Qt3DCore20QAspectEnginePrivateD2Ev
libQt63DCore.so.6:_ZN8Qt3DCore20QCoreSettingsPrivate3getEPNS_13QCoreSettingsE
libQt63DCore.so.6:_ZN8Qt3DCore20QCoreSettingsPrivateC1Ev
libQt63DCore.so.6:_ZN8Qt3DCore20QCoreSettingsPrivateC2Ev
libQt63DCore.so.6:_ZN8Qt3DCore20QGeometryViewPrivate3getEPNS_13QGeometryViewE
libQt63DCore.so.6:_ZN8Qt3DCore20QGeometryViewPrivate6updateEv
libQt63DCore.so.6:_ZN8Qt3DCore20QGeometryViewPrivateC1Ev
libQt63DCore.so.6:_ZN8Qt3DCore20QGeometryViewPrivateC2Ev
libQt63DCore.so.6:_ZN8Qt3DCore20QGeometryViewPrivateD0Ev
libQt63DCore.so.6:_ZN8Qt3DCore20QGeometryViewPrivateD1Ev
libQt63DCore.so.6:_ZN8Qt3DCore20QGeometryViewPrivateD2Ev
libQt63DCore.so.6:_ZN8Qt3DCore22QAbstractAspectPrivate13jobsToExecuteEx
libQt63DCore.so.6:_ZN8Qt3DCore22QAbstractAspectPrivate21setRootAndCreateNodesEPNS_7QEntityERK5QListINS_14NodeTreeChangeEE
libQt63DCore.so.6:_ZN8Qt3DCore22QAbstractAspectPrivate21unregisterBackendTypeERK11QMetaObject
libQt63DCore.so.6:_ZN8Qt3DCore22QAbstractAspectPrivate22syncDirtyFrontEndNodesERK5QListIPNS_5QNodeEE
libQt63DCore.so.6:_ZN8Qt3DCore22QAbstractAspectPrivate23onEngineAboutToShutdownEv
libQt63DCore.so.6:_ZN8Qt3DCore22QAbstractAspectPrivate29syncDirtyEntityComponentNodesERK5QListINS_27ComponentRelationshipChangeEE
libQt63DCore.so.6:_ZN8Qt3DCore22QAbstractAspectPrivate3getEPNS_15QAbstractAspectE
libQt63DCore.so.6:_ZN8Qt3DCore22QAbstractAspectPrivate8jobsDoneEv
libQt63DCore.so.6:_ZN8Qt3DCore22QAbstractAspectPrivate9frameDoneEv
libQt63DCore.so.6:_ZN8Qt3DCore22QAbstractAspectPrivateC1Ev
libQt63DCore.so.6:_ZN8Qt3DCore22QAbstractAspectPrivateC2Ev
libQt63DCore.so.6:_ZN8Qt3DCore22QAbstractAspectPrivateD0Ev
libQt63DCore.so.6:_ZN8Qt3DCore22QAbstractAspectPrivateD1Ev
libQt63DCore.so.6:_ZN8Qt3DCore22QAbstractAspectPrivateD2Ev
libQt63DCore.so.6:_ZN8Qt3DCore22QBoundingVolumePrivate17setImplicitBoundsERK9QVector3DS3_S3_f
libQt63DCore.so.6:_ZN8Qt3DCore22QBoundingVolumePrivate3getEPNS_15QBoundingVolumeE
libQt63DCore.so.6:_ZN8Qt3DCore22QBoundingVolumePrivate7setViewEPNS_13QGeometryViewE
libQt63DCore.so.6:_ZN8Qt3DCore22QBoundingVolumePrivateC1Ev
libQt63DCore.so.6:_ZN8Qt3DCore22QBoundingVolumePrivateC2Ev
libQt63DCore.so.6:_ZN8Qt3DCore22QDownloadHelperService10getServiceEPNS_13QAspectEngineE
libQt63DCore.so.6:_ZN8Qt3DCore22QDownloadHelperService11qt_metacallEN11QMetaObject4CallEiPPv
libQt63DCore.so.6:_ZN8Qt3DCore22QDownloadHelperService11qt_metacastEPKc
libQt63DCore.so.6:_ZN8Qt3DCore22QDownloadHelperService13cancelRequestERK14QSharedPointerINS_16QDownloadRequestEE
libQt63DCore.so.6:_ZN8Qt3DCore22QDownloadHelperService13submitRequestERK14QSharedPointerINS_16QDownloadRequestEE
libQt63DCore.so.6:_ZN8Qt3DCore22QDownloadHelperService16staticMetaObjectE
libQt63DCore.so.6:_ZN8Qt3DCore22QDownloadHelperService17cancelAllRequestsEv
libQt63DCore.so.6:_ZN8Qt3DCore22QDownloadHelperService19urlToLocalFileOrQrcERK4QUrl
libQt63DCore.so.6:_ZN8Qt3DCore22QDownloadHelperService7isLocalERK4QUrl
libQt63DCore.so.6:_ZN8Qt3DCore22QDownloadHelperServiceC1ERK7QString
libQt63DCore.so.6:_ZN8Qt3DCore22QDownloadHelperServiceC2ERK7QString
libQt63DCore.so.6:_ZN8Qt3DCore22QDownloadHelperServiceD0Ev
libQt63DCore.so.6:_ZN8Qt3DCore22QDownloadHelperServiceD1Ev
libQt63DCore.so.6:_ZN8Qt3DCore22QDownloadHelperServiceD2Ev
libQt63DCore.so.6:_ZN8Qt3DCore22QSkeletonLoaderPrivate12setRootJointEPNS_6QJointE
libQt63DCore.so.6:_ZN8Qt3DCore22QSkeletonLoaderPrivate9setStatusENS_15QSkeletonLoader6StatusE
libQt63DCore.so.6:_ZN8Qt3DCore22QSkeletonLoaderPrivateC1Ev
libQt63DCore.so.6:_ZN8Qt3DCore22QSkeletonLoaderPrivateC2Ev
libQt63DCore.so.6:_ZN8Qt3DCore24QAbstractServiceProvider11qt_metacallEN11QMetaObject4CallEiPPv
libQt63DCore.so.6:_ZN8Qt3DCore24QAbstractServiceProvider11qt_metacastEPKc
libQt63DCore.so.6:_ZN8Qt3DCore24QAbstractServiceProvider16staticMetaObjectE
libQt63DCore.so.6:_ZN8Qt3DCore24QAbstractServiceProviderC1ERNS_31QAbstractServiceProviderPrivateEP7QObject
libQt63DCore.so.6:_ZN8Qt3DCore24QAbstractServiceProviderC1EiRK7QStringP7QObject
libQt63DCore.so.6:_ZN8Qt3DCore24QAbstractServiceProviderC2ERNS_31QAbstractServiceProviderPrivateEP7QObject
libQt63DCore.so.6:_ZN8Qt3DCore24QAbstractServiceProviderC2EiRK7QStringP7QObject
libQt63DCore.so.6:_ZN8Qt3DCore24QAbstractServiceProviderD0Ev
libQt63DCore.so.6:_ZN8Qt3DCore24QAbstractServiceProviderD1Ev
libQt63DCore.so.6:_ZN8Qt3DCore24QAbstractServiceProviderD2Ev
libQt63DCore.so.6:_ZN8Qt3DCore24QAbstractSkeletonPrivate13setJointCountEi
libQt63DCore.so.6:_ZN8Qt3DCore24QAbstractSkeletonPrivate3getEPKNS_17QAbstractSkeletonE
libQt63DCore.so.6:_ZN8Qt3DCore24QAbstractSkeletonPrivate3getEPNS_17QAbstractSkeletonE
libQt63DCore.so.6:_ZN8Qt3DCore24QAbstractSkeletonPrivateC1Ev
libQt63DCore.so.6:_ZN8Qt3DCore24QAbstractSkeletonPrivateC2Ev
libQt63DCore.so.6:_ZN8Qt3DCore25BoundingVolumeComputeData8fromViewEPNS_13QGeometryViewE
libQt63DCore.so.6:_ZN8Qt3DCore25PropertyChangeHandlerBase11qt_metacallEN11QMetaObject4CallEiPPv
libQt63DCore.so.6:_ZN8Qt3DCore25PropertyChangeHandlerBase11qt_metacastEPKc
libQt63DCore.so.6:_ZN8Qt3DCore25PropertyChangeHandlerBase16staticMetaObjectE
libQt63DCore.so.6:_ZN8Qt3DCore25PropertyChangeHandlerBase23connectToPropertyChangeEPK7QObjecti
libQt63DCore.so.6:_ZN8Qt3DCore25PropertyChangeHandlerBase28disconnectFromPropertyChangeEPK7QObjecti
libQt63DCore.so.6:_ZN8Qt3DCore25PropertyChangeHandlerBaseC1EP7QObject
libQt63DCore.so.6:_ZN8Qt3DCore25PropertyChangeHandlerBaseC2EP7QObject
libQt63DCore.so.6:_ZN8Qt3DCore25QAbstractAspectJobManager11qt_metacallEN11QMetaObject4CallEiPPv
libQt63DCore.so.6:_ZN8Qt3DCore25QAbstractAspectJobManager11qt_metacastEPKc
libQt63DCore.so.6:_ZN8Qt3DCore25QAbstractAspectJobManager16staticMetaObjectE
libQt63DCore.so.6:_ZN8Qt3DCore25QAbstractAspectJobManagerC2EP7QObject
libQt63DCore.so.6:_ZN8Qt3DCore25QOpenGLInformationService11qt_metacallEN11QMetaObject4CallEiPPv
libQt63DCore.so.6:_ZN8Qt3DCore25QOpenGLInformationService11qt_metacastEPKc
libQt63DCore.so.6:_ZN8Qt3DCore25QOpenGLInformationService16staticMetaObjectE
libQt63DCore.so.6:_ZN8Qt3DCore25QOpenGLInformationServiceC2ERK7QString
libQt63DCore.so.6:_ZN8Qt3DCore25QOpenGLInformationServiceC2ERNS_32QOpenGLInformationServicePrivateE
libQt63DCore.so.6:_ZN8Qt3DCore25QSystemInformationService11dumpCommandERK7QString
libQt63DCore.so.6:_ZN8Qt3DCore25QSystemInformationService11qt_metacallEN11QMetaObject4CallEiPPv
libQt63DCore.so.6:_ZN8Qt3DCore25QSystemInformationService11qt_metacastEPKc
libQt63DCore.so.6:_ZN8Qt3DCore25QSystemInformationService14executeCommandERK7QString
libQt63DCore.so.6:_ZN8Qt3DCore25QSystemInformationService15revealLogFolderEv
libQt63DCore.so.6:_ZN8Qt3DCore25QSystemInformationService15setTraceEnabledEb
libQt63DCore.so.6:_ZN8Qt3DCore25QSystemInformationService16staticMetaObjectE
libQt63DCore.so.6:_ZN8Qt3DCore25QSystemInformationService19traceEnabledChangedEb
libQt63DCore.so.6:_ZN8Qt3DCore25QSystemInformationService23setGraphicsTraceEnabledEb
libQt63DCore.so.6:_ZN8Qt3DCore25QSystemInformationService24writePreviousFrameTracesEv
libQt63DCore.so.6:_ZN8Qt3DCore25QSystemInformationService27graphicsTraceEnabledChangedEb
libQt63DCore.so.6:_ZN8Qt3DCore25QSystemInformationServiceC1EPNS_13QAspectEngineE
libQt63DCore.so.6:_ZN8Qt3DCore25QSystemInformationServiceC1EPNS_13QAspectEngineERK7QString
libQt63DCore.so.6:_ZN8Qt3DCore25QSystemInformationServiceC1ERNS_32QSystemInformationServicePrivateE
libQt63DCore.so.6:_ZN8Qt3DCore25QSystemInformationServiceC2EPNS_13QAspectEngineE
libQt63DCore.so.6:_ZN8Qt3DCore25QSystemInformationServiceC2EPNS_13QAspectEngineERK7QString
libQt63DCore.so.6:_ZN8Qt3DCore25QSystemInformationServiceC2ERNS_32QSystemInformationServicePrivateE
libQt63DCore.so.6:_ZN8Qt3DCore26CalculateBoundingVolumeJob10addWatcherE12QWeakPointerINS_26BoundingVolumeJobProcessorEE
libQt63DCore.so.6:_ZN8Qt3DCore26CalculateBoundingVolumeJob10isRequiredEv
libQt63DCore.so.6:_ZN8Qt3DCore26CalculateBoundingVolumeJob13removeWatcherE12QWeakPointerINS_26BoundingVolumeJobProcessorEE
libQt63DCore.so.6:_ZN8Qt3DCore26CalculateBoundingVolumeJob3runEv
libQt63DCore.so.6:_ZN8Qt3DCore26CalculateBoundingVolumeJob9postFrameEPNS_13QAspectEngineE
libQt63DCore.so.6:_ZN8Qt3DCore26CalculateBoundingVolumeJobC1EPNS_11QCoreAspectE
libQt63DCore.so.6:_ZN8Qt3DCore26CalculateBoundingVolumeJobC2EPNS_11QCoreAspectE
libQt63DCore.so.6:_ZN8Qt3DCore28QAbstractFrameAdvanceService11qt_metacallEN11QMetaObject4CallEiPPv
libQt63DCore.so.6:_ZN8Qt3DCore28QAbstractFrameAdvanceService11qt_metacastEPKc
libQt63DCore.so.6:_ZN8Qt3DCore28QAbstractFrameAdvanceService16staticMetaObjectE
libQt63DCore.so.6:_ZN8Qt3DCore28QAbstractFrameAdvanceServiceC2ERK7QString
libQt63DCore.so.6:_ZN8Qt3DCore28QAbstractFrameAdvanceServiceC2ERNS_35QAbstractFrameAdvanceServicePrivateE
libQt63DCore.so.6:_ZN8Qt3DCore28QAbstractFrontEndNodeManagerC2Ev
libQt63DCore.so.6:_ZN8Qt3DCore28QAbstractFrontEndNodeManagerD0Ev
libQt63DCore.so.6:_ZN8Qt3DCore28QAbstractFrontEndNodeManagerD1Ev
libQt63DCore.so.6:_ZN8Qt3DCore28QAbstractFrontEndNodeManagerD2Ev
libQt63DCore.so.6:_ZN8Qt3DCore32QSystemInformationServicePrivate13updateTracingEv
libQt63DCore.so.6:_ZN8Qt3DCore32QSystemInformationServicePrivate19addJobLogStatsEntryERNS0_11JobRunStatsE
libQt63DCore.so.6:_ZN8Qt3DCore32QSystemInformationServicePrivate21writeFrameJobLogStatsEv
libQt63DCore.so.6:_ZN8Qt3DCore32QSystemInformationServicePrivate26addSubmissionLogStatsEntryERNS0_11JobRunStatsE
libQt63DCore.so.6:_ZN8Qt3DCore32QSystemInformationServicePrivate3getEPNS_25QSystemInformationServiceE
libQt63DCore.so.6:_ZN8Qt3DCore32QSystemInformationServicePrivateC1EPNS_13QAspectEngineERK7QString
libQt63DCore.so.6:_ZN8Qt3DCore32QSystemInformationServicePrivateC2EPNS_13QAspectEngineERK7QString
libQt63DCore.so.6:_ZN8Qt3DCore32QSystemInformationServicePrivateD0Ev
libQt63DCore.so.6:_ZN8Qt3DCore32QSystemInformationServicePrivateD1Ev
libQt63DCore.so.6:_ZN8Qt3DCore32QSystemInformationServicePrivateD2Ev
libQt63DCore.so.6:_ZN8Qt3DCore37qt3d_QAspectFactory_addDefaultFactoryERK13QLatin1StringPK11QMetaObjectPFPNS_15QAbstractAspectEP7QObjectE
libQt63DCore.so.6:_ZN8Qt3DCore5Debug21AspectCommandDebugger10ReadBuffer4trimEv
libQt63DCore.so.6:_ZN8Qt3DCore5Debug21AspectCommandDebugger10ReadBuffer6insertERK10QByteArray
libQt63DCore.so.6:_ZN8Qt3DCore5Debug21AspectCommandDebugger10initializeEv
libQt63DCore.so.6:_ZN8Qt3DCore5Debug21AspectCommandDebugger11qt_metacallEN11QMetaObject4CallEiPPv
libQt63DCore.so.6:_ZN8Qt3DCore5Debug21AspectCommandDebugger11qt_metacastEPKc
libQt63DCore.so.6:_ZN8Qt3DCore5Debug21AspectCommandDebugger14executeCommandERK7QStringP10QTcpSocket
libQt63DCore.so.6:_ZN8Qt3DCore5Debug21AspectCommandDebugger16staticMetaObjectE
libQt63DCore.so.6:_ZN8Qt3DCore5Debug21AspectCommandDebugger17onCommandReceivedEP10QTcpSocket
libQt63DCore.so.6:_ZN8Qt3DCore5Debug21AspectCommandDebugger25asynchronousReplyFinishedEPNS0_24AsynchronousCommandReplyE
libQt63DCore.so.6:_ZN8Qt3DCore5Debug21AspectCommandDebugger9sendReplyEP10QTcpSocketRK10QByteArray
libQt63DCore.so.6:_ZN8Qt3DCore5Debug21AspectCommandDebuggerC1EPNS_25QSystemInformationServiceE
libQt63DCore.so.6:_ZN8Qt3DCore5Debug21AspectCommandDebuggerC2EPNS_25QSystemInformationServiceE
libQt63DCore.so.6:_ZN8Qt3DCore5Debug24AsynchronousCommandReply11qt_metacallEN11QMetaObject4CallEiPPv
libQt63DCore.so.6:_ZN8Qt3DCore5Debug24AsynchronousCommandReply11qt_metacastEPKc
libQt63DCore.so.6:_ZN8Qt3DCore5Debug24AsynchronousCommandReply11setFinishedEb
libQt63DCore.so.6:_ZN8Qt3DCore5Debug24AsynchronousCommandReply16staticMetaObjectE
libQt63DCore.so.6:_ZN8Qt3DCore5Debug24AsynchronousCommandReply7setDataERK10QByteArray
libQt63DCore.so.6:_ZN8Qt3DCore5Debug24AsynchronousCommandReply8finishedEPS1_
libQt63DCore.so.6:_ZN8Qt3DCore5Debug24AsynchronousCommandReplyC1ERK7QStringP7QObject
libQt63DCore.so.6:_ZN8Qt3DCore5Debug24AsynchronousCommandReplyC2ERK7QStringP7QObject
libQt63DCore.so.6:_ZN8Qt3DCore5QNode10setEnabledEb
libQt63DCore.so.6:_ZN8Qt3DCore5QNode11qt_metacallEN11QMetaObject4CallEiPPv
libQt63DCore.so.6:_ZN8Qt3DCore5QNode11qt_metacastEPKc
libQt63DCore.so.6:_ZN8Qt3DCore5QNode13nodeDestroyedEv
libQt63DCore.so.6:_ZN8Qt3DCore5QNode13parentChangedEP7QObject
libQt63DCore.so.6:_ZN8Qt3DCore5QNode14enabledChangedEb
libQt63DCore.so.6:_ZN8Qt3DCore5QNode16staticMetaObjectE
libQt63DCore.so.6:_ZN8Qt3DCore5QNode18blockNotificationsEb
libQt63DCore.so.6:_ZN8Qt3DCore5QNode9setParentEPS0_
libQt63DCore.so.6:_ZN8Qt3DCore5QNodeC1EPS0_
libQt63DCore.so.6:_ZN8Qt3DCore5QNodeC1ERNS_12QNodePrivateEPS0_
libQt63DCore.so.6:_ZN8Qt3DCore5QNodeC2EPS0_
libQt63DCore.so.6:_ZN8Qt3DCore5QNodeC2ERNS_12QNodePrivateEPS0_
libQt63DCore.so.6:_ZN8Qt3DCore5QNodeD0Ev
libQt63DCore.so.6:_ZN8Qt3DCore5QNodeD1Ev
libQt63DCore.so.6:_ZN8Qt3DCore5QNodeD2Ev
libQt63DCore.so.6:_ZN8Qt3DCore6QJoint11nameChangedERK7QString
libQt63DCore.so.6:_ZN8Qt3DCore6QJoint11qt_metacallEN11QMetaObject4CallEiPPv
libQt63DCore.so.6:_ZN8Qt3DCore6QJoint11qt_metacastEPKc
libQt63DCore.so.6:_ZN8Qt3DCore6QJoint11setRotationERK11QQuaternion
libQt63DCore.so.6:_ZN8Qt3DCore6QJoint12scaleChangedERK9QVector3D
libQt63DCore.so.6:_ZN8Qt3DCore6QJoint12setRotationXEf
libQt63DCore.so.6:_ZN8Qt3DCore6QJoint12setRotationYEf
libQt63DCore.so.6:_ZN8Qt3DCore6QJoint12setRotationZEf
libQt63DCore.so.6:_ZN8Qt3DCore6QJoint13addChildJointEPS0_
libQt63DCore.so.6:_ZN8Qt3DCore6QJoint13setToIdentityEv
libQt63DCore.so.6:_ZN8Qt3DCore6QJoint14setTranslationERK9QVector3D
libQt63DCore.so.6:_ZN8Qt3DCore6QJoint15rotationChangedERK11QQuaternion
libQt63DCore.so.6:_ZN8Qt3DCore6QJoint16removeChildJointEPS0_
libQt63DCore.so.6:_ZN8Qt3DCore6QJoint16rotationXChangedEf
libQt63DCore.so.6:_ZN8Qt3DCore6QJoint16rotationYChangedEf
libQt63DCore.so.6:_ZN8Qt3DCore6QJoint16rotationZChangedEf
libQt63DCore.so.6:_ZN8Qt3DCore6QJoint16staticMetaObjectE
libQt63DCore.so.6:_ZN8Qt3DCore6QJoint18translationChangedERK9QVector3D
libQt63DCore.so.6:_ZN8Qt3DCore6QJoint20setInverseBindMatrixERK10QMatrix4x4
libQt63DCore.so.6:_ZN8Qt3DCore6QJoint24inverseBindMatrixChangedERK10QMatrix4x4
libQt63DCore.so.6:_ZN8Qt3DCore6QJoint7setNameERK7QString
libQt63DCore.so.6:_ZN8Qt3DCore6QJoint8setScaleERK9QVector3D
libQt63DCore.so.6:_ZN8Qt3DCore6QJointC1EPNS_5QNodeE
libQt63DCore.so.6:_ZN8Qt3DCore6QJointC2EPNS_5QNodeE
libQt63DCore.so.6:_ZN8Qt3DCore6QJointD0Ev
libQt63DCore.so.6:_ZN8Qt3DCore6QJointD1Ev
libQt63DCore.so.6:_ZN8Qt3DCore6QJointD2Ev
libQt63DCore.so.6:_ZN8Qt3DCore6QScene10setArbiterEPNS_14QChangeArbiterE
libQt63DCore.so.6:_ZN8Qt3DCore6QScene11setRootNodeEPNS_5QNodeE
libQt63DCore.so.6:_ZN8Qt3DCore6QScene13addObservableEPNS_5QNodeE
libQt63DCore.so.6:_ZN8Qt3DCore6QScene14clearDirtyBitsEv
libQt63DCore.so.6:_ZN8Qt3DCore6QScene16removeObservableEPNS_5QNodeE
libQt63DCore.so.6:_ZN8Qt3DCore6QScene21addEntityForComponentENS_7QNodeIdES1_
libQt63DCore.so.6:_ZN8Qt3DCore6QScene21hasEntityForComponentENS_7QNodeIdES1_
libQt63DCore.so.6:_ZN8Qt3DCore6QScene24removeEntityForComponentENS_7QNodeIdES1_
libQt63DCore.so.6:_ZN8Qt3DCore6QScene9dirtyBitsEv
libQt63DCore.so.6:_ZN8Qt3DCore6QScene9markDirtyE6QFlagsINS0_13DirtyNodeFlagEE
libQt63DCore.so.6:_ZN8Qt3DCore6QSceneC1EPNS_13QAspectEngineE
libQt63DCore.so.6:_ZN8Qt3DCore6QSceneC2EPNS_13QAspectEngineE
libQt63DCore.so.6:_ZN8Qt3DCore6QSceneD0Ev
libQt63DCore.so.6:_ZN8Qt3DCore6QSceneD1Ev
libQt63DCore.so.6:_ZN8Qt3DCore6QSceneD2Ev
libQt63DCore.so.6:_ZN8Qt3DCore7QBuffer10updateDataEiRK10QByteArray
libQt63DCore.so.6:_ZN8Qt3DCore7QBuffer11dataChangedERK10QByteArray
libQt63DCore.so.6:_ZN8Qt3DCore7QBuffer11qt_metacallEN11QMetaObject4CallEiPPv
libQt63DCore.so.6:_ZN8Qt3DCore7QBuffer11qt_metacastEPKc
libQt63DCore.so.6:_ZN8Qt3DCore7QBuffer12usageChangedENS0_9UsageTypeE
libQt63DCore.so.6:_ZN8Qt3DCore7QBuffer13dataAvailableEv
libQt63DCore.so.6:_ZN8Qt3DCore7QBuffer13setAccessTypeENS0_10AccessTypeE
libQt63DCore.so.6:_ZN8Qt3DCore7QBuffer16staticMetaObjectE
libQt63DCore.so.6:_ZN8Qt3DCore7QBuffer17accessTypeChangedENS0_10AccessTypeE
libQt63DCore.so.6:_ZN8Qt3DCore7QBuffer7setDataERK10QByteArray
libQt63DCore.so.6:_ZN8Qt3DCore7QBuffer8setUsageENS0_9UsageTypeE
libQt63DCore.so.6:_ZN8Qt3DCore7QBufferC1EPNS_5QNodeE
libQt63DCore.so.6:_ZN8Qt3DCore7QBufferC2EPNS_5QNodeE
libQt63DCore.so.6:_ZN8Qt3DCore7QBufferD0Ev
libQt63DCore.so.6:_ZN8Qt3DCore7QBufferD1Ev
libQt63DCore.so.6:_ZN8Qt3DCore7QBufferD2Ev
libQt63DCore.so.6:_ZN8Qt3DCore7QEntity11qt_metacallEN11QMetaObject4CallEiPPv
libQt63DCore.so.6:_ZN8Qt3DCore7QEntity11qt_metacastEPKc
libQt63DCore.so.6:_ZN8Qt3DCore7QEntity12addComponentEPNS_10QComponentE
libQt63DCore.so.6:_ZN8Qt3DCore7QEntity15onParentChangedEP7QObject
libQt63DCore.so.6:_ZN8Qt3DCore7QEntity15removeComponentEPNS_10QComponentE
libQt63DCore.so.6:_ZN8Qt3DCore7QEntity16staticMetaObjectE
libQt63DCore.so.6:_ZN8Qt3DCore7QEntityC1EPNS_5QNodeE
libQt63DCore.so.6:_ZN8Qt3DCore7QEntityC1ERNS_14QEntityPrivateEPNS_5QNodeE
libQt63DCore.so.6:_ZN8Qt3DCore7QEntityC2EPNS_5QNodeE
libQt63DCore.so.6:_ZN8Qt3DCore7QEntityC2ERNS_14QEntityPrivateEPNS_5QNodeE
libQt63DCore.so.6:_ZN8Qt3DCore7QEntityD0Ev
libQt63DCore.so.6:_ZN8Qt3DCore7QEntityD1Ev
libQt63DCore.so.6:_ZN8Qt3DCore7QEntityD2Ev
libQt63DCore.so.6:_ZN8Qt3DCore7QNodeId8createIdEv
libQt63DCore.so.6:_ZN8Qt3DCore9QArmature11qt_metacallEN11QMetaObject4CallEiPPv
libQt63DCore.so.6:_ZN8Qt3DCore9QArmature11qt_metacastEPKc
libQt63DCore.so.6:_ZN8Qt3DCore9QArmature11setSkeletonEPNS_17QAbstractSkeletonE
libQt63DCore.so.6:_ZN8Qt3DCore9QArmature15skeletonChangedEPNS_17QAbstractSkeletonE
libQt63DCore.so.6:_ZN8Qt3DCore9QArmature16staticMetaObjectE
libQt63DCore.so.6:_ZN8Qt3DCore9QArmatureC1EPNS_5QNodeE
libQt63DCore.so.6:_ZN8Qt3DCore9QArmatureC1ERNS_16QArmaturePrivateEPNS_5QNodeE
libQt63DCore.so.6:_ZN8Qt3DCore9QArmatureC2EPNS_5QNodeE
libQt63DCore.so.6:_ZN8Qt3DCore9QArmatureC2ERNS_16QArmaturePrivateEPNS_5QNodeE
libQt63DCore.so.6:_ZN8Qt3DCore9QArmatureD0Ev
libQt63DCore.so.6:_ZN8Qt3DCore9QArmatureD1Ev
libQt63DCore.so.6:_ZN8Qt3DCore9QArmatureD2Ev
libQt63DCore.so.6:_ZN8Qt3DCore9QGeometry11qt_metacallEN11QMetaObject4CallEiPPv
libQt63DCore.so.6:_ZN8Qt3DCore9QGeometry11qt_metacastEPKc
libQt63DCore.so.6:_ZN8Qt3DCore9QGeometry12addAttributeEPNS_10QAttributeE
libQt63DCore.so.6:_ZN8Qt3DCore9QGeometry15removeAttributeEPNS_10QAttributeE
libQt63DCore.so.6:_ZN8Qt3DCore9QGeometry16maxExtentChangedERK9QVector3D
libQt63DCore.so.6:_ZN8Qt3DCore9QGeometry16minExtentChangedERK9QVector3D
libQt63DCore.so.6:_ZN8Qt3DCore9QGeometry16staticMetaObjectE
libQt63DCore.so.6:_ZN8Qt3DCore9QGeometry34setBoundingVolumePositionAttributeEPNS_10QAttributeE
libQt63DCore.so.6:_ZN8Qt3DCore9QGeometry38boundingVolumePositionAttributeChangedEPNS_10QAttributeE
libQt63DCore.so.6:_ZN8Qt3DCore9QGeometryC1EPNS_5QNodeE
libQt63DCore.so.6:_ZN8Qt3DCore9QGeometryC1ERNS_16QGeometryPrivateEPNS_5QNodeE
libQt63DCore.so.6:_ZN8Qt3DCore9QGeometryC2EPNS_5QNodeE
libQt63DCore.so.6:_ZN8Qt3DCore9QGeometryC2ERNS_16QGeometryPrivateEPNS_5QNodeE
libQt63DCore.so.6:_ZN8Qt3DCore9QGeometryD0Ev
libQt63DCore.so.6:_ZN8Qt3DCore9QGeometryD1Ev
libQt63DCore.so.6:_ZN8Qt3DCore9QGeometryD2Ev
libQt63DCore.so.6:_ZN8Qt3DCore9QSkeleton11qt_metacallEN11QMetaObject4CallEiPPv
libQt63DCore.so.6:_ZN8Qt3DCore9QSkeleton11qt_metacastEPKc
libQt63DCore.so.6:_ZN8Qt3DCore9QSkeleton12setRootJointEPNS_6QJointE
libQt63DCore.so.6:_ZN8Qt3DCore9QSkeleton16rootJointChangedEPNS_6QJointE
libQt63DCore.so.6:_ZN8Qt3DCore9QSkeleton16staticMetaObjectE
libQt63DCore.so.6:_ZN8Qt3DCore9QSkeletonC1EPNS_5QNodeE
libQt63DCore.so.6:_ZN8Qt3DCore9QSkeletonC2EPNS_5QNodeE
libQt63DCore.so.6:_ZN8Qt3DCore9QSkeletonD0Ev
libQt63DCore.so.6:_ZN8Qt3DCore9QSkeletonD1Ev
libQt63DCore.so.6:_ZN8Qt3DCore9QSkeletonD2Ev
libQt63DCore.so.6:_ZN8Qt3DCorelsE6QDebugNS_7QNodeIdE
libQt63DCore.so.6:_ZN8Qt3DCorelsE6QDebugRKNS_12Vector3D_SSEE
libQt63DCore.so.6:_ZN8Qt3DCorelsE6QDebugRKNS_12Vector4D_SSEE
libQt63DCore.so.6:_ZN8Qt3DCorelsE6QDebugRKNS_13Matrix4x4_SSEE
libQt63DCore.so.6:_ZNK8Qt3DCore10QAspectJob12dependenciesEv
libQt63DCore.so.6:_ZNK8Qt3DCore10QAttribute10byteOffsetEv
libQt63DCore.so.6:_ZNK8Qt3DCore10QAttribute10byteStrideEv
libQt63DCore.so.6:_ZNK8Qt3DCore10QAttribute10metaObjectEv
libQt63DCore.so.6:_ZNK8Qt3DCore10QAttribute10vertexSizeEv
libQt63DCore.so.6:_ZNK8Qt3DCore10QAttribute13attributeTypeEv
libQt63DCore.so.6:_ZNK8Qt3DCore10QAttribute14vertexBaseTypeEv
libQt63DCore.so.6:_ZNK8Qt3DCore10QAttribute4nameEv
libQt63DCore.so.6:_ZNK8Qt3DCore10QAttribute5countEv
libQt63DCore.so.6:_ZNK8Qt3DCore10QAttribute6bufferEv
libQt63DCore.so.6:_ZNK8Qt3DCore10QAttribute7divisorEv
libQt63DCore.so.6:_ZNK8Qt3DCore10QComponent10metaObjectEv
libQt63DCore.so.6:_ZNK8Qt3DCore10QComponent11isShareableEv
libQt63DCore.so.6:_ZNK8Qt3DCore10QComponent8entitiesEv
libQt63DCore.so.6:_ZNK8Qt3DCore10QTransform10metaObjectEv
libQt63DCore.so.6:_ZNK8Qt3DCore10QTransform11translationEv
libQt63DCore.so.6:_ZNK8Qt3DCore10QTransform11worldMatrixEv
libQt63DCore.so.6:_ZNK8Qt3DCore10QTransform5scaleEv
libQt63DCore.so.6:_ZNK8Qt3DCore10QTransform6matrixEv
libQt63DCore.so.6:_ZNK8Qt3DCore10QTransform7scale3DEv
libQt63DCore.so.6:_ZNK8Qt3DCore10QTransform8rotationEv
libQt63DCore.so.6:_ZNK8Qt3DCore10QTransform9rotationXEv
libQt63DCore.so.6:_ZNK8Qt3DCore10QTransform9rotationYEv
libQt63DCore.so.6:_ZNK8Qt3DCore10QTransform9rotationZEv
libQt63DCore.so.6:_ZNK8Qt3DCore11QCoreAspect10metaObjectEv
libQt63DCore.so.6:_ZNK8Qt3DCore11QCoreAspect26calculateBoundingVolumeJobEv
libQt63DCore.so.6:_ZNK8Qt3DCore12QBackendNode4modeEv
libQt63DCore.so.6:_ZNK8Qt3DCore12QBackendNode6peerIdEv
libQt63DCore.so.6:_ZNK8Qt3DCore12QBackendNode9isEnabledEv
libQt63DCore.so.6:_ZNK8Qt3DCore12QNodePrivate5sceneEv
libQt63DCore.so.6:_ZNK8Qt3DCore12QNodeVisitor11currentNodeEv
libQt63DCore.so.6:_ZNK8Qt3DCore12QNodeVisitor4pathEv
libQt63DCore.so.6:_ZNK8Qt3DCore12QNodeVisitor8rootNodeEv
libQt63DCore.so.6:_ZNK8Qt3DCore12Vector3D_SSE7projectERKNS_13Matrix4x4_SSEES3_RK5QRect
libQt63DCore.so.6:_ZNK8Qt3DCore12Vector3D_SSE9unprojectERKNS_13Matrix4x4_SSEES3_RK5QRect
libQt63DCore.so.6:_ZNK8Qt3DCore13QAspectEngine10lookupNodeENS_7QNodeIdE
libQt63DCore.so.6:_ZNK8Qt3DCore13QAspectEngine10metaObjectEv
libQt63DCore.so.6:_ZNK8Qt3DCore13QAspectEngine10rootEntityEv
libQt63DCore.so.6:_ZNK8Qt3DCore13QAspectEngine11lookupNodesERK5QListINS_7QNodeIdEE
libQt63DCore.so.6:_ZNK8Qt3DCore13QAspectEngine6aspectERK7QString
libQt63DCore.so.6:_ZNK8Qt3DCore13QAspectEngine7aspectsEv
libQt63DCore.so.6:_ZNK8Qt3DCore13QAspectEngine7runModeEv
libQt63DCore.so.6:_ZNK8Qt3DCore13QCoreSettings10metaObjectEv
libQt63DCore.so.6:_ZNK8Qt3DCore13QCoreSettings22boundingVolumesEnabledEv
libQt63DCore.so.6:_ZNK8Qt3DCore13QGeometryView10metaObjectEv
libQt63DCore.so.6:_ZNK8Qt3DCore13QGeometryView11firstVertexEv
libQt63DCore.so.6:_ZNK8Qt3DCore13QGeometryView11indexOffsetEv
libQt63DCore.so.6:_ZNK8Qt3DCore13QGeometryView11vertexCountEv
libQt63DCore.so.6:_ZNK8Qt3DCore13QGeometryView13firstInstanceEv
libQt63DCore.so.6:_ZNK8Qt3DCore13QGeometryView13instanceCountEv
libQt63DCore.so.6:_ZNK8Qt3DCore13QGeometryView13primitiveTypeEv
libQt63DCore.so.6:_ZNK8Qt3DCore13QGeometryView16verticesPerPatchEv
libQt63DCore.so.6:_ZNK8Qt3DCore13QGeometryView17restartIndexValueEv
libQt63DCore.so.6:_ZNK8Qt3DCore13QGeometryView21indexBufferByteOffsetEv
libQt63DCore.so.6:_ZNK8Qt3DCore13QGeometryView23primitiveRestartEnabledEv
libQt63DCore.so.6:_ZNK8Qt3DCore13QGeometryView8geometryEv
libQt63DCore.so.6:_ZNK8Qt3DCore13QThreadPooler10metaObjectEv
libQt63DCore.so.6:_ZNK8Qt3DCore13QThreadPooler12currentCountEv
libQt63DCore.so.6:_ZNK8Qt3DCore14QAspectFactory10aspectNameEPNS_15QAbstractAspectE
libQt63DCore.so.6:_ZNK8Qt3DCore14QAspectFactory12createAspectERK13QLatin1StringP7QObject
libQt63DCore.so.6:_ZNK8Qt3DCore14QAspectFactory18availableFactoriesEv
libQt63DCore.so.6:_ZNK8Qt3DCore14QAspectManager10jobManagerEv
libQt63DCore.so.6:_ZNK8Qt3DCore14QAspectManager10lookupNodeENS_7QNodeIdE
libQt63DCore.so.6:_ZNK8Qt3DCore14QAspectManager10metaObjectEv
libQt63DCore.so.6:_ZNK8Qt3DCore14QAspectManager11lookupNodesERK5QListINS_7QNodeIdEE
libQt63DCore.so.6:_ZNK8Qt3DCore14QAspectManager13changeArbiterEv
libQt63DCore.so.6:_ZNK8Qt3DCore14QAspectManager14isShuttingDownEv
libQt63DCore.so.6:_ZNK8Qt3DCore14QAspectManager14serviceLocatorEv
libQt63DCore.so.6:_ZNK8Qt3DCore14QAspectManager5sceneEv
libQt63DCore.so.6:_ZNK8Qt3DCore14QAspectManager6aspectEPK11QMetaObject
libQt63DCore.so.6:_ZNK8Qt3DCore14QAspectManager6aspectERK7QString
libQt63DCore.so.6:_ZNK8Qt3DCore14QAspectManager7aspectsEv
libQt63DCore.so.6:_ZNK8Qt3DCore14QChangeArbiter10metaObjectEv
libQt63DCore.so.6:_ZNK8Qt3DCore14QChangeArbiter5sceneEv
libQt63DCore.so.6:_ZNK8Qt3DCore14QEntityPrivate14dumpSceneGraphEv
libQt63DCore.so.6:_ZNK8Qt3DCore14QEntityPrivate14parentEntityIdEv
libQt63DCore.so.6:_ZNK8Qt3DCore15QAbstractAspect10metaObjectEv
libQt63DCore.so.6:_ZNK8Qt3DCore15QAbstractAspect12dependenciesEv
libQt63DCore.so.6:_ZNK8Qt3DCore15QAbstractAspect12rootEntityIdEv
libQt63DCore.so.6:_ZNK8Qt3DCore15QBoundingVolume10metaObjectEv
libQt63DCore.so.6:_ZNK8Qt3DCore15QBoundingVolume16implicitMaxPointEv
libQt63DCore.so.6:_ZNK8Qt3DCore15QBoundingVolume16implicitMinPointEv
libQt63DCore.so.6:_ZNK8Qt3DCore15QBoundingVolume22areImplicitPointsValidEv
libQt63DCore.so.6:_ZNK8Qt3DCore15QBoundingVolume4viewEv
libQt63DCore.so.6:_ZNK8Qt3DCore15QBoundingVolume8maxPointEv
libQt63DCore.so.6:_ZNK8Qt3DCore15QBoundingVolume8minPointEv
libQt63DCore.so.6:_ZNK8Qt3DCore15QServiceLocator12serviceCountEv
libQt63DCore.so.6:_ZNK8Qt3DCore15QSkeletonLoader10metaObjectEv
libQt63DCore.so.6:_ZNK8Qt3DCore15QSkeletonLoader21isCreateJointsEnabledEv
libQt63DCore.so.6:_ZNK8Qt3DCore15QSkeletonLoader6sourceEv
libQt63DCore.so.6:_ZNK8Qt3DCore15QSkeletonLoader6statusEv
libQt63DCore.so.6:_ZNK8Qt3DCore15QSkeletonLoader9rootJointEv
libQt63DCore.so.6:_ZNK8Qt3DCore17QAbstractSkeleton10jointCountEv
libQt63DCore.so.6:_ZNK8Qt3DCore17QAbstractSkeleton10metaObjectEv
libQt63DCore.so.6:_ZNK8Qt3DCore17QAspectJobManager10metaObjectEv
libQt63DCore.so.6:_ZNK8Qt3DCore17QAspectJobPrivate10isRequiredEv
libQt63DCore.so.6:_ZNK8Qt3DCore19QEventFilterService10metaObjectEv
libQt63DCore.so.6:_ZNK8Qt3DCore20QAspectEnginePrivate10lookupNodeENS_7QNodeIdE
libQt63DCore.so.6:_ZNK8Qt3DCore20QAspectEnginePrivate11lookupNodesERK5QListINS_7QNodeIdEE
libQt63DCore.so.6:_ZNK8Qt3DCore22QAbstractAspectPrivate10jobManagerEv
libQt63DCore.so.6:_ZNK8Qt3DCore22QAbstractAspectPrivate13mapperForNodeEPK11QMetaObject
libQt63DCore.so.6:_ZNK8Qt3DCore22QAbstractAspectPrivate16clearBackendNodeERKNS_14NodeTreeChangeE
libQt63DCore.so.6:_ZNK8Qt3DCore22QAbstractAspectPrivate17createBackendNodeERKNS_14NodeTreeChangeE
libQt63DCore.so.6:_ZNK8Qt3DCore22QAbstractAspectPrivate21syncDirtyFrontEndNodeEPNS_5QNodeEPNS_12QBackendNodeEb
libQt63DCore.so.6:_ZNK8Qt3DCore22QAbstractAspectPrivate8servicesEv
libQt63DCore.so.6:_ZNK8Qt3DCore22QDownloadHelperService10metaObjectEv
libQt63DCore.so.6:_ZNK8Qt3DCore24QAbstractServiceProvider10metaObjectEv
libQt63DCore.so.6:_ZNK8Qt3DCore24QAbstractServiceProvider11descriptionEv
libQt63DCore.so.6:_ZNK8Qt3DCore24QAbstractServiceProvider4typeEv
libQt63DCore.so.6:_ZNK8Qt3DCore25BoundingVolumeComputeData7computeEv
libQt63DCore.so.6:_ZNK8Qt3DCore25PropertyChangeHandlerBase10metaObjectEv
libQt63DCore.so.6:_ZNK8Qt3DCore25QAbstractAspectJobManager10metaObjectEv
libQt63DCore.so.6:_ZNK8Qt3DCore25QOpenGLInformationService10metaObjectEv
libQt63DCore.so.6:_ZNK8Qt3DCore25QSystemInformationService10metaObjectEv
libQt63DCore.so.6:_ZNK8Qt3DCore25QSystemInformationService11aspectNamesEv
libQt63DCore.so.6:_ZNK8Qt3DCore25QSystemInformationService14isTraceEnabledEv
libQt63DCore.so.6:_ZNK8Qt3DCore25QSystemInformationService21threadPoolThreadCountEv
libQt63DCore.so.6:_ZNK8Qt3DCore25QSystemInformationService22isCommandServerEnabledEv
libQt63DCore.so.6:_ZNK8Qt3DCore25QSystemInformationService22isGraphicsTraceEnabledEv
libQt63DCore.so.6:_ZNK8Qt3DCore28QAbstractFrameAdvanceService10metaObjectEv
libQt63DCore.so.6:_ZNK8Qt3DCore5Debug21AspectCommandDebugger10metaObjectEv
libQt63DCore.so.6:_ZNK8Qt3DCore5Debug24AsynchronousCommandReply10metaObjectEv
libQt63DCore.so.6:_ZNK8Qt3DCore5QNode10childNodesEv
libQt63DCore.so.6:_ZNK8Qt3DCore5QNode10metaObjectEv
libQt63DCore.so.6:_ZNK8Qt3DCore5QNode10parentNodeEv
libQt63DCore.so.6:_ZNK8Qt3DCore5QNode20notificationsBlockedEv
libQt63DCore.so.6:_ZNK8Qt3DCore5QNode2idEv
libQt63DCore.so.6:_ZNK8Qt3DCore5QNode9isEnabledEv
libQt63DCore.so.6:_ZNK8Qt3DCore6QJoint10metaObjectEv
libQt63DCore.so.6:_ZNK8Qt3DCore6QJoint11childJointsEv
libQt63DCore.so.6:_ZNK8Qt3DCore6QJoint11translationEv
libQt63DCore.so.6:_ZNK8Qt3DCore6QJoint17inverseBindMatrixEv
libQt63DCore.so.6:_ZNK8Qt3DCore6QJoint4nameEv
libQt63DCore.so.6:_ZNK8Qt3DCore6QJoint5scaleEv
libQt63DCore.so.6:_ZNK8Qt3DCore6QJoint8rotationEv
libQt63DCore.so.6:_ZNK8Qt3DCore6QJoint9rotationXEv
libQt63DCore.so.6:_ZNK8Qt3DCore6QJoint9rotationYEv
libQt63DCore.so.6:_ZNK8Qt3DCore6QJoint9rotationZEv
libQt63DCore.so.6:_ZNK8Qt3DCore6QScene10lookupNodeENS_7QNodeIdE
libQt63DCore.so.6:_ZNK8Qt3DCore6QScene11lookupNodesERK5QListINS_7QNodeIdEE
libQt63DCore.so.6:_ZNK8Qt3DCore6QScene19postConstructorInitEv
libQt63DCore.so.6:_ZNK8Qt3DCore6QScene20entitiesForComponentENS_7QNodeIdE
libQt63DCore.so.6:_ZNK8Qt3DCore6QScene6engineEv
libQt63DCore.so.6:_ZNK8Qt3DCore6QScene7arbiterEv
libQt63DCore.so.6:_ZNK8Qt3DCore6QScene8rootNodeEv
libQt63DCore.so.6:_ZNK8Qt3DCore7QBuffer10accessTypeEv
libQt63DCore.so.6:_ZNK8Qt3DCore7QBuffer10metaObjectEv
libQt63DCore.so.6:_ZNK8Qt3DCore7QBuffer4dataEv
libQt63DCore.so.6:_ZNK8Qt3DCore7QBuffer5usageEv
libQt63DCore.so.6:_ZNK8Qt3DCore7QEntity10componentsEv
libQt63DCore.so.6:_ZNK8Qt3DCore7QEntity10metaObjectEv
libQt63DCore.so.6:_ZNK8Qt3DCore7QEntity12parentEntityEv
libQt63DCore.so.6:_ZNK8Qt3DCore9QArmature10metaObjectEv
libQt63DCore.so.6:_ZNK8Qt3DCore9QArmature8skeletonEv
libQt63DCore.so.6:_ZNK8Qt3DCore9QGeometry10attributesEv
libQt63DCore.so.6:_ZNK8Qt3DCore9QGeometry10metaObjectEv
libQt63DCore.so.6:_ZNK8Qt3DCore9QGeometry31boundingVolumePositionAttributeEv
libQt63DCore.so.6:_ZNK8Qt3DCore9QGeometry9maxExtentEv
libQt63DCore.so.6:_ZNK8Qt3DCore9QGeometry9minExtentEv
libQt63DCore.so.6:_ZNK8Qt3DCore9QSkeleton10metaObjectEv
libQt63DCore.so.6:_ZNK8Qt3DCore9QSkeleton9rootJointEv
libQt63DCore.so.6:_ZTIN8Qt3DCore10QAspectJobE
libQt63DCore.so.6:_ZTIN8Qt3DCore10QAttributeE
libQt63DCore.so.6:_ZTIN8Qt3DCore10QComponentE
libQt63DCore.so.6:_ZTIN8Qt3DCore10QTransformE
libQt63DCore.so.6:_ZTIN8Qt3DCore11QCoreAspectE
libQt63DCore.so.6:_ZTIN8Qt3DCore12CoreSettingsE
libQt63DCore.so.6:_ZTIN8Qt3DCore12QBackendNodeE
libQt63DCore.so.6:_ZTIN8Qt3DCore12QNodePrivateE
libQt63DCore.so.6:_ZTIN8Qt3DCore12QNodeVisitorE
libQt63DCore.so.6:_ZTIN8Qt3DCore13QAspectEngineE
libQt63DCore.so.6:_ZTIN8Qt3DCore13QCoreSettingsE
libQt63DCore.so.6:_ZTIN8Qt3DCore13QGeometryViewE
libQt63DCore.so.6:_ZTIN8Qt3DCore13QThreadPoolerE
libQt63DCore.so.6:_ZTIN8Qt3DCore14QAspectManagerE
libQt63DCore.so.6:_ZTIN8Qt3DCore14QBufferPrivateE
libQt63DCore.so.6:_ZTIN8Qt3DCore14QChangeArbiterE
libQt63DCore.so.6:_ZTIN8Qt3DCore14QEntityPrivateE
libQt63DCore.so.6:_ZTIN8Qt3DCore15QAbstractAspectE
libQt63DCore.so.6:_ZTIN8Qt3DCore15QBoundingVolumeE
libQt63DCore.so.6:_ZTIN8Qt3DCore15QSkeletonLoaderE
libQt63DCore.so.6:_ZTIN8Qt3DCore16QAbstractFunctorE
libQt63DCore.so.6:_ZTIN8Qt3DCore16QDownloadRequestE
libQt63DCore.so.6:_ZTIN8Qt3DCore16QGeometryFactoryE
libQt63DCore.so.6:_ZTIN8Qt3DCore16QGeometryPrivateE
libQt63DCore.so.6:_ZTIN8Qt3DCore17QAbstractSkeletonE
libQt63DCore.so.6:_ZTIN8Qt3DCore17QAspectJobManagerE
libQt63DCore.so.6:_ZTIN8Qt3DCore17QAspectJobPrivateE
libQt63DCore.so.6:_ZTIN8Qt3DCore17QAttributePrivateE
libQt63DCore.so.6:_ZTIN8Qt3DCore17QComponentPrivateE
libQt63DCore.so.6:_ZTIN8Qt3DCore17QTransformPrivateE
libQt63DCore.so.6:_ZTIN8Qt3DCore18QBackendNodeMapperE
libQt63DCore.so.6:_ZTIN8Qt3DCore18QCoreAspectPrivateE
libQt63DCore.so.6:_ZTIN8Qt3DCore19QBackendNodePrivateE
libQt63DCore.so.6:_ZTIN8Qt3DCore19QEventFilterServiceE
libQt63DCore.so.6:_ZTIN8Qt3DCore20QAbstractNodeFactoryE
libQt63DCore.so.6:_ZTIN8Qt3DCore20QAspectEnginePrivateE
libQt63DCore.so.6:_ZTIN8Qt3DCore20QGeometryViewPrivateE
libQt63DCore.so.6:_ZTIN8Qt3DCore22QAbstractAspectPrivateE
libQt63DCore.so.6:_ZTIN8Qt3DCore22QBoundingVolumePrivateE
libQt63DCore.so.6:_ZTIN8Qt3DCore22QDownloadHelperServiceE
libQt63DCore.so.6:_ZTIN8Qt3DCore24QAbstractServiceProviderE
libQt63DCore.so.6:_ZTIN8Qt3DCore25PropertyChangeHandlerBaseE
libQt63DCore.so.6:_ZTIN8Qt3DCore25QAbstractAspectJobManagerE
libQt63DCore.so.6:_ZTIN8Qt3DCore25QOpenGLInformationServiceE
libQt63DCore.so.6:_ZTIN8Qt3DCore25QSystemInformationServiceE
libQt63DCore.so.6:_ZTIN8Qt3DCore26CalculateBoundingVolumeJobE
libQt63DCore.so.6:_ZTIN8Qt3DCore28QAbstractFrameAdvanceServiceE
libQt63DCore.so.6:_ZTIN8Qt3DCore28QAbstractFrontEndNodeManagerE
libQt63DCore.so.6:_ZTIN8Qt3DCore32QSystemInformationServicePrivateE
libQt63DCore.so.6:_ZTIN8Qt3DCore5Debug21AspectCommandDebuggerE
libQt63DCore.so.6:_ZTIN8Qt3DCore5Debug24AsynchronousCommandReplyE
libQt63DCore.so.6:_ZTIN8Qt3DCore5QNodeE
libQt63DCore.so.6:_ZTIN8Qt3DCore6QJointE
libQt63DCore.so.6:_ZTIN8Qt3DCore6QSceneE
libQt63DCore.so.6:_ZTIN8Qt3DCore7QBufferE
libQt63DCore.so.6:_ZTIN8Qt3DCore7QEntityE
libQt63DCore.so.6:_ZTIN8Qt3DCore9QArmatureE
libQt63DCore.so.6:_ZTIN8Qt3DCore9QGeometryE
libQt63DCore.so.6:_ZTIN8Qt3DCore9QSkeletonE
libQt63DCore.so.6:_ZTSN8Qt3DCore10QAspectJobE
libQt63DCore.so.6:_ZTSN8Qt3DCore10QAttributeE
libQt63DCore.so.6:_ZTSN8Qt3DCore10QComponentE
libQt63DCore.so.6:_ZTSN8Qt3DCore10QTransformE
libQt63DCore.so.6:_ZTSN8Qt3DCore11QCoreAspectE
libQt63DCore.so.6:_ZTSN8Qt3DCore12CoreSettingsE
libQt63DCore.so.6:_ZTSN8Qt3DCore12QBackendNodeE
libQt63DCore.so.6:_ZTSN8Qt3DCore12QNodePrivateE
libQt63DCore.so.6:_ZTSN8Qt3DCore12QNodeVisitorE
libQt63DCore.so.6:_ZTSN8Qt3DCore13QAspectEngineE
libQt63DCore.so.6:_ZTSN8Qt3DCore13QCoreSettingsE
libQt63DCore.so.6:_ZTSN8Qt3DCore13QGeometryViewE
libQt63DCore.so.6:_ZTSN8Qt3DCore13QThreadPoolerE
libQt63DCore.so.6:_ZTSN8Qt3DCore14QAspectManagerE
libQt63DCore.so.6:_ZTSN8Qt3DCore14QBufferPrivateE
libQt63DCore.so.6:_ZTSN8Qt3DCore14QChangeArbiterE
libQt63DCore.so.6:_ZTSN8Qt3DCore14QEntityPrivateE
libQt63DCore.so.6:_ZTSN8Qt3DCore15QAbstractAspectE
libQt63DCore.so.6:_ZTSN8Qt3DCore15QBoundingVolumeE
libQt63DCore.so.6:_ZTSN8Qt3DCore15QSkeletonLoaderE
libQt63DCore.so.6:_ZTSN8Qt3DCore16QAbstractFunctorE
libQt63DCore.so.6:_ZTSN8Qt3DCore16QDownloadRequestE
libQt63DCore.so.6:_ZTSN8Qt3DCore16QGeometryFactoryE
libQt63DCore.so.6:_ZTSN8Qt3DCore16QGeometryPrivateE
libQt63DCore.so.6:_ZTSN8Qt3DCore17QAbstractSkeletonE
libQt63DCore.so.6:_ZTSN8Qt3DCore17QAspectJobManagerE
libQt63DCore.so.6:_ZTSN8Qt3DCore17QAspectJobPrivateE
libQt63DCore.so.6:_ZTSN8Qt3DCore17QAttributePrivateE
libQt63DCore.so.6:_ZTSN8Qt3DCore17QComponentPrivateE
libQt63DCore.so.6:_ZTSN8Qt3DCore17QTransformPrivateE
libQt63DCore.so.6:_ZTSN8Qt3DCore18QBackendNodeMapperE
libQt63DCore.so.6:_ZTSN8Qt3DCore18QCoreAspectPrivateE
libQt63DCore.so.6:_ZTSN8Qt3DCore19QBackendNodePrivateE
libQt63DCore.so.6:_ZTSN8Qt3DCore19QEventFilterServiceE
libQt63DCore.so.6:_ZTSN8Qt3DCore20QAbstractNodeFactoryE
libQt63DCore.so.6:_ZTSN8Qt3DCore20QAspectEnginePrivateE
libQt63DCore.so.6:_ZTSN8Qt3DCore20QGeometryViewPrivateE
libQt63DCore.so.6:_ZTSN8Qt3DCore22QAbstractAspectPrivateE
libQt63DCore.so.6:_ZTSN8Qt3DCore22QBoundingVolumePrivateE
libQt63DCore.so.6:_ZTSN8Qt3DCore22QDownloadHelperServiceE
libQt63DCore.so.6:_ZTSN8Qt3DCore24QAbstractServiceProviderE
libQt63DCore.so.6:_ZTSN8Qt3DCore25PropertyChangeHandlerBaseE
libQt63DCore.so.6:_ZTSN8Qt3DCore25QAbstractAspectJobManagerE
libQt63DCore.so.6:_ZTSN8Qt3DCore25QOpenGLInformationServiceE
libQt63DCore.so.6:_ZTSN8Qt3DCore25QSystemInformationServiceE
libQt63DCore.so.6:_ZTSN8Qt3DCore26CalculateBoundingVolumeJobE
libQt63DCore.so.6:_ZTSN8Qt3DCore28QAbstractFrameAdvanceServiceE
libQt63DCore.so.6:_ZTSN8Qt3DCore28QAbstractFrontEndNodeManagerE
libQt63DCore.so.6:_ZTSN8Qt3DCore32QSystemInformationServicePrivateE
libQt63DCore.so.6:_ZTSN8Qt3DCore5Debug21AspectCommandDebuggerE
libQt63DCore.so.6:_ZTSN8Qt3DCore5Debug24AsynchronousCommandReplyE
libQt63DCore.so.6:_ZTSN8Qt3DCore5QNodeE
libQt63DCore.so.6:_ZTSN8Qt3DCore6QJointE
libQt63DCore.so.6:_ZTSN8Qt3DCore6QSceneE
libQt63DCore.so.6:_ZTSN8Qt3DCore7QBufferE
libQt63DCore.so.6:_ZTSN8Qt3DCore7QEntityE
libQt63DCore.so.6:_ZTSN8Qt3DCore9QArmatureE
libQt63DCore.so.6:_ZTSN8Qt3DCore9QGeometryE
libQt63DCore.so.6:_ZTSN8Qt3DCore9QSkeletonE
libQt63DCore.so.6:_ZTVN8Qt3DCore10QAspectJobE
libQt63DCore.so.6:_ZTVN8Qt3DCore10QAttributeE
libQt63DCore.so.6:_ZTVN8Qt3DCore10QComponentE
libQt63DCore.so.6:_ZTVN8Qt3DCore10QTransformE
libQt63DCore.so.6:_ZTVN8Qt3DCore11QCoreAspectE
libQt63DCore.so.6:_ZTVN8Qt3DCore12CoreSettingsE
libQt63DCore.so.6:_ZTVN8Qt3DCore12QBackendNodeE
libQt63DCore.so.6:_ZTVN8Qt3DCore12QNodePrivateE
libQt63DCore.so.6:_ZTVN8Qt3DCore12QNodeVisitorE
libQt63DCore.so.6:_ZTVN8Qt3DCore13QAspectEngineE
libQt63DCore.so.6:_ZTVN8Qt3DCore13QCoreSettingsE
libQt63DCore.so.6:_ZTVN8Qt3DCore13QGeometryViewE
libQt63DCore.so.6:_ZTVN8Qt3DCore13QThreadPoolerE
libQt63DCore.so.6:_ZTVN8Qt3DCore14QAspectManagerE
libQt63DCore.so.6:_ZTVN8Qt3DCore14QBufferPrivateE
libQt63DCore.so.6:_ZTVN8Qt3DCore14QChangeArbiterE
libQt63DCore.so.6:_ZTVN8Qt3DCore14QEntityPrivateE
libQt63DCore.so.6:_ZTVN8Qt3DCore15QAbstractAspectE
libQt63DCore.so.6:_ZTVN8Qt3DCore15QBoundingVolumeE
libQt63DCore.so.6:_ZTVN8Qt3DCore15QSkeletonLoaderE
libQt63DCore.so.6:_ZTVN8Qt3DCore16QAbstractFunctorE
libQt63DCore.so.6:_ZTVN8Qt3DCore16QDownloadRequestE
libQt63DCore.so.6:_ZTVN8Qt3DCore16QGeometryFactoryE
libQt63DCore.so.6:_ZTVN8Qt3DCore16QGeometryPrivateE
libQt63DCore.so.6:_ZTVN8Qt3DCore17QAbstractSkeletonE
libQt63DCore.so.6:_ZTVN8Qt3DCore17QAspectJobManagerE
libQt63DCore.so.6:_ZTVN8Qt3DCore17QAspectJobPrivateE
libQt63DCore.so.6:_ZTVN8Qt3DCore17QAttributePrivateE
libQt63DCore.so.6:_ZTVN8Qt3DCore17QComponentPrivateE
libQt63DCore.so.6:_ZTVN8Qt3DCore17QTransformPrivateE
libQt63DCore.so.6:_ZTVN8Qt3DCore18QBackendNodeMapperE
libQt63DCore.so.6:_ZTVN8Qt3DCore18QCoreAspectPrivateE
libQt63DCore.so.6:_ZTVN8Qt3DCore19QBackendNodePrivateE
libQt63DCore.so.6:_ZTVN8Qt3DCore19QEventFilterServiceE
libQt63DCore.so.6:_ZTVN8Qt3DCore20QAbstractNodeFactoryE
libQt63DCore.so.6:_ZTVN8Qt3DCore20QAspectEnginePrivateE
libQt63DCore.so.6:_ZTVN8Qt3DCore20QGeometryViewPrivateE
libQt63DCore.so.6:_ZTVN8Qt3DCore22QAbstractAspectPrivateE
libQt63DCore.so.6:_ZTVN8Qt3DCore22QBoundingVolumePrivateE
libQt63DCore.so.6:_ZTVN8Qt3DCore22QDownloadHelperServiceE
libQt63DCore.so.6:_ZTVN8Qt3DCore24QAbstractServiceProviderE
libQt63DCore.so.6:_ZTVN8Qt3DCore25PropertyChangeHandlerBaseE
libQt63DCore.so.6:_ZTVN8Qt3DCore25QAbstractAspectJobManagerE
libQt63DCore.so.6:_ZTVN8Qt3DCore25QOpenGLInformationServiceE
libQt63DCore.so.6:_ZTVN8Qt3DCore25QSystemInformationServiceE
libQt63DCore.so.6:_ZTVN8Qt3DCore26CalculateBoundingVolumeJobE
libQt63DCore.so.6:_ZTVN8Qt3DCore28QAbstractFrameAdvanceServiceE
libQt63DCore.so.6:_ZTVN8Qt3DCore28QAbstractFrontEndNodeManagerE
libQt63DCore.so.6:_ZTVN8Qt3DCore32QSystemInformationServicePrivateE
libQt63DCore.so.6:_ZTVN8Qt3DCore5Debug21AspectCommandDebuggerE
libQt63DCore.so.6:_ZTVN8Qt3DCore5Debug24AsynchronousCommandReplyE
libQt63DCore.so.6:_ZTVN8Qt3DCore5QNodeE
libQt63DCore.so.6:_ZTVN8Qt3DCore6QJointE
libQt63DCore.so.6:_ZTVN8Qt3DCore6QSceneE
libQt63DCore.so.6:_ZTVN8Qt3DCore7QBufferE
libQt63DCore.so.6:_ZTVN8Qt3DCore7QEntityE
libQt63DCore.so.6:_ZTVN8Qt3DCore9QArmatureE
libQt63DCore.so.6:_ZTVN8Qt3DCore9QGeometryE
libQt63DCore.so.6:_ZTVN8Qt3DCore9QSkeletonE
libQt63DCore.so.6:_ZThn120_N8Qt3DCore18QCoreAspectPrivate8jobsDoneEv
libQt63DCore.so.6:_ZThn120_N8Qt3DCore18QCoreAspectPrivate9frameDoneEv
libQt63DCore.so.6:_ZThn120_N8Qt3DCore18QCoreAspectPrivateD0Ev
libQt63DCore.so.6:_ZThn120_N8Qt3DCore18QCoreAspectPrivateD1Ev
libQt63DCore.so.6:_ZThn120_N8Qt3DCore20QAspectEnginePrivateD0Ev
libQt63DCore.so.6:_ZThn120_N8Qt3DCore20QAspectEnginePrivateD1Ev
libQt63DCore.so.6:_ZThn120_N8Qt3DCore22QAbstractAspectPrivate13jobsToExecuteEx
libQt63DCore.so.6:_ZThn120_N8Qt3DCore22QAbstractAspectPrivate8jobsDoneEv
libQt63DCore.so.6:_ZThn120_N8Qt3DCore22QAbstractAspectPrivate9frameDoneEv
libQt63DCore.so.6:_ZThn120_N8Qt3DCore22QAbstractAspectPrivateD0Ev
libQt63DCore.so.6:_ZThn120_N8Qt3DCore22QAbstractAspectPrivateD1Ev
libQt63DCore.so.6:_ZThn120_NK8Qt3DCore20QAspectEnginePrivate10lookupNodeENS_7QNodeIdE
libQt63DCore.so.6:_ZThn120_NK8Qt3DCore20QAspectEnginePrivate11lookupNodesERK5QListINS_7QNodeIdEE
libQt63DCore.so.6:_ZThn16_N8Qt3DCore14QAspectManagerD0Ev
libQt63DCore.so.6:_ZThn16_N8Qt3DCore14QAspectManagerD1Ev
libQt63DCore.so.6:_ZThn16_NK8Qt3DCore14QAspectManager10lookupNodeENS_7QNodeIdE
libQt63DCore.so.6:_ZThn16_NK8Qt3DCore14QAspectManager11lookupNodesERK5QListINS_7QNodeIdEE
libQt63DExtras.so.6:_ZN10Qt3DExtras10QPlaneMesh11qt_metacallEN11QMetaObject4CallEiPPv
libQt63DExtras.so.6:_ZN10Qt3DExtras10QPlaneMesh11qt_metacastEPKc
libQt63DExtras.so.6:_ZN10Qt3DExtras10QPlaneMesh11setMirroredEb
libQt63DExtras.so.6:_ZN10Qt3DExtras10QPlaneMesh12widthChangedEf
libQt63DExtras.so.6:_ZN10Qt3DExtras10QPlaneMesh13heightChangedEf
libQt63DExtras.so.6:_ZN10Qt3DExtras10QPlaneMesh15mirroredChangedEb
libQt63DExtras.so.6:_ZN10Qt3DExtras10QPlaneMesh16staticMetaObjectE
libQt63DExtras.so.6:_ZN10Qt3DExtras10QPlaneMesh17setMeshResolutionERK5QSize
libQt63DExtras.so.6:_ZN10Qt3DExtras10QPlaneMesh21meshResolutionChangedERK5QSize
libQt63DExtras.so.6:_ZN10Qt3DExtras10QPlaneMesh8setWidthEf
libQt63DExtras.so.6:_ZN10Qt3DExtras10QPlaneMesh9setHeightEf
libQt63DExtras.so.6:_ZN10Qt3DExtras10QPlaneMeshC1EPN8Qt3DCore5QNodeE
libQt63DExtras.so.6:_ZN10Qt3DExtras10QPlaneMeshC2EPN8Qt3DCore5QNodeE
libQt63DExtras.so.6:_ZN10Qt3DExtras10QPlaneMeshD0Ev
libQt63DExtras.so.6:_ZN10Qt3DExtras10QPlaneMeshD1Ev
libQt63DExtras.so.6:_ZN10Qt3DExtras10QPlaneMeshD2Ev
libQt63DExtras.so.6:_ZN10Qt3DExtras10QTorusMesh11qt_metacallEN11QMetaObject4CallEiPPv
libQt63DExtras.so.6:_ZN10Qt3DExtras10QTorusMesh11qt_metacastEPKc
libQt63DExtras.so.6:_ZN10Qt3DExtras10QTorusMesh12ringsChangedEi
libQt63DExtras.so.6:_ZN10Qt3DExtras10QTorusMesh13radiusChangedEf
libQt63DExtras.so.6:_ZN10Qt3DExtras10QTorusMesh13slicesChangedEi
libQt63DExtras.so.6:_ZN10Qt3DExtras10QTorusMesh14setMinorRadiusEf
libQt63DExtras.so.6:_ZN10Qt3DExtras10QTorusMesh16staticMetaObjectE
libQt63DExtras.so.6:_ZN10Qt3DExtras10QTorusMesh18minorRadiusChangedEf
libQt63DExtras.so.6:_ZN10Qt3DExtras10QTorusMesh8setRingsEi
libQt63DExtras.so.6:_ZN10Qt3DExtras10QTorusMesh9setRadiusEf
libQt63DExtras.so.6:_ZN10Qt3DExtras10QTorusMesh9setSlicesEi
libQt63DExtras.so.6:_ZN10Qt3DExtras10QTorusMeshC1EPN8Qt3DCore5QNodeE
libQt63DExtras.so.6:_ZN10Qt3DExtras10QTorusMeshC2EPN8Qt3DCore5QNodeE
libQt63DExtras.so.6:_ZN10Qt3DExtras10QTorusMeshD0Ev
libQt63DExtras.so.6:_ZN10Qt3DExtras10QTorusMeshD1Ev
libQt63DExtras.so.6:_ZN10Qt3DExtras10QTorusMeshD2Ev
libQt63DExtras.so.6:_ZN10Qt3DExtras10Qt3DWindow11qt_metacallEN11QMetaObject4CallEiPPv
libQt63DExtras.so.6:_ZN10Qt3DExtras10Qt3DWindow11qt_metacastEPKc
libQt63DExtras.so.6:_ZN10Qt3DExtras10Qt3DWindow11resizeEventEP12QResizeEvent
libQt63DExtras.so.6:_ZN10Qt3DExtras10Qt3DWindow13setRootEntityEPN8Qt3DCore7QEntityE
libQt63DExtras.so.6:_ZN10Qt3DExtras10Qt3DWindow14registerAspectEPN8Qt3DCore15QAbstractAspectE
libQt63DExtras.so.6:_ZN10Qt3DExtras10Qt3DWindow14registerAspectERK7QString
libQt63DExtras.so.6:_ZN10Qt3DExtras10Qt3DWindow16staticMetaObjectE
libQt63DExtras.so.6:_ZN10Qt3DExtras10Qt3DWindow19setActiveFrameGraphEPN10Qt3DRender15QFrameGraphNodeE
libQt63DExtras.so.6:_ZN10Qt3DExtras10Qt3DWindow5eventEP6QEvent
libQt63DExtras.so.6:_ZN10Qt3DExtras10Qt3DWindow9showEventEP10QShowEvent
libQt63DExtras.so.6:_ZN10Qt3DExtras10Qt3DWindowC1EP7QScreenN10Qt3DRender3APIE
libQt63DExtras.so.6:_ZN10Qt3DExtras10Qt3DWindowC2EP7QScreenN10Qt3DRender3APIE
libQt63DExtras.so.6:_ZN10Qt3DExtras10Qt3DWindowD0Ev
libQt63DExtras.so.6:_ZN10Qt3DExtras10Qt3DWindowD1Ev
libQt63DExtras.so.6:_ZN10Qt3DExtras10Qt3DWindowD2Ev
libQt63DExtras.so.6:_ZN10Qt3DExtras11QCuboidMesh10setXExtentEf
libQt63DExtras.so.6:_ZN10Qt3DExtras11QCuboidMesh10setYExtentEf
libQt63DExtras.so.6:_ZN10Qt3DExtras11QCuboidMesh10setZExtentEf
libQt63DExtras.so.6:_ZN10Qt3DExtras11QCuboidMesh11qt_metacallEN11QMetaObject4CallEiPPv
libQt63DExtras.so.6:_ZN10Qt3DExtras11QCuboidMesh11qt_metacastEPKc
libQt63DExtras.so.6:_ZN10Qt3DExtras11QCuboidMesh14xExtentChangedEf
libQt63DExtras.so.6:_ZN10Qt3DExtras11QCuboidMesh14yExtentChangedEf
libQt63DExtras.so.6:_ZN10Qt3DExtras11QCuboidMesh14zExtentChangedEf
libQt63DExtras.so.6:_ZN10Qt3DExtras11QCuboidMesh16staticMetaObjectE
libQt63DExtras.so.6:_ZN10Qt3DExtras11QCuboidMesh19setXYMeshResolutionERK5QSize
libQt63DExtras.so.6:_ZN10Qt3DExtras11QCuboidMesh19setXZMeshResolutionERK5QSize
libQt63DExtras.so.6:_ZN10Qt3DExtras11QCuboidMesh19setYZMeshResolutionERK5QSize
libQt63DExtras.so.6:_ZN10Qt3DExtras11QCuboidMesh23xyMeshResolutionChangedERK5QSize
libQt63DExtras.so.6:_ZN10Qt3DExtras11QCuboidMesh23xzMeshResolutionChangedERK5QSize
libQt63DExtras.so.6:_ZN10Qt3DExtras11QCuboidMesh23yzMeshResolutionChangedERK5QSize
libQt63DExtras.so.6:_ZN10Qt3DExtras11QCuboidMeshC1EPN8Qt3DCore5QNodeE
libQt63DExtras.so.6:_ZN10Qt3DExtras11QCuboidMeshC2EPN8Qt3DCore5QNodeE
libQt63DExtras.so.6:_ZN10Qt3DExtras11QCuboidMeshD0Ev
libQt63DExtras.so.6:_ZN10Qt3DExtras11QCuboidMeshD1Ev
libQt63DExtras.so.6:_ZN10Qt3DExtras11QCuboidMeshD2Ev
libQt63DExtras.so.6:_ZN10Qt3DExtras11QSphereMesh11qt_metacallEN11QMetaObject4CallEiPPv
libQt63DExtras.so.6:_ZN10Qt3DExtras11QSphereMesh11qt_metacastEPKc
libQt63DExtras.so.6:_ZN10Qt3DExtras11QSphereMesh12ringsChangedEi
libQt63DExtras.so.6:_ZN10Qt3DExtras11QSphereMesh13radiusChangedEf
libQt63DExtras.so.6:_ZN10Qt3DExtras11QSphereMesh13slicesChangedEi
libQt63DExtras.so.6:_ZN10Qt3DExtras11QSphereMesh16staticMetaObjectE
libQt63DExtras.so.6:_ZN10Qt3DExtras11QSphereMesh19setGenerateTangentsEb
libQt63DExtras.so.6:_ZN10Qt3DExtras11QSphereMesh23generateTangentsChangedEb
libQt63DExtras.so.6:_ZN10Qt3DExtras11QSphereMesh8setRingsEi
libQt63DExtras.so.6:_ZN10Qt3DExtras11QSphereMesh9setRadiusEf
libQt63DExtras.so.6:_ZN10Qt3DExtras11QSphereMesh9setSlicesEi
libQt63DExtras.so.6:_ZN10Qt3DExtras11QSphereMeshC1EPN8Qt3DCore5QNodeE
libQt63DExtras.so.6:_ZN10Qt3DExtras11QSphereMeshC2EPN8Qt3DCore5QNodeE
libQt63DExtras.so.6:_ZN10Qt3DExtras11QSphereMeshD0Ev
libQt63DExtras.so.6:_ZN10Qt3DExtras11QSphereMeshD1Ev
libQt63DExtras.so.6:_ZN10Qt3DExtras11QSphereMeshD2Ev
libQt63DExtras.so.6:_ZN10Qt3DExtras11QSpriteGrid10setColumnsEi
libQt63DExtras.so.6:_ZN10Qt3DExtras11QSpriteGrid11qt_metacallEN11QMetaObject4CallEiPPv
libQt63DExtras.so.6:_ZN10Qt3DExtras11QSpriteGrid11qt_metacastEPKc
libQt63DExtras.so.6:_ZN10Qt3DExtras11QSpriteGrid11rowsChangedEi
libQt63DExtras.so.6:_ZN10Qt3DExtras11QSpriteGrid14columnsChangedEi
libQt63DExtras.so.6:_ZN10Qt3DExtras11QSpriteGrid16staticMetaObjectE
libQt63DExtras.so.6:_ZN10Qt3DExtras11QSpriteGrid7setRowsEi
libQt63DExtras.so.6:_ZN10Qt3DExtras11QSpriteGridC1EPN8Qt3DCore5QNodeE
libQt63DExtras.so.6:_ZN10Qt3DExtras11QSpriteGridC2EPN8Qt3DCore5QNodeE
libQt63DExtras.so.6:_ZN10Qt3DExtras11QSpriteGridD0Ev
libQt63DExtras.so.6:_ZN10Qt3DExtras11QSpriteGridD1Ev
libQt63DExtras.so.6:_ZN10Qt3DExtras11QSpriteGridD2Ev
libQt63DExtras.so.6:_ZN10Qt3DExtras12QSpriteSheet10setSpritesE5QListIPNS_16QSpriteSheetItemEE
libQt63DExtras.so.6:_ZN10Qt3DExtras12QSpriteSheet11qt_metacallEN11QMetaObject4CallEiPPv
libQt63DExtras.so.6:_ZN10Qt3DExtras12QSpriteSheet11qt_metacastEPKc
libQt63DExtras.so.6:_ZN10Qt3DExtras12QSpriteSheet12removeSpriteEPNS_16QSpriteSheetItemE
libQt63DExtras.so.6:_ZN10Qt3DExtras12QSpriteSheet14spritesChangedE5QListIPNS_16QSpriteSheetItemEE
libQt63DExtras.so.6:_ZN10Qt3DExtras12QSpriteSheet16staticMetaObjectE
libQt63DExtras.so.6:_ZN10Qt3DExtras12QSpriteSheet9addSpriteEPNS_16QSpriteSheetItemE
libQt63DExtras.so.6:_ZN10Qt3DExtras12QSpriteSheet9addSpriteEiiii
libQt63DExtras.so.6:_ZN10Qt3DExtras12QSpriteSheetC1EPN8Qt3DCore5QNodeE
libQt63DExtras.so.6:_ZN10Qt3DExtras12QSpriteSheetC2EPN8Qt3DCore5QNodeE
libQt63DExtras.so.6:_ZN10Qt3DExtras12QSpriteSheetD0Ev
libQt63DExtras.so.6:_ZN10Qt3DExtras12QSpriteSheetD1Ev
libQt63DExtras.so.6:_ZN10Qt3DExtras12QSpriteSheetD2Ev
libQt63DExtras.so.6:_ZN10Qt3DExtras13QConeGeometry11qt_metacallEN11QMetaObject4CallEiPPv
libQt63DExtras.so.6:_ZN10Qt3DExtras13QConeGeometry11qt_metacastEPKc
libQt63DExtras.so.6:_ZN10Qt3DExtras13QConeGeometry12ringsChangedEi
libQt63DExtras.so.6:_ZN10Qt3DExtras13QConeGeometry12setTopRadiusEf
libQt63DExtras.so.6:_ZN10Qt3DExtras13QConeGeometry13lengthChangedEf
libQt63DExtras.so.6:_ZN10Qt3DExtras13QConeGeometry13slicesChangedEi
libQt63DExtras.so.6:_ZN10Qt3DExtras13QConeGeometry13updateIndicesEv
libQt63DExtras.so.6:_ZN10Qt3DExtras13QConeGeometry14updateVerticesEv
libQt63DExtras.so.6:_ZN10Qt3DExtras13QConeGeometry15setBottomRadiusEf
libQt63DExtras.so.6:_ZN10Qt3DExtras13QConeGeometry15setHasTopEndcapEb
libQt63DExtras.so.6:_ZN10Qt3DExtras13QConeGeometry16staticMetaObjectE
libQt63DExtras.so.6:_ZN10Qt3DExtras13QConeGeometry16topRadiusChangedEf
libQt63DExtras.so.6:_ZN10Qt3DExtras13QConeGeometry18setHasBottomEndcapEb
libQt63DExtras.so.6:_ZN10Qt3DExtras13QConeGeometry19bottomRadiusChangedEf
libQt63DExtras.so.6:_ZN10Qt3DExtras13QConeGeometry19hasTopEndcapChangedEb
libQt63DExtras.so.6:_ZN10Qt3DExtras13QConeGeometry22hasBottomEndcapChangedEb
libQt63DExtras.so.6:_ZN10Qt3DExtras13QConeGeometry8setRingsEi
libQt63DExtras.so.6:_ZN10Qt3DExtras13QConeGeometry9setLengthEf
libQt63DExtras.so.6:_ZN10Qt3DExtras13QConeGeometry9setSlicesEi
libQt63DExtras.so.6:_ZN10Qt3DExtras13QConeGeometryC1EPN8Qt3DCore5QNodeE
libQt63DExtras.so.6:_ZN10Qt3DExtras13QConeGeometryC1ERNS_20QConeGeometryPrivateEPN8Qt3DCore5QNodeE
libQt63DExtras.so.6:_ZN10Qt3DExtras13QConeGeometryC2EPN8Qt3DCore5QNodeE
libQt63DExtras.so.6:_ZN10Qt3DExtras13QConeGeometryC2ERNS_20QConeGeometryPrivateEPN8Qt3DCore5QNodeE
libQt63DExtras.so.6:_ZN10Qt3DExtras13QConeGeometryD0Ev
libQt63DExtras.so.6:_ZN10Qt3DExtras13QConeGeometryD1Ev
libQt63DExtras.so.6:_ZN10Qt3DExtras13QConeGeometryD2Ev
libQt63DExtras.so.6:_ZN10Qt3DExtras13QCylinderMesh11qt_metacallEN11QMetaObject4CallEiPPv
libQt63DExtras.so.6:_ZN10Qt3DExtras13QCylinderMesh11qt_metacastEPKc
libQt63DExtras.so.6:_ZN10Qt3DExtras13QCylinderMesh12ringsChangedEi
libQt63DExtras.so.6:_ZN10Qt3DExtras13QCylinderMesh13lengthChangedEf
libQt63DExtras.so.6:_ZN10Qt3DExtras13QCylinderMesh13radiusChangedEf
libQt63DExtras.so.6:_ZN10Qt3DExtras13QCylinderMesh13slicesChangedEi
libQt63DExtras.so.6:_ZN10Qt3DExtras13QCylinderMesh16staticMetaObjectE
libQt63DExtras.so.6:_ZN10Qt3DExtras13QCylinderMesh8setRingsEi
libQt63DExtras.so.6:_ZN10Qt3DExtras13QCylinderMesh9setLengthEf
libQt63DExtras.so.6:_ZN10Qt3DExtras13QCylinderMesh9setRadiusEf
libQt63DExtras.so.6:_ZN10Qt3DExtras13QCylinderMesh9setSlicesEi
libQt63DExtras.so.6:_ZN10Qt3DExtras13QCylinderMeshC1EPN8Qt3DCore5QNodeE
libQt63DExtras.so.6:_ZN10Qt3DExtras13QCylinderMeshC2EPN8Qt3DCore5QNodeE
libQt63DExtras.so.6:_ZN10Qt3DExtras13QCylinderMeshD0Ev
libQt63DExtras.so.6:_ZN10Qt3DExtras13QCylinderMeshD1Ev
libQt63DExtras.so.6:_ZN10Qt3DExtras13QCylinderMeshD2Ev
libQt63DExtras.so.6:_ZN10Qt3DExtras13QSkyboxEntity11qt_metacallEN11QMetaObject4CallEiPPv
libQt63DExtras.so.6:_ZN10Qt3DExtras13QSkyboxEntity11qt_metacastEPKc
libQt63DExtras.so.6:_ZN10Qt3DExtras13QSkyboxEntity11setBaseNameERK7QString
libQt63DExtras.so.6:_ZN10Qt3DExtras13QSkyboxEntity12setExtensionERK7QString
libQt63DExtras.so.6:_ZN10Qt3DExtras13QSkyboxEntity15baseNameChangedERK7QString
libQt63DExtras.so.6:_ZN10Qt3DExtras13QSkyboxEntity16extensionChangedERK7QString
libQt63DExtras.so.6:_ZN10Qt3DExtras13QSkyboxEntity16staticMetaObjectE
libQt63DExtras.so.6:_ZN10Qt3DExtras13QSkyboxEntity22setGammaCorrectEnabledEb
libQt63DExtras.so.6:_ZN10Qt3DExtras13QSkyboxEntity26gammaCorrectEnabledChangedEb
libQt63DExtras.so.6:_ZN10Qt3DExtras13QSkyboxEntityC1EPN8Qt3DCore5QNodeE
libQt63DExtras.so.6:_ZN10Qt3DExtras13QSkyboxEntityC2EPN8Qt3DCore5QNodeE
libQt63DExtras.so.6:_ZN10Qt3DExtras13QSkyboxEntityD0Ev
libQt63DExtras.so.6:_ZN10Qt3DExtras13QSkyboxEntityD1Ev
libQt63DExtras.so.6:_ZN10Qt3DExtras13QSkyboxEntityD2Ev
libQt63DExtras.so.6:_ZN10Qt3DExtras13QText2DEntity11fontChangedERK5QFont
libQt63DExtras.so.6:_ZN10Qt3DExtras13QText2DEntity11qt_metacallEN11QMetaObject4CallEiPPv
libQt63DExtras.so.6:_ZN10Qt3DExtras13QText2DEntity11qt_metacastEPKc
libQt63DExtras.so.6:_ZN10Qt3DExtras13QText2DEntity11textChangedERK7QString
libQt63DExtras.so.6:_ZN10Qt3DExtras13QText2DEntity12colorChangedERK6QColor
libQt63DExtras.so.6:_ZN10Qt3DExtras13QText2DEntity12setAlignmentE6QFlagsIN2Qt13AlignmentFlagEE
libQt63DExtras.so.6:_ZN10Qt3DExtras13QText2DEntity12widthChangedEf
libQt63DExtras.so.6:_ZN10Qt3DExtras13QText2DEntity13heightChangedEf
libQt63DExtras.so.6:_ZN10Qt3DExtras13QText2DEntity16staticMetaObjectE
libQt63DExtras.so.6:_ZN10Qt3DExtras13QText2DEntity7setFontERK5QFont
libQt63DExtras.so.6:_ZN10Qt3DExtras13QText2DEntity7setTextERK7QString
libQt63DExtras.so.6:_ZN10Qt3DExtras13QText2DEntity8setColorERK6QColor
libQt63DExtras.so.6:_ZN10Qt3DExtras13QText2DEntity8setWidthEf
libQt63DExtras.so.6:_ZN10Qt3DExtras13QText2DEntity9setHeightEf
libQt63DExtras.so.6:_ZN10Qt3DExtras13QText2DEntityC1EPN8Qt3DCore5QNodeE
libQt63DExtras.so.6:_ZN10Qt3DExtras13QText2DEntityC2EPN8Qt3DCore5QNodeE
libQt63DExtras.so.6:_ZN10Qt3DExtras13QText2DEntityD0Ev
libQt63DExtras.so.6:_ZN10Qt3DExtras13QText2DEntityD1Ev
libQt63DExtras.so.6:_ZN10Qt3DExtras13QText2DEntityD2Ev
libQt63DExtras.so.6:_ZN10Qt3DExtras14QGoochMaterial10setDiffuseERK6QColor
libQt63DExtras.so.6:_ZN10Qt3DExtras14QGoochMaterial11betaChangedEf
libQt63DExtras.so.6:_ZN10Qt3DExtras14QGoochMaterial11coolChangedERK6QColor
libQt63DExtras.so.6:_ZN10Qt3DExtras14QGoochMaterial11qt_metacallEN11QMetaObject4CallEiPPv
libQt63DExtras.so.6:_ZN10Qt3DExtras14QGoochMaterial11qt_metacastEPKc
libQt63DExtras.so.6:_ZN10Qt3DExtras14QGoochMaterial11setSpecularERK6QColor
libQt63DExtras.so.6:_ZN10Qt3DExtras14QGoochMaterial11warmChangedERK6QColor
libQt63DExtras.so.6:_ZN10Qt3DExtras14QGoochMaterial12alphaChangedEf
libQt63DExtras.so.6:_ZN10Qt3DExtras14QGoochMaterial12setShininessEf
libQt63DExtras.so.6:_ZN10Qt3DExtras14QGoochMaterial14diffuseChangedERK6QColor
libQt63DExtras.so.6:_ZN10Qt3DExtras14QGoochMaterial15specularChangedERK6QColor
libQt63DExtras.so.6:_ZN10Qt3DExtras14QGoochMaterial16shininessChangedEf
libQt63DExtras.so.6:_ZN10Qt3DExtras14QGoochMaterial16staticMetaObjectE
libQt63DExtras.so.6:_ZN10Qt3DExtras14QGoochMaterial7setBetaEf
libQt63DExtras.so.6:_ZN10Qt3DExtras14QGoochMaterial7setCoolERK6QColor
libQt63DExtras.so.6:_ZN10Qt3DExtras14QGoochMaterial7setWarmERK6QColor
libQt63DExtras.so.6:_ZN10Qt3DExtras14QGoochMaterial8setAlphaEf
libQt63DExtras.so.6:_ZN10Qt3DExtras14QGoochMaterialC1EPN8Qt3DCore5QNodeE
libQt63DExtras.so.6:_ZN10Qt3DExtras14QGoochMaterialC1ERNS_21QGoochMaterialPrivateEPN8Qt3DCore5QNodeE
libQt63DExtras.so.6:_ZN10Qt3DExtras14QGoochMaterialC2EPN8Qt3DCore5QNodeE
libQt63DExtras.so.6:_ZN10Qt3DExtras14QGoochMaterialC2ERNS_21QGoochMaterialPrivateEPN8Qt3DCore5QNodeE
libQt63DExtras.so.6:_ZN10Qt3DExtras14QGoochMaterialD0Ev
libQt63DExtras.so.6:_ZN10Qt3DExtras14QGoochMaterialD1Ev
libQt63DExtras.so.6:_ZN10Qt3DExtras14QGoochMaterialD2Ev
libQt63DExtras.so.6:_ZN10Qt3DExtras14QPhongMaterial10setAmbientERK6QColor
libQt63DExtras.so.6:_ZN10Qt3DExtras14QPhongMaterial10setDiffuseERK6QColor
libQt63DExtras.so.6:_ZN10Qt3DExtras14QPhongMaterial11qt_metacallEN11QMetaObject4CallEiPPv
libQt63DExtras.so.6:_ZN10Qt3DExtras14QPhongMaterial11qt_metacastEPKc
libQt63DExtras.so.6:_ZN10Qt3DExtras14QPhongMaterial11setSpecularERK6QColor
libQt63DExtras.so.6:_ZN10Qt3DExtras14QPhongMaterial12setShininessEf
libQt63DExtras.so.6:_ZN10Qt3DExtras14QPhongMaterial14ambientChangedERK6QColor
libQt63DExtras.so.6:_ZN10Qt3DExtras14QPhongMaterial14diffuseChangedERK6QColor
libQt63DExtras.so.6:_ZN10Qt3DExtras14QPhongMaterial15specularChangedERK6QColor
libQt63DExtras.so.6:_ZN10Qt3DExtras14QPhongMaterial16shininessChangedEf
libQt63DExtras.so.6:_ZN10Qt3DExtras14QPhongMaterial16staticMetaObjectE
libQt63DExtras.so.6:_ZN10Qt3DExtras14QPhongMaterialC1EPN8Qt3DCore5QNodeE
libQt63DExtras.so.6:_ZN10Qt3DExtras14QPhongMaterialC2EPN8Qt3DCore5QNodeE
libQt63DExtras.so.6:_ZN10Qt3DExtras14QPhongMaterialD0Ev
libQt63DExtras.so.6:_ZN10Qt3DExtras14QPhongMaterialD1Ev
libQt63DExtras.so.6:_ZN10Qt3DExtras14QPhongMaterialD2Ev
libQt63DExtras.so.6:_ZN10Qt3DExtras14QPlaneGeometry11qt_metacallEN11QMetaObject4CallEiPPv
libQt63DExtras.so.6:_ZN10Qt3DExtras14QPlaneGeometry11qt_metacastEPKc
libQt63DExtras.so.6:_ZN10Qt3DExtras14QPlaneGeometry11setMirroredEb
libQt63DExtras.so.6:_ZN10Qt3DExtras14QPlaneGeometry12widthChangedEf
libQt63DExtras.so.6:_ZN10Qt3DExtras14QPlaneGeometry13heightChangedEf
libQt63DExtras.so.6:_ZN10Qt3DExtras14QPlaneGeometry13setResolutionERK5QSize
libQt63DExtras.so.6:_ZN10Qt3DExtras14QPlaneGeometry13updateIndicesEv
libQt63DExtras.so.6:_ZN10Qt3DExtras14QPlaneGeometry14updateVerticesEv
libQt63DExtras.so.6:_ZN10Qt3DExtras14QPlaneGeometry15mirroredChangedEb
libQt63DExtras.so.6:_ZN10Qt3DExtras14QPlaneGeometry16staticMetaObjectE
libQt63DExtras.so.6:_ZN10Qt3DExtras14QPlaneGeometry17resolutionChangedERK5QSize
libQt63DExtras.so.6:_ZN10Qt3DExtras14QPlaneGeometry8setWidthEf
libQt63DExtras.so.6:_ZN10Qt3DExtras14QPlaneGeometry9setHeightEf
libQt63DExtras.so.6:_ZN10Qt3DExtras14QPlaneGeometryC1EPN8Qt3DCore5QNodeE
libQt63DExtras.so.6:_ZN10Qt3DExtras14QPlaneGeometryC1ERNS_21QPlaneGeometryPrivateEPN8Qt3DCore5QNodeE
libQt63DExtras.so.6:_ZN10Qt3DExtras14QPlaneGeometryC2EPN8Qt3DCore5QNodeE
libQt63DExtras.so.6:_ZN10Qt3DExtras14QPlaneGeometryC2ERNS_21QPlaneGeometryPrivateEPN8Qt3DCore5QNodeE
libQt63DExtras.so.6:_ZN10Qt3DExtras14QPlaneGeometryD0Ev
libQt63DExtras.so.6:_ZN10Qt3DExtras14QPlaneGeometryD1Ev
libQt63DExtras.so.6:_ZN10Qt3DExtras14QPlaneGeometryD2Ev
libQt63DExtras.so.6:_ZN10Qt3DExtras14QTorusGeometry11qt_metacallEN11QMetaObject4CallEiPPv
libQt63DExtras.so.6:_ZN10Qt3DExtras14QTorusGeometry11qt_metacastEPKc
libQt63DExtras.so.6:_ZN10Qt3DExtras14QTorusGeometry12ringsChangedEi
libQt63DExtras.so.6:_ZN10Qt3DExtras14QTorusGeometry13radiusChangedEf
libQt63DExtras.so.6:_ZN10Qt3DExtras14QTorusGeometry13slicesChangedEi
libQt63DExtras.so.6:_ZN10Qt3DExtras14QTorusGeometry13updateIndicesEv
libQt63DExtras.so.6:_ZN10Qt3DExtras14QTorusGeometry14setMinorRadiusEf
libQt63DExtras.so.6:_ZN10Qt3DExtras14QTorusGeometry14updateVerticesEv
libQt63DExtras.so.6:_ZN10Qt3DExtras14QTorusGeometry16staticMetaObjectE
libQt63DExtras.so.6:_ZN10Qt3DExtras14QTorusGeometry18minorRadiusChangedEf
libQt63DExtras.so.6:_ZN10Qt3DExtras14QTorusGeometry8setRingsEi
libQt63DExtras.so.6:_ZN10Qt3DExtras14QTorusGeometry9setRadiusEf
libQt63DExtras.so.6:_ZN10Qt3DExtras14QTorusGeometry9setSlicesEi
libQt63DExtras.so.6:_ZN10Qt3DExtras14QTorusGeometryC1EPN8Qt3DCore5QNodeE
libQt63DExtras.so.6:_ZN10Qt3DExtras14QTorusGeometryC1ERNS_21QTorusGeometryPrivateEPN8Qt3DCore5QNodeE
libQt63DExtras.so.6:_ZN10Qt3DExtras14QTorusGeometryC2EPN8Qt3DCore5QNodeE
libQt63DExtras.so.6:_ZN10Qt3DExtras14QTorusGeometryC2ERNS_21QTorusGeometryPrivateEPN8Qt3DCore5QNodeE
libQt63DExtras.so.6:_ZN10Qt3DExtras14QTorusGeometryD0Ev
libQt63DExtras.so.6:_ZN10Qt3DExtras14QTorusGeometryD1Ev
libQt63DExtras.so.6:_ZN10Qt3DExtras14QTorusGeometryD2Ev
libQt63DExtras.so.6:_ZN10Qt3DExtras15QCuboidGeometry10setXExtentEf
libQt63DExtras.so.6:_ZN10Qt3DExtras15QCuboidGeometry10setYExtentEf
libQt63DExtras.so.6:_ZN10Qt3DExtras15QCuboidGeometry10setZExtentEf
libQt63DExtras.so.6:_ZN10Qt3DExtras15QCuboidGeometry11qt_metacallEN11QMetaObject4CallEiPPv
libQt63DExtras.so.6:_ZN10Qt3DExtras15QCuboidGeometry11qt_metacastEPKc
libQt63DExtras.so.6:_ZN10Qt3DExtras15QCuboidGeometry13updateIndicesEv
libQt63DExtras.so.6:_ZN10Qt3DExtras15QCuboidGeometry14updateVerticesEv
libQt63DExtras.so.6:_ZN10Qt3DExtras15QCuboidGeometry14xExtentChangedEf
libQt63DExtras.so.6:_ZN10Qt3DExtras15QCuboidGeometry14yExtentChangedEf
libQt63DExtras.so.6:_ZN10Qt3DExtras15QCuboidGeometry14zExtentChangedEf
libQt63DExtras.so.6:_ZN10Qt3DExtras15QCuboidGeometry16staticMetaObjectE
libQt63DExtras.so.6:_ZN10Qt3DExtras15QCuboidGeometry19setXYMeshResolutionERK5QSize
libQt63DExtras.so.6:_ZN10Qt3DExtras15QCuboidGeometry19setXZMeshResolutionERK5QSize
libQt63DExtras.so.6:_ZN10Qt3DExtras15QCuboidGeometry19setYZMeshResolutionERK5QSize
libQt63DExtras.so.6:_ZN10Qt3DExtras15QCuboidGeometry23xyMeshResolutionChangedERK5QSize
libQt63DExtras.so.6:_ZN10Qt3DExtras15QCuboidGeometry23xzMeshResolutionChangedERK5QSize
libQt63DExtras.so.6:_ZN10Qt3DExtras15QCuboidGeometry23yzMeshResolutionChangedERK5QSize
libQt63DExtras.so.6:_ZN10Qt3DExtras15QCuboidGeometryC1EPN8Qt3DCore5QNodeE
libQt63DExtras.so.6:_ZN10Qt3DExtras15QCuboidGeometryC1ERNS_22QCuboidGeometryPrivateEPN8Qt3DCore5QNodeE
libQt63DExtras.so.6:_ZN10Qt3DExtras15QCuboidGeometryC2EPN8Qt3DCore5QNodeE
libQt63DExtras.so.6:_ZN10Qt3DExtras15QCuboidGeometryC2ERNS_22QCuboidGeometryPrivateEPN8Qt3DCore5QNodeE
libQt63DExtras.so.6:_ZN10Qt3DExtras15QCuboidGeometryD0Ev
libQt63DExtras.so.6:_ZN10Qt3DExtras15QCuboidGeometryD1Ev
libQt63DExtras.so.6:_ZN10Qt3DExtras15QCuboidGeometryD2Ev
libQt63DExtras.so.6:_ZN10Qt3DExtras15QSphereGeometry11qt_metacallEN11QMetaObject4CallEiPPv
libQt63DExtras.so.6:_ZN10Qt3DExtras15QSphereGeometry11qt_metacastEPKc
libQt63DExtras.so.6:_ZN10Qt3DExtras15QSphereGeometry12ringsChangedEi
libQt63DExtras.so.6:_ZN10Qt3DExtras15QSphereGeometry13radiusChangedEf
libQt63DExtras.so.6:_ZN10Qt3DExtras15QSphereGeometry13slicesChangedEi
libQt63DExtras.so.6:_ZN10Qt3DExtras15QSphereGeometry13updateIndicesEv
libQt63DExtras.so.6:_ZN10Qt3DExtras15QSphereGeometry14updateVerticesEv
libQt63DExtras.so.6:_ZN10Qt3DExtras15QSphereGeometry16staticMetaObjectE
libQt63DExtras.so.6:_ZN10Qt3DExtras15QSphereGeometry19setGenerateTangentsEb
libQt63DExtras.so.6:_ZN10Qt3DExtras15QSphereGeometry23generateTangentsChangedEb
libQt63DExtras.so.6:_ZN10Qt3DExtras15QSphereGeometry8setRingsEi
libQt63DExtras.so.6:_ZN10Qt3DExtras15QSphereGeometry9setRadiusEf
libQt63DExtras.so.6:_ZN10Qt3DExtras15QSphereGeometry9setSlicesEi
libQt63DExtras.so.6:_ZN10Qt3DExtras15QSphereGeometryC1EPN8Qt3DCore5QNodeE
libQt63DExtras.so.6:_ZN10Qt3DExtras15QSphereGeometryC1ERNS_22QSphereGeometryPrivateEPN8Qt3DCore5QNodeE
libQt63DExtras.so.6:_ZN10Qt3DExtras15QSphereGeometryC2EPN8Qt3DCore5QNodeE
libQt63DExtras.so.6:_ZN10Qt3DExtras15QSphereGeometryC2ERNS_22QSphereGeometryPrivateEPN8Qt3DCore5QNodeE
libQt63DExtras.so.6:_ZN10Qt3DExtras15QSphereGeometryD0Ev
libQt63DExtras.so.6:_ZN10Qt3DExtras15QSphereGeometryD1Ev
libQt63DExtras.so.6:_ZN10Qt3DExtras15QSphereGeometryD2Ev
libQt63DExtras.so.6:_ZN10Qt3DExtras16QForwardRenderer10setSurfaceEP7QObject
libQt63DExtras.so.6:_ZN10Qt3DExtras16QForwardRenderer11qt_metacallEN11QMetaObject4CallEiPPv
libQt63DExtras.so.6:_ZN10Qt3DExtras16QForwardRenderer11qt_metacastEPKc
libQt63DExtras.so.6:_ZN10Qt3DExtras16QForwardRenderer12gammaChangedEf
libQt63DExtras.so.6:_ZN10Qt3DExtras16QForwardRenderer13cameraChangedEPN8Qt3DCore7QEntityE
libQt63DExtras.so.6:_ZN10Qt3DExtras16QForwardRenderer13setClearColorERK6QColor
libQt63DExtras.so.6:_ZN10Qt3DExtras16QForwardRenderer14surfaceChangedEP7QObject
libQt63DExtras.so.6:_ZN10Qt3DExtras16QForwardRenderer15setViewportRectERK6QRectF
libQt63DExtras.so.6:_ZN10Qt3DExtras16QForwardRenderer16staticMetaObjectE
libQt63DExtras.so.6:_ZN10Qt3DExtras16QForwardRenderer17clearColorChangedERK6QColor
libQt63DExtras.so.6:_ZN10Qt3DExtras16QForwardRenderer17setBuffersToClearEN10Qt3DRender13QClearBuffers10BufferTypeE
libQt63DExtras.so.6:_ZN10Qt3DExtras16QForwardRenderer19setShowDebugOverlayEb
libQt63DExtras.so.6:_ZN10Qt3DExtras16QForwardRenderer19viewportRectChangedERK6QRectF
libQt63DExtras.so.6:_ZN10Qt3DExtras16QForwardRenderer21buffersToClearChangedEN10Qt3DRender13QClearBuffers10BufferTypeE
libQt63DExtras.so.6:_ZN10Qt3DExtras16QForwardRenderer23showDebugOverlayChangedEb
libQt63DExtras.so.6:_ZN10Qt3DExtras16QForwardRenderer24setFrustumCullingEnabledEb
libQt63DExtras.so.6:_ZN10Qt3DExtras16QForwardRenderer27setExternalRenderTargetSizeERK5QSize
libQt63DExtras.so.6:_ZN10Qt3DExtras16QForwardRenderer28frustumCullingEnabledChangedEb
libQt63DExtras.so.6:_ZN10Qt3DExtras16QForwardRenderer31externalRenderTargetSizeChangedERK5QSize
libQt63DExtras.so.6:_ZN10Qt3DExtras16QForwardRenderer8setGammaEf
libQt63DExtras.so.6:_ZN10Qt3DExtras16QForwardRenderer9setCameraEPN8Qt3DCore7QEntityE
libQt63DExtras.so.6:_ZN10Qt3DExtras16QForwardRendererC1EPN8Qt3DCore5QNodeE
libQt63DExtras.so.6:_ZN10Qt3DExtras16QForwardRendererC2EPN8Qt3DCore5QNodeE
libQt63DExtras.so.6:_ZN10Qt3DExtras16QForwardRendererD0Ev
libQt63DExtras.so.6:_ZN10Qt3DExtras16QForwardRendererD1Ev
libQt63DExtras.so.6:_ZN10Qt3DExtras16QForwardRendererD2Ev
libQt63DExtras.so.6:_ZN10Qt3DExtras16QSpriteSheetItem11qt_metacallEN11QMetaObject4CallEiPPv
libQt63DExtras.so.6:_ZN10Qt3DExtras16QSpriteSheetItem11qt_metacastEPKc
libQt63DExtras.so.6:_ZN10Qt3DExtras16QSpriteSheetItem12widthChangedEi
libQt63DExtras.so.6:_ZN10Qt3DExtras16QSpriteSheetItem13heightChangedEi
libQt63DExtras.so.6:_ZN10Qt3DExtras16QSpriteSheetItem16staticMetaObjectE
libQt63DExtras.so.6:_ZN10Qt3DExtras16QSpriteSheetItem4setXEi
libQt63DExtras.so.6:_ZN10Qt3DExtras16QSpriteSheetItem4setYEi
libQt63DExtras.so.6:_ZN10Qt3DExtras16QSpriteSheetItem8setWidthEi
libQt63DExtras.so.6:_ZN10Qt3DExtras16QSpriteSheetItem8xChangedEi
libQt63DExtras.so.6:_ZN10Qt3DExtras16QSpriteSheetItem8yChangedEi
libQt63DExtras.so.6:_ZN10Qt3DExtras16QSpriteSheetItem9setHeightEi
libQt63DExtras.so.6:_ZN10Qt3DExtras16QSpriteSheetItemC1EPN8Qt3DCore5QNodeE
libQt63DExtras.so.6:_ZN10Qt3DExtras16QSpriteSheetItemC2EPN8Qt3DCore5QNodeE
libQt63DExtras.so.6:_ZN10Qt3DExtras16QTextureMaterial10setTextureEPN10Qt3DRender16QAbstractTextureE
libQt63DExtras.so.6:_ZN10Qt3DExtras16QTextureMaterial11qt_metacallEN11QMetaObject4CallEiPPv
libQt63DExtras.so.6:_ZN10Qt3DExtras16QTextureMaterial11qt_metacastEPKc
libQt63DExtras.so.6:_ZN10Qt3DExtras16QTextureMaterial14textureChangedEPN10Qt3DRender16QAbstractTextureE
libQt63DExtras.so.6:_ZN10Qt3DExtras16QTextureMaterial16setTextureOffsetE9QVector2D
libQt63DExtras.so.6:_ZN10Qt3DExtras16QTextureMaterial16staticMetaObjectE
libQt63DExtras.so.6:_ZN10Qt3DExtras16QTextureMaterial19setTextureTransformERK14QGenericMatrixILi3ELi3EfE
libQt63DExtras.so.6:_ZN10Qt3DExtras16QTextureMaterial20textureOffsetChangedE9QVector2D
libQt63DExtras.so.6:_ZN10Qt3DExtras16QTextureMaterial23setAlphaBlendingEnabledEb
libQt63DExtras.so.6:_ZN10Qt3DExtras16QTextureMaterial23textureTransformChangedERK14QGenericMatrixILi3ELi3EfE
libQt63DExtras.so.6:_ZN10Qt3DExtras16QTextureMaterial27alphaBlendingEnabledChangedEb
libQt63DExtras.so.6:_ZN10Qt3DExtras16QTextureMaterialC1EPN8Qt3DCore5QNodeE
libQt63DExtras.so.6:_ZN10Qt3DExtras16QTextureMaterialC2EPN8Qt3DCore5QNodeE
libQt63DExtras.so.6:_ZN10Qt3DExtras16QTextureMaterialD0Ev
libQt63DExtras.so.6:_ZN10Qt3DExtras16QTextureMaterialD1Ev
libQt63DExtras.so.6:_ZN10Qt3DExtras16QTextureMaterialD2Ev
libQt63DExtras.so.6:_ZN10Qt3DExtras17QConeGeometryView11qt_metacallEN11QMetaObject4CallEiPPv
libQt63DExtras.so.6:_ZN10Qt3DExtras17QConeGeometryView11qt_metacastEPKc
libQt63DExtras.so.6:_ZN10Qt3DExtras17QConeGeometryView12ringsChangedEi
libQt63DExtras.so.6:_ZN10Qt3DExtras17QConeGeometryView12setTopRadiusEf
libQt63DExtras.so.6:_ZN10Qt3DExtras17QConeGeometryView13lengthChangedEf
libQt63DExtras.so.6:_ZN10Qt3DExtras17QConeGeometryView13slicesChangedEi
libQt63DExtras.so.6:_ZN10Qt3DExtras17QConeGeometryView15setBottomRadiusEf
libQt63DExtras.so.6:_ZN10Qt3DExtras17QConeGeometryView15setHasTopEndcapEb
libQt63DExtras.so.6:_ZN10Qt3DExtras17QConeGeometryView16staticMetaObjectE
libQt63DExtras.so.6:_ZN10Qt3DExtras17QConeGeometryView16topRadiusChangedEf
libQt63DExtras.so.6:_ZN10Qt3DExtras17QConeGeometryView18setHasBottomEndcapEb
libQt63DExtras.so.6:_ZN10Qt3DExtras17QConeGeometryView19bottomRadiusChangedEf
libQt63DExtras.so.6:_ZN10Qt3DExtras17QConeGeometryView19hasTopEndcapChangedEb
libQt63DExtras.so.6:_ZN10Qt3DExtras17QConeGeometryView22hasBottomEndcapChangedEb
libQt63DExtras.so.6:_ZN10Qt3DExtras17QConeGeometryView8setRingsEi
libQt63DExtras.so.6:_ZN10Qt3DExtras17QConeGeometryView9setLengthEf
libQt63DExtras.so.6:_ZN10Qt3DExtras17QConeGeometryView9setSlicesEi
libQt63DExtras.so.6:_ZN10Qt3DExtras17QConeGeometryViewC1EPN8Qt3DCore5QNodeE
libQt63DExtras.so.6:_ZN10Qt3DExtras17QConeGeometryViewC2EPN8Qt3DCore5QNodeE
libQt63DExtras.so.6:_ZN10Qt3DExtras17QConeGeometryViewD0Ev
libQt63DExtras.so.6:_ZN10Qt3DExtras17QConeGeometryViewD1Ev
libQt63DExtras.so.6:_ZN10Qt3DExtras17QConeGeometryViewD2Ev
libQt63DExtras.so.6:_ZN10Qt3DExtras17QCylinderGeometry11qt_metacallEN11QMetaObject4CallEiPPv
libQt63DExtras.so.6:_ZN10Qt3DExtras17QCylinderGeometry11qt_metacastEPKc
libQt63DExtras.so.6:_ZN10Qt3DExtras17QCylinderGeometry12ringsChangedEi
libQt63DExtras.so.6:_ZN10Qt3DExtras17QCylinderGeometry13lengthChangedEf
libQt63DExtras.so.6:_ZN10Qt3DExtras17QCylinderGeometry13radiusChangedEf
libQt63DExtras.so.6:_ZN10Qt3DExtras17QCylinderGeometry13slicesChangedEi
libQt63DExtras.so.6:_ZN10Qt3DExtras17QCylinderGeometry13updateIndicesEv
libQt63DExtras.so.6:_ZN10Qt3DExtras17QCylinderGeometry14updateVerticesEv
libQt63DExtras.so.6:_ZN10Qt3DExtras17QCylinderGeometry16staticMetaObjectE
libQt63DExtras.so.6:_ZN10Qt3DExtras17QCylinderGeometry8setRingsEi
libQt63DExtras.so.6:_ZN10Qt3DExtras17QCylinderGeometry9setLengthEf
libQt63DExtras.so.6:_ZN10Qt3DExtras17QCylinderGeometry9setRadiusEf
libQt63DExtras.so.6:_ZN10Qt3DExtras17QCylinderGeometry9setSlicesEi
libQt63DExtras.so.6:_ZN10Qt3DExtras17QCylinderGeometryC1EPN8Qt3DCore5QNodeE
libQt63DExtras.so.6:_ZN10Qt3DExtras17QCylinderGeometryC1ERNS_24QCylinderGeometryPrivateEPN8Qt3DCore5QNodeE
libQt63DExtras.so.6:_ZN10Qt3DExtras17QCylinderGeometryC2EPN8Qt3DCore5QNodeE
libQt63DExtras.so.6:_ZN10Qt3DExtras17QCylinderGeometryC2ERNS_24QCylinderGeometryPrivateEPN8Qt3DCore5QNodeE
libQt63DExtras.so.6:_ZN10Qt3DExtras17QCylinderGeometryD0Ev
libQt63DExtras.so.6:_ZN10Qt3DExtras17QCylinderGeometryD1Ev
libQt63DExtras.so.6:_ZN10Qt3DExtras17QCylinderGeometryD2Ev
libQt63DExtras.so.6:_ZN10Qt3DExtras17QExtrudedTextMesh11fontChangedERK5QFont
libQt63DExtras.so.6:_ZN10Qt3DExtras17QExtrudedTextMesh11qt_metacallEN11QMetaObject4CallEiPPv
libQt63DExtras.so.6:_ZN10Qt3DExtras17QExtrudedTextMesh11qt_metacastEPKc
libQt63DExtras.so.6:_ZN10Qt3DExtras17QExtrudedTextMesh11textChangedERK7QString
libQt63DExtras.so.6:_ZN10Qt3DExtras17QExtrudedTextMesh12depthChangedEf
libQt63DExtras.so.6:_ZN10Qt3DExtras17QExtrudedTextMesh16staticMetaObjectE
libQt63DExtras.so.6:_ZN10Qt3DExtras17QExtrudedTextMesh7setFontERK5QFont
libQt63DExtras.so.6:_ZN10Qt3DExtras17QExtrudedTextMesh7setTextERK7QString
libQt63DExtras.so.6:_ZN10Qt3DExtras17QExtrudedTextMesh8setDepthEf
libQt63DExtras.so.6:_ZN10Qt3DExtras17QExtrudedTextMeshC1EPN8Qt3DCore5QNodeE
libQt63DExtras.so.6:_ZN10Qt3DExtras17QExtrudedTextMeshC2EPN8Qt3DCore5QNodeE
libQt63DExtras.so.6:_ZN10Qt3DExtras17QExtrudedTextMeshD0Ev
libQt63DExtras.so.6:_ZN10Qt3DExtras17QExtrudedTextMeshD1Ev
libQt63DExtras.so.6:_ZN10Qt3DExtras17QExtrudedTextMeshD2Ev
libQt63DExtras.so.6:_ZN10Qt3DExtras18QPlaneGeometryView11qt_metacallEN11QMetaObject4CallEiPPv
libQt63DExtras.so.6:_ZN10Qt3DExtras18QPlaneGeometryView11qt_metacastEPKc
libQt63DExtras.so.6:_ZN10Qt3DExtras18QPlaneGeometryView11setMirroredEb
libQt63DExtras.so.6:_ZN10Qt3DExtras18QPlaneGeometryView12widthChangedEf
libQt63DExtras.so.6:_ZN10Qt3DExtras18QPlaneGeometryView13heightChangedEf
libQt63DExtras.so.6:_ZN10Qt3DExtras18QPlaneGeometryView15mirroredChangedEb
libQt63DExtras.so.6:_ZN10Qt3DExtras18QPlaneGeometryView16staticMetaObjectE
libQt63DExtras.so.6:_ZN10Qt3DExtras18QPlaneGeometryView17setMeshResolutionERK5QSize
libQt63DExtras.so.6:_ZN10Qt3DExtras18QPlaneGeometryView21meshResolutionChangedERK5QSize
libQt63DExtras.so.6:_ZN10Qt3DExtras18QPlaneGeometryView8setWidthEf
libQt63DExtras.so.6:_ZN10Qt3DExtras18QPlaneGeometryView9setHeightEf
libQt63DExtras.so.6:_ZN10Qt3DExtras18QPlaneGeometryViewC1EPN8Qt3DCore5QNodeE
libQt63DExtras.so.6:_ZN10Qt3DExtras18QPlaneGeometryViewC2EPN8Qt3DCore5QNodeE
libQt63DExtras.so.6:_ZN10Qt3DExtras18QPlaneGeometryViewD0Ev
libQt63DExtras.so.6:_ZN10Qt3DExtras18QPlaneGeometryViewD1Ev
libQt63DExtras.so.6:_ZN10Qt3DExtras18QPlaneGeometryViewD2Ev
libQt63DExtras.so.6:_ZN10Qt3DExtras18QTorusGeometryView11qt_metacallEN11QMetaObject4CallEiPPv
libQt63DExtras.so.6:_ZN10Qt3DExtras18QTorusGeometryView11qt_metacastEPKc
libQt63DExtras.so.6:_ZN10Qt3DExtras18QTorusGeometryView12ringsChangedEi
libQt63DExtras.so.6:_ZN10Qt3DExtras18QTorusGeometryView13radiusChangedEf
libQt63DExtras.so.6:_ZN10Qt3DExtras18QTorusGeometryView13slicesChangedEi
libQt63DExtras.so.6:_ZN10Qt3DExtras18QTorusGeometryView14setMinorRadiusEf
libQt63DExtras.so.6:_ZN10Qt3DExtras18QTorusGeometryView16staticMetaObjectE
libQt63DExtras.so.6:_ZN10Qt3DExtras18QTorusGeometryView18minorRadiusChangedEf
libQt63DExtras.so.6:_ZN10Qt3DExtras18QTorusGeometryView8setRingsEi
libQt63DExtras.so.6:_ZN10Qt3DExtras18QTorusGeometryView9setRadiusEf
libQt63DExtras.so.6:_ZN10Qt3DExtras18QTorusGeometryView9setSlicesEi
libQt63DExtras.so.6:_ZN10Qt3DExtras18QTorusGeometryViewC1EPN8Qt3DCore5QNodeE
libQt63DExtras.so.6:_ZN10Qt3DExtras18QTorusGeometryViewC2EPN8Qt3DCore5QNodeE
libQt63DExtras.so.6:_ZN10Qt3DExtras18QTorusGeometryViewD0Ev
libQt63DExtras.so.6:_ZN10Qt3DExtras18QTorusGeometryViewD1Ev
libQt63DExtras.so.6:_ZN10Qt3DExtras18QTorusGeometryViewD2Ev
libQt63DExtras.so.6:_ZN10Qt3DExtras18setupWindowSurfaceEP7QWindowN10Qt3DRender3APIE
libQt63DExtras.so.6:_ZN10Qt3DExtras19QCuboidGeometryView10setXExtentEf
libQt63DExtras.so.6:_ZN10Qt3DExtras19QCuboidGeometryView10setYExtentEf
libQt63DExtras.so.6:_ZN10Qt3DExtras19QCuboidGeometryView10setZExtentEf
libQt63DExtras.so.6:_ZN10Qt3DExtras19QCuboidGeometryView11qt_metacallEN11QMetaObject4CallEiPPv
libQt63DExtras.so.6:_ZN10Qt3DExtras19QCuboidGeometryView11qt_metacastEPKc
libQt63DExtras.so.6:_ZN10Qt3DExtras19QCuboidGeometryView14xExtentChangedEf
libQt63DExtras.so.6:_ZN10Qt3DExtras19QCuboidGeometryView14yExtentChangedEf
libQt63DExtras.so.6:_ZN10Qt3DExtras19QCuboidGeometryView14zExtentChangedEf
libQt63DExtras.so.6:_ZN10Qt3DExtras19QCuboidGeometryView16staticMetaObjectE
libQt63DExtras.so.6:_ZN10Qt3DExtras19QCuboidGeometryView19setXYMeshResolutionERK5QSize
libQt63DExtras.so.6:_ZN10Qt3DExtras19QCuboidGeometryView19setXZMeshResolutionERK5QSize
libQt63DExtras.so.6:_ZN10Qt3DExtras19QCuboidGeometryView19setYZMeshResolutionERK5QSize
libQt63DExtras.so.6:_ZN10Qt3DExtras19QCuboidGeometryView23xyMeshResolutionChangedERK5QSize
libQt63DExtras.so.6:_ZN10Qt3DExtras19QCuboidGeometryView23xzMeshResolutionChangedERK5QSize
libQt63DExtras.so.6:_ZN10Qt3DExtras19QCuboidGeometryView23yzMeshResolutionChangedERK5QSize
libQt63DExtras.so.6:_ZN10Qt3DExtras19QCuboidGeometryViewC1EPN8Qt3DCore5QNodeE
libQt63DExtras.so.6:_ZN10Qt3DExtras19QCuboidGeometryViewC2EPN8Qt3DCore5QNodeE
libQt63DExtras.so.6:_ZN10Qt3DExtras19QCuboidGeometryViewD0Ev
libQt63DExtras.so.6:_ZN10Qt3DExtras19QCuboidGeometryViewD1Ev
libQt63DExtras.so.6:_ZN10Qt3DExtras19QCuboidGeometryViewD2Ev
libQt63DExtras.so.6:_ZN10Qt3DExtras19QDiffuseMapMaterial10setAmbientERK6QColor
libQt63DExtras.so.6:_ZN10Qt3DExtras19QDiffuseMapMaterial10setDiffuseEPN10Qt3DRender16QAbstractTextureE
libQt63DExtras.so.6:_ZN10Qt3DExtras19QDiffuseMapMaterial11qt_metacallEN11QMetaObject4CallEiPPv
libQt63DExtras.so.6:_ZN10Qt3DExtras19QDiffuseMapMaterial11qt_metacastEPKc
libQt63DExtras.so.6:_ZN10Qt3DExtras19QDiffuseMapMaterial11setSpecularERK6QColor
libQt63DExtras.so.6:_ZN10Qt3DExtras19QDiffuseMapMaterial12setShininessEf
libQt63DExtras.so.6:_ZN10Qt3DExtras19QDiffuseMapMaterial14ambientChangedERK6QColor
libQt63DExtras.so.6:_ZN10Qt3DExtras19QDiffuseMapMaterial14diffuseChangedEPN10Qt3DRender16QAbstractTextureE
libQt63DExtras.so.6:_ZN10Qt3DExtras19QDiffuseMapMaterial15setTextureScaleEf
libQt63DExtras.so.6:_ZN10Qt3DExtras19QDiffuseMapMaterial15specularChangedERK6QColor
libQt63DExtras.so.6:_ZN10Qt3DExtras19QDiffuseMapMaterial16shininessChangedEf
libQt63DExtras.so.6:_ZN10Qt3DExtras19QDiffuseMapMaterial16staticMetaObjectE
libQt63DExtras.so.6:_ZN10Qt3DExtras19QDiffuseMapMaterial19textureScaleChangedEf
libQt63DExtras.so.6:_ZN10Qt3DExtras19QDiffuseMapMaterialC1EPN8Qt3DCore5QNodeE
libQt63DExtras.so.6:_ZN10Qt3DExtras19QDiffuseMapMaterialC2EPN8Qt3DCore5QNodeE
libQt63DExtras.so.6:_ZN10Qt3DExtras19QDiffuseMapMaterialD0Ev
libQt63DExtras.so.6:_ZN10Qt3DExtras19QDiffuseMapMaterialD1Ev
libQt63DExtras.so.6:_ZN10Qt3DExtras19QDiffuseMapMaterialD2Ev
libQt63DExtras.so.6:_ZN10Qt3DExtras19QMetalRoughMaterial11qt_metacallEN11QMetaObject4CallEiPPv
libQt63DExtras.so.6:_ZN10Qt3DExtras19QMetalRoughMaterial11qt_metacastEPKc
libQt63DExtras.so.6:_ZN10Qt3DExtras19QMetalRoughMaterial12setBaseColorERK8QVariant
libQt63DExtras.so.6:_ZN10Qt3DExtras19QMetalRoughMaterial12setMetalnessERK8QVariant
libQt63DExtras.so.6:_ZN10Qt3DExtras19QMetalRoughMaterial12setRoughnessERK8QVariant
libQt63DExtras.so.6:_ZN10Qt3DExtras19QMetalRoughMaterial13normalChangedERK8QVariant
libQt63DExtras.so.6:_ZN10Qt3DExtras19QMetalRoughMaterial15setTextureScaleEf
libQt63DExtras.so.6:_ZN10Qt3DExtras19QMetalRoughMaterial16baseColorChangedERK8QVariant
libQt63DExtras.so.6:_ZN10Qt3DExtras19QMetalRoughMaterial16metalnessChangedERK8QVariant
libQt63DExtras.so.6:_ZN10Qt3DExtras19QMetalRoughMaterial16roughnessChangedERK8QVariant
libQt63DExtras.so.6:_ZN10Qt3DExtras19QMetalRoughMaterial16staticMetaObjectE
libQt63DExtras.so.6:_ZN10Qt3DExtras19QMetalRoughMaterial19setAmbientOcclusionERK8QVariant
libQt63DExtras.so.6:_ZN10Qt3DExtras19QMetalRoughMaterial19textureScaleChangedEf
libQt63DExtras.so.6:_ZN10Qt3DExtras19QMetalRoughMaterial23ambientOcclusionChangedERK8QVariant
libQt63DExtras.so.6:_ZN10Qt3DExtras19QMetalRoughMaterial9setNormalERK8QVariant
libQt63DExtras.so.6:_ZN10Qt3DExtras19QMetalRoughMaterialC1EPN8Qt3DCore5QNodeE
libQt63DExtras.so.6:_ZN10Qt3DExtras19QMetalRoughMaterialC1ERNS_26QMetalRoughMaterialPrivateEPN8Qt3DCore5QNodeE
libQt63DExtras.so.6:_ZN10Qt3DExtras19QMetalRoughMaterialC2EPN8Qt3DCore5QNodeE
libQt63DExtras.so.6:_ZN10Qt3DExtras19QMetalRoughMaterialC2ERNS_26QMetalRoughMaterialPrivateEPN8Qt3DCore5QNodeE
libQt63DExtras.so.6:_ZN10Qt3DExtras19QMetalRoughMaterialD0Ev
libQt63DExtras.so.6:_ZN10Qt3DExtras19QMetalRoughMaterialD1Ev
libQt63DExtras.so.6:_ZN10Qt3DExtras19QMetalRoughMaterialD2Ev
libQt63DExtras.so.6:_ZN10Qt3DExtras19QMorphPhongMaterial10setAmbientERK6QColor
libQt63DExtras.so.6:_ZN10Qt3DExtras19QMorphPhongMaterial10setDiffuseERK6QColor
libQt63DExtras.so.6:_ZN10Qt3DExtras19QMorphPhongMaterial11qt_metacallEN11QMetaObject4CallEiPPv
libQt63DExtras.so.6:_ZN10Qt3DExtras19QMorphPhongMaterial11qt_metacastEPKc
libQt63DExtras.so.6:_ZN10Qt3DExtras19QMorphPhongMaterial11setSpecularERK6QColor
libQt63DExtras.so.6:_ZN10Qt3DExtras19QMorphPhongMaterial12setShininessEf
libQt63DExtras.so.6:_ZN10Qt3DExtras19QMorphPhongMaterial14ambientChangedERK6QColor
libQt63DExtras.so.6:_ZN10Qt3DExtras19QMorphPhongMaterial14diffuseChangedERK6QColor
libQt63DExtras.so.6:_ZN10Qt3DExtras19QMorphPhongMaterial15setInterpolatorEf
libQt63DExtras.so.6:_ZN10Qt3DExtras19QMorphPhongMaterial15specularChangedERK6QColor
libQt63DExtras.so.6:_ZN10Qt3DExtras19QMorphPhongMaterial16shininessChangedEf
libQt63DExtras.so.6:_ZN10Qt3DExtras19QMorphPhongMaterial16staticMetaObjectE
libQt63DExtras.so.6:_ZN10Qt3DExtras19QMorphPhongMaterial19interpolatorChangedEf
libQt63DExtras.so.6:_ZN10Qt3DExtras19QMorphPhongMaterialC1EPN8Qt3DCore5QNodeE
libQt63DExtras.so.6:_ZN10Qt3DExtras19QMorphPhongMaterialC2EPN8Qt3DCore5QNodeE
libQt63DExtras.so.6:_ZN10Qt3DExtras19QMorphPhongMaterialD0Ev
libQt63DExtras.so.6:_ZN10Qt3DExtras19QMorphPhongMaterialD1Ev
libQt63DExtras.so.6:_ZN10Qt3DExtras19QMorphPhongMaterialD2Ev
libQt63DExtras.so.6:_ZN10Qt3DExtras19QPhongAlphaMaterial10setAmbientERK6QColor
libQt63DExtras.so.6:_ZN10Qt3DExtras19QPhongAlphaMaterial10setDiffuseERK6QColor
libQt63DExtras.so.6:_ZN10Qt3DExtras19QPhongAlphaMaterial11qt_metacallEN11QMetaObject4CallEiPPv
libQt63DExtras.so.6:_ZN10Qt3DExtras19QPhongAlphaMaterial11qt_metacastEPKc
libQt63DExtras.so.6:_ZN10Qt3DExtras19QPhongAlphaMaterial11setSpecularERK6QColor
libQt63DExtras.so.6:_ZN10Qt3DExtras19QPhongAlphaMaterial12alphaChangedEf
libQt63DExtras.so.6:_ZN10Qt3DExtras19QPhongAlphaMaterial12setShininessEf
libQt63DExtras.so.6:_ZN10Qt3DExtras19QPhongAlphaMaterial14ambientChangedERK6QColor
libQt63DExtras.so.6:_ZN10Qt3DExtras19QPhongAlphaMaterial14diffuseChangedERK6QColor
libQt63DExtras.so.6:_ZN10Qt3DExtras19QPhongAlphaMaterial15setSourceRgbArgEN10Qt3DRender23QBlendEquationArguments8BlendingE
libQt63DExtras.so.6:_ZN10Qt3DExtras19QPhongAlphaMaterial15specularChangedERK6QColor
libQt63DExtras.so.6:_ZN10Qt3DExtras19QPhongAlphaMaterial16shininessChangedEf
libQt63DExtras.so.6:_ZN10Qt3DExtras19QPhongAlphaMaterial16staticMetaObjectE
libQt63DExtras.so.6:_ZN10Qt3DExtras19QPhongAlphaMaterial17setSourceAlphaArgEN10Qt3DRender23QBlendEquationArguments8BlendingE
libQt63DExtras.so.6:_ZN10Qt3DExtras19QPhongAlphaMaterial19setBlendFunctionArgEN10Qt3DRender14QBlendEquation13BlendFunctionE
libQt63DExtras.so.6:_ZN10Qt3DExtras19QPhongAlphaMaterial19sourceRgbArgChangedEN10Qt3DRender23QBlendEquationArguments8BlendingE
libQt63DExtras.so.6:_ZN10Qt3DExtras19QPhongAlphaMaterial20setDestinationRgbArgEN10Qt3DRender23QBlendEquationArguments8BlendingE
libQt63DExtras.so.6:_ZN10Qt3DExtras19QPhongAlphaMaterial21sourceAlphaArgChangedEN10Qt3DRender23QBlendEquationArguments8BlendingE
libQt63DExtras.so.6:_ZN10Qt3DExtras19QPhongAlphaMaterial22setDestinationAlphaArgEN10Qt3DRender23QBlendEquationArguments8BlendingE
libQt63DExtras.so.6:_ZN10Qt3DExtras19QPhongAlphaMaterial23blendFunctionArgChangedEN10Qt3DRender14QBlendEquation13BlendFunctionE
libQt63DExtras.so.6:_ZN10Qt3DExtras19QPhongAlphaMaterial24destinationRgbArgChangedEN10Qt3DRender23QBlendEquationArguments8BlendingE
libQt63DExtras.so.6:_ZN10Qt3DExtras19QPhongAlphaMaterial26destinationAlphaArgChangedEN10Qt3DRender23QBlendEquationArguments8BlendingE
libQt63DExtras.so.6:_ZN10Qt3DExtras19QPhongAlphaMaterial8setAlphaEf
libQt63DExtras.so.6:_ZN10Qt3DExtras19QPhongAlphaMaterialC1EPN8Qt3DCore5QNodeE
libQt63DExtras.so.6:_ZN10Qt3DExtras19QPhongAlphaMaterialC2EPN8Qt3DCore5QNodeE
libQt63DExtras.so.6:_ZN10Qt3DExtras19QPhongAlphaMaterialD0Ev
libQt63DExtras.so.6:_ZN10Qt3DExtras19QPhongAlphaMaterialD1Ev
libQt63DExtras.so.6:_ZN10Qt3DExtras19QPhongAlphaMaterialD2Ev
libQt63DExtras.so.6:_ZN10Qt3DExtras19QSphereGeometryView11qt_metacallEN11QMetaObject4CallEiPPv
libQt63DExtras.so.6:_ZN10Qt3DExtras19QSphereGeometryView11qt_metacastEPKc
libQt63DExtras.so.6:_ZN10Qt3DExtras19QSphereGeometryView12ringsChangedEi
libQt63DExtras.so.6:_ZN10Qt3DExtras19QSphereGeometryView13radiusChangedEf
libQt63DExtras.so.6:_ZN10Qt3DExtras19QSphereGeometryView13slicesChangedEi
libQt63DExtras.so.6:_ZN10Qt3DExtras19QSphereGeometryView16staticMetaObjectE
libQt63DExtras.so.6:_ZN10Qt3DExtras19QSphereGeometryView19setGenerateTangentsEb
libQt63DExtras.so.6:_ZN10Qt3DExtras19QSphereGeometryView23generateTangentsChangedEb
libQt63DExtras.so.6:_ZN10Qt3DExtras19QSphereGeometryView8setRingsEi
libQt63DExtras.so.6:_ZN10Qt3DExtras19QSphereGeometryView9setRadiusEf
libQt63DExtras.so.6:_ZN10Qt3DExtras19QSphereGeometryView9setSlicesEi
libQt63DExtras.so.6:_ZN10Qt3DExtras19QSphereGeometryViewC1EPN8Qt3DCore5QNodeE
libQt63DExtras.so.6:_ZN10Qt3DExtras19QSphereGeometryViewC2EPN8Qt3DCore5QNodeE
libQt63DExtras.so.6:_ZN10Qt3DExtras19QSphereGeometryViewD0Ev
libQt63DExtras.so.6:_ZN10Qt3DExtras19QSphereGeometryViewD1Ev
libQt63DExtras.so.6:_ZN10Qt3DExtras19QSphereGeometryViewD2Ev
libQt63DExtras.so.6:_ZN10Qt3DExtras20QAbstractSpriteSheet10setTextureEPN10Qt3DRender16QAbstractTextureE
libQt63DExtras.so.6:_ZN10Qt3DExtras20QAbstractSpriteSheet11qt_metacallEN11QMetaObject4CallEiPPv
libQt63DExtras.so.6:_ZN10Qt3DExtras20QAbstractSpriteSheet11qt_metacastEPKc
libQt63DExtras.so.6:_ZN10Qt3DExtras20QAbstractSpriteSheet14textureChangedEPN10Qt3DRender16QAbstractTextureE
libQt63DExtras.so.6:_ZN10Qt3DExtras20QAbstractSpriteSheet15setCurrentIndexEi
libQt63DExtras.so.6:_ZN10Qt3DExtras20QAbstractSpriteSheet16staticMetaObjectE
libQt63DExtras.so.6:_ZN10Qt3DExtras20QAbstractSpriteSheet19currentIndexChangedEi
libQt63DExtras.so.6:_ZN10Qt3DExtras20QAbstractSpriteSheet23textureTransformChangedERK14QGenericMatrixILi3ELi3EfE
libQt63DExtras.so.6:_ZN10Qt3DExtras20QAbstractSpriteSheetC1ERNS_27QAbstractSpriteSheetPrivateEPN8Qt3DCore5QNodeE
libQt63DExtras.so.6:_ZN10Qt3DExtras20QAbstractSpriteSheetC2ERNS_27QAbstractSpriteSheetPrivateEPN8Qt3DCore5QNodeE
libQt63DExtras.so.6:_ZN10Qt3DExtras20QAbstractSpriteSheetD0Ev
libQt63DExtras.so.6:_ZN10Qt3DExtras20QAbstractSpriteSheetD1Ev
libQt63DExtras.so.6:_ZN10Qt3DExtras20QAbstractSpriteSheetD2Ev
libQt63DExtras.so.6:_ZN10Qt3DExtras21QCylinderGeometryView11qt_metacallEN11QMetaObject4CallEiPPv
libQt63DExtras.so.6:_ZN10Qt3DExtras21QCylinderGeometryView11qt_metacastEPKc
libQt63DExtras.so.6:_ZN10Qt3DExtras21QCylinderGeometryView12ringsChangedEi
libQt63DExtras.so.6:_ZN10Qt3DExtras21QCylinderGeometryView13lengthChangedEf
libQt63DExtras.so.6:_ZN10Qt3DExtras21QCylinderGeometryView13radiusChangedEf
libQt63DExtras.so.6:_ZN10Qt3DExtras21QCylinderGeometryView13slicesChangedEi
libQt63DExtras.so.6:_ZN10Qt3DExtras21QCylinderGeometryView16staticMetaObjectE
libQt63DExtras.so.6:_ZN10Qt3DExtras21QCylinderGeometryView8setRingsEi
libQt63DExtras.so.6:_ZN10Qt3DExtras21QCylinderGeometryView9setLengthEf
libQt63DExtras.so.6:_ZN10Qt3DExtras21QCylinderGeometryView9setRadiusEf
libQt63DExtras.so.6:_ZN10Qt3DExtras21QCylinderGeometryView9setSlicesEi
libQt63DExtras.so.6:_ZN10Qt3DExtras21QCylinderGeometryViewC1EPN8Qt3DCore5QNodeE
libQt63DExtras.so.6:_ZN10Qt3DExtras21QCylinderGeometryViewC2EPN8Qt3DCore5QNodeE
libQt63DExtras.so.6:_ZN10Qt3DExtras21QCylinderGeometryViewD0Ev
libQt63DExtras.so.6:_ZN10Qt3DExtras21QCylinderGeometryViewD1Ev
libQt63DExtras.so.6:_ZN10Qt3DExtras21QCylinderGeometryViewD2Ev
libQt63DExtras.so.6:_ZN10Qt3DExtras21QExtrudedTextGeometry11fontChangedERK5QFont
libQt63DExtras.so.6:_ZN10Qt3DExtras21QExtrudedTextGeometry11qt_metacallEN11QMetaObject4CallEiPPv
libQt63DExtras.so.6:_ZN10Qt3DExtras21QExtrudedTextGeometry11qt_metacastEPKc
libQt63DExtras.so.6:_ZN10Qt3DExtras21QExtrudedTextGeometry11textChangedERK7QString
libQt63DExtras.so.6:_ZN10Qt3DExtras21QExtrudedTextGeometry12depthChangedEf
libQt63DExtras.so.6:_ZN10Qt3DExtras21QExtrudedTextGeometry16staticMetaObjectE
libQt63DExtras.so.6:_ZN10Qt3DExtras21QExtrudedTextGeometry7setFontERK5QFont
libQt63DExtras.so.6:_ZN10Qt3DExtras21QExtrudedTextGeometry7setTextERK7QString
libQt63DExtras.so.6:_ZN10Qt3DExtras21QExtrudedTextGeometry8setDepthEf
libQt63DExtras.so.6:_ZN10Qt3DExtras21QExtrudedTextGeometryC1EPN8Qt3DCore5QNodeE
libQt63DExtras.so.6:_ZN10Qt3DExtras21QExtrudedTextGeometryC1ERNS_28QExtrudedTextGeometryPrivateEPN8Qt3DCore5QNodeE
libQt63DExtras.so.6:_ZN10Qt3DExtras21QExtrudedTextGeometryC2EPN8Qt3DCore5QNodeE
libQt63DExtras.so.6:_ZN10Qt3DExtras21QExtrudedTextGeometryC2ERNS_28QExtrudedTextGeometryPrivateEPN8Qt3DCore5QNodeE
libQt63DExtras.so.6:_ZN10Qt3DExtras21QExtrudedTextGeometryD0Ev
libQt63DExtras.so.6:_ZN10Qt3DExtras21QExtrudedTextGeometryD1Ev
libQt63DExtras.so.6:_ZN10Qt3DExtras21QExtrudedTextGeometryD2Ev
libQt63DExtras.so.6:_ZN10Qt3DExtras22QOrbitCameraController10moveCameraERKNS_25QAbstractCameraController10InputStateEf
libQt63DExtras.so.6:_ZN10Qt3DExtras22QOrbitCameraController11qt_metacallEN11QMetaObject4CallEiPPv
libQt63DExtras.so.6:_ZN10Qt3DExtras22QOrbitCameraController11qt_metacastEPKc
libQt63DExtras.so.6:_ZN10Qt3DExtras22QOrbitCameraController11setUpVectorERK9QVector3D
libQt63DExtras.so.6:_ZN10Qt3DExtras22QOrbitCameraController13setInversePanEb
libQt63DExtras.so.6:_ZN10Qt3DExtras22QOrbitCameraController14setInverseTiltEb
libQt63DExtras.so.6:_ZN10Qt3DExtras22QOrbitCameraController14setZoomInLimitEf
libQt63DExtras.so.6:_ZN10Qt3DExtras22QOrbitCameraController15upVectorChangedERK9QVector3D
libQt63DExtras.so.6:_ZN10Qt3DExtras22QOrbitCameraController16staticMetaObjectE
libQt63DExtras.so.6:_ZN10Qt3DExtras22QOrbitCameraController17inversePanChangedEb
libQt63DExtras.so.6:_ZN10Qt3DExtras22QOrbitCameraController18inverseTiltChangedEb
libQt63DExtras.so.6:_ZN10Qt3DExtras22QOrbitCameraController18zoomInLimitChangedEv
libQt63DExtras.so.6:_ZN10Qt3DExtras22QOrbitCameraController20setInverseXTranslateEb
libQt63DExtras.so.6:_ZN10Qt3DExtras22QOrbitCameraController20setInverseYTranslateEb
libQt63DExtras.so.6:_ZN10Qt3DExtras22QOrbitCameraController24inverseXTranslateChangedEb
libQt63DExtras.so.6:_ZN10Qt3DExtras22QOrbitCameraController24inverseYTranslateChangedEb
libQt63DExtras.so.6:_ZN10Qt3DExtras22QOrbitCameraController26setZoomTranslateViewCenterEb
libQt63DExtras.so.6:_ZN10Qt3DExtras22QOrbitCameraController30zoomTranslateViewCenterChangedEb
libQt63DExtras.so.6:_ZN10Qt3DExtras22QOrbitCameraControllerC1EPN8Qt3DCore5QNodeE
libQt63DExtras.so.6:_ZN10Qt3DExtras22QOrbitCameraControllerC1ERNS_29QOrbitCameraControllerPrivateEPN8Qt3DCore5QNodeE
libQt63DExtras.so.6:_ZN10Qt3DExtras22QOrbitCameraControllerC2EPN8Qt3DCore5QNodeE
libQt63DExtras.so.6:_ZN10Qt3DExtras22QOrbitCameraControllerC2ERNS_29QOrbitCameraControllerPrivateEPN8Qt3DCore5QNodeE
libQt63DExtras.so.6:_ZN10Qt3DExtras22QOrbitCameraControllerD0Ev
libQt63DExtras.so.6:_ZN10Qt3DExtras22QOrbitCameraControllerD1Ev
libQt63DExtras.so.6:_ZN10Qt3DExtras22QOrbitCameraControllerD2Ev
libQt63DExtras.so.6:_ZN10Qt3DExtras23QPerVertexColorMaterial11qt_metacallEN11QMetaObject4CallEiPPv
libQt63DExtras.so.6:_ZN10Qt3DExtras23QPerVertexColorMaterial11qt_metacastEPKc
libQt63DExtras.so.6:_ZN10Qt3DExtras23QPerVertexColorMaterial16staticMetaObjectE
libQt63DExtras.so.6:_ZN10Qt3DExtras23QPerVertexColorMaterialC1EPN8Qt3DCore5QNodeE
libQt63DExtras.so.6:_ZN10Qt3DExtras23QPerVertexColorMaterialC2EPN8Qt3DCore5QNodeE
libQt63DExtras.so.6:_ZN10Qt3DExtras23QPerVertexColorMaterialD0Ev
libQt63DExtras.so.6:_ZN10Qt3DExtras23QPerVertexColorMaterialD1Ev
libQt63DExtras.so.6:_ZN10Qt3DExtras23QPerVertexColorMaterialD2Ev
libQt63DExtras.so.6:_ZN10Qt3DExtras24QDiffuseSpecularMaterial10setAmbientERK6QColor
libQt63DExtras.so.6:_ZN10Qt3DExtras24QDiffuseSpecularMaterial10setDiffuseERK8QVariant
libQt63DExtras.so.6:_ZN10Qt3DExtras24QDiffuseSpecularMaterial11qt_metacallEN11QMetaObject4CallEiPPv
libQt63DExtras.so.6:_ZN10Qt3DExtras24QDiffuseSpecularMaterial11qt_metacastEPKc
libQt63DExtras.so.6:_ZN10Qt3DExtras24QDiffuseSpecularMaterial11setSpecularERK8QVariant
libQt63DExtras.so.6:_ZN10Qt3DExtras24QDiffuseSpecularMaterial12setShininessEf
libQt63DExtras.so.6:_ZN10Qt3DExtras24QDiffuseSpecularMaterial13normalChangedERK8QVariant
libQt63DExtras.so.6:_ZN10Qt3DExtras24QDiffuseSpecularMaterial14ambientChangedERK6QColor
libQt63DExtras.so.6:_ZN10Qt3DExtras24QDiffuseSpecularMaterial14diffuseChangedERK8QVariant
libQt63DExtras.so.6:_ZN10Qt3DExtras24QDiffuseSpecularMaterial15setTextureScaleEf
libQt63DExtras.so.6:_ZN10Qt3DExtras24QDiffuseSpecularMaterial15specularChangedERK8QVariant
libQt63DExtras.so.6:_ZN10Qt3DExtras24QDiffuseSpecularMaterial16shininessChangedEf
libQt63DExtras.so.6:_ZN10Qt3DExtras24QDiffuseSpecularMaterial16staticMetaObjectE
libQt63DExtras.so.6:_ZN10Qt3DExtras24QDiffuseSpecularMaterial19textureScaleChangedEf
libQt63DExtras.so.6:_ZN10Qt3DExtras24QDiffuseSpecularMaterial23setAlphaBlendingEnabledEb
libQt63DExtras.so.6:_ZN10Qt3DExtras24QDiffuseSpecularMaterial27alphaBlendingEnabledChangedEb
libQt63DExtras.so.6:_ZN10Qt3DExtras24QDiffuseSpecularMaterial9setNormalERK8QVariant
libQt63DExtras.so.6:_ZN10Qt3DExtras24QDiffuseSpecularMaterialC1EPN8Qt3DCore5QNodeE
libQt63DExtras.so.6:_ZN10Qt3DExtras24QDiffuseSpecularMaterialC2EPN8Qt3DCore5QNodeE
libQt63DExtras.so.6:_ZN10Qt3DExtras24QDiffuseSpecularMaterialD0Ev
libQt63DExtras.so.6:_ZN10Qt3DExtras24QDiffuseSpecularMaterialD1Ev
libQt63DExtras.so.6:_ZN10Qt3DExtras24QDiffuseSpecularMaterialD2Ev
libQt63DExtras.so.6:_ZN10Qt3DExtras25QAbstractCameraController11qt_metacallEN11QMetaObject4CallEiPPv
libQt63DExtras.so.6:_ZN10Qt3DExtras25QAbstractCameraController11qt_metacastEPKc
libQt63DExtras.so.6:_ZN10Qt3DExtras25QAbstractCameraController12setLookSpeedEf
libQt63DExtras.so.6:_ZN10Qt3DExtras25QAbstractCameraController13cameraChangedEv
libQt63DExtras.so.6:_ZN10Qt3DExtras25QAbstractCameraController14setLinearSpeedEf
libQt63DExtras.so.6:_ZN10Qt3DExtras25QAbstractCameraController15setAccelerationEf
libQt63DExtras.so.6:_ZN10Qt3DExtras25QAbstractCameraController15setDecelerationEf
libQt63DExtras.so.6:_ZN10Qt3DExtras25QAbstractCameraController16lookSpeedChangedEv
libQt63DExtras.so.6:_ZN10Qt3DExtras25QAbstractCameraController16staticMetaObjectE
libQt63DExtras.so.6:_ZN10Qt3DExtras25QAbstractCameraController18linearSpeedChangedEv
libQt63DExtras.so.6:_ZN10Qt3DExtras25QAbstractCameraController19accelerationChangedEf
libQt63DExtras.so.6:_ZN10Qt3DExtras25QAbstractCameraController19decelerationChangedEf
libQt63DExtras.so.6:_ZN10Qt3DExtras25QAbstractCameraController9setCameraEPN10Qt3DRender7QCameraE
libQt63DExtras.so.6:_ZN10Qt3DExtras25QAbstractCameraControllerC2EPN8Qt3DCore5QNodeE
libQt63DExtras.so.6:_ZN10Qt3DExtras25QAbstractCameraControllerC2ERNS_32QAbstractCameraControllerPrivateEPN8Qt3DCore5QNodeE
libQt63DExtras.so.6:_ZN10Qt3DExtras25QAbstractCameraControllerD0Ev
libQt63DExtras.so.6:_ZN10Qt3DExtras25QAbstractCameraControllerD1Ev
libQt63DExtras.so.6:_ZN10Qt3DExtras25QAbstractCameraControllerD2Ev
libQt63DExtras.so.6:_ZN10Qt3DExtras25QNormalDiffuseMapMaterial10setAmbientERK6QColor
libQt63DExtras.so.6:_ZN10Qt3DExtras25QNormalDiffuseMapMaterial10setDiffuseEPN10Qt3DRender16QAbstractTextureE
libQt63DExtras.so.6:_ZN10Qt3DExtras25QNormalDiffuseMapMaterial11qt_metacallEN11QMetaObject4CallEiPPv
libQt63DExtras.so.6:_ZN10Qt3DExtras25QNormalDiffuseMapMaterial11qt_metacastEPKc
libQt63DExtras.so.6:_ZN10Qt3DExtras25QNormalDiffuseMapMaterial11setSpecularERK6QColor
libQt63DExtras.so.6:_ZN10Qt3DExtras25QNormalDiffuseMapMaterial12setShininessEf
libQt63DExtras.so.6:_ZN10Qt3DExtras25QNormalDiffuseMapMaterial13normalChangedEPN10Qt3DRender16QAbstractTextureE
libQt63DExtras.so.6:_ZN10Qt3DExtras25QNormalDiffuseMapMaterial14ambientChangedERK6QColor
libQt63DExtras.so.6:_ZN10Qt3DExtras25QNormalDiffuseMapMaterial14diffuseChangedEPN10Qt3DRender16QAbstractTextureE
libQt63DExtras.so.6:_ZN10Qt3DExtras25QNormalDiffuseMapMaterial15setTextureScaleEf
libQt63DExtras.so.6:_ZN10Qt3DExtras25QNormalDiffuseMapMaterial15specularChangedERK6QColor
libQt63DExtras.so.6:_ZN10Qt3DExtras25QNormalDiffuseMapMaterial16shininessChangedEf
libQt63DExtras.so.6:_ZN10Qt3DExtras25QNormalDiffuseMapMaterial16staticMetaObjectE
libQt63DExtras.so.6:_ZN10Qt3DExtras25QNormalDiffuseMapMaterial19textureScaleChangedEf
libQt63DExtras.so.6:_ZN10Qt3DExtras25QNormalDiffuseMapMaterial9setNormalEPN10Qt3DRender16QAbstractTextureE
libQt63DExtras.so.6:_ZN10Qt3DExtras25QNormalDiffuseMapMaterialC1EPN8Qt3DCore5QNodeE
libQt63DExtras.so.6:_ZN10Qt3DExtras25QNormalDiffuseMapMaterialC1ERNS_32QNormalDiffuseMapMaterialPrivateEPN8Qt3DCore5QNodeE
libQt63DExtras.so.6:_ZN10Qt3DExtras25QNormalDiffuseMapMaterialC2EPN8Qt3DCore5QNodeE
libQt63DExtras.so.6:_ZN10Qt3DExtras25QNormalDiffuseMapMaterialC2ERNS_32QNormalDiffuseMapMaterialPrivateEPN8Qt3DCore5QNodeE
libQt63DExtras.so.6:_ZN10Qt3DExtras25QNormalDiffuseMapMaterialD0Ev
libQt63DExtras.so.6:_ZN10Qt3DExtras25QNormalDiffuseMapMaterialD1Ev
libQt63DExtras.so.6:_ZN10Qt3DExtras25QNormalDiffuseMapMaterialD2Ev
libQt63DExtras.so.6:_ZN10Qt3DExtras27QDiffuseSpecularMapMaterial10setAmbientERK6QColor
libQt63DExtras.so.6:_ZN10Qt3DExtras27QDiffuseSpecularMapMaterial10setDiffuseEPN10Qt3DRender16QAbstractTextureE
libQt63DExtras.so.6:_ZN10Qt3DExtras27QDiffuseSpecularMapMaterial11qt_metacallEN11QMetaObject4CallEiPPv
libQt63DExtras.so.6:_ZN10Qt3DExtras27QDiffuseSpecularMapMaterial11qt_metacastEPKc
libQt63DExtras.so.6:_ZN10Qt3DExtras27QDiffuseSpecularMapMaterial11setSpecularEPN10Qt3DRender16QAbstractTextureE
libQt63DExtras.so.6:_ZN10Qt3DExtras27QDiffuseSpecularMapMaterial12setShininessEf
libQt63DExtras.so.6:_ZN10Qt3DExtras27QDiffuseSpecularMapMaterial14ambientChangedERK6QColor
libQt63DExtras.so.6:_ZN10Qt3DExtras27QDiffuseSpecularMapMaterial14diffuseChangedEPN10Qt3DRender16QAbstractTextureE
libQt63DExtras.so.6:_ZN10Qt3DExtras27QDiffuseSpecularMapMaterial15setTextureScaleEf
libQt63DExtras.so.6:_ZN10Qt3DExtras27QDiffuseSpecularMapMaterial15specularChangedEPN10Qt3DRender16QAbstractTextureE
libQt63DExtras.so.6:_ZN10Qt3DExtras27QDiffuseSpecularMapMaterial16shininessChangedEf
libQt63DExtras.so.6:_ZN10Qt3DExtras27QDiffuseSpecularMapMaterial16staticMetaObjectE
libQt63DExtras.so.6:_ZN10Qt3DExtras27QDiffuseSpecularMapMaterial19textureScaleChangedEf
libQt63DExtras.so.6:_ZN10Qt3DExtras27QDiffuseSpecularMapMaterialC1EPN8Qt3DCore5QNodeE
libQt63DExtras.so.6:_ZN10Qt3DExtras27QDiffuseSpecularMapMaterialC2EPN8Qt3DCore5QNodeE
libQt63DExtras.so.6:_ZN10Qt3DExtras27QDiffuseSpecularMapMaterialD0Ev
libQt63DExtras.so.6:_ZN10Qt3DExtras27QDiffuseSpecularMapMaterialD1Ev
libQt63DExtras.so.6:_ZN10Qt3DExtras27QDiffuseSpecularMapMaterialD2Ev
libQt63DExtras.so.6:_ZN10Qt3DExtras28QFirstPersonCameraController10moveCameraERKNS_25QAbstractCameraController10InputStateEf
libQt63DExtras.so.6:_ZN10Qt3DExtras28QFirstPersonCameraController11qt_metacallEN11QMetaObject4CallEiPPv
libQt63DExtras.so.6:_ZN10Qt3DExtras28QFirstPersonCameraController11qt_metacastEPKc
libQt63DExtras.so.6:_ZN10Qt3DExtras28QFirstPersonCameraController16staticMetaObjectE
libQt63DExtras.so.6:_ZN10Qt3DExtras28QFirstPersonCameraControllerC1EPN8Qt3DCore5QNodeE
libQt63DExtras.so.6:_ZN10Qt3DExtras28QFirstPersonCameraControllerC2EPN8Qt3DCore5QNodeE
libQt63DExtras.so.6:_ZN10Qt3DExtras28QFirstPersonCameraControllerD0Ev
libQt63DExtras.so.6:_ZN10Qt3DExtras28QFirstPersonCameraControllerD1Ev
libQt63DExtras.so.6:_ZN10Qt3DExtras28QFirstPersonCameraControllerD2Ev
libQt63DExtras.so.6:_ZN10Qt3DExtras30QNormalDiffuseMapAlphaMaterial11qt_metacallEN11QMetaObject4CallEiPPv
libQt63DExtras.so.6:_ZN10Qt3DExtras30QNormalDiffuseMapAlphaMaterial11qt_metacastEPKc
libQt63DExtras.so.6:_ZN10Qt3DExtras30QNormalDiffuseMapAlphaMaterial16staticMetaObjectE
libQt63DExtras.so.6:_ZN10Qt3DExtras30QNormalDiffuseMapAlphaMaterialC1EPN8Qt3DCore5QNodeE
libQt63DExtras.so.6:_ZN10Qt3DExtras30QNormalDiffuseMapAlphaMaterialC2EPN8Qt3DCore5QNodeE
libQt63DExtras.so.6:_ZN10Qt3DExtras30QNormalDiffuseMapAlphaMaterialD0Ev
libQt63DExtras.so.6:_ZN10Qt3DExtras30QNormalDiffuseMapAlphaMaterialD1Ev
libQt63DExtras.so.6:_ZN10Qt3DExtras30QNormalDiffuseMapAlphaMaterialD2Ev
libQt63DExtras.so.6:_ZN10Qt3DExtras33QNormalDiffuseSpecularMapMaterial10setAmbientERK6QColor
libQt63DExtras.so.6:_ZN10Qt3DExtras33QNormalDiffuseSpecularMapMaterial10setDiffuseEPN10Qt3DRender16QAbstractTextureE
libQt63DExtras.so.6:_ZN10Qt3DExtras33QNormalDiffuseSpecularMapMaterial11qt_metacallEN11QMetaObject4CallEiPPv
libQt63DExtras.so.6:_ZN10Qt3DExtras33QNormalDiffuseSpecularMapMaterial11qt_metacastEPKc
libQt63DExtras.so.6:_ZN10Qt3DExtras33QNormalDiffuseSpecularMapMaterial11setSpecularEPN10Qt3DRender16QAbstractTextureE
libQt63DExtras.so.6:_ZN10Qt3DExtras33QNormalDiffuseSpecularMapMaterial12setShininessEf
libQt63DExtras.so.6:_ZN10Qt3DExtras33QNormalDiffuseSpecularMapMaterial13normalChangedEPN10Qt3DRender16QAbstractTextureE
libQt63DExtras.so.6:_ZN10Qt3DExtras33QNormalDiffuseSpecularMapMaterial14ambientChangedERK6QColor
libQt63DExtras.so.6:_ZN10Qt3DExtras33QNormalDiffuseSpecularMapMaterial14diffuseChangedEPN10Qt3DRender16QAbstractTextureE
libQt63DExtras.so.6:_ZN10Qt3DExtras33QNormalDiffuseSpecularMapMaterial15setTextureScaleEf
libQt63DExtras.so.6:_ZN10Qt3DExtras33QNormalDiffuseSpecularMapMaterial15specularChangedEPN10Qt3DRender16QAbstractTextureE
libQt63DExtras.so.6:_ZN10Qt3DExtras33QNormalDiffuseSpecularMapMaterial16shininessChangedEf
libQt63DExtras.so.6:_ZN10Qt3DExtras33QNormalDiffuseSpecularMapMaterial16staticMetaObjectE
libQt63DExtras.so.6:_ZN10Qt3DExtras33QNormalDiffuseSpecularMapMaterial19textureScaleChangedEf
libQt63DExtras.so.6:_ZN10Qt3DExtras33QNormalDiffuseSpecularMapMaterial9setNormalEPN10Qt3DRender16QAbstractTextureE
libQt63DExtras.so.6:_ZN10Qt3DExtras33QNormalDiffuseSpecularMapMaterialC1EPN8Qt3DCore5QNodeE
libQt63DExtras.so.6:_ZN10Qt3DExtras33QNormalDiffuseSpecularMapMaterialC1ERNS_40QNormalDiffuseSpecularMapMaterialPrivateEPN8Qt3DCore5QNodeE
libQt63DExtras.so.6:_ZN10Qt3DExtras33QNormalDiffuseSpecularMapMaterialC2EPN8Qt3DCore5QNodeE
libQt63DExtras.so.6:_ZN10Qt3DExtras33QNormalDiffuseSpecularMapMaterialC2ERNS_40QNormalDiffuseSpecularMapMaterialPrivateEPN8Qt3DCore5QNodeE
libQt63DExtras.so.6:_ZN10Qt3DExtras33QNormalDiffuseSpecularMapMaterialD0Ev
libQt63DExtras.so.6:_ZN10Qt3DExtras33QNormalDiffuseSpecularMapMaterialD1Ev
libQt63DExtras.so.6:_ZN10Qt3DExtras33QNormalDiffuseSpecularMapMaterialD2Ev
libQt63DExtras.so.6:_ZN10Qt3DExtras9QConeMesh11qt_metacallEN11QMetaObject4CallEiPPv
libQt63DExtras.so.6:_ZN10Qt3DExtras9QConeMesh11qt_metacastEPKc
libQt63DExtras.so.6:_ZN10Qt3DExtras9QConeMesh12ringsChangedEi
libQt63DExtras.so.6:_ZN10Qt3DExtras9QConeMesh12setTopRadiusEf
libQt63DExtras.so.6:_ZN10Qt3DExtras9QConeMesh13lengthChangedEf
libQt63DExtras.so.6:_ZN10Qt3DExtras9QConeMesh13slicesChangedEi
libQt63DExtras.so.6:_ZN10Qt3DExtras9QConeMesh15setBottomRadiusEf
libQt63DExtras.so.6:_ZN10Qt3DExtras9QConeMesh15setHasTopEndcapEb
libQt63DExtras.so.6:_ZN10Qt3DExtras9QConeMesh16staticMetaObjectE
libQt63DExtras.so.6:_ZN10Qt3DExtras9QConeMesh16topRadiusChangedEf
libQt63DExtras.so.6:_ZN10Qt3DExtras9QConeMesh18setHasBottomEndcapEb
libQt63DExtras.so.6:_ZN10Qt3DExtras9QConeMesh19bottomRadiusChangedEf
libQt63DExtras.so.6:_ZN10Qt3DExtras9QConeMesh19hasTopEndcapChangedEb
libQt63DExtras.so.6:_ZN10Qt3DExtras9QConeMesh22hasBottomEndcapChangedEb
libQt63DExtras.so.6:_ZN10Qt3DExtras9QConeMesh8setRingsEi
libQt63DExtras.so.6:_ZN10Qt3DExtras9QConeMesh9setLengthEf
libQt63DExtras.so.6:_ZN10Qt3DExtras9QConeMesh9setSlicesEi
libQt63DExtras.so.6:_ZN10Qt3DExtras9QConeMeshC1EPN8Qt3DCore5QNodeE
libQt63DExtras.so.6:_ZN10Qt3DExtras9QConeMeshC2EPN8Qt3DCore5QNodeE
libQt63DExtras.so.6:_ZN10Qt3DExtras9QConeMeshD0Ev
libQt63DExtras.so.6:_ZN10Qt3DExtras9QConeMeshD1Ev
libQt63DExtras.so.6:_ZN10Qt3DExtras9QConeMeshD2Ev
libQt63DExtras.so.6:_ZNK10Qt3DExtras10QPlaneMesh10metaObjectEv
libQt63DExtras.so.6:_ZNK10Qt3DExtras10QPlaneMesh14meshResolutionEv
libQt63DExtras.so.6:_ZNK10Qt3DExtras10QPlaneMesh5widthEv
libQt63DExtras.so.6:_ZNK10Qt3DExtras10QPlaneMesh6heightEv
libQt63DExtras.so.6:_ZNK10Qt3DExtras10QPlaneMesh8mirroredEv
libQt63DExtras.so.6:_ZNK10Qt3DExtras10QTorusMesh10metaObjectEv
libQt63DExtras.so.6:_ZNK10Qt3DExtras10QTorusMesh11minorRadiusEv
libQt63DExtras.so.6:_ZNK10Qt3DExtras10QTorusMesh5ringsEv
libQt63DExtras.so.6:_ZNK10Qt3DExtras10QTorusMesh6radiusEv
libQt63DExtras.so.6:_ZNK10Qt3DExtras10QTorusMesh6slicesEv
libQt63DExtras.so.6:_ZNK10Qt3DExtras10Qt3DWindow10metaObjectEv
libQt63DExtras.so.6:_ZNK10Qt3DExtras10Qt3DWindow14renderSettingsEv
libQt63DExtras.so.6:_ZNK10Qt3DExtras10Qt3DWindow16activeFrameGraphEv
libQt63DExtras.so.6:_ZNK10Qt3DExtras10Qt3DWindow17defaultFrameGraphEv
libQt63DExtras.so.6:_ZNK10Qt3DExtras10Qt3DWindow6cameraEv
libQt63DExtras.so.6:_ZNK10Qt3DExtras11QCuboidMesh10metaObjectEv
libQt63DExtras.so.6:_ZNK10Qt3DExtras11QCuboidMesh16xyMeshResolutionEv
libQt63DExtras.so.6:_ZNK10Qt3DExtras11QCuboidMesh16xzMeshResolutionEv
libQt63DExtras.so.6:_ZNK10Qt3DExtras11QCuboidMesh16yzMeshResolutionEv
libQt63DExtras.so.6:_ZNK10Qt3DExtras11QCuboidMesh7xExtentEv
libQt63DExtras.so.6:_ZNK10Qt3DExtras11QCuboidMesh7yExtentEv
libQt63DExtras.so.6:_ZNK10Qt3DExtras11QCuboidMesh7zExtentEv
libQt63DExtras.so.6:_ZNK10Qt3DExtras11QSphereMesh10metaObjectEv
libQt63DExtras.so.6:_ZNK10Qt3DExtras11QSphereMesh16generateTangentsEv
libQt63DExtras.so.6:_ZNK10Qt3DExtras11QSphereMesh5ringsEv
libQt63DExtras.so.6:_ZNK10Qt3DExtras11QSphereMesh6radiusEv
libQt63DExtras.so.6:_ZNK10Qt3DExtras11QSphereMesh6slicesEv
libQt63DExtras.so.6:_ZNK10Qt3DExtras11QSpriteGrid10metaObjectEv
libQt63DExtras.so.6:_ZNK10Qt3DExtras11QSpriteGrid4rowsEv
libQt63DExtras.so.6:_ZNK10Qt3DExtras11QSpriteGrid7columnsEv
libQt63DExtras.so.6:_ZNK10Qt3DExtras12QSpriteSheet10metaObjectEv
libQt63DExtras.so.6:_ZNK10Qt3DExtras12QSpriteSheet7spritesEv
libQt63DExtras.so.6:_ZNK10Qt3DExtras13QConeGeometry10metaObjectEv
libQt63DExtras.so.6:_ZNK10Qt3DExtras13QConeGeometry12bottomRadiusEv
libQt63DExtras.so.6:_ZNK10Qt3DExtras13QConeGeometry12hasTopEndcapEv
libQt63DExtras.so.6:_ZNK10Qt3DExtras13QConeGeometry14indexAttributeEv
libQt63DExtras.so.6:_ZNK10Qt3DExtras13QConeGeometry15hasBottomEndcapEv
libQt63DExtras.so.6:_ZNK10Qt3DExtras13QConeGeometry15normalAttributeEv
libQt63DExtras.so.6:_ZNK10Qt3DExtras13QConeGeometry17positionAttributeEv
libQt63DExtras.so.6:_ZNK10Qt3DExtras13QConeGeometry17texCoordAttributeEv
libQt63DExtras.so.6:_ZNK10Qt3DExtras13QConeGeometry5ringsEv
libQt63DExtras.so.6:_ZNK10Qt3DExtras13QConeGeometry6lengthEv
libQt63DExtras.so.6:_ZNK10Qt3DExtras13QConeGeometry6slicesEv
libQt63DExtras.so.6:_ZNK10Qt3DExtras13QConeGeometry9topRadiusEv
libQt63DExtras.so.6:_ZNK10Qt3DExtras13QCylinderMesh10metaObjectEv
libQt63DExtras.so.6:_ZNK10Qt3DExtras13QCylinderMesh5ringsEv
libQt63DExtras.so.6:_ZNK10Qt3DExtras13QCylinderMesh6lengthEv
libQt63DExtras.so.6:_ZNK10Qt3DExtras13QCylinderMesh6radiusEv
libQt63DExtras.so.6:_ZNK10Qt3DExtras13QCylinderMesh6slicesEv
libQt63DExtras.so.6:_ZNK10Qt3DExtras13QSkyboxEntity10metaObjectEv
libQt63DExtras.so.6:_ZNK10Qt3DExtras13QSkyboxEntity21isGammaCorrectEnabledEv
libQt63DExtras.so.6:_ZNK10Qt3DExtras13QSkyboxEntity8baseNameEv
libQt63DExtras.so.6:_ZNK10Qt3DExtras13QSkyboxEntity9extensionEv
libQt63DExtras.so.6:_ZNK10Qt3DExtras13QText2DEntity10metaObjectEv
libQt63DExtras.so.6:_ZNK10Qt3DExtras13QText2DEntity4fontEv
libQt63DExtras.so.6:_ZNK10Qt3DExtras13QText2DEntity4textEv
libQt63DExtras.so.6:_ZNK10Qt3DExtras13QText2DEntity5colorEv
libQt63DExtras.so.6:_ZNK10Qt3DExtras13QText2DEntity5widthEv
libQt63DExtras.so.6:_ZNK10Qt3DExtras13QText2DEntity6heightEv
libQt63DExtras.so.6:_ZNK10Qt3DExtras13QText2DEntity9alignmentEv
libQt63DExtras.so.6:_ZNK10Qt3DExtras14QGoochMaterial10metaObjectEv
libQt63DExtras.so.6:_ZNK10Qt3DExtras14QGoochMaterial4betaEv
libQt63DExtras.so.6:_ZNK10Qt3DExtras14QGoochMaterial4coolEv
libQt63DExtras.so.6:_ZNK10Qt3DExtras14QGoochMaterial4warmEv
libQt63DExtras.so.6:_ZNK10Qt3DExtras14QGoochMaterial5alphaEv
libQt63DExtras.so.6:_ZNK10Qt3DExtras14QGoochMaterial7diffuseEv
libQt63DExtras.so.6:_ZNK10Qt3DExtras14QGoochMaterial8specularEv
libQt63DExtras.so.6:_ZNK10Qt3DExtras14QGoochMaterial9shininessEv
libQt63DExtras.so.6:_ZNK10Qt3DExtras14QPhongMaterial10metaObjectEv
libQt63DExtras.so.6:_ZNK10Qt3DExtras14QPhongMaterial7ambientEv
libQt63DExtras.so.6:_ZNK10Qt3DExtras14QPhongMaterial7diffuseEv
libQt63DExtras.so.6:_ZNK10Qt3DExtras14QPhongMaterial8specularEv
libQt63DExtras.so.6:_ZNK10Qt3DExtras14QPhongMaterial9shininessEv
libQt63DExtras.so.6:_ZNK10Qt3DExtras14QPlaneGeometry10metaObjectEv
libQt63DExtras.so.6:_ZNK10Qt3DExtras14QPlaneGeometry10resolutionEv
libQt63DExtras.so.6:_ZNK10Qt3DExtras14QPlaneGeometry14indexAttributeEv
libQt63DExtras.so.6:_ZNK10Qt3DExtras14QPlaneGeometry15normalAttributeEv
libQt63DExtras.so.6:_ZNK10Qt3DExtras14QPlaneGeometry16tangentAttributeEv
libQt63DExtras.so.6:_ZNK10Qt3DExtras14QPlaneGeometry17positionAttributeEv
libQt63DExtras.so.6:_ZNK10Qt3DExtras14QPlaneGeometry17texCoordAttributeEv
libQt63DExtras.so.6:_ZNK10Qt3DExtras14QPlaneGeometry5widthEv
libQt63DExtras.so.6:_ZNK10Qt3DExtras14QPlaneGeometry6heightEv
libQt63DExtras.so.6:_ZNK10Qt3DExtras14QPlaneGeometry8mirroredEv
libQt63DExtras.so.6:_ZNK10Qt3DExtras14QTorusGeometry10metaObjectEv
libQt63DExtras.so.6:_ZNK10Qt3DExtras14QTorusGeometry11minorRadiusEv
libQt63DExtras.so.6:_ZNK10Qt3DExtras14QTorusGeometry14indexAttributeEv
libQt63DExtras.so.6:_ZNK10Qt3DExtras14QTorusGeometry15normalAttributeEv
libQt63DExtras.so.6:_ZNK10Qt3DExtras14QTorusGeometry17positionAttributeEv
libQt63DExtras.so.6:_ZNK10Qt3DExtras14QTorusGeometry17texCoordAttributeEv
libQt63DExtras.so.6:_ZNK10Qt3DExtras14QTorusGeometry5ringsEv
libQt63DExtras.so.6:_ZNK10Qt3DExtras14QTorusGeometry6radiusEv
libQt63DExtras.so.6:_ZNK10Qt3DExtras14QTorusGeometry6slicesEv
libQt63DExtras.so.6:_ZNK10Qt3DExtras15QCuboidGeometry10metaObjectEv
libQt63DExtras.so.6:_ZNK10Qt3DExtras15QCuboidGeometry14indexAttributeEv
libQt63DExtras.so.6:_ZNK10Qt3DExtras15QCuboidGeometry15normalAttributeEv
libQt63DExtras.so.6:_ZNK10Qt3DExtras15QCuboidGeometry16tangentAttributeEv
libQt63DExtras.so.6:_ZNK10Qt3DExtras15QCuboidGeometry16xyMeshResolutionEv
libQt63DExtras.so.6:_ZNK10Qt3DExtras15QCuboidGeometry16xzMeshResolutionEv
libQt63DExtras.so.6:_ZNK10Qt3DExtras15QCuboidGeometry16yzMeshResolutionEv
libQt63DExtras.so.6:_ZNK10Qt3DExtras15QCuboidGeometry17positionAttributeEv
libQt63DExtras.so.6:_ZNK10Qt3DExtras15QCuboidGeometry17texCoordAttributeEv
libQt63DExtras.so.6:_ZNK10Qt3DExtras15QCuboidGeometry7xExtentEv
libQt63DExtras.so.6:_ZNK10Qt3DExtras15QCuboidGeometry7yExtentEv
libQt63DExtras.so.6:_ZNK10Qt3DExtras15QCuboidGeometry7zExtentEv
libQt63DExtras.so.6:_ZNK10Qt3DExtras15QSphereGeometry10metaObjectEv
libQt63DExtras.so.6:_ZNK10Qt3DExtras15QSphereGeometry14indexAttributeEv
libQt63DExtras.so.6:_ZNK10Qt3DExtras15QSphereGeometry15normalAttributeEv
libQt63DExtras.so.6:_ZNK10Qt3DExtras15QSphereGeometry16generateTangentsEv
libQt63DExtras.so.6:_ZNK10Qt3DExtras15QSphereGeometry16tangentAttributeEv
libQt63DExtras.so.6:_ZNK10Qt3DExtras15QSphereGeometry17positionAttributeEv
libQt63DExtras.so.6:_ZNK10Qt3DExtras15QSphereGeometry17texCoordAttributeEv
libQt63DExtras.so.6:_ZNK10Qt3DExtras15QSphereGeometry5ringsEv
libQt63DExtras.so.6:_ZNK10Qt3DExtras15QSphereGeometry6radiusEv
libQt63DExtras.so.6:_ZNK10Qt3DExtras15QSphereGeometry6slicesEv
libQt63DExtras.so.6:_ZNK10Qt3DExtras16QForwardRenderer10clearColorEv
libQt63DExtras.so.6:_ZNK10Qt3DExtras16QForwardRenderer10metaObjectEv
libQt63DExtras.so.6:_ZNK10Qt3DExtras16QForwardRenderer12viewportRectEv
libQt63DExtras.so.6:_ZNK10Qt3DExtras16QForwardRenderer14buffersToClearEv
libQt63DExtras.so.6:_ZNK10Qt3DExtras16QForwardRenderer16showDebugOverlayEv
libQt63DExtras.so.6:_ZNK10Qt3DExtras16QForwardRenderer23isFrustumCullingEnabledEv
libQt63DExtras.so.6:_ZNK10Qt3DExtras16QForwardRenderer24externalRenderTargetSizeEv
libQt63DExtras.so.6:_ZNK10Qt3DExtras16QForwardRenderer5gammaEv
libQt63DExtras.so.6:_ZNK10Qt3DExtras16QForwardRenderer6cameraEv
libQt63DExtras.so.6:_ZNK10Qt3DExtras16QForwardRenderer7surfaceEv
libQt63DExtras.so.6:_ZNK10Qt3DExtras16QSpriteSheetItem10metaObjectEv
libQt63DExtras.so.6:_ZNK10Qt3DExtras16QSpriteSheetItem1xEv
libQt63DExtras.so.6:_ZNK10Qt3DExtras16QSpriteSheetItem1yEv
libQt63DExtras.so.6:_ZNK10Qt3DExtras16QSpriteSheetItem5widthEv
libQt63DExtras.so.6:_ZNK10Qt3DExtras16QSpriteSheetItem6heightEv
libQt63DExtras.so.6:_ZNK10Qt3DExtras16QTextureMaterial10metaObjectEv
libQt63DExtras.so.6:_ZNK10Qt3DExtras16QTextureMaterial13textureOffsetEv
libQt63DExtras.so.6:_ZNK10Qt3DExtras16QTextureMaterial16textureTransformEv
libQt63DExtras.so.6:_ZNK10Qt3DExtras16QTextureMaterial22isAlphaBlendingEnabledEv
libQt63DExtras.so.6:_ZNK10Qt3DExtras16QTextureMaterial7textureEv
libQt63DExtras.so.6:_ZNK10Qt3DExtras17QConeGeometryView10metaObjectEv
libQt63DExtras.so.6:_ZNK10Qt3DExtras17QConeGeometryView12bottomRadiusEv
libQt63DExtras.so.6:_ZNK10Qt3DExtras17QConeGeometryView12hasTopEndcapEv
libQt63DExtras.so.6:_ZNK10Qt3DExtras17QConeGeometryView15hasBottomEndcapEv
libQt63DExtras.so.6:_ZNK10Qt3DExtras17QConeGeometryView5ringsEv
libQt63DExtras.so.6:_ZNK10Qt3DExtras17QConeGeometryView6lengthEv
libQt63DExtras.so.6:_ZNK10Qt3DExtras17QConeGeometryView6slicesEv
libQt63DExtras.so.6:_ZNK10Qt3DExtras17QConeGeometryView9topRadiusEv
libQt63DExtras.so.6:_ZNK10Qt3DExtras17QCylinderGeometry10metaObjectEv
libQt63DExtras.so.6:_ZNK10Qt3DExtras17QCylinderGeometry14indexAttributeEv
libQt63DExtras.so.6:_ZNK10Qt3DExtras17QCylinderGeometry15normalAttributeEv
libQt63DExtras.so.6:_ZNK10Qt3DExtras17QCylinderGeometry17positionAttributeEv
libQt63DExtras.so.6:_ZNK10Qt3DExtras17QCylinderGeometry17texCoordAttributeEv
libQt63DExtras.so.6:_ZNK10Qt3DExtras17QCylinderGeometry5ringsEv
libQt63DExtras.so.6:_ZNK10Qt3DExtras17QCylinderGeometry6lengthEv
libQt63DExtras.so.6:_ZNK10Qt3DExtras17QCylinderGeometry6radiusEv
libQt63DExtras.so.6:_ZNK10Qt3DExtras17QCylinderGeometry6slicesEv
libQt63DExtras.so.6:_ZNK10Qt3DExtras17QExtrudedTextMesh10metaObjectEv
libQt63DExtras.so.6:_ZNK10Qt3DExtras17QExtrudedTextMesh4fontEv
libQt63DExtras.so.6:_ZNK10Qt3DExtras17QExtrudedTextMesh4textEv
libQt63DExtras.so.6:_ZNK10Qt3DExtras17QExtrudedTextMesh5depthEv
libQt63DExtras.so.6:_ZNK10Qt3DExtras18QPlaneGeometryView10metaObjectEv
libQt63DExtras.so.6:_ZNK10Qt3DExtras18QPlaneGeometryView14meshResolutionEv
libQt63DExtras.so.6:_ZNK10Qt3DExtras18QPlaneGeometryView5widthEv
libQt63DExtras.so.6:_ZNK10Qt3DExtras18QPlaneGeometryView6heightEv
libQt63DExtras.so.6:_ZNK10Qt3DExtras18QPlaneGeometryView8mirroredEv
libQt63DExtras.so.6:_ZNK10Qt3DExtras18QTorusGeometryView10metaObjectEv
libQt63DExtras.so.6:_ZNK10Qt3DExtras18QTorusGeometryView11minorRadiusEv
libQt63DExtras.so.6:_ZNK10Qt3DExtras18QTorusGeometryView5ringsEv
libQt63DExtras.so.6:_ZNK10Qt3DExtras18QTorusGeometryView6radiusEv
libQt63DExtras.so.6:_ZNK10Qt3DExtras18QTorusGeometryView6slicesEv
libQt63DExtras.so.6:_ZNK10Qt3DExtras19QCuboidGeometryView10metaObjectEv
libQt63DExtras.so.6:_ZNK10Qt3DExtras19QCuboidGeometryView16xyMeshResolutionEv
libQt63DExtras.so.6:_ZNK10Qt3DExtras19QCuboidGeometryView16xzMeshResolutionEv
libQt63DExtras.so.6:_ZNK10Qt3DExtras19QCuboidGeometryView16yzMeshResolutionEv
libQt63DExtras.so.6:_ZNK10Qt3DExtras19QCuboidGeometryView7xExtentEv
libQt63DExtras.so.6:_ZNK10Qt3DExtras19QCuboidGeometryView7yExtentEv
libQt63DExtras.so.6:_ZNK10Qt3DExtras19QCuboidGeometryView7zExtentEv
libQt63DExtras.so.6:_ZNK10Qt3DExtras19QDiffuseMapMaterial10metaObjectEv
libQt63DExtras.so.6:_ZNK10Qt3DExtras19QDiffuseMapMaterial12textureScaleEv
libQt63DExtras.so.6:_ZNK10Qt3DExtras19QDiffuseMapMaterial7ambientEv
libQt63DExtras.so.6:_ZNK10Qt3DExtras19QDiffuseMapMaterial7diffuseEv
libQt63DExtras.so.6:_ZNK10Qt3DExtras19QDiffuseMapMaterial8specularEv
libQt63DExtras.so.6:_ZNK10Qt3DExtras19QDiffuseMapMaterial9shininessEv
libQt63DExtras.so.6:_ZNK10Qt3DExtras19QMetalRoughMaterial10metaObjectEv
libQt63DExtras.so.6:_ZNK10Qt3DExtras19QMetalRoughMaterial12textureScaleEv
libQt63DExtras.so.6:_ZNK10Qt3DExtras19QMetalRoughMaterial16ambientOcclusionEv
libQt63DExtras.so.6:_ZNK10Qt3DExtras19QMetalRoughMaterial6normalEv
libQt63DExtras.so.6:_ZNK10Qt3DExtras19QMetalRoughMaterial9baseColorEv
libQt63DExtras.so.6:_ZNK10Qt3DExtras19QMetalRoughMaterial9metalnessEv
libQt63DExtras.so.6:_ZNK10Qt3DExtras19QMetalRoughMaterial9roughnessEv
libQt63DExtras.so.6:_ZNK10Qt3DExtras19QMorphPhongMaterial10metaObjectEv
libQt63DExtras.so.6:_ZNK10Qt3DExtras19QMorphPhongMaterial12interpolatorEv
libQt63DExtras.so.6:_ZNK10Qt3DExtras19QMorphPhongMaterial7ambientEv
libQt63DExtras.so.6:_ZNK10Qt3DExtras19QMorphPhongMaterial7diffuseEv
libQt63DExtras.so.6:_ZNK10Qt3DExtras19QMorphPhongMaterial8specularEv
libQt63DExtras.so.6:_ZNK10Qt3DExtras19QMorphPhongMaterial9shininessEv
libQt63DExtras.so.6:_ZNK10Qt3DExtras19QPhongAlphaMaterial10metaObjectEv
libQt63DExtras.so.6:_ZNK10Qt3DExtras19QPhongAlphaMaterial12sourceRgbArgEv
libQt63DExtras.so.6:_ZNK10Qt3DExtras19QPhongAlphaMaterial14sourceAlphaArgEv
libQt63DExtras.so.6:_ZNK10Qt3DExtras19QPhongAlphaMaterial16blendFunctionArgEv
libQt63DExtras.so.6:_ZNK10Qt3DExtras19QPhongAlphaMaterial17destinationRgbArgEv
libQt63DExtras.so.6:_ZNK10Qt3DExtras19QPhongAlphaMaterial19destinationAlphaArgEv
libQt63DExtras.so.6:_ZNK10Qt3DExtras19QPhongAlphaMaterial5alphaEv
libQt63DExtras.so.6:_ZNK10Qt3DExtras19QPhongAlphaMaterial7ambientEv
libQt63DExtras.so.6:_ZNK10Qt3DExtras19QPhongAlphaMaterial7diffuseEv
libQt63DExtras.so.6:_ZNK10Qt3DExtras19QPhongAlphaMaterial8specularEv
libQt63DExtras.so.6:_ZNK10Qt3DExtras19QPhongAlphaMaterial9shininessEv
libQt63DExtras.so.6:_ZNK10Qt3DExtras19QSphereGeometryView10metaObjectEv
libQt63DExtras.so.6:_ZNK10Qt3DExtras19QSphereGeometryView16generateTangentsEv
libQt63DExtras.so.6:_ZNK10Qt3DExtras19QSphereGeometryView5ringsEv
libQt63DExtras.so.6:_ZNK10Qt3DExtras19QSphereGeometryView6radiusEv
libQt63DExtras.so.6:_ZNK10Qt3DExtras19QSphereGeometryView6slicesEv
libQt63DExtras.so.6:_ZNK10Qt3DExtras20QAbstractSpriteSheet10metaObjectEv
libQt63DExtras.so.6:_ZNK10Qt3DExtras20QAbstractSpriteSheet12currentIndexEv
libQt63DExtras.so.6:_ZNK10Qt3DExtras20QAbstractSpriteSheet16textureTransformEv
libQt63DExtras.so.6:_ZNK10Qt3DExtras20QAbstractSpriteSheet7textureEv
libQt63DExtras.so.6:_ZNK10Qt3DExtras21QCylinderGeometryView10metaObjectEv
libQt63DExtras.so.6:_ZNK10Qt3DExtras21QCylinderGeometryView5ringsEv
libQt63DExtras.so.6:_ZNK10Qt3DExtras21QCylinderGeometryView6lengthEv
libQt63DExtras.so.6:_ZNK10Qt3DExtras21QCylinderGeometryView6radiusEv
libQt63DExtras.so.6:_ZNK10Qt3DExtras21QCylinderGeometryView6slicesEv
libQt63DExtras.so.6:_ZNK10Qt3DExtras21QExtrudedTextGeometry10metaObjectEv
libQt63DExtras.so.6:_ZNK10Qt3DExtras21QExtrudedTextGeometry14indexAttributeEv
libQt63DExtras.so.6:_ZNK10Qt3DExtras21QExtrudedTextGeometry15extrusionLengthEv
libQt63DExtras.so.6:_ZNK10Qt3DExtras21QExtrudedTextGeometry15normalAttributeEv
libQt63DExtras.so.6:_ZNK10Qt3DExtras21QExtrudedTextGeometry17positionAttributeEv
libQt63DExtras.so.6:_ZNK10Qt3DExtras21QExtrudedTextGeometry4fontEv
libQt63DExtras.so.6:_ZNK10Qt3DExtras21QExtrudedTextGeometry4textEv
libQt63DExtras.so.6:_ZNK10Qt3DExtras22QOrbitCameraController10inversePanEv
libQt63DExtras.so.6:_ZNK10Qt3DExtras22QOrbitCameraController10metaObjectEv
libQt63DExtras.so.6:_ZNK10Qt3DExtras22QOrbitCameraController11inverseTiltEv
libQt63DExtras.so.6:_ZNK10Qt3DExtras22QOrbitCameraController11zoomInLimitEv
libQt63DExtras.so.6:_ZNK10Qt3DExtras22QOrbitCameraController17inverseXTranslateEv
libQt63DExtras.so.6:_ZNK10Qt3DExtras22QOrbitCameraController17inverseYTranslateEv
libQt63DExtras.so.6:_ZNK10Qt3DExtras22QOrbitCameraController23zoomTranslateViewCenterEv
libQt63DExtras.so.6:_ZNK10Qt3DExtras22QOrbitCameraController8upVectorEv
libQt63DExtras.so.6:_ZNK10Qt3DExtras23QPerVertexColorMaterial10metaObjectEv
libQt63DExtras.so.6:_ZNK10Qt3DExtras24QDiffuseSpecularMaterial10metaObjectEv
libQt63DExtras.so.6:_ZNK10Qt3DExtras24QDiffuseSpecularMaterial12textureScaleEv
libQt63DExtras.so.6:_ZNK10Qt3DExtras24QDiffuseSpecularMaterial22isAlphaBlendingEnabledEv
libQt63DExtras.so.6:_ZNK10Qt3DExtras24QDiffuseSpecularMaterial6normalEv
libQt63DExtras.so.6:_ZNK10Qt3DExtras24QDiffuseSpecularMaterial7ambientEv
libQt63DExtras.so.6:_ZNK10Qt3DExtras24QDiffuseSpecularMaterial7diffuseEv
libQt63DExtras.so.6:_ZNK10Qt3DExtras24QDiffuseSpecularMaterial8specularEv
libQt63DExtras.so.6:_ZNK10Qt3DExtras24QDiffuseSpecularMaterial9shininessEv
libQt63DExtras.so.6:_ZNK10Qt3DExtras25QAbstractCameraController10metaObjectEv
libQt63DExtras.so.6:_ZNK10Qt3DExtras25QAbstractCameraController11linearSpeedEv
libQt63DExtras.so.6:_ZNK10Qt3DExtras25QAbstractCameraController11mouseDeviceEv
libQt63DExtras.so.6:_ZNK10Qt3DExtras25QAbstractCameraController12accelerationEv
libQt63DExtras.so.6:_ZNK10Qt3DExtras25QAbstractCameraController12decelerationEv
libQt63DExtras.so.6:_ZNK10Qt3DExtras25QAbstractCameraController14keyboardDeviceEv
libQt63DExtras.so.6:_ZNK10Qt3DExtras25QAbstractCameraController6cameraEv
libQt63DExtras.so.6:_ZNK10Qt3DExtras25QAbstractCameraController9lookSpeedEv
libQt63DExtras.so.6:_ZNK10Qt3DExtras25QNormalDiffuseMapMaterial10metaObjectEv
libQt63DExtras.so.6:_ZNK10Qt3DExtras25QNormalDiffuseMapMaterial12textureScaleEv
libQt63DExtras.so.6:_ZNK10Qt3DExtras25QNormalDiffuseMapMaterial6normalEv
libQt63DExtras.so.6:_ZNK10Qt3DExtras25QNormalDiffuseMapMaterial7ambientEv
libQt63DExtras.so.6:_ZNK10Qt3DExtras25QNormalDiffuseMapMaterial7diffuseEv
libQt63DExtras.so.6:_ZNK10Qt3DExtras25QNormalDiffuseMapMaterial8specularEv
libQt63DExtras.so.6:_ZNK10Qt3DExtras25QNormalDiffuseMapMaterial9shininessEv
libQt63DExtras.so.6:_ZNK10Qt3DExtras27QDiffuseSpecularMapMaterial10metaObjectEv
libQt63DExtras.so.6:_ZNK10Qt3DExtras27QDiffuseSpecularMapMaterial12textureScaleEv
libQt63DExtras.so.6:_ZNK10Qt3DExtras27QDiffuseSpecularMapMaterial7ambientEv
libQt63DExtras.so.6:_ZNK10Qt3DExtras27QDiffuseSpecularMapMaterial7diffuseEv
libQt63DExtras.so.6:_ZNK10Qt3DExtras27QDiffuseSpecularMapMaterial8specularEv
libQt63DExtras.so.6:_ZNK10Qt3DExtras27QDiffuseSpecularMapMaterial9shininessEv
libQt63DExtras.so.6:_ZNK10Qt3DExtras28QFirstPersonCameraController10metaObjectEv
libQt63DExtras.so.6:_ZNK10Qt3DExtras30QNormalDiffuseMapAlphaMaterial10metaObjectEv
libQt63DExtras.so.6:_ZNK10Qt3DExtras33QNormalDiffuseSpecularMapMaterial10metaObjectEv
libQt63DExtras.so.6:_ZNK10Qt3DExtras33QNormalDiffuseSpecularMapMaterial12textureScaleEv
libQt63DExtras.so.6:_ZNK10Qt3DExtras33QNormalDiffuseSpecularMapMaterial6normalEv
libQt63DExtras.so.6:_ZNK10Qt3DExtras33QNormalDiffuseSpecularMapMaterial7ambientEv
libQt63DExtras.so.6:_ZNK10Qt3DExtras33QNormalDiffuseSpecularMapMaterial7diffuseEv
libQt63DExtras.so.6:_ZNK10Qt3DExtras33QNormalDiffuseSpecularMapMaterial8specularEv
libQt63DExtras.so.6:_ZNK10Qt3DExtras33QNormalDiffuseSpecularMapMaterial9shininessEv
libQt63DExtras.so.6:_ZNK10Qt3DExtras9QConeMesh10metaObjectEv
libQt63DExtras.so.6:_ZNK10Qt3DExtras9QConeMesh12bottomRadiusEv
libQt63DExtras.so.6:_ZNK10Qt3DExtras9QConeMesh12hasTopEndcapEv
libQt63DExtras.so.6:_ZNK10Qt3DExtras9QConeMesh15hasBottomEndcapEv
libQt63DExtras.so.6:_ZNK10Qt3DExtras9QConeMesh5ringsEv
libQt63DExtras.so.6:_ZNK10Qt3DExtras9QConeMesh6lengthEv
libQt63DExtras.so.6:_ZNK10Qt3DExtras9QConeMesh6slicesEv
libQt63DExtras.so.6:_ZNK10Qt3DExtras9QConeMesh9topRadiusEv
libQt63DExtras.so.6:_ZTIN10Qt3DExtras10QPlaneMeshE
libQt63DExtras.so.6:_ZTIN10Qt3DExtras10QTorusMeshE
libQt63DExtras.so.6:_ZTIN10Qt3DExtras10Qt3DWindowE
libQt63DExtras.so.6:_ZTIN10Qt3DExtras11QCuboidMeshE
libQt63DExtras.so.6:_ZTIN10Qt3DExtras11QSphereMeshE
libQt63DExtras.so.6:_ZTIN10Qt3DExtras11QSpriteGridE
libQt63DExtras.so.6:_ZTIN10Qt3DExtras12QSpriteSheetE
libQt63DExtras.so.6:_ZTIN10Qt3DExtras13QConeGeometryE
libQt63DExtras.so.6:_ZTIN10Qt3DExtras13QCylinderMeshE
libQt63DExtras.so.6:_ZTIN10Qt3DExtras13QSkyboxEntityE
libQt63DExtras.so.6:_ZTIN10Qt3DExtras13QText2DEntityE
libQt63DExtras.so.6:_ZTIN10Qt3DExtras14QGoochMaterialE
libQt63DExtras.so.6:_ZTIN10Qt3DExtras14QPhongMaterialE
libQt63DExtras.so.6:_ZTIN10Qt3DExtras14QPlaneGeometryE
libQt63DExtras.so.6:_ZTIN10Qt3DExtras14QTorusGeometryE
libQt63DExtras.so.6:_ZTIN10Qt3DExtras15QCuboidGeometryE
libQt63DExtras.so.6:_ZTIN10Qt3DExtras15QSphereGeometryE
libQt63DExtras.so.6:_ZTIN10Qt3DExtras16QForwardRendererE
libQt63DExtras.so.6:_ZTIN10Qt3DExtras16QSpriteSheetItemE
libQt63DExtras.so.6:_ZTIN10Qt3DExtras16QTextureMaterialE
libQt63DExtras.so.6:_ZTIN10Qt3DExtras17QConeGeometryViewE
libQt63DExtras.so.6:_ZTIN10Qt3DExtras17QCylinderGeometryE
libQt63DExtras.so.6:_ZTIN10Qt3DExtras17QExtrudedTextMeshE
libQt63DExtras.so.6:_ZTIN10Qt3DExtras18QPlaneGeometryViewE
libQt63DExtras.so.6:_ZTIN10Qt3DExtras18QTorusGeometryViewE
libQt63DExtras.so.6:_ZTIN10Qt3DExtras19QCuboidGeometryViewE
libQt63DExtras.so.6:_ZTIN10Qt3DExtras19QDiffuseMapMaterialE
libQt63DExtras.so.6:_ZTIN10Qt3DExtras19QMetalRoughMaterialE
libQt63DExtras.so.6:_ZTIN10Qt3DExtras19QMorphPhongMaterialE
libQt63DExtras.so.6:_ZTIN10Qt3DExtras19QPhongAlphaMaterialE
libQt63DExtras.so.6:_ZTIN10Qt3DExtras19QSphereGeometryViewE
libQt63DExtras.so.6:_ZTIN10Qt3DExtras20QAbstractSpriteSheetE
libQt63DExtras.so.6:_ZTIN10Qt3DExtras21QCylinderGeometryViewE
libQt63DExtras.so.6:_ZTIN10Qt3DExtras21QExtrudedTextGeometryE
libQt63DExtras.so.6:_ZTIN10Qt3DExtras22QOrbitCameraControllerE
libQt63DExtras.so.6:_ZTIN10Qt3DExtras23QPerVertexColorMaterialE
libQt63DExtras.so.6:_ZTIN10Qt3DExtras24QDiffuseSpecularMaterialE
libQt63DExtras.so.6:_ZTIN10Qt3DExtras25QAbstractCameraControllerE
libQt63DExtras.so.6:_ZTIN10Qt3DExtras25QNormalDiffuseMapMaterialE
libQt63DExtras.so.6:_ZTIN10Qt3DExtras27QDiffuseSpecularMapMaterialE
libQt63DExtras.so.6:_ZTIN10Qt3DExtras28QFirstPersonCameraControllerE
libQt63DExtras.so.6:_ZTIN10Qt3DExtras30QNormalDiffuseMapAlphaMaterialE
libQt63DExtras.so.6:_ZTIN10Qt3DExtras33QNormalDiffuseSpecularMapMaterialE
libQt63DExtras.so.6:_ZTIN10Qt3DExtras9QConeMeshE
libQt63DExtras.so.6:_ZTSN10Qt3DExtras10QPlaneMeshE
libQt63DExtras.so.6:_ZTSN10Qt3DExtras10QTorusMeshE
libQt63DExtras.so.6:_ZTSN10Qt3DExtras10Qt3DWindowE
libQt63DExtras.so.6:_ZTSN10Qt3DExtras11QCuboidMeshE
libQt63DExtras.so.6:_ZTSN10Qt3DExtras11QSphereMeshE
libQt63DExtras.so.6:_ZTSN10Qt3DExtras11QSpriteGridE
libQt63DExtras.so.6:_ZTSN10Qt3DExtras12QSpriteSheetE
libQt63DExtras.so.6:_ZTSN10Qt3DExtras13QConeGeometryE
libQt63DExtras.so.6:_ZTSN10Qt3DExtras13QCylinderMeshE
libQt63DExtras.so.6:_ZTSN10Qt3DExtras13QSkyboxEntityE
libQt63DExtras.so.6:_ZTSN10Qt3DExtras13QText2DEntityE
libQt63DExtras.so.6:_ZTSN10Qt3DExtras14QGoochMaterialE
libQt63DExtras.so.6:_ZTSN10Qt3DExtras14QPhongMaterialE
libQt63DExtras.so.6:_ZTSN10Qt3DExtras14QPlaneGeometryE
libQt63DExtras.so.6:_ZTSN10Qt3DExtras14QTorusGeometryE
libQt63DExtras.so.6:_ZTSN10Qt3DExtras15QCuboidGeometryE
libQt63DExtras.so.6:_ZTSN10Qt3DExtras15QSphereGeometryE
libQt63DExtras.so.6:_ZTSN10Qt3DExtras16QForwardRendererE
libQt63DExtras.so.6:_ZTSN10Qt3DExtras16QSpriteSheetItemE
libQt63DExtras.so.6:_ZTSN10Qt3DExtras16QTextureMaterialE
libQt63DExtras.so.6:_ZTSN10Qt3DExtras17QConeGeometryViewE
libQt63DExtras.so.6:_ZTSN10Qt3DExtras17QCylinderGeometryE
libQt63DExtras.so.6:_ZTSN10Qt3DExtras17QExtrudedTextMeshE
libQt63DExtras.so.6:_ZTSN10Qt3DExtras18QPlaneGeometryViewE
libQt63DExtras.so.6:_ZTSN10Qt3DExtras18QTorusGeometryViewE
libQt63DExtras.so.6:_ZTSN10Qt3DExtras19QCuboidGeometryViewE
libQt63DExtras.so.6:_ZTSN10Qt3DExtras19QDiffuseMapMaterialE
libQt63DExtras.so.6:_ZTSN10Qt3DExtras19QMetalRoughMaterialE
libQt63DExtras.so.6:_ZTSN10Qt3DExtras19QMorphPhongMaterialE
libQt63DExtras.so.6:_ZTSN10Qt3DExtras19QPhongAlphaMaterialE
libQt63DExtras.so.6:_ZTSN10Qt3DExtras19QSphereGeometryViewE
libQt63DExtras.so.6:_ZTSN10Qt3DExtras20QAbstractSpriteSheetE
libQt63DExtras.so.6:_ZTSN10Qt3DExtras21QCylinderGeometryViewE
libQt63DExtras.so.6:_ZTSN10Qt3DExtras21QExtrudedTextGeometryE
libQt63DExtras.so.6:_ZTSN10Qt3DExtras22QOrbitCameraControllerE
libQt63DExtras.so.6:_ZTSN10Qt3DExtras23QPerVertexColorMaterialE
libQt63DExtras.so.6:_ZTSN10Qt3DExtras24QDiffuseSpecularMaterialE
libQt63DExtras.so.6:_ZTSN10Qt3DExtras25QAbstractCameraControllerE
libQt63DExtras.so.6:_ZTSN10Qt3DExtras25QNormalDiffuseMapMaterialE
libQt63DExtras.so.6:_ZTSN10Qt3DExtras27QDiffuseSpecularMapMaterialE
libQt63DExtras.so.6:_ZTSN10Qt3DExtras28QFirstPersonCameraControllerE
libQt63DExtras.so.6:_ZTSN10Qt3DExtras30QNormalDiffuseMapAlphaMaterialE
libQt63DExtras.so.6:_ZTSN10Qt3DExtras33QNormalDiffuseSpecularMapMaterialE
libQt63DExtras.so.6:_ZTSN10Qt3DExtras9QConeMeshE
libQt63DExtras.so.6:_ZTVN10Qt3DExtras10QPlaneMeshE
libQt63DExtras.so.6:_ZTVN10Qt3DExtras10QTorusMeshE
libQt63DExtras.so.6:_ZTVN10Qt3DExtras10Qt3DWindowE
libQt63DExtras.so.6:_ZTVN10Qt3DExtras11QCuboidMeshE
libQt63DExtras.so.6:_ZTVN10Qt3DExtras11QSphereMeshE
libQt63DExtras.so.6:_ZTVN10Qt3DExtras11QSpriteGridE
libQt63DExtras.so.6:_ZTVN10Qt3DExtras12QSpriteSheetE
libQt63DExtras.so.6:_ZTVN10Qt3DExtras13QConeGeometryE
libQt63DExtras.so.6:_ZTVN10Qt3DExtras13QCylinderMeshE
libQt63DExtras.so.6:_ZTVN10Qt3DExtras13QSkyboxEntityE
libQt63DExtras.so.6:_ZTVN10Qt3DExtras13QText2DEntityE
libQt63DExtras.so.6:_ZTVN10Qt3DExtras14QGoochMaterialE
libQt63DExtras.so.6:_ZTVN10Qt3DExtras14QPhongMaterialE
libQt63DExtras.so.6:_ZTVN10Qt3DExtras14QPlaneGeometryE
libQt63DExtras.so.6:_ZTVN10Qt3DExtras14QTorusGeometryE
libQt63DExtras.so.6:_ZTVN10Qt3DExtras15QCuboidGeometryE
libQt63DExtras.so.6:_ZTVN10Qt3DExtras15QSphereGeometryE
libQt63DExtras.so.6:_ZTVN10Qt3DExtras16QForwardRendererE
libQt63DExtras.so.6:_ZTVN10Qt3DExtras16QSpriteSheetItemE
libQt63DExtras.so.6:_ZTVN10Qt3DExtras16QTextureMaterialE
libQt63DExtras.so.6:_ZTVN10Qt3DExtras17QConeGeometryViewE
libQt63DExtras.so.6:_ZTVN10Qt3DExtras17QCylinderGeometryE
libQt63DExtras.so.6:_ZTVN10Qt3DExtras17QExtrudedTextMeshE
libQt63DExtras.so.6:_ZTVN10Qt3DExtras18QPlaneGeometryViewE
libQt63DExtras.so.6:_ZTVN10Qt3DExtras18QTorusGeometryViewE
libQt63DExtras.so.6:_ZTVN10Qt3DExtras19QCuboidGeometryViewE
libQt63DExtras.so.6:_ZTVN10Qt3DExtras19QDiffuseMapMaterialE
libQt63DExtras.so.6:_ZTVN10Qt3DExtras19QMetalRoughMaterialE
libQt63DExtras.so.6:_ZTVN10Qt3DExtras19QMorphPhongMaterialE
libQt63DExtras.so.6:_ZTVN10Qt3DExtras19QPhongAlphaMaterialE
libQt63DExtras.so.6:_ZTVN10Qt3DExtras19QSphereGeometryViewE
libQt63DExtras.so.6:_ZTVN10Qt3DExtras20QAbstractSpriteSheetE
libQt63DExtras.so.6:_ZTVN10Qt3DExtras21QCylinderGeometryViewE
libQt63DExtras.so.6:_ZTVN10Qt3DExtras21QExtrudedTextGeometryE
libQt63DExtras.so.6:_ZTVN10Qt3DExtras22QOrbitCameraControllerE
libQt63DExtras.so.6:_ZTVN10Qt3DExtras23QPerVertexColorMaterialE
libQt63DExtras.so.6:_ZTVN10Qt3DExtras24QDiffuseSpecularMaterialE
libQt63DExtras.so.6:_ZTVN10Qt3DExtras25QAbstractCameraControllerE
libQt63DExtras.so.6:_ZTVN10Qt3DExtras25QNormalDiffuseMapMaterialE
libQt63DExtras.so.6:_ZTVN10Qt3DExtras27QDiffuseSpecularMapMaterialE
libQt63DExtras.so.6:_ZTVN10Qt3DExtras28QFirstPersonCameraControllerE
libQt63DExtras.so.6:_ZTVN10Qt3DExtras30QNormalDiffuseMapAlphaMaterialE
libQt63DExtras.so.6:_ZTVN10Qt3DExtras33QNormalDiffuseSpecularMapMaterialE
libQt63DExtras.so.6:_ZTVN10Qt3DExtras9QConeMeshE
libQt63DExtras.so.6:_ZThn16_N10Qt3DExtras10Qt3DWindowD0Ev
libQt63DExtras.so.6:_ZThn16_N10Qt3DExtras10Qt3DWindowD1Ev
libQt63DInput.so.6:_ZN9Qt3DInput11QInputChord10setTimeoutEi
libQt63DInput.so.6:_ZN9Qt3DInput11QInputChord11qt_metacallEN11QMetaObject4CallEiPPv
libQt63DInput.so.6:_ZN9Qt3DInput11QInputChord11qt_metacastEPKc
libQt63DInput.so.6:_ZN9Qt3DInput11QInputChord11removeChordEPNS_20QAbstractActionInputE
libQt63DInput.so.6:_ZN9Qt3DInput11QInputChord14timeoutChangedEi
libQt63DInput.so.6:_ZN9Qt3DInput11QInputChord16staticMetaObjectE
libQt63DInput.so.6:_ZN9Qt3DInput11QInputChord8addChordEPNS_20QAbstractActionInputE
libQt63DInput.so.6:_ZN9Qt3DInput11QInputChordC1EPN8Qt3DCore5QNodeE
libQt63DInput.so.6:_ZN9Qt3DInput11QInputChordC2EPN8Qt3DCore5QNodeE
libQt63DInput.so.6:_ZN9Qt3DInput11QInputChordD0Ev
libQt63DInput.so.6:_ZN9Qt3DInput11QInputChordD1Ev
libQt63DInput.so.6:_ZN9Qt3DInput11QInputChordD2Ev
libQt63DInput.so.6:_ZN9Qt3DInput11QMouseEvent11qt_metacallEN11QMetaObject4CallEiPPv
libQt63DInput.so.6:_ZN9Qt3DInput11QMouseEvent11qt_metacastEPKc
libQt63DInput.so.6:_ZN9Qt3DInput11QMouseEvent16staticMetaObjectE
libQt63DInput.so.6:_ZN9Qt3DInput11QMouseEventC1ERK11QMouseEvent
libQt63DInput.so.6:_ZN9Qt3DInput11QMouseEventC2ERK11QMouseEvent
libQt63DInput.so.6:_ZN9Qt3DInput11QMouseEventD0Ev
libQt63DInput.so.6:_ZN9Qt3DInput11QMouseEventD1Ev
libQt63DInput.so.6:_ZN9Qt3DInput11QMouseEventD2Ev
libQt63DInput.so.6:_ZN9Qt3DInput11QWheelEvent11qt_metacallEN11QMetaObject4CallEiPPv
libQt63DInput.so.6:_ZN9Qt3DInput11QWheelEvent11qt_metacastEPKc
libQt63DInput.so.6:_ZN9Qt3DInput11QWheelEvent16staticMetaObjectE
libQt63DInput.so.6:_ZN9Qt3DInput11QWheelEventC1ERK11QWheelEvent
libQt63DInput.so.6:_ZN9Qt3DInput11QWheelEventC2ERK11QWheelEvent
libQt63DInput.so.6:_ZN9Qt3DInput11QWheelEventD0Ev
libQt63DInput.so.6:_ZN9Qt3DInput11QWheelEventD1Ev
libQt63DInput.so.6:_ZN9Qt3DInput11QWheelEventD2Ev
libQt63DInput.so.6:_ZN9Qt3DInput12QActionInput10setButtonsERK5QListIiE
libQt63DInput.so.6:_ZN9Qt3DInput12QActionInput11qt_metacallEN11QMetaObject4CallEiPPv
libQt63DInput.so.6:_ZN9Qt3DInput12QActionInput11qt_metacastEPKc
libQt63DInput.so.6:_ZN9Qt3DInput12QActionInput14buttonsChangedERK5QListIiE
libQt63DInput.so.6:_ZN9Qt3DInput12QActionInput15setSourceDeviceEPNS_23QAbstractPhysicalDeviceE
libQt63DInput.so.6:_ZN9Qt3DInput12QActionInput16staticMetaObjectE
libQt63DInput.so.6:_ZN9Qt3DInput12QActionInput19sourceDeviceChangedEPNS_23QAbstractPhysicalDeviceE
libQt63DInput.so.6:_ZN9Qt3DInput12QActionInputC1EPN8Qt3DCore5QNodeE
libQt63DInput.so.6:_ZN9Qt3DInput12QActionInputC2EPN8Qt3DCore5QNodeE
libQt63DInput.so.6:_ZN9Qt3DInput12QActionInputD0Ev
libQt63DInput.so.6:_ZN9Qt3DInput12QActionInputD1Ev
libQt63DInput.so.6:_ZN9Qt3DInput12QActionInputD2Ev
libQt63DInput.so.6:_ZN9Qt3DInput12QAxisSetting11axesChangedERK5QListIiE
libQt63DInput.so.6:_ZN9Qt3DInput12QAxisSetting11qt_metacallEN11QMetaObject4CallEiPPv
libQt63DInput.so.6:_ZN9Qt3DInput12QAxisSetting11qt_metacastEPKc
libQt63DInput.so.6:_ZN9Qt3DInput12QAxisSetting13smoothChangedEb
libQt63DInput.so.6:_ZN9Qt3DInput12QAxisSetting16setSmoothEnabledEb
libQt63DInput.so.6:_ZN9Qt3DInput12QAxisSetting16staticMetaObjectE
libQt63DInput.so.6:_ZN9Qt3DInput12QAxisSetting17setDeadZoneRadiusEf
libQt63DInput.so.6:_ZN9Qt3DInput12QAxisSetting21deadZoneRadiusChangedEf
libQt63DInput.so.6:_ZN9Qt3DInput12QAxisSetting7setAxesERK5QListIiE
libQt63DInput.so.6:_ZN9Qt3DInput12QAxisSettingC1EPN8Qt3DCore5QNodeE
libQt63DInput.so.6:_ZN9Qt3DInput12QAxisSettingC2EPN8Qt3DCore5QNodeE
libQt63DInput.so.6:_ZN9Qt3DInput12QAxisSettingD0Ev
libQt63DInput.so.6:_ZN9Qt3DInput12QAxisSettingD1Ev
libQt63DInput.so.6:_ZN9Qt3DInput12QAxisSettingD2Ev
libQt63DInput.so.6:_ZN9Qt3DInput12QInputAspect11qt_metacallEN11QMetaObject4CallEiPPv
libQt63DInput.so.6:_ZN9Qt3DInput12QInputAspect11qt_metacastEPKc
libQt63DInput.so.6:_ZN9Qt3DInput12QInputAspect12onRegisteredEv
libQt63DInput.so.6:_ZN9Qt3DInput12QInputAspect13jobsToExecuteEx
libQt63DInput.so.6:_ZN9Qt3DInput12QInputAspect14onUnregisteredEv
libQt63DInput.so.6:_ZN9Qt3DInput12QInputAspect15onEngineStartupEv
libQt63DInput.so.6:_ZN9Qt3DInput12QInputAspect16staticMetaObjectE
libQt63DInput.so.6:_ZN9Qt3DInput12QInputAspect20createPhysicalDeviceERK7QString
libQt63DInput.so.6:_ZN9Qt3DInput12QInputAspect8jobsDoneEv
libQt63DInput.so.6:_ZN9Qt3DInput12QInputAspectC1EP7QObject
libQt63DInput.so.6:_ZN9Qt3DInput12QInputAspectC1ERNS_19QInputAspectPrivateEP7QObject
libQt63DInput.so.6:_ZN9Qt3DInput12QInputAspectC2EP7QObject
libQt63DInput.so.6:_ZN9Qt3DInput12QInputAspectC2ERNS_19QInputAspectPrivateEP7QObject
libQt63DInput.so.6:_ZN9Qt3DInput12QInputAspectD0Ev
libQt63DInput.so.6:_ZN9Qt3DInput12QInputAspectD1Ev
libQt63DInput.so.6:_ZN9Qt3DInput12QInputAspectD2Ev
libQt63DInput.so.6:_ZN9Qt3DInput12QMouseDevice11qt_metacallEN11QMetaObject4CallEiPPv
libQt63DInput.so.6:_ZN9Qt3DInput12QMouseDevice11qt_metacastEPKc
libQt63DInput.so.6:_ZN9Qt3DInput12QMouseDevice14setSensitivityEf
libQt63DInput.so.6:_ZN9Qt3DInput12QMouseDevice16staticMetaObjectE
libQt63DInput.so.6:_ZN9Qt3DInput12QMouseDevice18sensitivityChangedEf
libQt63DInput.so.6:_ZN9Qt3DInput12QMouseDevice25setUpdateAxesContinuouslyEb
libQt63DInput.so.6:_ZN9Qt3DInput12QMouseDevice29updateAxesContinuouslyChangedEb
libQt63DInput.so.6:_ZN9Qt3DInput12QMouseDeviceC1EPN8Qt3DCore5QNodeE
libQt63DInput.so.6:_ZN9Qt3DInput12QMouseDeviceC2EPN8Qt3DCore5QNodeE
libQt63DInput.so.6:_ZN9Qt3DInput12QMouseDeviceD0Ev
libQt63DInput.so.6:_ZN9Qt3DInput12QMouseDeviceD1Ev
libQt63DInput.so.6:_ZN9Qt3DInput12QMouseDeviceD2Ev
libQt63DInput.so.6:_ZN9Qt3DInput13QMouseHandler11qt_metacallEN11QMetaObject4CallEiPPv
libQt63DInput.so.6:_ZN9Qt3DInput13QMouseHandler11qt_metacastEPKc
libQt63DInput.so.6:_ZN9Qt3DInput13QMouseHandler12pressAndHoldEPNS_11QMouseEventE
libQt63DInput.so.6:_ZN9Qt3DInput13QMouseHandler13doubleClickedEPNS_11QMouseEventE
libQt63DInput.so.6:_ZN9Qt3DInput13QMouseHandler15positionChangedEPNS_11QMouseEventE
libQt63DInput.so.6:_ZN9Qt3DInput13QMouseHandler15setSourceDeviceEPNS_12QMouseDeviceE
libQt63DInput.so.6:_ZN9Qt3DInput13QMouseHandler16setContainsMouseEb
libQt63DInput.so.6:_ZN9Qt3DInput13QMouseHandler16staticMetaObjectE
libQt63DInput.so.6:_ZN9Qt3DInput13QMouseHandler19sourceDeviceChangedEPNS_12QMouseDeviceE
libQt63DInput.so.6:_ZN9Qt3DInput13QMouseHandler20containsMouseChangedEb
libQt63DInput.so.6:_ZN9Qt3DInput13QMouseHandler5wheelEPNS_11QWheelEventE
libQt63DInput.so.6:_ZN9Qt3DInput13QMouseHandler6exitedEv
libQt63DInput.so.6:_ZN9Qt3DInput13QMouseHandler7clickedEPNS_11QMouseEventE
libQt63DInput.so.6:_ZN9Qt3DInput13QMouseHandler7enteredEv
libQt63DInput.so.6:_ZN9Qt3DInput13QMouseHandler7pressedEPNS_11QMouseEventE
libQt63DInput.so.6:_ZN9Qt3DInput13QMouseHandler8releasedEPNS_11QMouseEventE
libQt63DInput.so.6:_ZN9Qt3DInput13QMouseHandlerC1EPN8Qt3DCore5QNodeE
libQt63DInput.so.6:_ZN9Qt3DInput13QMouseHandlerC2EPN8Qt3DCore5QNodeE
libQt63DInput.so.6:_ZN9Qt3DInput13QMouseHandlerD0Ev
libQt63DInput.so.6:_ZN9Qt3DInput13QMouseHandlerD1Ev
libQt63DInput.so.6:_ZN9Qt3DInput13QMouseHandlerD2Ev
libQt63DInput.so.6:_ZN9Qt3DInput14QInputSequence10setTimeoutEi
libQt63DInput.so.6:_ZN9Qt3DInput14QInputSequence11addSequenceEPNS_20QAbstractActionInputE
libQt63DInput.so.6:_ZN9Qt3DInput14QInputSequence11qt_metacallEN11QMetaObject4CallEiPPv
libQt63DInput.so.6:_ZN9Qt3DInput14QInputSequence11qt_metacastEPKc
libQt63DInput.so.6:_ZN9Qt3DInput14QInputSequence14removeSequenceEPNS_20QAbstractActionInputE
libQt63DInput.so.6:_ZN9Qt3DInput14QInputSequence14timeoutChangedEi
libQt63DInput.so.6:_ZN9Qt3DInput14QInputSequence16staticMetaObjectE
libQt63DInput.so.6:_ZN9Qt3DInput14QInputSequence17setButtonIntervalEi
libQt63DInput.so.6:_ZN9Qt3DInput14QInputSequence21buttonIntervalChangedEi
libQt63DInput.so.6:_ZN9Qt3DInput14QInputSequenceC1EPN8Qt3DCore5QNodeE
libQt63DInput.so.6:_ZN9Qt3DInput14QInputSequenceC2EPN8Qt3DCore5QNodeE
libQt63DInput.so.6:_ZN9Qt3DInput14QInputSequenceD0Ev
libQt63DInput.so.6:_ZN9Qt3DInput14QInputSequenceD1Ev
libQt63DInput.so.6:_ZN9Qt3DInput14QInputSequenceD2Ev
libQt63DInput.so.6:_ZN9Qt3DInput14QInputSettings11qt_metacallEN11QMetaObject4CallEiPPv
libQt63DInput.so.6:_ZN9Qt3DInput14QInputSettings11qt_metacastEPKc
libQt63DInput.so.6:_ZN9Qt3DInput14QInputSettings14setEventSourceEP7QObject
libQt63DInput.so.6:_ZN9Qt3DInput14QInputSettings16staticMetaObjectE
libQt63DInput.so.6:_ZN9Qt3DInput14QInputSettings18eventSourceChangedEP7QObject
libQt63DInput.so.6:_ZN9Qt3DInput14QInputSettings20eventSourceDestroyedEv
libQt63DInput.so.6:_ZN9Qt3DInput14QInputSettingsC1EPN8Qt3DCore5QNodeE
libQt63DInput.so.6:_ZN9Qt3DInput14QInputSettingsC2EPN8Qt3DCore5QNodeE
libQt63DInput.so.6:_ZN9Qt3DInput14QInputSettingsD0Ev
libQt63DInput.so.6:_ZN9Qt3DInput14QInputSettingsD1Ev
libQt63DInput.so.6:_ZN9Qt3DInput14QInputSettingsD2Ev
libQt63DInput.so.6:_ZN9Qt3DInput14QLogicalDevice10removeAxisEPNS_5QAxisE
libQt63DInput.so.6:_ZN9Qt3DInput14QLogicalDevice11qt_metacallEN11QMetaObject4CallEiPPv
libQt63DInput.so.6:_ZN9Qt3DInput14QLogicalDevice11qt_metacastEPKc
libQt63DInput.so.6:_ZN9Qt3DInput14QLogicalDevice12removeActionEPNS_7QActionE
libQt63DInput.so.6:_ZN9Qt3DInput14QLogicalDevice16staticMetaObjectE
libQt63DInput.so.6:_ZN9Qt3DInput14QLogicalDevice7addAxisEPNS_5QAxisE
libQt63DInput.so.6:_ZN9Qt3DInput14QLogicalDevice9addActionEPNS_7QActionE
libQt63DInput.so.6:_ZN9Qt3DInput14QLogicalDeviceC1EPN8Qt3DCore5QNodeE
libQt63DInput.so.6:_ZN9Qt3DInput14QLogicalDeviceC2EPN8Qt3DCore5QNodeE
libQt63DInput.so.6:_ZN9Qt3DInput14QLogicalDeviceD0Ev
libQt63DInput.so.6:_ZN9Qt3DInput14QLogicalDeviceD1Ev
libQt63DInput.so.6:_ZN9Qt3DInput14QLogicalDeviceD2Ev
libQt63DInput.so.6:_ZN9Qt3DInput15QKeyboardDevice11qt_metacallEN11QMetaObject4CallEiPPv
libQt63DInput.so.6:_ZN9Qt3DInput15QKeyboardDevice11qt_metacastEPKc
libQt63DInput.so.6:_ZN9Qt3DInput15QKeyboardDevice14setActiveInputEPNS_16QKeyboardHandlerE
libQt63DInput.so.6:_ZN9Qt3DInput15QKeyboardDevice16staticMetaObjectE
libQt63DInput.so.6:_ZN9Qt3DInput15QKeyboardDevice18activeInputChangedEPNS_16QKeyboardHandlerE
libQt63DInput.so.6:_ZN9Qt3DInput15QKeyboardDeviceC1EPN8Qt3DCore5QNodeE
libQt63DInput.so.6:_ZN9Qt3DInput15QKeyboardDeviceC1ERNS_22QKeyboardDevicePrivateEPN8Qt3DCore5QNodeE
libQt63DInput.so.6:_ZN9Qt3DInput15QKeyboardDeviceC2EPN8Qt3DCore5QNodeE
libQt63DInput.so.6:_ZN9Qt3DInput15QKeyboardDeviceC2ERNS_22QKeyboardDevicePrivateEPN8Qt3DCore5QNodeE
libQt63DInput.so.6:_ZN9Qt3DInput15QKeyboardDeviceD0Ev
libQt63DInput.so.6:_ZN9Qt3DInput15QKeyboardDeviceD1Ev
libQt63DInput.so.6:_ZN9Qt3DInput15QKeyboardDeviceD2Ev
libQt63DInput.so.6:_ZN9Qt3DInput16QAnalogAxisInput11axisChangedEi
libQt63DInput.so.6:_ZN9Qt3DInput16QAnalogAxisInput11qt_metacallEN11QMetaObject4CallEiPPv
libQt63DInput.so.6:_ZN9Qt3DInput16QAnalogAxisInput11qt_metacastEPKc
libQt63DInput.so.6:_ZN9Qt3DInput16QAnalogAxisInput16staticMetaObjectE
libQt63DInput.so.6:_ZN9Qt3DInput16QAnalogAxisInput7setAxisEi
libQt63DInput.so.6:_ZN9Qt3DInput16QAnalogAxisInputC1EPN8Qt3DCore5QNodeE
libQt63DInput.so.6:_ZN9Qt3DInput16QAnalogAxisInputC2EPN8Qt3DCore5QNodeE
libQt63DInput.so.6:_ZN9Qt3DInput16QAnalogAxisInputD0Ev
libQt63DInput.so.6:_ZN9Qt3DInput16QAnalogAxisInputD1Ev
libQt63DInput.so.6:_ZN9Qt3DInput16QAnalogAxisInputD2Ev
libQt63DInput.so.6:_ZN9Qt3DInput16QAxisAccumulator11qt_metacallEN11QMetaObject4CallEiPPv
libQt63DInput.so.6:_ZN9Qt3DInput16QAxisAccumulator11qt_metacastEPKc
libQt63DInput.so.6:_ZN9Qt3DInput16QAxisAccumulator12scaleChangedEf
libQt63DInput.so.6:_ZN9Qt3DInput16QAxisAccumulator12valueChangedEf
libQt63DInput.so.6:_ZN9Qt3DInput16QAxisAccumulator13setSourceAxisEPNS_5QAxisE
libQt63DInput.so.6:_ZN9Qt3DInput16QAxisAccumulator15velocityChangedEf
libQt63DInput.so.6:_ZN9Qt3DInput16QAxisAccumulator16staticMetaObjectE
libQt63DInput.so.6:_ZN9Qt3DInput16QAxisAccumulator17setSourceAxisTypeENS0_14SourceAxisTypeE
libQt63DInput.so.6:_ZN9Qt3DInput16QAxisAccumulator17sourceAxisChangedEPNS_5QAxisE
libQt63DInput.so.6:_ZN9Qt3DInput16QAxisAccumulator21sourceAxisTypeChangedENS0_14SourceAxisTypeE
libQt63DInput.so.6:_ZN9Qt3DInput16QAxisAccumulator8setScaleEf
libQt63DInput.so.6:_ZN9Qt3DInput16QAxisAccumulatorC1EPN8Qt3DCore5QNodeE
libQt63DInput.so.6:_ZN9Qt3DInput16QAxisAccumulatorC2EPN8Qt3DCore5QNodeE
libQt63DInput.so.6:_ZN9Qt3DInput16QAxisAccumulatorD0Ev
libQt63DInput.so.6:_ZN9Qt3DInput16QAxisAccumulatorD1Ev
libQt63DInput.so.6:_ZN9Qt3DInput16QAxisAccumulatorD2Ev
libQt63DInput.so.6:_ZN9Qt3DInput16QButtonAxisInput10setButtonsERK5QListIiE
libQt63DInput.so.6:_ZN9Qt3DInput16QButtonAxisInput11qt_metacallEN11QMetaObject4CallEiPPv
libQt63DInput.so.6:_ZN9Qt3DInput16QButtonAxisInput11qt_metacastEPKc
libQt63DInput.so.6:_ZN9Qt3DInput16QButtonAxisInput12scaleChangedEf
libQt63DInput.so.6:_ZN9Qt3DInput16QButtonAxisInput14buttonsChangedERK5QListIiE
libQt63DInput.so.6:_ZN9Qt3DInput16QButtonAxisInput15setAccelerationEf
libQt63DInput.so.6:_ZN9Qt3DInput16QButtonAxisInput15setDecelerationEf
libQt63DInput.so.6:_ZN9Qt3DInput16QButtonAxisInput16staticMetaObjectE
libQt63DInput.so.6:_ZN9Qt3DInput16QButtonAxisInput19accelerationChangedEf
libQt63DInput.so.6:_ZN9Qt3DInput16QButtonAxisInput19decelerationChangedEf
libQt63DInput.so.6:_ZN9Qt3DInput16QButtonAxisInput8setScaleEf
libQt63DInput.so.6:_ZN9Qt3DInput16QButtonAxisInputC1EPN8Qt3DCore5QNodeE
libQt63DInput.so.6:_ZN9Qt3DInput16QButtonAxisInputC2EPN8Qt3DCore5QNodeE
libQt63DInput.so.6:_ZN9Qt3DInput16QButtonAxisInputD0Ev
libQt63DInput.so.6:_ZN9Qt3DInput16QButtonAxisInputD1Ev
libQt63DInput.so.6:_ZN9Qt3DInput16QButtonAxisInputD2Ev
libQt63DInput.so.6:_ZN9Qt3DInput16QKeyboardHandler10tabPressedEPNS_9QKeyEventE
libQt63DInput.so.6:_ZN9Qt3DInput16QKeyboardHandler10yesPressedEPNS_9QKeyEventE
libQt63DInput.so.6:_ZN9Qt3DInput16QKeyboardHandler11backPressedEPNS_9QKeyEventE
libQt63DInput.so.6:_ZN9Qt3DInput16QKeyboardHandler11callPressedEPNS_9QKeyEventE
libQt63DInput.so.6:_ZN9Qt3DInput16QKeyboardHandler11downPressedEPNS_9QKeyEventE
libQt63DInput.so.6:_ZN9Qt3DInput16QKeyboardHandler11flipPressedEPNS_9QKeyEventE
libQt63DInput.so.6:_ZN9Qt3DInput16QKeyboardHandler11leftPressedEPNS_9QKeyEventE
libQt63DInput.so.6:_ZN9Qt3DInput16QKeyboardHandler11menuPressedEPNS_9QKeyEventE
libQt63DInput.so.6:_ZN9Qt3DInput16QKeyboardHandler11qt_metacallEN11QMetaObject4CallEiPPv
libQt63DInput.so.6:_ZN9Qt3DInput16QKeyboardHandler11qt_metacastEPKc
libQt63DInput.so.6:_ZN9Qt3DInput16QKeyboardHandler12enterPressedEPNS_9QKeyEventE
libQt63DInput.so.6:_ZN9Qt3DInput16QKeyboardHandler12focusChangedEb
libQt63DInput.so.6:_ZN9Qt3DInput16QKeyboardHandler12rightPressedEPNS_9QKeyEventE
libQt63DInput.so.6:_ZN9Qt3DInput16QKeyboardHandler12spacePressedEPNS_9QKeyEventE
libQt63DInput.so.6:_ZN9Qt3DInput16QKeyboardHandler13cancelPressedEPNS_9QKeyEventE
libQt63DInput.so.6:_ZN9Qt3DInput16QKeyboardHandler13deletePressedEPNS_9QKeyEventE
libQt63DInput.so.6:_ZN9Qt3DInput16QKeyboardHandler13digit0PressedEPNS_9QKeyEventE
libQt63DInput.so.6:_ZN9Qt3DInput16QKeyboardHandler13digit1PressedEPNS_9QKeyEventE
libQt63DInput.so.6:_ZN9Qt3DInput16QKeyboardHandler13digit2PressedEPNS_9QKeyEventE
libQt63DInput.so.6:_ZN9Qt3DInput16QKeyboardHandler13digit3PressedEPNS_9QKeyEventE
libQt63DInput.so.6:_ZN9Qt3DInput16QKeyboardHandler13digit4PressedEPNS_9QKeyEventE
libQt63DInput.so.6:_ZN9Qt3DInput16QKeyboardHandler13digit5PressedEPNS_9QKeyEventE
libQt63DInput.so.6:_ZN9Qt3DInput16QKeyboardHandler13digit6PressedEPNS_9QKeyEventE
libQt63DInput.so.6:_ZN9Qt3DInput16QKeyboardHandler13digit7PressedEPNS_9QKeyEventE
libQt63DInput.so.6:_ZN9Qt3DInput16QKeyboardHandler13digit8PressedEPNS_9QKeyEventE
libQt63DInput.so.6:_ZN9Qt3DInput16QKeyboardHandler13digit9PressedEPNS_9QKeyEventE
libQt63DInput.so.6:_ZN9Qt3DInput16QKeyboardHandler13escapePressedEPNS_9QKeyEventE
libQt63DInput.so.6:_ZN9Qt3DInput16QKeyboardHandler13hangupPressedEPNS_9QKeyEventE
libQt63DInput.so.6:_ZN9Qt3DInput16QKeyboardHandler13returnPressedEPNS_9QKeyEventE
libQt63DInput.so.6:_ZN9Qt3DInput16QKeyboardHandler13selectPressedEPNS_9QKeyEventE
libQt63DInput.so.6:_ZN9Qt3DInput16QKeyboardHandler14backtabPressedEPNS_9QKeyEventE
libQt63DInput.so.6:_ZN9Qt3DInput16QKeyboardHandler15asteriskPressedEPNS_9QKeyEventE
libQt63DInput.so.6:_ZN9Qt3DInput16QKeyboardHandler15context1PressedEPNS_9QKeyEventE
libQt63DInput.so.6:_ZN9Qt3DInput16QKeyboardHandler15context2PressedEPNS_9QKeyEventE
libQt63DInput.so.6:_ZN9Qt3DInput16QKeyboardHandler15context3PressedEPNS_9QKeyEventE
libQt63DInput.so.6:_ZN9Qt3DInput16QKeyboardHandler15context4PressedEPNS_9QKeyEventE
libQt63DInput.so.6:_ZN9Qt3DInput16QKeyboardHandler15setSourceDeviceEPNS_15QKeyboardDeviceE
libQt63DInput.so.6:_ZN9Qt3DInput16QKeyboardHandler15volumeUpPressedEPNS_9QKeyEventE
libQt63DInput.so.6:_ZN9Qt3DInput16QKeyboardHandler16staticMetaObjectE
libQt63DInput.so.6:_ZN9Qt3DInput16QKeyboardHandler17numberSignPressedEPNS_9QKeyEventE
libQt63DInput.so.6:_ZN9Qt3DInput16QKeyboardHandler17volumeDownPressedEPNS_9QKeyEventE
libQt63DInput.so.6:_ZN9Qt3DInput16QKeyboardHandler19sourceDeviceChangedEPNS_15QKeyboardDeviceE
libQt63DInput.so.6:_ZN9Qt3DInput16QKeyboardHandler7pressedEPNS_9QKeyEventE
libQt63DInput.so.6:_ZN9Qt3DInput16QKeyboardHandler8releasedEPNS_9QKeyEventE
libQt63DInput.so.6:_ZN9Qt3DInput16QKeyboardHandler8setFocusEb
libQt63DInput.so.6:_ZN9Qt3DInput16QKeyboardHandler9noPressedEPNS_9QKeyEventE
libQt63DInput.so.6:_ZN9Qt3DInput16QKeyboardHandler9upPressedEPNS_9QKeyEventE
libQt63DInput.so.6:_ZN9Qt3DInput16QKeyboardHandlerC1EPN8Qt3DCore5QNodeE
libQt63DInput.so.6:_ZN9Qt3DInput16QKeyboardHandlerC2EPN8Qt3DCore5QNodeE
libQt63DInput.so.6:_ZN9Qt3DInput16QKeyboardHandlerD0Ev
libQt63DInput.so.6:_ZN9Qt3DInput16QKeyboardHandlerD1Ev
libQt63DInput.so.6:_ZN9Qt3DInput16QKeyboardHandlerD2Ev
libQt63DInput.so.6:_ZN9Qt3DInput18QAbstractAxisInput11qt_metacallEN11QMetaObject4CallEiPPv
libQt63DInput.so.6:_ZN9Qt3DInput18QAbstractAxisInput11qt_metacastEPKc
libQt63DInput.so.6:_ZN9Qt3DInput18QAbstractAxisInput15setSourceDeviceEPNS_23QAbstractPhysicalDeviceE
libQt63DInput.so.6:_ZN9Qt3DInput18QAbstractAxisInput16staticMetaObjectE
libQt63DInput.so.6:_ZN9Qt3DInput18QAbstractAxisInput19sourceDeviceChangedEPNS_23QAbstractPhysicalDeviceE
libQt63DInput.so.6:_ZN9Qt3DInput18QAbstractAxisInputC1ERNS_25QAbstractAxisInputPrivateEPN8Qt3DCore5QNodeE
libQt63DInput.so.6:_ZN9Qt3DInput18QAbstractAxisInputC2ERNS_25QAbstractAxisInputPrivateEPN8Qt3DCore5QNodeE
libQt63DInput.so.6:_ZN9Qt3DInput18QAbstractAxisInputD0Ev
libQt63DInput.so.6:_ZN9Qt3DInput18QAbstractAxisInputD1Ev
libQt63DInput.so.6:_ZN9Qt3DInput18QAbstractAxisInputD2Ev
libQt63DInput.so.6:_ZN9Qt3DInput18QInputDevicePlugin11qt_metacallEN11QMetaObject4CallEiPPv
libQt63DInput.so.6:_ZN9Qt3DInput18QInputDevicePlugin11qt_metacastEPKc
libQt63DInput.so.6:_ZN9Qt3DInput18QInputDevicePlugin16staticMetaObjectE
libQt63DInput.so.6:_ZN9Qt3DInput18QInputDevicePlugin6createERK7QStringRK5QListIS1_E
libQt63DInput.so.6:_ZN9Qt3DInput18QInputDevicePluginC1EP7QObject
libQt63DInput.so.6:_ZN9Qt3DInput18QInputDevicePluginC2EP7QObject
libQt63DInput.so.6:_ZN9Qt3DInput18QInputDevicePluginD0Ev
libQt63DInput.so.6:_ZN9Qt3DInput18QInputDevicePluginD1Ev
libQt63DInput.so.6:_ZN9Qt3DInput18QInputDevicePluginD2Ev
libQt63DInput.so.6:_ZN9Qt3DInput19QGenericInputDevice10setAxesMapERK4QMapI7QString8QVariantE
libQt63DInput.so.6:_ZN9Qt3DInput19QGenericInputDevice11qt_metacallEN11QMetaObject4CallEiPPv
libQt63DInput.so.6:_ZN9Qt3DInput19QGenericInputDevice11qt_metacastEPKc
libQt63DInput.so.6:_ZN9Qt3DInput19QGenericInputDevice13setButtonsMapERK4QMapI7QString8QVariantE
libQt63DInput.so.6:_ZN9Qt3DInput19QGenericInputDevice14axesMapChangedEv
libQt63DInput.so.6:_ZN9Qt3DInput19QGenericInputDevice16staticMetaObjectE
libQt63DInput.so.6:_ZN9Qt3DInput19QGenericInputDevice17buttonsMapChangedEv
libQt63DInput.so.6:_ZN9Qt3DInput19QGenericInputDeviceC1EPN8Qt3DCore5QNodeE
libQt63DInput.so.6:_ZN9Qt3DInput19QGenericInputDeviceC2EPN8Qt3DCore5QNodeE
libQt63DInput.so.6:_ZN9Qt3DInput20QAbstractActionInput11qt_metacallEN11QMetaObject4CallEiPPv
libQt63DInput.so.6:_ZN9Qt3DInput20QAbstractActionInput11qt_metacastEPKc
libQt63DInput.so.6:_ZN9Qt3DInput20QAbstractActionInput16staticMetaObjectE
libQt63DInput.so.6:_ZN9Qt3DInput20QAbstractActionInputC1ERNS_27QAbstractActionInputPrivateEPN8Qt3DCore5QNodeE
libQt63DInput.so.6:_ZN9Qt3DInput20QAbstractActionInputC2ERNS_27QAbstractActionInputPrivateEPN8Qt3DCore5QNodeE
libQt63DInput.so.6:_ZN9Qt3DInput20QAbstractActionInputD0Ev
libQt63DInput.so.6:_ZN9Qt3DInput20QAbstractActionInputD1Ev
libQt63DInput.so.6:_ZN9Qt3DInput20QAbstractActionInputD2Ev
libQt63DInput.so.6:_ZN9Qt3DInput23QAbstractPhysicalDevice11qt_metacallEN11QMetaObject4CallEiPPv
libQt63DInput.so.6:_ZN9Qt3DInput23QAbstractPhysicalDevice11qt_metacastEPKc
libQt63DInput.so.6:_ZN9Qt3DInput23QAbstractPhysicalDevice14addAxisSettingEPNS_12QAxisSettingE
libQt63DInput.so.6:_ZN9Qt3DInput23QAbstractPhysicalDevice16staticMetaObjectE
libQt63DInput.so.6:_ZN9Qt3DInput23QAbstractPhysicalDevice17removeAxisSettingEPNS_12QAxisSettingE
libQt63DInput.so.6:_ZN9Qt3DInput23QAbstractPhysicalDeviceC1EPN8Qt3DCore5QNodeE
libQt63DInput.so.6:_ZN9Qt3DInput23QAbstractPhysicalDeviceC1ERNS_30QAbstractPhysicalDevicePrivateEPN8Qt3DCore5QNodeE
libQt63DInput.so.6:_ZN9Qt3DInput23QAbstractPhysicalDeviceC2EPN8Qt3DCore5QNodeE
libQt63DInput.so.6:_ZN9Qt3DInput23QAbstractPhysicalDeviceC2ERNS_30QAbstractPhysicalDevicePrivateEPN8Qt3DCore5QNodeE
libQt63DInput.so.6:_ZN9Qt3DInput23QAbstractPhysicalDeviceD0Ev
libQt63DInput.so.6:_ZN9Qt3DInput23QAbstractPhysicalDeviceD1Ev
libQt63DInput.so.6:_ZN9Qt3DInput23QAbstractPhysicalDeviceD2Ev
libQt63DInput.so.6:_ZN9Qt3DInput23QInputDeviceIntegration10initializeEPNS_12QInputAspectE
libQt63DInput.so.6:_ZN9Qt3DInput23QInputDeviceIntegration11qt_metacallEN11QMetaObject4CallEiPPv
libQt63DInput.so.6:_ZN9Qt3DInput23QInputDeviceIntegration11qt_metacastEPKc
libQt63DInput.so.6:_ZN9Qt3DInput23QInputDeviceIntegration16staticMetaObjectE
libQt63DInput.so.6:_ZN9Qt3DInput23QInputDeviceIntegration19registerBackendTypeERK11QMetaObjectRK14QSharedPointerIN8Qt3DCore18QBackendNodeMapperEE
libQt63DInput.so.6:_ZN9Qt3DInput23QInputDeviceIntegrationC2EP7QObject
libQt63DInput.so.6:_ZN9Qt3DInput23QInputDeviceIntegrationC2ERNS_30QInputDeviceIntegrationPrivateEP7QObject
libQt63DInput.so.6:_ZN9Qt3DInput28QAbstractPhysicalDeviceProxy11qt_metacallEN11QMetaObject4CallEiPPv
libQt63DInput.so.6:_ZN9Qt3DInput28QAbstractPhysicalDeviceProxy11qt_metacastEPKc
libQt63DInput.so.6:_ZN9Qt3DInput28QAbstractPhysicalDeviceProxy13statusChangedENS0_12DeviceStatusE
libQt63DInput.so.6:_ZN9Qt3DInput28QAbstractPhysicalDeviceProxy16staticMetaObjectE
libQt63DInput.so.6:_ZN9Qt3DInput28QAbstractPhysicalDeviceProxyC1ERNS_35QAbstractPhysicalDeviceProxyPrivateEPN8Qt3DCore5QNodeE
libQt63DInput.so.6:_ZN9Qt3DInput28QAbstractPhysicalDeviceProxyC2ERNS_35QAbstractPhysicalDeviceProxyPrivateEPN8Qt3DCore5QNodeE
libQt63DInput.so.6:_ZN9Qt3DInput30QAbstractPhysicalDevicePrivate13postAxisEventEid
libQt63DInput.so.6:_ZN9Qt3DInput30QAbstractPhysicalDevicePrivate15postButtonEventEid
libQt63DInput.so.6:_ZN9Qt3DInput30QAbstractPhysicalDevicePrivateC1Ev
libQt63DInput.so.6:_ZN9Qt3DInput30QAbstractPhysicalDevicePrivateC2Ev
libQt63DInput.so.6:_ZN9Qt3DInput30QAbstractPhysicalDevicePrivateD0Ev
libQt63DInput.so.6:_ZN9Qt3DInput30QAbstractPhysicalDevicePrivateD1Ev
libQt63DInput.so.6:_ZN9Qt3DInput30QAbstractPhysicalDevicePrivateD2Ev
libQt63DInput.so.6:_ZN9Qt3DInput30QInputDeviceIntegrationPrivateC1Ev
libQt63DInput.so.6:_ZN9Qt3DInput30QInputDeviceIntegrationPrivateC2Ev
libQt63DInput.so.6:_ZN9Qt3DInput34QAbstractPhysicalDeviceBackendNode14setInputAspectEPNS_12QInputAspectE
libQt63DInput.so.6:_ZN9Qt3DInput34QAbstractPhysicalDeviceBackendNode16syncFromFrontEndEPKN8Qt3DCore5QNodeEb
libQt63DInput.so.6:_ZN9Qt3DInput34QAbstractPhysicalDeviceBackendNode18processedAxisValueEi
libQt63DInput.so.6:_ZN9Qt3DInput34QAbstractPhysicalDeviceBackendNode7cleanupEv
libQt63DInput.so.6:_ZN9Qt3DInput34QAbstractPhysicalDeviceBackendNodeC2EN8Qt3DCore12QBackendNode4ModeE
libQt63DInput.so.6:_ZN9Qt3DInput34QAbstractPhysicalDeviceBackendNodeC2ERNS_41QAbstractPhysicalDeviceBackendNodePrivateE
libQt63DInput.so.6:_ZN9Qt3DInput35QAbstractPhysicalDeviceProxyPrivate11resetDeviceEPNS_23QAbstractPhysicalDeviceE
libQt63DInput.so.6:_ZN9Qt3DInput35QAbstractPhysicalDeviceProxyPrivate9setDeviceEPNS_23QAbstractPhysicalDeviceE
libQt63DInput.so.6:_ZN9Qt3DInput35QAbstractPhysicalDeviceProxyPrivate9setStatusENS_28QAbstractPhysicalDeviceProxy12DeviceStatusE
libQt63DInput.so.6:_ZN9Qt3DInput35QAbstractPhysicalDeviceProxyPrivateC1ERK7QString
libQt63DInput.so.6:_ZN9Qt3DInput35QAbstractPhysicalDeviceProxyPrivateC2ERK7QString
libQt63DInput.so.6:_ZN9Qt3DInput35QAbstractPhysicalDeviceProxyPrivateD0Ev
libQt63DInput.so.6:_ZN9Qt3DInput35QAbstractPhysicalDeviceProxyPrivateD1Ev
libQt63DInput.so.6:_ZN9Qt3DInput35QAbstractPhysicalDeviceProxyPrivateD2Ev
libQt63DInput.so.6:_ZN9Qt3DInput41QAbstractPhysicalDeviceBackendNodePrivate14addAxisSettingEiN8Qt3DCore7QNodeIdE
libQt63DInput.so.6:_ZN9Qt3DInput41QAbstractPhysicalDeviceBackendNodePrivate17getOrCreateFilterEi
libQt63DInput.so.6:_ZN9Qt3DInput41QAbstractPhysicalDeviceBackendNodePrivate17removeAxisSettingEN8Qt3DCore7QNodeIdE
libQt63DInput.so.6:_ZN9Qt3DInput41QAbstractPhysicalDeviceBackendNodePrivateC1EN8Qt3DCore12QBackendNode4ModeE
libQt63DInput.so.6:_ZN9Qt3DInput41QAbstractPhysicalDeviceBackendNodePrivateC2EN8Qt3DCore12QBackendNode4ModeE
libQt63DInput.so.6:_ZN9Qt3DInput5Input11BackendNode16syncFromFrontEndEPKN8Qt3DCore5QNodeEb
libQt63DInput.so.6:_ZN9Qt3DInput5Input11BackendNodeC1EN8Qt3DCore12QBackendNode4ModeE
libQt63DInput.so.6:_ZN9Qt3DInput5Input11BackendNodeC1ERN8Qt3DCore19QBackendNodePrivateE
libQt63DInput.so.6:_ZN9Qt3DInput5Input11BackendNodeC2EN8Qt3DCore12QBackendNode4ModeE
libQt63DInput.so.6:_ZN9Qt3DInput5Input11BackendNodeC2ERN8Qt3DCore19QBackendNodePrivateE
libQt63DInput.so.6:_ZN9Qt3DInput5Input11BackendNodeD0Ev
libQt63DInput.so.6:_ZN9Qt3DInput5Input11BackendNodeD1Ev
libQt63DInput.so.6:_ZN9Qt3DInput5Input11BackendNodeD2Ev
libQt63DInput.so.6:_ZN9Qt3DInput5QAxis11qt_metacallEN11QMetaObject4CallEiPPv
libQt63DInput.so.6:_ZN9Qt3DInput5QAxis11qt_metacastEPKc
libQt63DInput.so.6:_ZN9Qt3DInput5QAxis11removeInputEPNS_18QAbstractAxisInputE
libQt63DInput.so.6:_ZN9Qt3DInput5QAxis12valueChangedEf
libQt63DInput.so.6:_ZN9Qt3DInput5QAxis16staticMetaObjectE
libQt63DInput.so.6:_ZN9Qt3DInput5QAxis8addInputEPNS_18QAbstractAxisInputE
libQt63DInput.so.6:_ZN9Qt3DInput5QAxisC1EPN8Qt3DCore5QNodeE
libQt63DInput.so.6:_ZN9Qt3DInput5QAxisC2EPN8Qt3DCore5QNodeE
libQt63DInput.so.6:_ZN9Qt3DInput5QAxisD0Ev
libQt63DInput.so.6:_ZN9Qt3DInput5QAxisD1Ev
libQt63DInput.so.6:_ZN9Qt3DInput5QAxisD2Ev
libQt63DInput.so.6:_ZN9Qt3DInput7QAction11qt_metacallEN11QMetaObject4CallEiPPv
libQt63DInput.so.6:_ZN9Qt3DInput7QAction11qt_metacastEPKc
libQt63DInput.so.6:_ZN9Qt3DInput7QAction11removeInputEPNS_20QAbstractActionInputE
libQt63DInput.so.6:_ZN9Qt3DInput7QAction13activeChangedEb
libQt63DInput.so.6:_ZN9Qt3DInput7QAction16staticMetaObjectE
libQt63DInput.so.6:_ZN9Qt3DInput7QAction8addInputEPNS_20QAbstractActionInputE
libQt63DInput.so.6:_ZN9Qt3DInput7QActionC1EPN8Qt3DCore5QNodeE
libQt63DInput.so.6:_ZN9Qt3DInput7QActionC2EPN8Qt3DCore5QNodeE
libQt63DInput.so.6:_ZN9Qt3DInput7QActionD0Ev
libQt63DInput.so.6:_ZN9Qt3DInput7QActionD1Ev
libQt63DInput.so.6:_ZN9Qt3DInput7QActionD2Ev
libQt63DInput.so.6:_ZN9Qt3DInput9QKeyEvent11qt_metacallEN11QMetaObject4CallEiPPv
libQt63DInput.so.6:_ZN9Qt3DInput9QKeyEvent11qt_metacastEPKc
libQt63DInput.so.6:_ZN9Qt3DInput9QKeyEvent16staticMetaObjectE
libQt63DInput.so.6:_ZN9Qt3DInput9QKeyEventC1EN6QEvent4TypeEi6QFlagsIN2Qt16KeyboardModifierEERK7QStringbt
libQt63DInput.so.6:_ZN9Qt3DInput9QKeyEventC1ERK9QKeyEvent
libQt63DInput.so.6:_ZN9Qt3DInput9QKeyEventC2EN6QEvent4TypeEi6QFlagsIN2Qt16KeyboardModifierEERK7QStringbt
libQt63DInput.so.6:_ZN9Qt3DInput9QKeyEventC2ERK9QKeyEvent
libQt63DInput.so.6:_ZN9Qt3DInput9QKeyEventD0Ev
libQt63DInput.so.6:_ZN9Qt3DInput9QKeyEventD1Ev
libQt63DInput.so.6:_ZN9Qt3DInput9QKeyEventD2Ev
libQt63DInput.so.6:_ZNK9Qt3DInput11QInputChord10metaObjectEv
libQt63DInput.so.6:_ZNK9Qt3DInput11QInputChord6chordsEv
libQt63DInput.so.6:_ZNK9Qt3DInput11QInputChord7timeoutEv
libQt63DInput.so.6:_ZNK9Qt3DInput11QMouseEvent10metaObjectEv
libQt63DInput.so.6:_ZNK9Qt3DInput11QMouseEvent6buttonEv
libQt63DInput.so.6:_ZNK9Qt3DInput11QMouseEvent7buttonsEv
libQt63DInput.so.6:_ZNK9Qt3DInput11QMouseEvent9modifiersEv
libQt63DInput.so.6:_ZNK9Qt3DInput11QWheelEvent10metaObjectEv
libQt63DInput.so.6:_ZNK9Qt3DInput11QWheelEvent7buttonsEv
libQt63DInput.so.6:_ZNK9Qt3DInput11QWheelEvent9modifiersEv
libQt63DInput.so.6:_ZNK9Qt3DInput12QActionInput10metaObjectEv
libQt63DInput.so.6:_ZNK9Qt3DInput12QActionInput12sourceDeviceEv
libQt63DInput.so.6:_ZNK9Qt3DInput12QActionInput7buttonsEv
libQt63DInput.so.6:_ZNK9Qt3DInput12QAxisSetting10metaObjectEv
libQt63DInput.so.6:_ZNK9Qt3DInput12QAxisSetting14deadZoneRadiusEv
libQt63DInput.so.6:_ZNK9Qt3DInput12QAxisSetting15isSmoothEnabledEv
libQt63DInput.so.6:_ZNK9Qt3DInput12QAxisSetting4axesEv
libQt63DInput.so.6:_ZNK9Qt3DInput12QInputAspect10metaObjectEv
libQt63DInput.so.6:_ZNK9Qt3DInput12QInputAspect24availablePhysicalDevicesEv
libQt63DInput.so.6:_ZNK9Qt3DInput12QMouseDevice10metaObjectEv
libQt63DInput.so.6:_ZNK9Qt3DInput12QMouseDevice11buttonCountEv
libQt63DInput.so.6:_ZNK9Qt3DInput12QMouseDevice11buttonNamesEv
libQt63DInput.so.6:_ZNK9Qt3DInput12QMouseDevice11sensitivityEv
libQt63DInput.so.6:_ZNK9Qt3DInput12QMouseDevice14axisIdentifierERK7QString
libQt63DInput.so.6:_ZNK9Qt3DInput12QMouseDevice16buttonIdentifierERK7QString
libQt63DInput.so.6:_ZNK9Qt3DInput12QMouseDevice22updateAxesContinuouslyEv
libQt63DInput.so.6:_ZNK9Qt3DInput12QMouseDevice9axisCountEv
libQt63DInput.so.6:_ZNK9Qt3DInput12QMouseDevice9axisNamesEv
libQt63DInput.so.6:_ZNK9Qt3DInput13QMouseHandler10metaObjectEv
libQt63DInput.so.6:_ZNK9Qt3DInput13QMouseHandler12sourceDeviceEv
libQt63DInput.so.6:_ZNK9Qt3DInput13QMouseHandler13containsMouseEv
libQt63DInput.so.6:_ZNK9Qt3DInput14QInputSequence10metaObjectEv
libQt63DInput.so.6:_ZNK9Qt3DInput14QInputSequence14buttonIntervalEv
libQt63DInput.so.6:_ZNK9Qt3DInput14QInputSequence7timeoutEv
libQt63DInput.so.6:_ZNK9Qt3DInput14QInputSequence9sequencesEv
libQt63DInput.so.6:_ZNK9Qt3DInput14QInputSettings10metaObjectEv
libQt63DInput.so.6:_ZNK9Qt3DInput14QInputSettings11eventSourceEv
libQt63DInput.so.6:_ZNK9Qt3DInput14QLogicalDevice10metaObjectEv
libQt63DInput.so.6:_ZNK9Qt3DInput14QLogicalDevice4axesEv
libQt63DInput.so.6:_ZNK9Qt3DInput14QLogicalDevice7actionsEv
libQt63DInput.so.6:_ZNK9Qt3DInput15QKeyboardDevice10metaObjectEv
libQt63DInput.so.6:_ZNK9Qt3DInput15QKeyboardDevice11activeInputEv
libQt63DInput.so.6:_ZNK9Qt3DInput15QKeyboardDevice11buttonCountEv
libQt63DInput.so.6:_ZNK9Qt3DInput15QKeyboardDevice11buttonNamesEv
libQt63DInput.so.6:_ZNK9Qt3DInput15QKeyboardDevice14axisIdentifierERK7QString
libQt63DInput.so.6:_ZNK9Qt3DInput15QKeyboardDevice16buttonIdentifierERK7QString
libQt63DInput.so.6:_ZNK9Qt3DInput15QKeyboardDevice9axisCountEv
libQt63DInput.so.6:_ZNK9Qt3DInput15QKeyboardDevice9axisNamesEv
libQt63DInput.so.6:_ZNK9Qt3DInput16QAnalogAxisInput10metaObjectEv
libQt63DInput.so.6:_ZNK9Qt3DInput16QAnalogAxisInput4axisEv
libQt63DInput.so.6:_ZNK9Qt3DInput16QAxisAccumulator10metaObjectEv
libQt63DInput.so.6:_ZNK9Qt3DInput16QAxisAccumulator10sourceAxisEv
libQt63DInput.so.6:_ZNK9Qt3DInput16QAxisAccumulator14sourceAxisTypeEv
libQt63DInput.so.6:_ZNK9Qt3DInput16QAxisAccumulator5scaleEv
libQt63DInput.so.6:_ZNK9Qt3DInput16QAxisAccumulator5valueEv
libQt63DInput.so.6:_ZNK9Qt3DInput16QAxisAccumulator8velocityEv
libQt63DInput.so.6:_ZNK9Qt3DInput16QButtonAxisInput10metaObjectEv
libQt63DInput.so.6:_ZNK9Qt3DInput16QButtonAxisInput12accelerationEv
libQt63DInput.so.6:_ZNK9Qt3DInput16QButtonAxisInput12decelerationEv
libQt63DInput.so.6:_ZNK9Qt3DInput16QButtonAxisInput5scaleEv
libQt63DInput.so.6:_ZNK9Qt3DInput16QButtonAxisInput7buttonsEv
libQt63DInput.so.6:_ZNK9Qt3DInput16QKeyboardHandler10metaObjectEv
libQt63DInput.so.6:_ZNK9Qt3DInput16QKeyboardHandler12sourceDeviceEv
libQt63DInput.so.6:_ZNK9Qt3DInput16QKeyboardHandler5focusEv
libQt63DInput.so.6:_ZNK9Qt3DInput18QAbstractAxisInput10metaObjectEv
libQt63DInput.so.6:_ZNK9Qt3DInput18QAbstractAxisInput12sourceDeviceEv
libQt63DInput.so.6:_ZNK9Qt3DInput18QInputDevicePlugin10metaObjectEv
libQt63DInput.so.6:_ZNK9Qt3DInput19QGenericInputDevice10buttonsMapEv
libQt63DInput.so.6:_ZNK9Qt3DInput19QGenericInputDevice10metaObjectEv
libQt63DInput.so.6:_ZNK9Qt3DInput19QGenericInputDevice7axesMapEv
libQt63DInput.so.6:_ZNK9Qt3DInput20QAbstractActionInput10metaObjectEv
libQt63DInput.so.6:_ZNK9Qt3DInput23QAbstractPhysicalDevice10metaObjectEv
libQt63DInput.so.6:_ZNK9Qt3DInput23QAbstractPhysicalDevice11buttonCountEv
libQt63DInput.so.6:_ZNK9Qt3DInput23QAbstractPhysicalDevice11buttonNamesEv
libQt63DInput.so.6:_ZNK9Qt3DInput23QAbstractPhysicalDevice12axisSettingsEv
libQt63DInput.so.6:_ZNK9Qt3DInput23QAbstractPhysicalDevice14axisIdentifierERK7QString
libQt63DInput.so.6:_ZNK9Qt3DInput23QAbstractPhysicalDevice16buttonIdentifierERK7QString
libQt63DInput.so.6:_ZNK9Qt3DInput23QAbstractPhysicalDevice9axisCountEv
libQt63DInput.so.6:_ZNK9Qt3DInput23QAbstractPhysicalDevice9axisNamesEv
libQt63DInput.so.6:_ZNK9Qt3DInput23QInputDeviceIntegration10metaObjectEv
libQt63DInput.so.6:_ZNK9Qt3DInput23QInputDeviceIntegration11inputAspectEv
libQt63DInput.so.6:_ZNK9Qt3DInput28QAbstractPhysicalDeviceProxy10deviceNameEv
libQt63DInput.so.6:_ZNK9Qt3DInput28QAbstractPhysicalDeviceProxy10metaObjectEv
libQt63DInput.so.6:_ZNK9Qt3DInput28QAbstractPhysicalDeviceProxy11buttonCountEv
libQt63DInput.so.6:_ZNK9Qt3DInput28QAbstractPhysicalDeviceProxy11buttonNamesEv
libQt63DInput.so.6:_ZNK9Qt3DInput28QAbstractPhysicalDeviceProxy14axisIdentifierERK7QString
libQt63DInput.so.6:_ZNK9Qt3DInput28QAbstractPhysicalDeviceProxy16buttonIdentifierERK7QString
libQt63DInput.so.6:_ZNK9Qt3DInput28QAbstractPhysicalDeviceProxy6statusEv
libQt63DInput.so.6:_ZNK9Qt3DInput28QAbstractPhysicalDeviceProxy9axisCountEv
libQt63DInput.so.6:_ZNK9Qt3DInput28QAbstractPhysicalDeviceProxy9axisNamesEv
libQt63DInput.so.6:_ZNK9Qt3DInput34QAbstractPhysicalDeviceBackendNode11inputAspectEv
libQt63DInput.so.6:_ZNK9Qt3DInput41QAbstractPhysicalDeviceBackendNodePrivate14getAxisSettingEN8Qt3DCore7QNodeIdE
libQt63DInput.so.6:_ZNK9Qt3DInput5QAxis10metaObjectEv
libQt63DInput.so.6:_ZNK9Qt3DInput5QAxis5valueEv
libQt63DInput.so.6:_ZNK9Qt3DInput5QAxis6inputsEv
libQt63DInput.so.6:_ZNK9Qt3DInput7QAction10metaObjectEv
libQt63DInput.so.6:_ZNK9Qt3DInput7QAction6inputsEv
libQt63DInput.so.6:_ZNK9Qt3DInput7QAction8isActiveEv
libQt63DInput.so.6:_ZNK9Qt3DInput9QKeyEvent10metaObjectEv
libQt63DInput.so.6:_ZTIN9Qt3DInput11QInputChordE
libQt63DInput.so.6:_ZTIN9Qt3DInput11QMouseEventE
libQt63DInput.so.6:_ZTIN9Qt3DInput11QWheelEventE
libQt63DInput.so.6:_ZTIN9Qt3DInput12QActionInputE
libQt63DInput.so.6:_ZTIN9Qt3DInput12QAxisSettingE
libQt63DInput.so.6:_ZTIN9Qt3DInput12QInputAspectE
libQt63DInput.so.6:_ZTIN9Qt3DInput12QMouseDeviceE
libQt63DInput.so.6:_ZTIN9Qt3DInput13QMouseHandlerE
libQt63DInput.so.6:_ZTIN9Qt3DInput14QInputSequenceE
libQt63DInput.so.6:_ZTIN9Qt3DInput14QInputSettingsE
libQt63DInput.so.6:_ZTIN9Qt3DInput14QLogicalDeviceE
libQt63DInput.so.6:_ZTIN9Qt3DInput15QKeyboardDeviceE
libQt63DInput.so.6:_ZTIN9Qt3DInput16QAnalogAxisInputE
libQt63DInput.so.6:_ZTIN9Qt3DInput16QAxisAccumulatorE
libQt63DInput.so.6:_ZTIN9Qt3DInput16QButtonAxisInputE
libQt63DInput.so.6:_ZTIN9Qt3DInput16QKeyboardHandlerE
libQt63DInput.so.6:_ZTIN9Qt3DInput18QAbstractAxisInputE
libQt63DInput.so.6:_ZTIN9Qt3DInput18QInputDevicePluginE
libQt63DInput.so.6:_ZTIN9Qt3DInput19QGenericInputDeviceE
libQt63DInput.so.6:_ZTIN9Qt3DInput20QAbstractActionInputE
libQt63DInput.so.6:_ZTIN9Qt3DInput23QAbstractPhysicalDeviceE
libQt63DInput.so.6:_ZTIN9Qt3DInput23QInputDeviceIntegrationE
libQt63DInput.so.6:_ZTIN9Qt3DInput28QAbstractPhysicalDeviceProxyE
libQt63DInput.so.6:_ZTIN9Qt3DInput30QAbstractPhysicalDevicePrivateE
libQt63DInput.so.6:_ZTIN9Qt3DInput34QAbstractPhysicalDeviceBackendNodeE
libQt63DInput.so.6:_ZTIN9Qt3DInput35QAbstractPhysicalDeviceProxyPrivateE
libQt63DInput.so.6:_ZTIN9Qt3DInput5Input11BackendNodeE
libQt63DInput.so.6:_ZTIN9Qt3DInput5QAxisE
libQt63DInput.so.6:_ZTIN9Qt3DInput7QActionE
libQt63DInput.so.6:_ZTIN9Qt3DInput9QKeyEventE
libQt63DInput.so.6:_ZTSN9Qt3DInput11QInputChordE
libQt63DInput.so.6:_ZTSN9Qt3DInput11QMouseEventE
libQt63DInput.so.6:_ZTSN9Qt3DInput11QWheelEventE
libQt63DInput.so.6:_ZTSN9Qt3DInput12QActionInputE
libQt63DInput.so.6:_ZTSN9Qt3DInput12QAxisSettingE
libQt63DInput.so.6:_ZTSN9Qt3DInput12QInputAspectE
libQt63DInput.so.6:_ZTSN9Qt3DInput12QMouseDeviceE
libQt63DInput.so.6:_ZTSN9Qt3DInput13QMouseHandlerE
libQt63DInput.so.6:_ZTSN9Qt3DInput14QInputSequenceE
libQt63DInput.so.6:_ZTSN9Qt3DInput14QInputSettingsE
libQt63DInput.so.6:_ZTSN9Qt3DInput14QLogicalDeviceE
libQt63DInput.so.6:_ZTSN9Qt3DInput15QKeyboardDeviceE
libQt63DInput.so.6:_ZTSN9Qt3DInput16QAnalogAxisInputE
libQt63DInput.so.6:_ZTSN9Qt3DInput16QAxisAccumulatorE
libQt63DInput.so.6:_ZTSN9Qt3DInput16QButtonAxisInputE
libQt63DInput.so.6:_ZTSN9Qt3DInput16QKeyboardHandlerE
libQt63DInput.so.6:_ZTSN9Qt3DInput18QAbstractAxisInputE
libQt63DInput.so.6:_ZTSN9Qt3DInput18QInputDevicePluginE
libQt63DInput.so.6:_ZTSN9Qt3DInput19QGenericInputDeviceE
libQt63DInput.so.6:_ZTSN9Qt3DInput20QAbstractActionInputE
libQt63DInput.so.6:_ZTSN9Qt3DInput23QAbstractPhysicalDeviceE
libQt63DInput.so.6:_ZTSN9Qt3DInput23QInputDeviceIntegrationE
libQt63DInput.so.6:_ZTSN9Qt3DInput28QAbstractPhysicalDeviceProxyE
libQt63DInput.so.6:_ZTSN9Qt3DInput30QAbstractPhysicalDevicePrivateE
libQt63DInput.so.6:_ZTSN9Qt3DInput34QAbstractPhysicalDeviceBackendNodeE
libQt63DInput.so.6:_ZTSN9Qt3DInput35QAbstractPhysicalDeviceProxyPrivateE
libQt63DInput.so.6:_ZTSN9Qt3DInput5Input11BackendNodeE
libQt63DInput.so.6:_ZTSN9Qt3DInput5QAxisE
libQt63DInput.so.6:_ZTSN9Qt3DInput7QActionE
libQt63DInput.so.6:_ZTSN9Qt3DInput9QKeyEventE
libQt63DInput.so.6:_ZTVN9Qt3DInput11QInputChordE
libQt63DInput.so.6:_ZTVN9Qt3DInput11QMouseEventE
libQt63DInput.so.6:_ZTVN9Qt3DInput11QWheelEventE
libQt63DInput.so.6:_ZTVN9Qt3DInput12QActionInputE
libQt63DInput.so.6:_ZTVN9Qt3DInput12QAxisSettingE
libQt63DInput.so.6:_ZTVN9Qt3DInput12QInputAspectE
libQt63DInput.so.6:_ZTVN9Qt3DInput12QMouseDeviceE
libQt63DInput.so.6:_ZTVN9Qt3DInput13QMouseHandlerE
libQt63DInput.so.6:_ZTVN9Qt3DInput14QInputSequenceE
libQt63DInput.so.6:_ZTVN9Qt3DInput14QInputSettingsE
libQt63DInput.so.6:_ZTVN9Qt3DInput14QLogicalDeviceE
libQt63DInput.so.6:_ZTVN9Qt3DInput15QKeyboardDeviceE
libQt63DInput.so.6:_ZTVN9Qt3DInput16QAnalogAxisInputE
libQt63DInput.so.6:_ZTVN9Qt3DInput16QAxisAccumulatorE
libQt63DInput.so.6:_ZTVN9Qt3DInput16QButtonAxisInputE
libQt63DInput.so.6:_ZTVN9Qt3DInput16QKeyboardHandlerE
libQt63DInput.so.6:_ZTVN9Qt3DInput18QAbstractAxisInputE
libQt63DInput.so.6:_ZTVN9Qt3DInput18QInputDevicePluginE
libQt63DInput.so.6:_ZTVN9Qt3DInput19QGenericInputDeviceE
libQt63DInput.so.6:_ZTVN9Qt3DInput20QAbstractActionInputE
libQt63DInput.so.6:_ZTVN9Qt3DInput23QAbstractPhysicalDeviceE
libQt63DInput.so.6:_ZTVN9Qt3DInput23QInputDeviceIntegrationE
libQt63DInput.so.6:_ZTVN9Qt3DInput28QAbstractPhysicalDeviceProxyE
libQt63DInput.so.6:_ZTVN9Qt3DInput30QAbstractPhysicalDevicePrivateE
libQt63DInput.so.6:_ZTVN9Qt3DInput34QAbstractPhysicalDeviceBackendNodeE
libQt63DInput.so.6:_ZTVN9Qt3DInput35QAbstractPhysicalDeviceProxyPrivateE
libQt63DInput.so.6:_ZTVN9Qt3DInput5Input11BackendNodeE
libQt63DInput.so.6:_ZTVN9Qt3DInput5QAxisE
libQt63DInput.so.6:_ZTVN9Qt3DInput7QActionE
libQt63DInput.so.6:_ZTVN9Qt3DInput9QKeyEventE
libQt63DLogic.so.6:_ZN9Qt3DLogic12QFrameAction11onTriggeredEf
libQt63DLogic.so.6:_ZN9Qt3DLogic12QFrameAction11qt_metacallEN11QMetaObject4CallEiPPv
libQt63DLogic.so.6:_ZN9Qt3DLogic12QFrameAction11qt_metacastEPKc
libQt63DLogic.so.6:_ZN9Qt3DLogic12QFrameAction16staticMetaObjectE
libQt63DLogic.so.6:_ZN9Qt3DLogic12QFrameAction9triggeredEf
libQt63DLogic.so.6:_ZN9Qt3DLogic12QFrameActionC1EPN8Qt3DCore5QNodeE
libQt63DLogic.so.6:_ZN9Qt3DLogic12QFrameActionC1ERNS_19QFrameActionPrivateEPN8Qt3DCore5QNodeE
libQt63DLogic.so.6:_ZN9Qt3DLogic12QFrameActionC2EPN8Qt3DCore5QNodeE
libQt63DLogic.so.6:_ZN9Qt3DLogic12QFrameActionC2ERNS_19QFrameActionPrivateEPN8Qt3DCore5QNodeE
libQt63DLogic.so.6:_ZN9Qt3DLogic12QFrameActionD0Ev
libQt63DLogic.so.6:_ZN9Qt3DLogic12QFrameActionD1Ev
libQt63DLogic.so.6:_ZN9Qt3DLogic12QFrameActionD2Ev
libQt63DLogic.so.6:_ZN9Qt3DLogic12QLogicAspect11qt_metacallEN11QMetaObject4CallEiPPv
libQt63DLogic.so.6:_ZN9Qt3DLogic12QLogicAspect11qt_metacastEPKc
libQt63DLogic.so.6:_ZN9Qt3DLogic12QLogicAspect12onRegisteredEv
libQt63DLogic.so.6:_ZN9Qt3DLogic12QLogicAspect13jobsToExecuteEx
libQt63DLogic.so.6:_ZN9Qt3DLogic12QLogicAspect15onEngineStartupEv
libQt63DLogic.so.6:_ZN9Qt3DLogic12QLogicAspect16staticMetaObjectE
libQt63DLogic.so.6:_ZN9Qt3DLogic12QLogicAspectC1EP7QObject
libQt63DLogic.so.6:_ZN9Qt3DLogic12QLogicAspectC1ERNS_19QLogicAspectPrivateEP7QObject
libQt63DLogic.so.6:_ZN9Qt3DLogic12QLogicAspectC2EP7QObject
libQt63DLogic.so.6:_ZN9Qt3DLogic12QLogicAspectC2ERNS_19QLogicAspectPrivateEP7QObject
libQt63DLogic.so.6:_ZN9Qt3DLogic12QLogicAspectD0Ev
libQt63DLogic.so.6:_ZN9Qt3DLogic12QLogicAspectD1Ev
libQt63DLogic.so.6:_ZN9Qt3DLogic12QLogicAspectD2Ev
libQt63DLogic.so.6:_ZNK9Qt3DLogic12QFrameAction10metaObjectEv
libQt63DLogic.so.6:_ZNK9Qt3DLogic12QLogicAspect10metaObjectEv
libQt63DLogic.so.6:_ZTIN9Qt3DLogic12QFrameActionE
libQt63DLogic.so.6:_ZTIN9Qt3DLogic12QLogicAspectE
libQt63DLogic.so.6:_ZTSN9Qt3DLogic12QFrameActionE
libQt63DLogic.so.6:_ZTSN9Qt3DLogic12QLogicAspectE
libQt63DLogic.so.6:_ZTVN9Qt3DLogic12QFrameActionE
libQt63DLogic.so.6:_ZTVN9Qt3DLogic12QLogicAspectE
libQt63DQuick.so.6:_Z28qml_register_types_Qt3D_Corev
libQt63DQuick.so.6:_ZN8Qt3DCore5Quick11Quick3DNode10childNodesEv
libQt63DQuick.so.6:_ZN8Qt3DCore5Quick11Quick3DNode11qt_metacallEN11QMetaObject4CallEiPPv
libQt63DQuick.so.6:_ZN8Qt3DCore5Quick11Quick3DNode11qt_metacastEPKc
libQt63DQuick.so.6:_ZN8Qt3DCore5Quick11Quick3DNode12childRemovedEiP7QObject
libQt63DQuick.so.6:_ZN8Qt3DCore5Quick11Quick3DNode13childAppendedEiP7QObject
libQt63DQuick.so.6:_ZN8Qt3DCore5Quick11Quick3DNode16staticMetaObjectE
libQt63DQuick.so.6:_ZN8Qt3DCore5Quick11Quick3DNode4dataEv
libQt63DQuick.so.6:_ZN8Qt3DCore5Quick11Quick3DNodeC1EP7QObject
libQt63DQuick.so.6:_ZN8Qt3DCore5Quick11Quick3DNodeC2EP7QObject
libQt63DQuick.so.6:_ZN8Qt3DCore5Quick12Quick3DJoint11childJointsEv
libQt63DQuick.so.6:_ZN8Qt3DCore5Quick12Quick3DJoint11qt_metacallEN11QMetaObject4CallEiPPv
libQt63DQuick.so.6:_ZN8Qt3DCore5Quick12Quick3DJoint11qt_metacastEPKc
libQt63DQuick.so.6:_ZN8Qt3DCore5Quick12Quick3DJoint16staticMetaObjectE
libQt63DQuick.so.6:_ZN8Qt3DCore5Quick12Quick3DJointC1EP7QObject
libQt63DQuick.so.6:_ZN8Qt3DCore5Quick12Quick3DJointC2EP7QObject
libQt63DQuick.so.6:_ZN8Qt3DCore5Quick13Quick3DBuffer10updateDataEiRK8QVariant
libQt63DQuick.so.6:_ZN8Qt3DCore5Quick13Quick3DBuffer11initEnginesEv
libQt63DQuick.so.6:_ZN8Qt3DCore5Quick13Quick3DBuffer11qt_metacallEN11QMetaObject4CallEiPPv
libQt63DQuick.so.6:_ZN8Qt3DCore5Quick13Quick3DBuffer11qt_metacastEPKc
libQt63DQuick.so.6:_ZN8Qt3DCore5Quick13Quick3DBuffer13setBufferDataERK8QVariant
libQt63DQuick.so.6:_ZN8Qt3DCore5Quick13Quick3DBuffer14readBinaryFileERK4QUrl
libQt63DQuick.so.6:_ZN8Qt3DCore5Quick13Quick3DBuffer16convertToRawDataERK8QJSValue
libQt63DQuick.so.6:_ZN8Qt3DCore5Quick13Quick3DBuffer16staticMetaObjectE
libQt63DQuick.so.6:_ZN8Qt3DCore5Quick13Quick3DBuffer17bufferDataChangedEv
libQt63DQuick.so.6:_ZN8Qt3DCore5Quick13Quick3DBufferC1EPNS_5QNodeE
libQt63DQuick.so.6:_ZN8Qt3DCore5Quick13Quick3DBufferC2EPNS_5QNodeE
libQt63DQuick.so.6:_ZN8Qt3DCore5Quick13Quick3DEntity11qt_metacallEN11QMetaObject4CallEiPPv
libQt63DQuick.so.6:_ZN8Qt3DCore5Quick13Quick3DEntity11qt_metacastEPKc
libQt63DQuick.so.6:_ZN8Qt3DCore5Quick13Quick3DEntity13componentListEv
libQt63DQuick.so.6:_ZN8Qt3DCore5Quick13Quick3DEntity16staticMetaObjectE
libQt63DQuick.so.6:_ZN8Qt3DCore5Quick13Quick3DEntityC1EP7QObject
libQt63DQuick.so.6:_ZN8Qt3DCore5Quick13Quick3DEntityC2EP7QObject
libQt63DQuick.so.6:_ZN8Qt3DCore5Quick15Quick3DGeometry11qt_metacallEN11QMetaObject4CallEiPPv
libQt63DQuick.so.6:_ZN8Qt3DCore5Quick15Quick3DGeometry11qt_metacastEPKc
libQt63DQuick.so.6:_ZN8Qt3DCore5Quick15Quick3DGeometry13attributeListEv
libQt63DQuick.so.6:_ZN8Qt3DCore5Quick15Quick3DGeometry16staticMetaObjectE
libQt63DQuick.so.6:_ZN8Qt3DCore5Quick15Quick3DGeometryC1EP7QObject
libQt63DQuick.so.6:_ZN8Qt3DCore5Quick15Quick3DGeometryC2EP7QObject
libQt63DQuick.so.6:_ZN8Qt3DCore5Quick16QQmlAspectEngine11qt_metacallEN11QMetaObject4CallEiPPv
libQt63DQuick.so.6:_ZN8Qt3DCore5Quick16QQmlAspectEngine11qt_metacastEPKc
libQt63DQuick.so.6:_ZN8Qt3DCore5Quick16QQmlAspectEngine12sceneCreatedEP7QObject
libQt63DQuick.so.6:_ZN8Qt3DCore5Quick16QQmlAspectEngine13statusChangedENS1_6StatusE
libQt63DQuick.so.6:_ZN8Qt3DCore5Quick16QQmlAspectEngine16staticMetaObjectE
libQt63DQuick.so.6:_ZN8Qt3DCore5Quick16QQmlAspectEngine9setSourceERK4QUrl
libQt63DQuick.so.6:_ZN8Qt3DCore5Quick16QQmlAspectEngineC1EP7QObject
libQt63DQuick.so.6:_ZN8Qt3DCore5Quick16QQmlAspectEngineC2EP7QObject
libQt63DQuick.so.6:_ZN8Qt3DCore5Quick16QQmlAspectEngineD0Ev
libQt63DQuick.so.6:_ZN8Qt3DCore5Quick16QQmlAspectEngineD1Ev
libQt63DQuick.so.6:_ZN8Qt3DCore5Quick16QQmlAspectEngineD2Ev
libQt63DQuick.so.6:_ZN8Qt3DCore5Quick18Quick3D_initializeEv
libQt63DQuick.so.6:_ZN8Qt3DCore5Quick19Quick3DEntityLoader11qt_metacallEN11QMetaObject4CallEiPPv
libQt63DQuick.so.6:_ZN8Qt3DCore5Quick19Quick3DEntityLoader11qt_metacastEPKc
libQt63DQuick.so.6:_ZN8Qt3DCore5Quick19Quick3DEntityLoader13entityChangedEv
libQt63DQuick.so.6:_ZN8Qt3DCore5Quick19Quick3DEntityLoader13sourceChangedEv
libQt63DQuick.so.6:_ZN8Qt3DCore5Quick19Quick3DEntityLoader13statusChangedENS1_6StatusE
libQt63DQuick.so.6:_ZN8Qt3DCore5Quick19Quick3DEntityLoader16staticMetaObjectE
libQt63DQuick.so.6:_ZN8Qt3DCore5Quick19Quick3DEntityLoader18setSourceComponentEP13QQmlComponent
libQt63DQuick.so.6:_ZN8Qt3DCore5Quick19Quick3DEntityLoader22sourceComponentChangedEv
libQt63DQuick.so.6:_ZN8Qt3DCore5Quick19Quick3DEntityLoader9setSourceERK4QUrl
libQt63DQuick.so.6:_ZN8Qt3DCore5Quick19Quick3DEntityLoaderC1EPNS_5QNodeE
libQt63DQuick.so.6:_ZN8Qt3DCore5Quick19Quick3DEntityLoaderC2EPNS_5QNodeE
libQt63DQuick.so.6:_ZN8Qt3DCore5Quick19Quick3DEntityLoaderD0Ev
libQt63DQuick.so.6:_ZN8Qt3DCore5Quick19Quick3DEntityLoaderD1Ev
libQt63DQuick.so.6:_ZN8Qt3DCore5Quick19Quick3DEntityLoaderD2Ev
libQt63DQuick.so.6:_ZN8Qt3DCore5Quick20QQuaternionAnimation11qt_metacallEN11QMetaObject4CallEiPPv
libQt63DQuick.so.6:_ZN8Qt3DCore5Quick20QQuaternionAnimation11qt_metacastEPKc
libQt63DQuick.so.6:_ZN8Qt3DCore5Quick20QQuaternionAnimation11typeChangedENS1_4TypeE
libQt63DQuick.so.6:_ZN8Qt3DCore5Quick20QQuaternionAnimation14setToXRotationEf
libQt63DQuick.so.6:_ZN8Qt3DCore5Quick20QQuaternionAnimation14setToYRotationEf
libQt63DQuick.so.6:_ZN8Qt3DCore5Quick20QQuaternionAnimation14setToZRotationEf
libQt63DQuick.so.6:_ZN8Qt3DCore5Quick20QQuaternionAnimation16setFromXRotationEf
libQt63DQuick.so.6:_ZN8Qt3DCore5Quick20QQuaternionAnimation16setFromYRotationEf
libQt63DQuick.so.6:_ZN8Qt3DCore5Quick20QQuaternionAnimation16setFromZRotationEf
libQt63DQuick.so.6:_ZN8Qt3DCore5Quick20QQuaternionAnimation16staticMetaObjectE
libQt63DQuick.so.6:_ZN8Qt3DCore5Quick20QQuaternionAnimation18toXRotationChangedEf
libQt63DQuick.so.6:_ZN8Qt3DCore5Quick20QQuaternionAnimation18toYRotationChangedEf
libQt63DQuick.so.6:_ZN8Qt3DCore5Quick20QQuaternionAnimation18toZRotationChangedEf
libQt63DQuick.so.6:_ZN8Qt3DCore5Quick20QQuaternionAnimation20fromXRotationChangedEf
libQt63DQuick.so.6:_ZN8Qt3DCore5Quick20QQuaternionAnimation20fromYRotationChangedEf
libQt63DQuick.so.6:_ZN8Qt3DCore5Quick20QQuaternionAnimation20fromZRotationChangedEf
libQt63DQuick.so.6:_ZN8Qt3DCore5Quick20QQuaternionAnimation5setToERK11QQuaternion
libQt63DQuick.so.6:_ZN8Qt3DCore5Quick20QQuaternionAnimation7setFromERK11QQuaternion
libQt63DQuick.so.6:_ZN8Qt3DCore5Quick20QQuaternionAnimation7setTypeENS1_4TypeE
libQt63DQuick.so.6:_ZN8Qt3DCore5Quick20QQuaternionAnimationC1EP7QObject
libQt63DQuick.so.6:_ZN8Qt3DCore5Quick20QQuaternionAnimationC2EP7QObject
libQt63DQuick.so.6:_ZN8Qt3DCore5Quick20Quick3D_registerTypeEPKcS2_ii
libQt63DQuick.so.6:_ZN8Qt3DCore5Quick20Quick3D_uninitializeEv
libQt63DQuick.so.6:_ZN8Qt3DCore5Quick22QQuick3DColorValueType11setHsvValueEd
libQt63DQuick.so.6:_ZN8Qt3DCore5Quick22QQuick3DColorValueType15setHslLightnessEd
libQt63DQuick.so.6:_ZN8Qt3DCore5Quick22QQuick3DColorValueType16setHslSaturationEd
libQt63DQuick.so.6:_ZN8Qt3DCore5Quick22QQuick3DColorValueType16setHsvSaturationEd
libQt63DQuick.so.6:_ZN8Qt3DCore5Quick22QQuick3DColorValueType16staticMetaObjectE
libQt63DQuick.so.6:_ZN8Qt3DCore5Quick22QQuick3DColorValueType4setAEd
libQt63DQuick.so.6:_ZN8Qt3DCore5Quick22QQuick3DColorValueType4setBEd
libQt63DQuick.so.6:_ZN8Qt3DCore5Quick22QQuick3DColorValueType4setGEd
libQt63DQuick.so.6:_ZN8Qt3DCore5Quick22QQuick3DColorValueType4setREd
libQt63DQuick.so.6:_ZN8Qt3DCore5Quick22QQuick3DColorValueType6createERK8QJSValue
libQt63DQuick.so.6:_ZN8Qt3DCore5Quick22QQuick3DColorValueType9setHslHueEd
libQt63DQuick.so.6:_ZN8Qt3DCore5Quick22QQuick3DColorValueType9setHsvHueEd
libQt63DQuick.so.6:_ZN8Qt3DCore5Quick23Quick3DNodeInstantiator10classBeginEv
libQt63DQuick.so.6:_ZN8Qt3DCore5Quick23Quick3DNodeInstantiator11objectAddedEiP7QObject
libQt63DQuick.so.6:_ZN8Qt3DCore5Quick23Quick3DNodeInstantiator11qt_metacallEN11QMetaObject4CallEiPPv
libQt63DQuick.so.6:_ZN8Qt3DCore5Quick23Quick3DNodeInstantiator11qt_metacastEPKc
libQt63DQuick.so.6:_ZN8Qt3DCore5Quick23Quick3DNodeInstantiator11setDelegateEP13QQmlComponent
libQt63DQuick.so.6:_ZN8Qt3DCore5Quick23Quick3DNodeInstantiator12countChangedEv
libQt63DQuick.so.6:_ZN8Qt3DCore5Quick23Quick3DNodeInstantiator12modelChangedEv
libQt63DQuick.so.6:_ZN8Qt3DCore5Quick23Quick3DNodeInstantiator13activeChangedEv
libQt63DQuick.so.6:_ZN8Qt3DCore5Quick23Quick3DNodeInstantiator13objectChangedEv
libQt63DQuick.so.6:_ZN8Qt3DCore5Quick23Quick3DNodeInstantiator13objectRemovedEiP7QObject
libQt63DQuick.so.6:_ZN8Qt3DCore5Quick23Quick3DNodeInstantiator15delegateChangedEv
libQt63DQuick.so.6:_ZN8Qt3DCore5Quick23Quick3DNodeInstantiator15onParentChangedEP7QObject
libQt63DQuick.so.6:_ZN8Qt3DCore5Quick23Quick3DNodeInstantiator16staticMetaObjectE
libQt63DQuick.so.6:_ZN8Qt3DCore5Quick23Quick3DNodeInstantiator17componentCompleteEv
libQt63DQuick.so.6:_ZN8Qt3DCore5Quick23Quick3DNodeInstantiator19asynchronousChangedEv
libQt63DQuick.so.6:_ZN8Qt3DCore5Quick23Quick3DNodeInstantiator8delegateEv
libQt63DQuick.so.6:_ZN8Qt3DCore5Quick23Quick3DNodeInstantiator8setAsyncEb
libQt63DQuick.so.6:_ZN8Qt3DCore5Quick23Quick3DNodeInstantiator8setModelERK8QVariant
libQt63DQuick.so.6:_ZN8Qt3DCore5Quick23Quick3DNodeInstantiator9setActiveEb
libQt63DQuick.so.6:_ZN8Qt3DCore5Quick23Quick3DNodeInstantiatorC1EPNS_5QNodeE
libQt63DQuick.so.6:_ZN8Qt3DCore5Quick23Quick3DNodeInstantiatorC2EPNS_5QNodeE
libQt63DQuick.so.6:_ZN8Qt3DCore5Quick24q_quaternionInterpolatorERK11QQuaternionS3_d
libQt63DQuick.so.6:_ZN8Qt3DCore5Quick25QQuick3DVector2DValueType16staticMetaObjectE
libQt63DQuick.so.6:_ZN8Qt3DCore5Quick25QQuick3DVector2DValueType4setXEd
libQt63DQuick.so.6:_ZN8Qt3DCore5Quick25QQuick3DVector2DValueType4setYEd
libQt63DQuick.so.6:_ZN8Qt3DCore5Quick25QQuick3DVector2DValueType6createERK8QJSValue
libQt63DQuick.so.6:_ZN8Qt3DCore5Quick25QQuick3DVector3DValueType16staticMetaObjectE
libQt63DQuick.so.6:_ZN8Qt3DCore5Quick25QQuick3DVector3DValueType4setXEd
libQt63DQuick.so.6:_ZN8Qt3DCore5Quick25QQuick3DVector3DValueType4setYEd
libQt63DQuick.so.6:_ZN8Qt3DCore5Quick25QQuick3DVector3DValueType4setZEd
libQt63DQuick.so.6:_ZN8Qt3DCore5Quick25QQuick3DVector3DValueType6createERK8QJSValue
libQt63DQuick.so.6:_ZN8Qt3DCore5Quick25QQuick3DVector4DValueType16staticMetaObjectE
libQt63DQuick.so.6:_ZN8Qt3DCore5Quick25QQuick3DVector4DValueType4setWEd
libQt63DQuick.so.6:_ZN8Qt3DCore5Quick25QQuick3DVector4DValueType4setXEd
libQt63DQuick.so.6:_ZN8Qt3DCore5Quick25QQuick3DVector4DValueType4setYEd
libQt63DQuick.so.6:_ZN8Qt3DCore5Quick25QQuick3DVector4DValueType4setZEd
libQt63DQuick.so.6:_ZN8Qt3DCore5Quick25QQuick3DVector4DValueType6createERK8QJSValue
libQt63DQuick.so.6:_ZN8Qt3DCore5Quick26QQuick3DMatrix4x4ValueType16staticMetaObjectE
libQt63DQuick.so.6:_ZN8Qt3DCore5Quick26QQuick3DMatrix4x4ValueType6createERK8QJSValue
libQt63DQuick.so.6:_ZN8Qt3DCore5Quick27QQuick3DQuaternionValueType16staticMetaObjectE
libQt63DQuick.so.6:_ZN8Qt3DCore5Quick27QQuick3DQuaternionValueType4setXEd
libQt63DQuick.so.6:_ZN8Qt3DCore5Quick27QQuick3DQuaternionValueType4setYEd
libQt63DQuick.so.6:_ZN8Qt3DCore5Quick27QQuick3DQuaternionValueType4setZEd
libQt63DQuick.so.6:_ZN8Qt3DCore5Quick27QQuick3DQuaternionValueType6createERK8QJSValue
libQt63DQuick.so.6:_ZN8Qt3DCore5Quick27QQuick3DQuaternionValueType9setScalarEd
libQt63DQuick.so.6:_ZNK8Qt3DCore5Quick11Quick3DNode10metaObjectEv
libQt63DQuick.so.6:_ZNK8Qt3DCore5Quick12Quick3DJoint10metaObjectEv
libQt63DQuick.so.6:_ZNK8Qt3DCore5Quick13Quick3DBuffer10bufferDataEv
libQt63DQuick.so.6:_ZNK8Qt3DCore5Quick13Quick3DBuffer10metaObjectEv
libQt63DQuick.so.6:_ZNK8Qt3DCore5Quick13Quick3DEntity10metaObjectEv
libQt63DQuick.so.6:_ZNK8Qt3DCore5Quick15Quick3DGeometry10metaObjectEv
libQt63DQuick.so.6:_ZNK8Qt3DCore5Quick16QQmlAspectEngine10metaObjectEv
libQt63DQuick.so.6:_ZNK8Qt3DCore5Quick16QQmlAspectEngine12aspectEngineEv
libQt63DQuick.so.6:_ZNK8Qt3DCore5Quick16QQmlAspectEngine6statusEv
libQt63DQuick.so.6:_ZNK8Qt3DCore5Quick16QQmlAspectEngine9qmlEngineEv
libQt63DQuick.so.6:_ZNK8Qt3DCore5Quick19Quick3DEntityLoader10metaObjectEv
libQt63DQuick.so.6:_ZNK8Qt3DCore5Quick19Quick3DEntityLoader15sourceComponentEv
libQt63DQuick.so.6:_ZNK8Qt3DCore5Quick19Quick3DEntityLoader6entityEv
libQt63DQuick.so.6:_ZNK8Qt3DCore5Quick19Quick3DEntityLoader6sourceEv
libQt63DQuick.so.6:_ZNK8Qt3DCore5Quick19Quick3DEntityLoader6statusEv
libQt63DQuick.so.6:_ZNK8Qt3DCore5Quick20QQuaternionAnimation10metaObjectEv
libQt63DQuick.so.6:_ZNK8Qt3DCore5Quick20QQuaternionAnimation11toXRotationEv
libQt63DQuick.so.6:_ZNK8Qt3DCore5Quick20QQuaternionAnimation11toYRotationEv
libQt63DQuick.so.6:_ZNK8Qt3DCore5Quick20QQuaternionAnimation11toZRotationEv
libQt63DQuick.so.6:_ZNK8Qt3DCore5Quick20QQuaternionAnimation13fromXRotationEv
libQt63DQuick.so.6:_ZNK8Qt3DCore5Quick20QQuaternionAnimation13fromYRotationEv
libQt63DQuick.so.6:_ZNK8Qt3DCore5Quick20QQuaternionAnimation13fromZRotationEv
libQt63DQuick.so.6:_ZNK8Qt3DCore5Quick20QQuaternionAnimation2toEv
libQt63DQuick.so.6:_ZNK8Qt3DCore5Quick20QQuaternionAnimation4fromEv
libQt63DQuick.so.6:_ZNK8Qt3DCore5Quick20QQuaternionAnimation4typeEv
libQt63DQuick.so.6:_ZNK8Qt3DCore5Quick22QQuick3DColorValueType12hslLightnessEv
libQt63DQuick.so.6:_ZNK8Qt3DCore5Quick22QQuick3DColorValueType13hslSaturationEv
libQt63DQuick.so.6:_ZNK8Qt3DCore5Quick22QQuick3DColorValueType13hsvSaturationEv
libQt63DQuick.so.6:_ZNK8Qt3DCore5Quick22QQuick3DColorValueType1aEv
libQt63DQuick.so.6:_ZNK8Qt3DCore5Quick22QQuick3DColorValueType1bEv
libQt63DQuick.so.6:_ZNK8Qt3DCore5Quick22QQuick3DColorValueType1gEv
libQt63DQuick.so.6:_ZNK8Qt3DCore5Quick22QQuick3DColorValueType1rEv
libQt63DQuick.so.6:_ZNK8Qt3DCore5Quick22QQuick3DColorValueType4tintE8QVariant
libQt63DQuick.so.6:_ZNK8Qt3DCore5Quick22QQuick3DColorValueType5alphaEd
libQt63DQuick.so.6:_ZNK8Qt3DCore5Quick22QQuick3DColorValueType6darkerEd
libQt63DQuick.so.6:_ZNK8Qt3DCore5Quick22QQuick3DColorValueType6hslHueEv
libQt63DQuick.so.6:_ZNK8Qt3DCore5Quick22QQuick3DColorValueType6hsvHueEv
libQt63DQuick.so.6:_ZNK8Qt3DCore5Quick22QQuick3DColorValueType7isValidEv
libQt63DQuick.so.6:_ZNK8Qt3DCore5Quick22QQuick3DColorValueType7lighterEd
libQt63DQuick.so.6:_ZNK8Qt3DCore5Quick22QQuick3DColorValueType8hsvValueEv
libQt63DQuick.so.6:_ZNK8Qt3DCore5Quick22QQuick3DColorValueType8toStringEv
libQt63DQuick.so.6:_ZNK8Qt3DCore5Quick23Quick3DNodeInstantiator10metaObjectEv
libQt63DQuick.so.6:_ZNK8Qt3DCore5Quick23Quick3DNodeInstantiator5countEv
libQt63DQuick.so.6:_ZNK8Qt3DCore5Quick23Quick3DNodeInstantiator5modelEv
libQt63DQuick.so.6:_ZNK8Qt3DCore5Quick23Quick3DNodeInstantiator6objectEv
libQt63DQuick.so.6:_ZNK8Qt3DCore5Quick23Quick3DNodeInstantiator7isAsyncEv
libQt63DQuick.so.6:_ZNK8Qt3DCore5Quick23Quick3DNodeInstantiator8isActiveEv
libQt63DQuick.so.6:_ZNK8Qt3DCore5Quick23Quick3DNodeInstantiator8objectAtEi
libQt63DQuick.so.6:_ZNK8Qt3DCore5Quick25QQuick3DVector2DValueType10dotProductERK9QVector2D
libQt63DQuick.so.6:_ZNK8Qt3DCore5Quick25QQuick3DVector2DValueType10normalizedEv
libQt63DQuick.so.6:_ZNK8Qt3DCore5Quick25QQuick3DVector2DValueType10toVector3dEv
libQt63DQuick.so.6:_ZNK8Qt3DCore5Quick25QQuick3DVector2DValueType10toVector4dEv
libQt63DQuick.so.6:_ZNK8Qt3DCore5Quick25QQuick3DVector2DValueType11fuzzyEqualsERK9QVector2D
libQt63DQuick.so.6:_ZNK8Qt3DCore5Quick25QQuick3DVector2DValueType11fuzzyEqualsERK9QVector2Dd
libQt63DQuick.so.6:_ZNK8Qt3DCore5Quick25QQuick3DVector2DValueType1xEv
libQt63DQuick.so.6:_ZNK8Qt3DCore5Quick25QQuick3DVector2DValueType1yEv
libQt63DQuick.so.6:_ZNK8Qt3DCore5Quick25QQuick3DVector2DValueType4plusERK9QVector2D
libQt63DQuick.so.6:_ZNK8Qt3DCore5Quick25QQuick3DVector2DValueType5minusERK9QVector2D
libQt63DQuick.so.6:_ZNK8Qt3DCore5Quick25QQuick3DVector2DValueType5timesERK9QVector2D
libQt63DQuick.so.6:_ZNK8Qt3DCore5Quick25QQuick3DVector2DValueType5timesEd
libQt63DQuick.so.6:_ZNK8Qt3DCore5Quick25QQuick3DVector2DValueType6lengthEv
libQt63DQuick.so.6:_ZNK8Qt3DCore5Quick25QQuick3DVector2DValueType8toStringEv
libQt63DQuick.so.6:_ZNK8Qt3DCore5Quick25QQuick3DVector3DValueType10dotProductERK9QVector3D
libQt63DQuick.so.6:_ZNK8Qt3DCore5Quick25QQuick3DVector3DValueType10normalizedEv
libQt63DQuick.so.6:_ZNK8Qt3DCore5Quick25QQuick3DVector3DValueType10toVector2dEv
libQt63DQuick.so.6:_ZNK8Qt3DCore5Quick25QQuick3DVector3DValueType10toVector4dEv
libQt63DQuick.so.6:_ZNK8Qt3DCore5Quick25QQuick3DVector3DValueType11fuzzyEqualsERK9QVector3D
libQt63DQuick.so.6:_ZNK8Qt3DCore5Quick25QQuick3DVector3DValueType11fuzzyEqualsERK9QVector3Dd
libQt63DQuick.so.6:_ZNK8Qt3DCore5Quick25QQuick3DVector3DValueType12crossProductERK9QVector3D
libQt63DQuick.so.6:_ZNK8Qt3DCore5Quick25QQuick3DVector3DValueType1xEv
libQt63DQuick.so.6:_ZNK8Qt3DCore5Quick25QQuick3DVector3DValueType1yEv
libQt63DQuick.so.6:_ZNK8Qt3DCore5Quick25QQuick3DVector3DValueType1zEv
libQt63DQuick.so.6:_ZNK8Qt3DCore5Quick25QQuick3DVector3DValueType4plusERK9QVector3D
libQt63DQuick.so.6:_ZNK8Qt3DCore5Quick25QQuick3DVector3DValueType5minusERK9QVector3D
libQt63DQuick.so.6:_ZNK8Qt3DCore5Quick25QQuick3DVector3DValueType5timesERK10QMatrix4x4
libQt63DQuick.so.6:_ZNK8Qt3DCore5Quick25QQuick3DVector3DValueType5timesERK9QVector3D
libQt63DQuick.so.6:_ZNK8Qt3DCore5Quick25QQuick3DVector3DValueType5timesEd
libQt63DQuick.so.6:_ZNK8Qt3DCore5Quick25QQuick3DVector3DValueType6lengthEv
libQt63DQuick.so.6:_ZNK8Qt3DCore5Quick25QQuick3DVector3DValueType8toStringEv
libQt63DQuick.so.6:_ZNK8Qt3DCore5Quick25QQuick3DVector4DValueType10dotProductERK9QVector4D
libQt63DQuick.so.6:_ZNK8Qt3DCore5Quick25QQuick3DVector4DValueType10normalizedEv
libQt63DQuick.so.6:_ZNK8Qt3DCore5Quick25QQuick3DVector4DValueType10toVector2dEv
libQt63DQuick.so.6:_ZNK8Qt3DCore5Quick25QQuick3DVector4DValueType10toVector3dEv
libQt63DQuick.so.6:_ZNK8Qt3DCore5Quick25QQuick3DVector4DValueType11fuzzyEqualsERK9QVector4D
libQt63DQuick.so.6:_ZNK8Qt3DCore5Quick25QQuick3DVector4DValueType11fuzzyEqualsERK9QVector4Dd
libQt63DQuick.so.6:_ZNK8Qt3DCore5Quick25QQuick3DVector4DValueType1wEv
libQt63DQuick.so.6:_ZNK8Qt3DCore5Quick25QQuick3DVector4DValueType1xEv
libQt63DQuick.so.6:_ZNK8Qt3DCore5Quick25QQuick3DVector4DValueType1yEv
libQt63DQuick.so.6:_ZNK8Qt3DCore5Quick25QQuick3DVector4DValueType1zEv
libQt63DQuick.so.6:_ZNK8Qt3DCore5Quick25QQuick3DVector4DValueType4plusERK9QVector4D
libQt63DQuick.so.6:_ZNK8Qt3DCore5Quick25QQuick3DVector4DValueType5minusERK9QVector4D
libQt63DQuick.so.6:_ZNK8Qt3DCore5Quick25QQuick3DVector4DValueType5timesERK10QMatrix4x4
libQt63DQuick.so.6:_ZNK8Qt3DCore5Quick25QQuick3DVector4DValueType5timesERK9QVector4D
libQt63DQuick.so.6:_ZNK8Qt3DCore5Quick25QQuick3DVector4DValueType5timesEd
libQt63DQuick.so.6:_ZNK8Qt3DCore5Quick25QQuick3DVector4DValueType6lengthEv
libQt63DQuick.so.6:_ZNK8Qt3DCore5Quick25QQuick3DVector4DValueType8toStringEv
libQt63DQuick.so.6:_ZNK8Qt3DCore5Quick26QQuick3DMatrix4x4ValueType10transposedEv
libQt63DQuick.so.6:_ZNK8Qt3DCore5Quick26QQuick3DMatrix4x4ValueType11determinantEv
libQt63DQuick.so.6:_ZNK8Qt3DCore5Quick26QQuick3DMatrix4x4ValueType11fuzzyEqualsERK10QMatrix4x4
libQt63DQuick.so.6:_ZNK8Qt3DCore5Quick26QQuick3DMatrix4x4ValueType11fuzzyEqualsERK10QMatrix4x4d
libQt63DQuick.so.6:_ZNK8Qt3DCore5Quick26QQuick3DMatrix4x4ValueType3rowEi
libQt63DQuick.so.6:_ZNK8Qt3DCore5Quick26QQuick3DMatrix4x4ValueType4plusERK10QMatrix4x4
libQt63DQuick.so.6:_ZNK8Qt3DCore5Quick26QQuick3DMatrix4x4ValueType5minusERK10QMatrix4x4
libQt63DQuick.so.6:_ZNK8Qt3DCore5Quick26QQuick3DMatrix4x4ValueType5timesERK10QMatrix4x4
libQt63DQuick.so.6:_ZNK8Qt3DCore5Quick26QQuick3DMatrix4x4ValueType5timesERK9QVector3D
libQt63DQuick.so.6:_ZNK8Qt3DCore5Quick26QQuick3DMatrix4x4ValueType5timesERK9QVector4D
libQt63DQuick.so.6:_ZNK8Qt3DCore5Quick26QQuick3DMatrix4x4ValueType5timesEd
libQt63DQuick.so.6:_ZNK8Qt3DCore5Quick26QQuick3DMatrix4x4ValueType6columnEi
libQt63DQuick.so.6:_ZNK8Qt3DCore5Quick26QQuick3DMatrix4x4ValueType8invertedEv
libQt63DQuick.so.6:_ZNK8Qt3DCore5Quick27QQuick3DQuaternionValueType1xEv
libQt63DQuick.so.6:_ZNK8Qt3DCore5Quick27QQuick3DQuaternionValueType1yEv
libQt63DQuick.so.6:_ZNK8Qt3DCore5Quick27QQuick3DQuaternionValueType1zEv
libQt63DQuick.so.6:_ZNK8Qt3DCore5Quick27QQuick3DQuaternionValueType6scalarEv
libQt63DQuick.so.6:_ZNK8Qt3DCore5Quick27QQuick3DQuaternionValueType8toStringEv
libQt63DQuick.so.6:_ZTIN8Qt3DCore5Quick11Quick3DNodeE
libQt63DQuick.so.6:_ZTIN8Qt3DCore5Quick12Quick3DJointE
libQt63DQuick.so.6:_ZTIN8Qt3DCore5Quick13Quick3DBufferE
libQt63DQuick.so.6:_ZTIN8Qt3DCore5Quick13Quick3DEntityE
libQt63DQuick.so.6:_ZTIN8Qt3DCore5Quick15Quick3DGeometryE
libQt63DQuick.so.6:_ZTIN8Qt3DCore5Quick16QQmlAspectEngineE
libQt63DQuick.so.6:_ZTIN8Qt3DCore5Quick19Quick3DEntityLoaderE
libQt63DQuick.so.6:_ZTIN8Qt3DCore5Quick20QQuaternionAnimationE
libQt63DQuick.so.6:_ZTIN8Qt3DCore5Quick23Quick3DNodeInstantiatorE
libQt63DQuick.so.6:_ZTSN8Qt3DCore5Quick11Quick3DNodeE
libQt63DQuick.so.6:_ZTSN8Qt3DCore5Quick12Quick3DJointE
libQt63DQuick.so.6:_ZTSN8Qt3DCore5Quick13Quick3DBufferE
libQt63DQuick.so.6:_ZTSN8Qt3DCore5Quick13Quick3DEntityE
libQt63DQuick.so.6:_ZTSN8Qt3DCore5Quick15Quick3DGeometryE
libQt63DQuick.so.6:_ZTSN8Qt3DCore5Quick16QQmlAspectEngineE
libQt63DQuick.so.6:_ZTSN8Qt3DCore5Quick19Quick3DEntityLoaderE
libQt63DQuick.so.6:_ZTSN8Qt3DCore5Quick20QQuaternionAnimationE
libQt63DQuick.so.6:_ZTSN8Qt3DCore5Quick23Quick3DNodeInstantiatorE
libQt63DQuick.so.6:_ZTVN8Qt3DCore5Quick11Quick3DNodeE
libQt63DQuick.so.6:_ZTVN8Qt3DCore5Quick12Quick3DJointE
libQt63DQuick.so.6:_ZTVN8Qt3DCore5Quick13Quick3DBufferE
libQt63DQuick.so.6:_ZTVN8Qt3DCore5Quick13Quick3DEntityE
libQt63DQuick.so.6:_ZTVN8Qt3DCore5Quick15Quick3DGeometryE
libQt63DQuick.so.6:_ZTVN8Qt3DCore5Quick16QQmlAspectEngineE
libQt63DQuick.so.6:_ZTVN8Qt3DCore5Quick19Quick3DEntityLoaderE
libQt63DQuick.so.6:_ZTVN8Qt3DCore5Quick20QQuaternionAnimationE
libQt63DQuick.so.6:_ZTVN8Qt3DCore5Quick23Quick3DNodeInstantiatorE
libQt63DQuick.so.6:_ZThn16_N8Qt3DCore5Quick23Quick3DNodeInstantiator10classBeginEv
libQt63DQuick.so.6:_ZThn16_N8Qt3DCore5Quick23Quick3DNodeInstantiator17componentCompleteEv
libQt63DQuickAnimation.so.6:_Z33qml_register_types_Qt3D_Animationv
libQt63DQuickAnimation.so.6:_ZN13Qt3DAnimation5Quick19QQuick3DMorphTarget10attributesEv
libQt63DQuickAnimation.so.6:_ZN13Qt3DAnimation5Quick19QQuick3DMorphTarget11qt_metacallEN11QMetaObject4CallEiPPv
libQt63DQuickAnimation.so.6:_ZN13Qt3DAnimation5Quick19QQuick3DMorphTarget11qt_metacastEPKc
libQt63DQuickAnimation.so.6:_ZN13Qt3DAnimation5Quick19QQuick3DMorphTarget16staticMetaObjectE
libQt63DQuickAnimation.so.6:_ZN13Qt3DAnimation5Quick19QQuick3DMorphTargetC1EP7QObject
libQt63DQuickAnimation.so.6:_ZN13Qt3DAnimation5Quick19QQuick3DMorphTargetC2EP7QObject
libQt63DQuickAnimation.so.6:_ZN13Qt3DAnimation5Quick22QQuick3DAnimationGroup10animationsEv
libQt63DQuickAnimation.so.6:_ZN13Qt3DAnimation5Quick22QQuick3DAnimationGroup11qt_metacallEN11QMetaObject4CallEiPPv
libQt63DQuickAnimation.so.6:_ZN13Qt3DAnimation5Quick22QQuick3DAnimationGroup11qt_metacastEPKc
libQt63DQuickAnimation.so.6:_ZN13Qt3DAnimation5Quick22QQuick3DAnimationGroup16staticMetaObjectE
libQt63DQuickAnimation.so.6:_ZN13Qt3DAnimation5Quick22QQuick3DAnimationGroupC1EP7QObject
libQt63DQuickAnimation.so.6:_ZN13Qt3DAnimation5Quick22QQuick3DAnimationGroupC2EP7QObject
libQt63DQuickAnimation.so.6:_ZN13Qt3DAnimation5Quick25QQuick3DKeyframeAnimation11qt_metacallEN11QMetaObject4CallEiPPv
libQt63DQuickAnimation.so.6:_ZN13Qt3DAnimation5Quick25QQuick3DKeyframeAnimation11qt_metacastEPKc
libQt63DQuickAnimation.so.6:_ZN13Qt3DAnimation5Quick25QQuick3DKeyframeAnimation16staticMetaObjectE
libQt63DQuickAnimation.so.6:_ZN13Qt3DAnimation5Quick25QQuick3DKeyframeAnimation9keyframesEv
libQt63DQuickAnimation.so.6:_ZN13Qt3DAnimation5Quick25QQuick3DKeyframeAnimationC1EP7QObject
libQt63DQuickAnimation.so.6:_ZN13Qt3DAnimation5Quick25QQuick3DKeyframeAnimationC2EP7QObject
libQt63DQuickAnimation.so.6:_ZN13Qt3DAnimation5Quick25QQuick3DMorphingAnimation11qt_metacallEN11QMetaObject4CallEiPPv
libQt63DQuickAnimation.so.6:_ZN13Qt3DAnimation5Quick25QQuick3DMorphingAnimation11qt_metacastEPKc
libQt63DQuickAnimation.so.6:_ZN13Qt3DAnimation5Quick25QQuick3DMorphingAnimation12morphTargetsEv
libQt63DQuickAnimation.so.6:_ZN13Qt3DAnimation5Quick25QQuick3DMorphingAnimation16staticMetaObjectE
libQt63DQuickAnimation.so.6:_ZN13Qt3DAnimation5Quick25QQuick3DMorphingAnimationC1EP7QObject
libQt63DQuickAnimation.so.6:_ZN13Qt3DAnimation5Quick25QQuick3DMorphingAnimationC2EP7QObject
libQt63DQuickAnimation.so.6:_ZN13Qt3DAnimation5Quick27QQuick3DAnimationController11qt_metacallEN11QMetaObject4CallEiPPv
libQt63DQuickAnimation.so.6:_ZN13Qt3DAnimation5Quick27QQuick3DAnimationController11qt_metacastEPKc
libQt63DQuickAnimation.so.6:_ZN13Qt3DAnimation5Quick27QQuick3DAnimationController15animationGroupsEv
libQt63DQuickAnimation.so.6:_ZN13Qt3DAnimation5Quick27QQuick3DAnimationController16staticMetaObjectE
libQt63DQuickAnimation.so.6:_ZN13Qt3DAnimation5Quick27QQuick3DAnimationControllerC1EP7QObject
libQt63DQuickAnimation.so.6:_ZN13Qt3DAnimation5Quick27QQuick3DAnimationControllerC2EP7QObject
libQt63DQuickAnimation.so.6:_ZN13Qt3DAnimation5Quick27Quick3DAnimation_initializeEv
libQt63DQuickAnimation.so.6:_ZN13Qt3DAnimation5Quick28QQuick3DVertexBlendAnimation11qt_metacallEN11QMetaObject4CallEiPPv
libQt63DQuickAnimation.so.6:_ZN13Qt3DAnimation5Quick28QQuick3DVertexBlendAnimation11qt_metacastEPKc
libQt63DQuickAnimation.so.6:_ZN13Qt3DAnimation5Quick28QQuick3DVertexBlendAnimation12morphTargetsEv
libQt63DQuickAnimation.so.6:_ZN13Qt3DAnimation5Quick28QQuick3DVertexBlendAnimation16staticMetaObjectE
libQt63DQuickAnimation.so.6:_ZN13Qt3DAnimation5Quick28QQuick3DVertexBlendAnimationC1EP7QObject
libQt63DQuickAnimation.so.6:_ZN13Qt3DAnimation5Quick28QQuick3DVertexBlendAnimationC2EP7QObject
libQt63DQuickAnimation.so.6:_ZN13Qt3DAnimation5Quick29Quick3DAnimation_registerTypeEPKcS2_ii
libQt63DQuickAnimation.so.6:_ZN13Qt3DAnimation9Animation5Quick20Quick3DChannelMapper11qmlMappingsEv
libQt63DQuickAnimation.so.6:_ZN13Qt3DAnimation9Animation5Quick20Quick3DChannelMapper11qt_metacallEN11QMetaObject4CallEiPPv
libQt63DQuickAnimation.so.6:_ZN13Qt3DAnimation9Animation5Quick20Quick3DChannelMapper11qt_metacastEPKc
libQt63DQuickAnimation.so.6:_ZN13Qt3DAnimation9Animation5Quick20Quick3DChannelMapper16staticMetaObjectE
libQt63DQuickAnimation.so.6:_ZN13Qt3DAnimation9Animation5Quick20Quick3DChannelMapperC1EP7QObject
libQt63DQuickAnimation.so.6:_ZN13Qt3DAnimation9Animation5Quick20Quick3DChannelMapperC2EP7QObject
libQt63DQuickAnimation.so.6:_ZNK13Qt3DAnimation5Quick19QQuick3DMorphTarget10metaObjectEv
libQt63DQuickAnimation.so.6:_ZNK13Qt3DAnimation5Quick22QQuick3DAnimationGroup10metaObjectEv
libQt63DQuickAnimation.so.6:_ZNK13Qt3DAnimation5Quick25QQuick3DKeyframeAnimation10metaObjectEv
libQt63DQuickAnimation.so.6:_ZNK13Qt3DAnimation5Quick25QQuick3DMorphingAnimation10metaObjectEv
libQt63DQuickAnimation.so.6:_ZNK13Qt3DAnimation5Quick27QQuick3DAnimationController10metaObjectEv
libQt63DQuickAnimation.so.6:_ZNK13Qt3DAnimation5Quick28QQuick3DVertexBlendAnimation10metaObjectEv
libQt63DQuickAnimation.so.6:_ZNK13Qt3DAnimation9Animation5Quick20Quick3DChannelMapper10metaObjectEv
libQt63DQuickAnimation.so.6:_ZTIN13Qt3DAnimation5Quick19QQuick3DMorphTargetE
libQt63DQuickAnimation.so.6:_ZTIN13Qt3DAnimation5Quick22QQuick3DAnimationGroupE
libQt63DQuickAnimation.so.6:_ZTIN13Qt3DAnimation5Quick25QQuick3DKeyframeAnimationE
libQt63DQuickAnimation.so.6:_ZTIN13Qt3DAnimation5Quick25QQuick3DMorphingAnimationE
libQt63DQuickAnimation.so.6:_ZTIN13Qt3DAnimation5Quick27QQuick3DAnimationControllerE
libQt63DQuickAnimation.so.6:_ZTIN13Qt3DAnimation5Quick28QQuick3DVertexBlendAnimationE
libQt63DQuickAnimation.so.6:_ZTIN13Qt3DAnimation9Animation5Quick20Quick3DChannelMapperE
libQt63DQuickAnimation.so.6:_ZTSN13Qt3DAnimation5Quick19QQuick3DMorphTargetE
libQt63DQuickAnimation.so.6:_ZTSN13Qt3DAnimation5Quick22QQuick3DAnimationGroupE
libQt63DQuickAnimation.so.6:_ZTSN13Qt3DAnimation5Quick25QQuick3DKeyframeAnimationE
libQt63DQuickAnimation.so.6:_ZTSN13Qt3DAnimation5Quick25QQuick3DMorphingAnimationE
libQt63DQuickAnimation.so.6:_ZTSN13Qt3DAnimation5Quick27QQuick3DAnimationControllerE
libQt63DQuickAnimation.so.6:_ZTSN13Qt3DAnimation5Quick28QQuick3DVertexBlendAnimationE
libQt63DQuickAnimation.so.6:_ZTSN13Qt3DAnimation9Animation5Quick20Quick3DChannelMapperE
libQt63DQuickAnimation.so.6:_ZTVN13Qt3DAnimation5Quick19QQuick3DMorphTargetE
libQt63DQuickAnimation.so.6:_ZTVN13Qt3DAnimation5Quick22QQuick3DAnimationGroupE
libQt63DQuickAnimation.so.6:_ZTVN13Qt3DAnimation5Quick25QQuick3DKeyframeAnimationE
libQt63DQuickAnimation.so.6:_ZTVN13Qt3DAnimation5Quick25QQuick3DMorphingAnimationE
libQt63DQuickAnimation.so.6:_ZTVN13Qt3DAnimation5Quick27QQuick3DAnimationControllerE
libQt63DQuickAnimation.so.6:_ZTVN13Qt3DAnimation5Quick28QQuick3DVertexBlendAnimationE
libQt63DQuickAnimation.so.6:_ZTVN13Qt3DAnimation9Animation5Quick20Quick3DChannelMapperE
libQt63DQuickExtras.so.6:_Z30qml_register_types_Qt3D_Extrasv
libQt63DQuickExtras.so.6:_ZN10Qt3DExtras5Quick15Qt3DQuickWindow11qt_metacallEN11QMetaObject4CallEiPPv
libQt63DQuickExtras.so.6:_ZN10Qt3DExtras5Quick15Qt3DQuickWindow11qt_metacastEPKc
libQt63DQuickExtras.so.6:_ZN10Qt3DExtras5Quick15Qt3DQuickWindow14onSceneCreatedEP7QObject
libQt63DQuickExtras.so.6:_ZN10Qt3DExtras5Quick15Qt3DQuickWindow14registerAspectEPN8Qt3DCore15QAbstractAspectE
libQt63DQuickExtras.so.6:_ZN10Qt3DExtras5Quick15Qt3DQuickWindow14registerAspectERK7QString
libQt63DQuickExtras.so.6:_ZN10Qt3DExtras5Quick15Qt3DQuickWindow16setWindowSurfaceEP7QObject
libQt63DQuickExtras.so.6:_ZN10Qt3DExtras5Quick15Qt3DQuickWindow16staticMetaObjectE
libQt63DQuickExtras.so.6:_ZN10Qt3DExtras5Quick15Qt3DQuickWindow23updateCameraAspectRatioEv
libQt63DQuickExtras.so.6:_ZN10Qt3DExtras5Quick15Qt3DQuickWindow24setCameraAspectRatioModeENS1_21CameraAspectRatioModeE
libQt63DQuickExtras.so.6:_ZN10Qt3DExtras5Quick15Qt3DQuickWindow25setCameraAspectModeHelperEv
libQt63DQuickExtras.so.6:_ZN10Qt3DExtras5Quick15Qt3DQuickWindow28cameraAspectRatioModeChangedENS1_21CameraAspectRatioModeE
libQt63DQuickExtras.so.6:_ZN10Qt3DExtras5Quick15Qt3DQuickWindow9setSourceERK4QUrl
libQt63DQuickExtras.so.6:_ZN10Qt3DExtras5Quick15Qt3DQuickWindow9showEventEP10QShowEvent
libQt63DQuickExtras.so.6:_ZN10Qt3DExtras5Quick15Qt3DQuickWindowC1EP7QWindow
libQt63DQuickExtras.so.6:_ZN10Qt3DExtras5Quick15Qt3DQuickWindowC2EP7QWindow
libQt63DQuickExtras.so.6:_ZN10Qt3DExtras5Quick15Qt3DQuickWindowD0Ev
libQt63DQuickExtras.so.6:_ZN10Qt3DExtras5Quick15Qt3DQuickWindowD1Ev
libQt63DQuickExtras.so.6:_ZN10Qt3DExtras5Quick15Qt3DQuickWindowD2Ev
libQt63DQuickExtras.so.6:_ZN10Qt3DExtras5Quick24Quick3DExtras_initializeEv
libQt63DQuickExtras.so.6:_ZN10Qt3DExtras5Quick26Quick3DExtras_registerTypeEPKcS2_ii
libQt63DQuickExtras.so.6:_ZN10Qt3DExtras6Extras5Quick18Quick3DSpriteSheet11qt_metacallEN11QMetaObject4CallEiPPv
libQt63DQuickExtras.so.6:_ZN10Qt3DExtras6Extras5Quick18Quick3DSpriteSheet11qt_metacastEPKc
libQt63DQuickExtras.so.6:_ZN10Qt3DExtras6Extras5Quick18Quick3DSpriteSheet16staticMetaObjectE
libQt63DQuickExtras.so.6:_ZN10Qt3DExtras6Extras5Quick18Quick3DSpriteSheet7spritesEv
libQt63DQuickExtras.so.6:_ZN10Qt3DExtras6Extras5Quick18Quick3DSpriteSheetC1EP7QObject
libQt63DQuickExtras.so.6:_ZN10Qt3DExtras6Extras5Quick18Quick3DSpriteSheetC2EP7QObject
libQt63DQuickExtras.so.6:_ZN10Qt3DExtras6Extras5Quick18Quick3DSpriteSheetD0Ev
libQt63DQuickExtras.so.6:_ZN10Qt3DExtras6Extras5Quick18Quick3DSpriteSheetD1Ev
libQt63DQuickExtras.so.6:_ZN10Qt3DExtras6Extras5Quick18Quick3DSpriteSheetD2Ev
libQt63DQuickExtras.so.6:_ZN10Qt3DExtras6Extras5Quick26Quick3DLevelOfDetailLoader10setSourcesERK5QListI8QVariantE
libQt63DQuickExtras.so.6:_ZN10Qt3DExtras6Extras5Quick26Quick3DLevelOfDetailLoader11qt_metacallEN11QMetaObject4CallEiPPv
libQt63DQuickExtras.so.6:_ZN10Qt3DExtras6Extras5Quick26Quick3DLevelOfDetailLoader11qt_metacastEPKc
libQt63DQuickExtras.so.6:_ZN10Qt3DExtras6Extras5Quick26Quick3DLevelOfDetailLoader13cameraChangedEv
libQt63DQuickExtras.so.6:_ZN10Qt3DExtras6Extras5Quick26Quick3DLevelOfDetailLoader13entityChangedEv
libQt63DQuickExtras.so.6:_ZN10Qt3DExtras6Extras5Quick26Quick3DLevelOfDetailLoader13setThresholdsERK5QListIdE
libQt63DQuickExtras.so.6:_ZN10Qt3DExtras6Extras5Quick26Quick3DLevelOfDetailLoader13sourceChangedEv
libQt63DQuickExtras.so.6:_ZN10Qt3DExtras6Extras5Quick26Quick3DLevelOfDetailLoader14sourcesChangedEv
libQt63DQuickExtras.so.6:_ZN10Qt3DExtras6Extras5Quick26Quick3DLevelOfDetailLoader15setCurrentIndexEi
libQt63DQuickExtras.so.6:_ZN10Qt3DExtras6Extras5Quick26Quick3DLevelOfDetailLoader16setThresholdTypeEN10Qt3DRender14QLevelOfDetail13ThresholdTypeE
libQt63DQuickExtras.so.6:_ZN10Qt3DExtras6Extras5Quick26Quick3DLevelOfDetailLoader16staticMetaObjectE
libQt63DQuickExtras.so.6:_ZN10Qt3DExtras6Extras5Quick26Quick3DLevelOfDetailLoader17setVolumeOverrideERKN10Qt3DRender28QLevelOfDetailBoundingSphereE
libQt63DQuickExtras.so.6:_ZN10Qt3DExtras6Extras5Quick26Quick3DLevelOfDetailLoader17thresholdsChangedEv
libQt63DQuickExtras.so.6:_ZN10Qt3DExtras6Extras5Quick26Quick3DLevelOfDetailLoader19currentIndexChangedEv
libQt63DQuickExtras.so.6:_ZN10Qt3DExtras6Extras5Quick26Quick3DLevelOfDetailLoader20createBoundingSphereERK9QVector3Df
libQt63DQuickExtras.so.6:_ZN10Qt3DExtras6Extras5Quick26Quick3DLevelOfDetailLoader20thresholdTypeChangedEv
libQt63DQuickExtras.so.6:_ZN10Qt3DExtras6Extras5Quick26Quick3DLevelOfDetailLoader21volumeOverrideChangedEv
libQt63DQuickExtras.so.6:_ZN10Qt3DExtras6Extras5Quick26Quick3DLevelOfDetailLoader9setCameraEPN10Qt3DRender7QCameraE
libQt63DQuickExtras.so.6:_ZN10Qt3DExtras6Extras5Quick26Quick3DLevelOfDetailLoaderC1EPN8Qt3DCore5QNodeE
libQt63DQuickExtras.so.6:_ZN10Qt3DExtras6Extras5Quick26Quick3DLevelOfDetailLoaderC2EPN8Qt3DCore5QNodeE
libQt63DQuickExtras.so.6:_ZNK10Qt3DExtras5Quick15Qt3DQuickWindow10metaObjectEv
libQt63DQuickExtras.so.6:_ZNK10Qt3DExtras5Quick15Qt3DQuickWindow21cameraAspectRatioModeEv
libQt63DQuickExtras.so.6:_ZNK10Qt3DExtras5Quick15Qt3DQuickWindow6engineEv
libQt63DQuickExtras.so.6:_ZNK10Qt3DExtras6Extras5Quick18Quick3DSpriteSheet10metaObjectEv
libQt63DQuickExtras.so.6:_ZNK10Qt3DExtras6Extras5Quick26Quick3DLevelOfDetailLoader10metaObjectEv
libQt63DQuickExtras.so.6:_ZNK10Qt3DExtras6Extras5Quick26Quick3DLevelOfDetailLoader10thresholdsEv
libQt63DQuickExtras.so.6:_ZNK10Qt3DExtras6Extras5Quick26Quick3DLevelOfDetailLoader12currentIndexEv
libQt63DQuickExtras.so.6:_ZNK10Qt3DExtras6Extras5Quick26Quick3DLevelOfDetailLoader13thresholdTypeEv
libQt63DQuickExtras.so.6:_ZNK10Qt3DExtras6Extras5Quick26Quick3DLevelOfDetailLoader14volumeOverrideEv
libQt63DQuickExtras.so.6:_ZNK10Qt3DExtras6Extras5Quick26Quick3DLevelOfDetailLoader6cameraEv
libQt63DQuickExtras.so.6:_ZNK10Qt3DExtras6Extras5Quick26Quick3DLevelOfDetailLoader6entityEv
libQt63DQuickExtras.so.6:_ZNK10Qt3DExtras6Extras5Quick26Quick3DLevelOfDetailLoader6sourceEv
libQt63DQuickExtras.so.6:_ZNK10Qt3DExtras6Extras5Quick26Quick3DLevelOfDetailLoader7sourcesEv
libQt63DQuickExtras.so.6:_ZTIN10Qt3DExtras5Quick15Qt3DQuickWindowE
libQt63DQuickExtras.so.6:_ZTIN10Qt3DExtras6Extras5Quick18Quick3DSpriteSheetE
libQt63DQuickExtras.so.6:_ZTIN10Qt3DExtras6Extras5Quick26Quick3DLevelOfDetailLoaderE
libQt63DQuickExtras.so.6:_ZTSN10Qt3DExtras5Quick15Qt3DQuickWindowE
libQt63DQuickExtras.so.6:_ZTSN10Qt3DExtras6Extras5Quick18Quick3DSpriteSheetE
libQt63DQuickExtras.so.6:_ZTSN10Qt3DExtras6Extras5Quick26Quick3DLevelOfDetailLoaderE
libQt63DQuickExtras.so.6:_ZTVN10Qt3DExtras5Quick15Qt3DQuickWindowE
libQt63DQuickExtras.so.6:_ZTVN10Qt3DExtras6Extras5Quick18Quick3DSpriteSheetE
libQt63DQuickExtras.so.6:_ZTVN10Qt3DExtras6Extras5Quick26Quick3DLevelOfDetailLoaderE
libQt63DQuickExtras.so.6:_ZThn16_N10Qt3DExtras5Quick15Qt3DQuickWindowD0Ev
libQt63DQuickExtras.so.6:_ZThn16_N10Qt3DExtras5Quick15Qt3DQuickWindowD1Ev
libQt63DQuickInput.so.6:_ZN9Qt3DInput5Input5Quick11Quick3DAxis11qt_metacallEN11QMetaObject4CallEiPPv
libQt63DQuickInput.so.6:_ZN9Qt3DInput5Input5Quick11Quick3DAxis11qt_metacastEPKc
libQt63DQuickInput.so.6:_ZN9Qt3DInput5Input5Quick11Quick3DAxis13qmlAxisInputsEv
libQt63DQuickInput.so.6:_ZN9Qt3DInput5Input5Quick11Quick3DAxis16staticMetaObjectE
libQt63DQuickInput.so.6:_ZN9Qt3DInput5Input5Quick11Quick3DAxisC1EP7QObject
libQt63DQuickInput.so.6:_ZN9Qt3DInput5Input5Quick11Quick3DAxisC2EP7QObject
libQt63DQuickInput.so.6:_ZN9Qt3DInput5Input5Quick13Quick3DAction11qt_metacallEN11QMetaObject4CallEiPPv
libQt63DQuickInput.so.6:_ZN9Qt3DInput5Input5Quick13Quick3DAction11qt_metacastEPKc
libQt63DQuickInput.so.6:_ZN9Qt3DInput5Input5Quick13Quick3DAction15qmlActionInputsEv
libQt63DQuickInput.so.6:_ZN9Qt3DInput5Input5Quick13Quick3DAction16staticMetaObjectE
libQt63DQuickInput.so.6:_ZN9Qt3DInput5Input5Quick13Quick3DActionC1EP7QObject
libQt63DQuickInput.so.6:_ZN9Qt3DInput5Input5Quick13Quick3DActionC2EP7QObject
libQt63DQuickInput.so.6:_ZN9Qt3DInput5Input5Quick17Quick3DInputChord11qt_metacallEN11QMetaObject4CallEiPPv
libQt63DQuickInput.so.6:_ZN9Qt3DInput5Input5Quick17Quick3DInputChord11qt_metacastEPKc
libQt63DQuickInput.so.6:_ZN9Qt3DInput5Input5Quick17Quick3DInputChord15qmlActionInputsEv
libQt63DQuickInput.so.6:_ZN9Qt3DInput5Input5Quick17Quick3DInputChord16staticMetaObjectE
libQt63DQuickInput.so.6:_ZN9Qt3DInput5Input5Quick17Quick3DInputChordC1EP7QObject
libQt63DQuickInput.so.6:_ZN9Qt3DInput5Input5Quick17Quick3DInputChordC2EP7QObject
libQt63DQuickInput.so.6:_ZN9Qt3DInput5Input5Quick20Quick3DInputSequence11qt_metacallEN11QMetaObject4CallEiPPv
libQt63DQuickInput.so.6:_ZN9Qt3DInput5Input5Quick20Quick3DInputSequence11qt_metacastEPKc
libQt63DQuickInput.so.6:_ZN9Qt3DInput5Input5Quick20Quick3DInputSequence15qmlActionInputsEv
libQt63DQuickInput.so.6:_ZN9Qt3DInput5Input5Quick20Quick3DInputSequence16staticMetaObjectE
libQt63DQuickInput.so.6:_ZN9Qt3DInput5Input5Quick20Quick3DInputSequenceC1EP7QObject
libQt63DQuickInput.so.6:_ZN9Qt3DInput5Input5Quick20Quick3DInputSequenceC2EP7QObject
libQt63DQuickInput.so.6:_ZN9Qt3DInput5Input5Quick20Quick3DLogicalDevice10qmlActionsEv
libQt63DQuickInput.so.6:_ZN9Qt3DInput5Input5Quick20Quick3DLogicalDevice11qt_metacallEN11QMetaObject4CallEiPPv
libQt63DQuickInput.so.6:_ZN9Qt3DInput5Input5Quick20Quick3DLogicalDevice11qt_metacastEPKc
libQt63DQuickInput.so.6:_ZN9Qt3DInput5Input5Quick20Quick3DLogicalDevice16staticMetaObjectE
libQt63DQuickInput.so.6:_ZN9Qt3DInput5Input5Quick20Quick3DLogicalDevice7qmlAxesEv
libQt63DQuickInput.so.6:_ZN9Qt3DInput5Input5Quick20Quick3DLogicalDeviceC1EP7QObject
libQt63DQuickInput.so.6:_ZN9Qt3DInput5Input5Quick20Quick3DLogicalDeviceC2EP7QObject
libQt63DQuickInput.so.6:_ZN9Qt3DInput5Input5Quick21Quick3DPhysicalDevice11qt_metacallEN11QMetaObject4CallEiPPv
libQt63DQuickInput.so.6:_ZN9Qt3DInput5Input5Quick21Quick3DPhysicalDevice11qt_metacastEPKc
libQt63DQuickInput.so.6:_ZN9Qt3DInput5Input5Quick21Quick3DPhysicalDevice12axisSettingsEv
libQt63DQuickInput.so.6:_ZN9Qt3DInput5Input5Quick21Quick3DPhysicalDevice16staticMetaObjectE
libQt63DQuickInput.so.6:_ZN9Qt3DInput5Input5Quick21Quick3DPhysicalDeviceC1EP7QObject
libQt63DQuickInput.so.6:_ZN9Qt3DInput5Input5Quick21Quick3DPhysicalDeviceC2EP7QObject
libQt63DQuickInput.so.6:_ZN9Qt3DInput5Quick23Quick3DInput_initializeEv
libQt63DQuickInput.so.6:_ZN9Qt3DInput5Quick25Quick3DInput_registerTypeEPKcS2_ii
libQt63DQuickInput.so.6:_ZNK9Qt3DInput5Input5Quick11Quick3DAxis10metaObjectEv
libQt63DQuickInput.so.6:_ZNK9Qt3DInput5Input5Quick13Quick3DAction10metaObjectEv
libQt63DQuickInput.so.6:_ZNK9Qt3DInput5Input5Quick17Quick3DInputChord10metaObjectEv
libQt63DQuickInput.so.6:_ZNK9Qt3DInput5Input5Quick20Quick3DInputSequence10metaObjectEv
libQt63DQuickInput.so.6:_ZNK9Qt3DInput5Input5Quick20Quick3DLogicalDevice10metaObjectEv
libQt63DQuickInput.so.6:_ZNK9Qt3DInput5Input5Quick21Quick3DPhysicalDevice10metaObjectEv
libQt63DQuickInput.so.6:_ZTIN9Qt3DInput5Input5Quick11Quick3DAxisE
libQt63DQuickInput.so.6:_ZTIN9Qt3DInput5Input5Quick13Quick3DActionE
libQt63DQuickInput.so.6:_ZTIN9Qt3DInput5Input5Quick17Quick3DInputChordE
libQt63DQuickInput.so.6:_ZTIN9Qt3DInput5Input5Quick20Quick3DInputSequenceE
libQt63DQuickInput.so.6:_ZTIN9Qt3DInput5Input5Quick20Quick3DLogicalDeviceE
libQt63DQuickInput.so.6:_ZTIN9Qt3DInput5Input5Quick21Quick3DPhysicalDeviceE
libQt63DQuickInput.so.6:_ZTSN9Qt3DInput5Input5Quick11Quick3DAxisE
libQt63DQuickInput.so.6:_ZTSN9Qt3DInput5Input5Quick13Quick3DActionE
libQt63DQuickInput.so.6:_ZTSN9Qt3DInput5Input5Quick17Quick3DInputChordE
libQt63DQuickInput.so.6:_ZTSN9Qt3DInput5Input5Quick20Quick3DInputSequenceE
libQt63DQuickInput.so.6:_ZTSN9Qt3DInput5Input5Quick20Quick3DLogicalDeviceE
libQt63DQuickInput.so.6:_ZTSN9Qt3DInput5Input5Quick21Quick3DPhysicalDeviceE
libQt63DQuickInput.so.6:_ZTVN9Qt3DInput5Input5Quick11Quick3DAxisE
libQt63DQuickInput.so.6:_ZTVN9Qt3DInput5Input5Quick13Quick3DActionE
libQt63DQuickInput.so.6:_ZTVN9Qt3DInput5Input5Quick17Quick3DInputChordE
libQt63DQuickInput.so.6:_ZTVN9Qt3DInput5Input5Quick20Quick3DInputSequenceE
libQt63DQuickInput.so.6:_ZTVN9Qt3DInput5Input5Quick20Quick3DLogicalDeviceE
libQt63DQuickInput.so.6:_ZTVN9Qt3DInput5Input5Quick21Quick3DPhysicalDeviceE
libQt63DQuickLogic.so.6:_Z29qml_register_types_Qt3D_Logicv
libQt63DQuickRender.so.6:_Z30qml_register_types_Qt3D_Renderv
libQt63DQuickRender.so.6:_ZN10Qt3DRender5Quick24Quick3DRender_initializeEv
libQt63DQuickRender.so.6:_ZN10Qt3DRender5Quick26Quick3DRender_registerTypeEPKcS2_ii
libQt63DQuickRender.so.6:_ZN10Qt3DRender6Render5Quick12Quick3DScene11qt_metacallEN11QMetaObject4CallEiPPv
libQt63DQuickRender.so.6:_ZN10Qt3DRender6Render5Quick12Quick3DScene11qt_metacastEPKc
libQt63DQuickRender.so.6:_ZN10Qt3DRender6Render5Quick12Quick3DScene16staticMetaObjectE
libQt63DQuickRender.so.6:_ZN10Qt3DRender6Render5Quick12Quick3DSceneC1EP7QObject
libQt63DQuickRender.so.6:_ZN10Qt3DRender6Render5Quick12Quick3DSceneC2EP7QObject
libQt63DQuickRender.so.6:_ZN10Qt3DRender6Render5Quick13Quick3DEffect11qt_metacallEN11QMetaObject4CallEiPPv
libQt63DQuickRender.so.6:_ZN10Qt3DRender6Render5Quick13Quick3DEffect11qt_metacastEPKc
libQt63DQuickRender.so.6:_ZN10Qt3DRender6Render5Quick13Quick3DEffect13parameterListEv
libQt63DQuickRender.so.6:_ZN10Qt3DRender6Render5Quick13Quick3DEffect13techniqueListEv
libQt63DQuickRender.so.6:_ZN10Qt3DRender6Render5Quick13Quick3DEffect16staticMetaObjectE
libQt63DQuickRender.so.6:_ZN10Qt3DRender6Render5Quick13Quick3DEffectC1EP7QObject
libQt63DQuickRender.so.6:_ZN10Qt3DRender6Render5Quick13Quick3DEffectC2EP7QObject
libQt63DQuickRender.so.6:_ZN10Qt3DRender6Render5Quick15Quick3DMaterial11qt_metacallEN11QMetaObject4CallEiPPv
libQt63DQuickRender.so.6:_ZN10Qt3DRender6Render5Quick15Quick3DMaterial11qt_metacastEPKc
libQt63DQuickRender.so.6:_ZN10Qt3DRender6Render5Quick15Quick3DMaterial13qmlParametersEv
libQt63DQuickRender.so.6:_ZN10Qt3DRender6Render5Quick15Quick3DMaterial16staticMetaObjectE
libQt63DQuickRender.so.6:_ZN10Qt3DRender6Render5Quick15Quick3DMaterialC1EP7QObject
libQt63DQuickRender.so.6:_ZN10Qt3DRender6Render5Quick15Quick3DMaterialC2EP7QObject
libQt63DQuickRender.so.6:_ZN10Qt3DRender6Render5Quick15Quick3DStateSet11qt_metacallEN11QMetaObject4CallEiPPv
libQt63DQuickRender.so.6:_ZN10Qt3DRender6Render5Quick15Quick3DStateSet11qt_metacastEPKc
libQt63DQuickRender.so.6:_ZN10Qt3DRender6Render5Quick15Quick3DStateSet15renderStateListEv
libQt63DQuickRender.so.6:_ZN10Qt3DRender6Render5Quick15Quick3DStateSet16staticMetaObjectE
libQt63DQuickRender.so.6:_ZN10Qt3DRender6Render5Quick15Quick3DStateSetC1EP7QObject
libQt63DQuickRender.so.6:_ZN10Qt3DRender6Render5Quick15Quick3DStateSetC2EP7QObject
libQt63DQuickRender.so.6:_ZN10Qt3DRender6Render5Quick15Quick3DStateSetD0Ev
libQt63DQuickRender.so.6:_ZN10Qt3DRender6Render5Quick15Quick3DStateSetD1Ev
libQt63DQuickRender.so.6:_ZN10Qt3DRender6Render5Quick15Quick3DStateSetD2Ev
libQt63DQuickRender.so.6:_ZN10Qt3DRender6Render5Quick15Quick3DViewport11qt_metacallEN11QMetaObject4CallEiPPv
libQt63DQuickRender.so.6:_ZN10Qt3DRender6Render5Quick15Quick3DViewport11qt_metacastEPKc
libQt63DQuickRender.so.6:_ZN10Qt3DRender6Render5Quick15Quick3DViewport16staticMetaObjectE
libQt63DQuickRender.so.6:_ZN10Qt3DRender6Render5Quick15Quick3DViewportC1EP7QObject
libQt63DQuickRender.so.6:_ZN10Qt3DRender6Render5Quick15Quick3DViewportC2EP7QObject
libQt63DQuickRender.so.6:_ZN10Qt3DRender6Render5Quick16Quick3DParameter11qt_metacallEN11QMetaObject4CallEiPPv
libQt63DQuickRender.so.6:_ZN10Qt3DRender6Render5Quick16Quick3DParameter11qt_metacastEPKc
libQt63DQuickRender.so.6:_ZN10Qt3DRender6Render5Quick16Quick3DParameter16staticMetaObjectE
libQt63DQuickRender.so.6:_ZN10Qt3DRender6Render5Quick16Quick3DParameterC1EPN8Qt3DCore5QNodeE
libQt63DQuickRender.so.6:_ZN10Qt3DRender6Render5Quick16Quick3DParameterC1ERNS1_23Quick3DParameterPrivateEPN8Qt3DCore5QNodeE
libQt63DQuickRender.so.6:_ZN10Qt3DRender6Render5Quick16Quick3DParameterC2EPN8Qt3DCore5QNodeE
libQt63DQuickRender.so.6:_ZN10Qt3DRender6Render5Quick16Quick3DParameterC2ERNS1_23Quick3DParameterPrivateEPN8Qt3DCore5QNodeE
libQt63DQuickRender.so.6:_ZN10Qt3DRender6Render5Quick16Quick3DRayCaster11qt_metacallEN11QMetaObject4CallEiPPv
libQt63DQuickRender.so.6:_ZN10Qt3DRender6Render5Quick16Quick3DRayCaster11qt_metacastEPKc
libQt63DQuickRender.so.6:_ZN10Qt3DRender6Render5Quick16Quick3DRayCaster16staticMetaObjectE
libQt63DQuickRender.so.6:_ZN10Qt3DRender6Render5Quick16Quick3DRayCaster9qmlLayersEv
libQt63DQuickRender.so.6:_ZN10Qt3DRender6Render5Quick16Quick3DRayCasterC1EP7QObject
libQt63DQuickRender.so.6:_ZN10Qt3DRender6Render5Quick16Quick3DRayCasterC2EP7QObject
libQt63DQuickRender.so.6:_ZN10Qt3DRender6Render5Quick16Quick3DTechnique11qt_metacallEN11QMetaObject4CallEiPPv
libQt63DQuickRender.so.6:_ZN10Qt3DRender6Render5Quick16Quick3DTechnique11qt_metacastEPKc
libQt63DQuickRender.so.6:_ZN10Qt3DRender6Render5Quick16Quick3DTechnique13filterKeyListEv
libQt63DQuickRender.so.6:_ZN10Qt3DRender6Render5Quick16Quick3DTechnique13parameterListEv
libQt63DQuickRender.so.6:_ZN10Qt3DRender6Render5Quick16Quick3DTechnique14renderPassListEv
libQt63DQuickRender.so.6:_ZN10Qt3DRender6Render5Quick16Quick3DTechnique16staticMetaObjectE
libQt63DQuickRender.so.6:_ZN10Qt3DRender6Render5Quick16Quick3DTechniqueC1EP7QObject
libQt63DQuickRender.so.6:_ZN10Qt3DRender6Render5Quick16Quick3DTechniqueC2EP7QObject
libQt63DQuickRender.so.6:_ZN10Qt3DRender6Render5Quick17Quick3DRenderPass11qt_metacallEN11QMetaObject4CallEiPPv
libQt63DQuickRender.so.6:_ZN10Qt3DRender6Render5Quick17Quick3DRenderPass11qt_metacastEPKc
libQt63DQuickRender.so.6:_ZN10Qt3DRender6Render5Quick17Quick3DRenderPass13filterKeyListEv
libQt63DQuickRender.so.6:_ZN10Qt3DRender6Render5Quick17Quick3DRenderPass13parameterListEv
libQt63DQuickRender.so.6:_ZN10Qt3DRender6Render5Quick17Quick3DRenderPass15renderStateListEv
libQt63DQuickRender.so.6:_ZN10Qt3DRender6Render5Quick17Quick3DRenderPass16staticMetaObjectE
libQt63DQuickRender.so.6:_ZN10Qt3DRender6Render5Quick17Quick3DRenderPassC1EP7QObject
libQt63DQuickRender.so.6:_ZN10Qt3DRender6Render5Quick17Quick3DRenderPassC2EP7QObject
libQt63DQuickRender.so.6:_ZN10Qt3DRender6Render5Quick17Quick3DShaderData11qt_metacallEN11QMetaObject4CallEiPPv
libQt63DQuickRender.so.6:_ZN10Qt3DRender6Render5Quick17Quick3DShaderData11qt_metacastEPKc
libQt63DQuickRender.so.6:_ZN10Qt3DRender6Render5Quick17Quick3DShaderData16staticMetaObjectE
libQt63DQuickRender.so.6:_ZN10Qt3DRender6Render5Quick17Quick3DShaderDataC1EPN8Qt3DCore5QNodeE
libQt63DQuickRender.so.6:_ZN10Qt3DRender6Render5Quick17Quick3DShaderDataC2EPN8Qt3DCore5QNodeE
libQt63DQuickRender.so.6:_ZN10Qt3DRender6Render5Quick18Quick3DLayerFilter11qt_metacallEN11QMetaObject4CallEiPPv
libQt63DQuickRender.so.6:_ZN10Qt3DRender6Render5Quick18Quick3DLayerFilter11qt_metacastEPKc
libQt63DQuickRender.so.6:_ZN10Qt3DRender6Render5Quick18Quick3DLayerFilter16staticMetaObjectE
libQt63DQuickRender.so.6:_ZN10Qt3DRender6Render5Quick18Quick3DLayerFilter9qmlLayersEv
libQt63DQuickRender.so.6:_ZN10Qt3DRender6Render5Quick18Quick3DLayerFilterC1EP7QObject
libQt63DQuickRender.so.6:_ZN10Qt3DRender6Render5Quick18Quick3DLayerFilterC2EP7QObject
libQt63DQuickRender.so.6:_ZN10Qt3DRender6Render5Quick20Quick3DMemoryBarrier10setWaitForEi
libQt63DQuickRender.so.6:_ZN10Qt3DRender6Render5Quick20Quick3DMemoryBarrier11qt_metacallEN11QMetaObject4CallEiPPv
libQt63DQuickRender.so.6:_ZN10Qt3DRender6Render5Quick20Quick3DMemoryBarrier11qt_metacastEPKc
libQt63DQuickRender.so.6:_ZN10Qt3DRender6Render5Quick20Quick3DMemoryBarrier16staticMetaObjectE
libQt63DQuickRender.so.6:_ZN10Qt3DRender6Render5Quick20Quick3DMemoryBarrierC1EP7QObject
libQt63DQuickRender.so.6:_ZN10Qt3DRender6Render5Quick20Quick3DMemoryBarrierC2EP7QObject
libQt63DQuickRender.so.6:_ZN10Qt3DRender6Render5Quick20Quick3DMemoryBarrierD0Ev
libQt63DQuickRender.so.6:_ZN10Qt3DRender6Render5Quick20Quick3DMemoryBarrierD1Ev
libQt63DQuickRender.so.6:_ZN10Qt3DRender6Render5Quick20Quick3DMemoryBarrierD2Ev
libQt63DQuickRender.so.6:_ZN10Qt3DRender6Render5Quick22Quick3DScreenRayCaster11qt_metacallEN11QMetaObject4CallEiPPv
libQt63DQuickRender.so.6:_ZN10Qt3DRender6Render5Quick22Quick3DScreenRayCaster11qt_metacastEPKc
libQt63DQuickRender.so.6:_ZN10Qt3DRender6Render5Quick22Quick3DScreenRayCaster16staticMetaObjectE
libQt63DQuickRender.so.6:_ZN10Qt3DRender6Render5Quick22Quick3DScreenRayCaster9qmlLayersEv
libQt63DQuickRender.so.6:_ZN10Qt3DRender6Render5Quick22Quick3DScreenRayCasterC1EP7QObject
libQt63DQuickRender.so.6:_ZN10Qt3DRender6Render5Quick22Quick3DScreenRayCasterC2EP7QObject
libQt63DQuickRender.so.6:_ZN10Qt3DRender6Render5Quick22Quick3DShaderDataArray10valuesListEv
libQt63DQuickRender.so.6:_ZN10Qt3DRender6Render5Quick22Quick3DShaderDataArray11qt_metacallEN11QMetaObject4CallEiPPv
libQt63DQuickRender.so.6:_ZN10Qt3DRender6Render5Quick22Quick3DShaderDataArray11qt_metacastEPKc
libQt63DQuickRender.so.6:_ZN10Qt3DRender6Render5Quick22Quick3DShaderDataArray16staticMetaObjectE
libQt63DQuickRender.so.6:_ZN10Qt3DRender6Render5Quick22Quick3DShaderDataArrayC1EPN8Qt3DCore5QNodeE
libQt63DQuickRender.so.6:_ZN10Qt3DRender6Render5Quick22Quick3DShaderDataArrayC2EPN8Qt3DCore5QNodeE
libQt63DQuickRender.so.6:_ZN10Qt3DRender6Render5Quick22Quick3DTechniqueFilter11qt_metacallEN11QMetaObject4CallEiPPv
libQt63DQuickRender.so.6:_ZN10Qt3DRender6Render5Quick22Quick3DTechniqueFilter11qt_metacastEPKc
libQt63DQuickRender.so.6:_ZN10Qt3DRender6Render5Quick22Quick3DTechniqueFilter13parameterListEv
libQt63DQuickRender.so.6:_ZN10Qt3DRender6Render5Quick22Quick3DTechniqueFilter16staticMetaObjectE
libQt63DQuickRender.so.6:_ZN10Qt3DRender6Render5Quick22Quick3DTechniqueFilter9matchListEv
libQt63DQuickRender.so.6:_ZN10Qt3DRender6Render5Quick22Quick3DTechniqueFilterC1EP7QObject
libQt63DQuickRender.so.6:_ZN10Qt3DRender6Render5Quick22Quick3DTechniqueFilterC2EP7QObject
libQt63DQuickRender.so.6:_ZN10Qt3DRender6Render5Quick23Quick3DRenderPassFilter11includeListEv
libQt63DQuickRender.so.6:_ZN10Qt3DRender6Render5Quick23Quick3DRenderPassFilter11qt_metacallEN11QMetaObject4CallEiPPv
libQt63DQuickRender.so.6:_ZN10Qt3DRender6Render5Quick23Quick3DRenderPassFilter11qt_metacastEPKc
libQt63DQuickRender.so.6:_ZN10Qt3DRender6Render5Quick23Quick3DRenderPassFilter13parameterListEv
libQt63DQuickRender.so.6:_ZN10Qt3DRender6Render5Quick23Quick3DRenderPassFilter16staticMetaObjectE
libQt63DQuickRender.so.6:_ZN10Qt3DRender6Render5Quick23Quick3DRenderPassFilterC1EP7QObject
libQt63DQuickRender.so.6:_ZN10Qt3DRender6Render5Quick23Quick3DRenderPassFilterC2EP7QObject
libQt63DQuickRender.so.6:_ZN10Qt3DRender6Render5Quick23Quick3DTextureExtension11qt_metacallEN11QMetaObject4CallEiPPv
libQt63DQuickRender.so.6:_ZN10Qt3DRender6Render5Quick23Quick3DTextureExtension11qt_metacastEPKc
libQt63DQuickRender.so.6:_ZN10Qt3DRender6Render5Quick23Quick3DTextureExtension13textureImagesEv
libQt63DQuickRender.so.6:_ZN10Qt3DRender6Render5Quick23Quick3DTextureExtension16staticMetaObjectE
libQt63DQuickRender.so.6:_ZN10Qt3DRender6Render5Quick23Quick3DTextureExtensionC1EP7QObject
libQt63DQuickRender.so.6:_ZN10Qt3DRender6Render5Quick23Quick3DTextureExtensionC2EP7QObject
libQt63DQuickRender.so.6:_ZN10Qt3DRender6Render5Quick25Quick3DRenderTargetOutput11qt_metacallEN11QMetaObject4CallEiPPv
libQt63DQuickRender.so.6:_ZN10Qt3DRender6Render5Quick25Quick3DRenderTargetOutput11qt_metacastEPKc
libQt63DQuickRender.so.6:_ZN10Qt3DRender6Render5Quick25Quick3DRenderTargetOutput14qmlAttachmentsEv
libQt63DQuickRender.so.6:_ZN10Qt3DRender6Render5Quick25Quick3DRenderTargetOutput16staticMetaObjectE
libQt63DQuickRender.so.6:_ZN10Qt3DRender6Render5Quick25Quick3DRenderTargetOutputC1EP7QObject
libQt63DQuickRender.so.6:_ZN10Qt3DRender6Render5Quick25Quick3DRenderTargetOutputC2EP7QObject
libQt63DQuickRender.so.6:_ZNK10Qt3DRender6Render5Quick12Quick3DScene10metaObjectEv
libQt63DQuickRender.so.6:_ZNK10Qt3DRender6Render5Quick13Quick3DEffect10metaObjectEv
libQt63DQuickRender.so.6:_ZNK10Qt3DRender6Render5Quick15Quick3DMaterial10metaObjectEv
libQt63DQuickRender.so.6:_ZNK10Qt3DRender6Render5Quick15Quick3DStateSet10metaObjectEv
libQt63DQuickRender.so.6:_ZNK10Qt3DRender6Render5Quick15Quick3DViewport10metaObjectEv
libQt63DQuickRender.so.6:_ZNK10Qt3DRender6Render5Quick16Quick3DParameter10metaObjectEv
libQt63DQuickRender.so.6:_ZNK10Qt3DRender6Render5Quick16Quick3DRayCaster10metaObjectEv
libQt63DQuickRender.so.6:_ZNK10Qt3DRender6Render5Quick16Quick3DTechnique10metaObjectEv
libQt63DQuickRender.so.6:_ZNK10Qt3DRender6Render5Quick17Quick3DRenderPass10metaObjectEv
libQt63DQuickRender.so.6:_ZNK10Qt3DRender6Render5Quick17Quick3DShaderData10metaObjectEv
libQt63DQuickRender.so.6:_ZNK10Qt3DRender6Render5Quick18Quick3DLayerFilter10metaObjectEv
libQt63DQuickRender.so.6:_ZNK10Qt3DRender6Render5Quick20Quick3DMemoryBarrier10metaObjectEv
libQt63DQuickRender.so.6:_ZNK10Qt3DRender6Render5Quick20Quick3DMemoryBarrier7waitForEv
libQt63DQuickRender.so.6:_ZNK10Qt3DRender6Render5Quick22Quick3DScreenRayCaster10metaObjectEv
libQt63DQuickRender.so.6:_ZNK10Qt3DRender6Render5Quick22Quick3DShaderDataArray10metaObjectEv
libQt63DQuickRender.so.6:_ZNK10Qt3DRender6Render5Quick22Quick3DShaderDataArray6valuesEv
libQt63DQuickRender.so.6:_ZNK10Qt3DRender6Render5Quick22Quick3DTechniqueFilter10metaObjectEv
libQt63DQuickRender.so.6:_ZNK10Qt3DRender6Render5Quick23Quick3DRenderPassFilter10metaObjectEv
libQt63DQuickRender.so.6:_ZNK10Qt3DRender6Render5Quick23Quick3DTextureExtension10metaObjectEv
libQt63DQuickRender.so.6:_ZNK10Qt3DRender6Render5Quick25Quick3DRenderTargetOutput10metaObjectEv
libQt63DQuickRender.so.6:_ZTIN10Qt3DRender6Render5Quick12Quick3DSceneE
libQt63DQuickRender.so.6:_ZTIN10Qt3DRender6Render5Quick13Quick3DEffectE
libQt63DQuickRender.so.6:_ZTIN10Qt3DRender6Render5Quick15Quick3DMaterialE
libQt63DQuickRender.so.6:_ZTIN10Qt3DRender6Render5Quick15Quick3DStateSetE
libQt63DQuickRender.so.6:_ZTIN10Qt3DRender6Render5Quick15Quick3DViewportE
libQt63DQuickRender.so.6:_ZTIN10Qt3DRender6Render5Quick16Quick3DParameterE
libQt63DQuickRender.so.6:_ZTIN10Qt3DRender6Render5Quick16Quick3DRayCasterE
libQt63DQuickRender.so.6:_ZTIN10Qt3DRender6Render5Quick16Quick3DTechniqueE
libQt63DQuickRender.so.6:_ZTIN10Qt3DRender6Render5Quick17Quick3DRenderPassE
libQt63DQuickRender.so.6:_ZTIN10Qt3DRender6Render5Quick17Quick3DShaderDataE
libQt63DQuickRender.so.6:_ZTIN10Qt3DRender6Render5Quick18Quick3DLayerFilterE
libQt63DQuickRender.so.6:_ZTIN10Qt3DRender6Render5Quick20Quick3DMemoryBarrierE
libQt63DQuickRender.so.6:_ZTIN10Qt3DRender6Render5Quick22Quick3DScreenRayCasterE
libQt63DQuickRender.so.6:_ZTIN10Qt3DRender6Render5Quick22Quick3DShaderDataArrayE
libQt63DQuickRender.so.6:_ZTIN10Qt3DRender6Render5Quick22Quick3DTechniqueFilterE
libQt63DQuickRender.so.6:_ZTIN10Qt3DRender6Render5Quick23Quick3DRenderPassFilterE
libQt63DQuickRender.so.6:_ZTIN10Qt3DRender6Render5Quick23Quick3DTextureExtensionE
libQt63DQuickRender.so.6:_ZTIN10Qt3DRender6Render5Quick25Quick3DRenderTargetOutputE
libQt63DQuickRender.so.6:_ZTSN10Qt3DRender6Render5Quick12Quick3DSceneE
libQt63DQuickRender.so.6:_ZTSN10Qt3DRender6Render5Quick13Quick3DEffectE
libQt63DQuickRender.so.6:_ZTSN10Qt3DRender6Render5Quick15Quick3DMaterialE
libQt63DQuickRender.so.6:_ZTSN10Qt3DRender6Render5Quick15Quick3DStateSetE
libQt63DQuickRender.so.6:_ZTSN10Qt3DRender6Render5Quick15Quick3DViewportE
libQt63DQuickRender.so.6:_ZTSN10Qt3DRender6Render5Quick16Quick3DParameterE
libQt63DQuickRender.so.6:_ZTSN10Qt3DRender6Render5Quick16Quick3DRayCasterE
libQt63DQuickRender.so.6:_ZTSN10Qt3DRender6Render5Quick16Quick3DTechniqueE
libQt63DQuickRender.so.6:_ZTSN10Qt3DRender6Render5Quick17Quick3DRenderPassE
libQt63DQuickRender.so.6:_ZTSN10Qt3DRender6Render5Quick17Quick3DShaderDataE
libQt63DQuickRender.so.6:_ZTSN10Qt3DRender6Render5Quick18Quick3DLayerFilterE
libQt63DQuickRender.so.6:_ZTSN10Qt3DRender6Render5Quick20Quick3DMemoryBarrierE
libQt63DQuickRender.so.6:_ZTSN10Qt3DRender6Render5Quick22Quick3DScreenRayCasterE
libQt63DQuickRender.so.6:_ZTSN10Qt3DRender6Render5Quick22Quick3DShaderDataArrayE
libQt63DQuickRender.so.6:_ZTSN10Qt3DRender6Render5Quick22Quick3DTechniqueFilterE
libQt63DQuickRender.so.6:_ZTSN10Qt3DRender6Render5Quick23Quick3DRenderPassFilterE
libQt63DQuickRender.so.6:_ZTSN10Qt3DRender6Render5Quick23Quick3DTextureExtensionE
libQt63DQuickRender.so.6:_ZTSN10Qt3DRender6Render5Quick25Quick3DRenderTargetOutputE
libQt63DQuickRender.so.6:_ZTVN10Qt3DRender6Render5Quick12Quick3DSceneE
libQt63DQuickRender.so.6:_ZTVN10Qt3DRender6Render5Quick13Quick3DEffectE
libQt63DQuickRender.so.6:_ZTVN10Qt3DRender6Render5Quick15Quick3DMaterialE
libQt63DQuickRender.so.6:_ZTVN10Qt3DRender6Render5Quick15Quick3DStateSetE
libQt63DQuickRender.so.6:_ZTVN10Qt3DRender6Render5Quick15Quick3DViewportE
libQt63DQuickRender.so.6:_ZTVN10Qt3DRender6Render5Quick16Quick3DParameterE
libQt63DQuickRender.so.6:_ZTVN10Qt3DRender6Render5Quick16Quick3DRayCasterE
libQt63DQuickRender.so.6:_ZTVN10Qt3DRender6Render5Quick16Quick3DTechniqueE
libQt63DQuickRender.so.6:_ZTVN10Qt3DRender6Render5Quick17Quick3DRenderPassE
libQt63DQuickRender.so.6:_ZTVN10Qt3DRender6Render5Quick17Quick3DShaderDataE
libQt63DQuickRender.so.6:_ZTVN10Qt3DRender6Render5Quick18Quick3DLayerFilterE
libQt63DQuickRender.so.6:_ZTVN10Qt3DRender6Render5Quick20Quick3DMemoryBarrierE
libQt63DQuickRender.so.6:_ZTVN10Qt3DRender6Render5Quick22Quick3DScreenRayCasterE
libQt63DQuickRender.so.6:_ZTVN10Qt3DRender6Render5Quick22Quick3DShaderDataArrayE
libQt63DQuickRender.so.6:_ZTVN10Qt3DRender6Render5Quick22Quick3DTechniqueFilterE
libQt63DQuickRender.so.6:_ZTVN10Qt3DRender6Render5Quick23Quick3DRenderPassFilterE
libQt63DQuickRender.so.6:_ZTVN10Qt3DRender6Render5Quick23Quick3DTextureExtensionE
libQt63DQuickRender.so.6:_ZTVN10Qt3DRender6Render5Quick25Quick3DRenderTargetOutputE
libQt63DQuickScene2D.so.6:_Z34qml_register_types_QtQuick_Scene2Dv
libQt63DQuickScene2D.so.6:_ZN10Qt3DRender17initScene2dPluginEv
libQt63DQuickScene2D.so.6:_ZN10Qt3DRender5Quick19Scene2DSharedObject11requestQuitEv
libQt63DQuickScene2D.so.6:_ZN10Qt3DRender5Quick19Scene2DSharedObject11setPreparedEv
libQt63DQuickScene2D.so.6:_ZN10Qt3DRender5Quick19Scene2DSharedObject13requestRenderEb
libQt63DQuickScene2D.so.6:_ZN10Qt3DRender5Quick19Scene2DSharedObject14disallowRenderEv
libQt63DQuickScene2D.so.6:_ZN10Qt3DRender5Quick19Scene2DSharedObject14setInitializedEv
libQt63DQuickScene2D.so.6:_ZN10Qt3DRender5Quick19Scene2DSharedObject16clearSyncRequestEv
libQt63DQuickScene2D.so.6:_ZN10Qt3DRender5Quick19Scene2DSharedObject4waitEv
libQt63DQuickScene2D.so.6:_ZN10Qt3DRender5Quick19Scene2DSharedObject4wakeEv
libQt63DQuickScene2D.so.6:_ZN10Qt3DRender5Quick19Scene2DSharedObject7cleanupEv
libQt63DQuickScene2D.so.6:_ZN10Qt3DRender5Quick19Scene2DSharedObjectC1EPNS0_14Scene2DManagerE
libQt63DQuickScene2D.so.6:_ZN10Qt3DRender5Quick19Scene2DSharedObjectC2EPNS0_14Scene2DManagerE
libQt63DQuickScene2D.so.6:_ZN10Qt3DRender5Quick19Scene2DSharedObjectD1Ev
libQt63DQuickScene2D.so.6:_ZN10Qt3DRender5Quick19Scene2DSharedObjectD2Ev
libQt63DQuickScene2D.so.6:_ZN10Qt3DRender5Quick25Quick3DScene2D_initializeEv
libQt63DQuickScene2D.so.6:_ZN10Qt3DRender5Quick27Quick3DScene2D_registerTypeEPKcS2_ii
libQt63DQuickScene2D.so.6:_ZN10Qt3DRender5Quick8QScene2D11itemChangedEP10QQuickItem
libQt63DQuickScene2D.so.6:_ZN10Qt3DRender5Quick8QScene2D11qt_metacallEN11QMetaObject4CallEiPPv
libQt63DQuickScene2D.so.6:_ZN10Qt3DRender5Quick8QScene2D11qt_metacastEPKc
libQt63DQuickScene2D.so.6:_ZN10Qt3DRender5Quick8QScene2D12removeEntityEPN8Qt3DCore7QEntityE
libQt63DQuickScene2D.so.6:_ZN10Qt3DRender5Quick8QScene2D13outputChangedEPNS_19QRenderTargetOutputE
libQt63DQuickScene2D.so.6:_ZN10Qt3DRender5Quick8QScene2D15setMouseEnabledEb
libQt63DQuickScene2D.so.6:_ZN10Qt3DRender5Quick8QScene2D15setRenderPolicyENS1_12RenderPolicyE
libQt63DQuickScene2D.so.6:_ZN10Qt3DRender5Quick8QScene2D16staticMetaObjectE
libQt63DQuickScene2D.so.6:_ZN10Qt3DRender5Quick8QScene2D19mouseEnabledChangedEb
libQt63DQuickScene2D.so.6:_ZN10Qt3DRender5Quick8QScene2D19renderPolicyChangedENS1_12RenderPolicyE
libQt63DQuickScene2D.so.6:_ZN10Qt3DRender5Quick8QScene2D7setItemEP10QQuickItem
libQt63DQuickScene2D.so.6:_ZN10Qt3DRender5Quick8QScene2D9addEntityEPN8Qt3DCore7QEntityE
libQt63DQuickScene2D.so.6:_ZN10Qt3DRender5Quick8QScene2D9setOutputEPNS_19QRenderTargetOutputE
libQt63DQuickScene2D.so.6:_ZN10Qt3DRender5Quick8QScene2DC1EPN8Qt3DCore5QNodeE
libQt63DQuickScene2D.so.6:_ZN10Qt3DRender5Quick8QScene2DC2EPN8Qt3DCore5QNodeE
libQt63DQuickScene2D.so.6:_ZN10Qt3DRender6Render5Quick15QQuick3DScene2D11qt_metacallEN11QMetaObject4CallEiPPv
libQt63DQuickScene2D.so.6:_ZN10Qt3DRender6Render5Quick15QQuick3DScene2D11qt_metacastEPKc
libQt63DQuickScene2D.so.6:_ZN10Qt3DRender6Render5Quick15QQuick3DScene2D16staticMetaObjectE
libQt63DQuickScene2D.so.6:_ZN10Qt3DRender6Render5Quick15QQuick3DScene2D8entitiesEv
libQt63DQuickScene2D.so.6:_ZN10Qt3DRender6Render5Quick15QQuick3DScene2DC1EP7QObject
libQt63DQuickScene2D.so.6:_ZN10Qt3DRender6Render5Quick15QQuick3DScene2DC2EP7QObject
libQt63DQuickScene2D.so.6:_ZN10Qt3DRender6Render5Quick7Scene2D15handlePickEventEiPKNS_10QPickEventE
libQt63DQuickScene2D.so.6:_ZN10Qt3DRender6Render5Quick7Scene2D15setSharedObjectE14QSharedPointerINS_5Quick19Scene2DSharedObjectEE
libQt63DQuickScene2D.so.6:_ZN10Qt3DRender6Render5Quick7Scene2D16initializeRenderEv
libQt63DQuickScene2D.so.6:_ZN10Qt3DRender6Render5Quick7Scene2D16syncFromFrontEndEPKN8Qt3DCore5QNodeEb
libQt63DQuickScene2D.so.6:_ZN10Qt3DRender6Render5Quick7Scene2D17syncRenderControlEv
libQt63DQuickScene2D.so.6:_ZN10Qt3DRender6Render5Quick7Scene2D22initializeSharedObjectEv
libQt63DQuickScene2D.so.6:_ZN10Qt3DRender6Render5Quick7Scene2D26registerObjectPickerEventsEPN8Qt3DCore7QEntityE
libQt63DQuickScene2D.so.6:_ZN10Qt3DRender6Render5Quick7Scene2D28unregisterObjectPickerEventsEN8Qt3DCore7QNodeIdE
libQt63DQuickScene2D.so.6:_ZN10Qt3DRender6Render5Quick7Scene2D6renderEv
libQt63DQuickScene2D.so.6:_ZN10Qt3DRender6Render5Quick7Scene2D7cleanupEv
libQt63DQuickScene2D.so.6:_ZN10Qt3DRender6Render5Quick7Scene2D9setOutputEN8Qt3DCore7QNodeIdE
libQt63DQuickScene2D.so.6:_ZN10Qt3DRender6Render5Quick7Scene2D9updateFboEP14QOpenGLTexture
libQt63DQuickScene2D.so.6:_ZN10Qt3DRender6Render5Quick7Scene2DC1Ev
libQt63DQuickScene2D.so.6:_ZN10Qt3DRender6Render5Quick7Scene2DC2Ev
libQt63DQuickScene2D.so.6:_ZN10Qt3DRender6Render5Quick7Scene2DD0Ev
libQt63DQuickScene2D.so.6:_ZN10Qt3DRender6Render5Quick7Scene2DD1Ev
libQt63DQuickScene2D.so.6:_ZN10Qt3DRender6Render5Quick7Scene2DD2Ev
libQt63DQuickScene2D.so.6:_ZNK10Qt3DRender5Quick19Scene2DSharedObject10isPreparedEv
libQt63DQuickScene2D.so.6:_ZNK10Qt3DRender5Quick19Scene2DSharedObject13isInitializedEv
libQt63DQuickScene2D.so.6:_ZNK10Qt3DRender5Quick19Scene2DSharedObject15isSyncRequestedEv
libQt63DQuickScene2D.so.6:_ZNK10Qt3DRender5Quick19Scene2DSharedObject6isQuitEv
libQt63DQuickScene2D.so.6:_ZNK10Qt3DRender5Quick19Scene2DSharedObject9canRenderEv
libQt63DQuickScene2D.so.6:_ZNK10Qt3DRender5Quick8QScene2D10metaObjectEv
libQt63DQuickScene2D.so.6:_ZNK10Qt3DRender5Quick8QScene2D12renderPolicyEv
libQt63DQuickScene2D.so.6:_ZNK10Qt3DRender5Quick8QScene2D14isMouseEnabledEv
libQt63DQuickScene2D.so.6:_ZNK10Qt3DRender5Quick8QScene2D4itemEv
libQt63DQuickScene2D.so.6:_ZNK10Qt3DRender5Quick8QScene2D6outputEv
libQt63DQuickScene2D.so.6:_ZNK10Qt3DRender5Quick8QScene2D8entitiesEv
libQt63DQuickScene2D.so.6:_ZNK10Qt3DRender6Render5Quick15QQuick3DScene2D10metaObjectEv
libQt63DQuickScene2D.so.6:_ZTIN10Qt3DRender5Quick8QScene2DE
libQt63DQuickScene2D.so.6:_ZTIN10Qt3DRender6Render5Quick15QQuick3DScene2DE
libQt63DQuickScene2D.so.6:_ZTIN10Qt3DRender6Render5Quick7Scene2DE
libQt63DQuickScene2D.so.6:_ZTSN10Qt3DRender5Quick8QScene2DE
libQt63DQuickScene2D.so.6:_ZTSN10Qt3DRender6Render5Quick15QQuick3DScene2DE
libQt63DQuickScene2D.so.6:_ZTSN10Qt3DRender6Render5Quick7Scene2DE
libQt63DQuickScene2D.so.6:_ZTVN10Qt3DRender5Quick8QScene2DE
libQt63DQuickScene2D.so.6:_ZTVN10Qt3DRender6Render5Quick15QQuick3DScene2DE
libQt63DQuickScene2D.so.6:_ZTVN10Qt3DRender6Render5Quick7Scene2DE
libQt63DQuickScene3D.so.6:_Z34qml_register_types_QtQuick_Scene3Dv
libQt63DRender.so.6:_ZN10Qt3DRender10QAlphaTest11qt_metacallEN11QMetaObject4CallEiPPv
libQt63DRender.so.6:_ZN10Qt3DRender10QAlphaTest11qt_metacastEPKc
libQt63DRender.so.6:_ZN10Qt3DRender10QAlphaTest16setAlphaFunctionENS0_13AlphaFunctionE
libQt63DRender.so.6:_ZN10Qt3DRender10QAlphaTest16staticMetaObjectE
libQt63DRender.so.6:_ZN10Qt3DRender10QAlphaTest17setReferenceValueEf
libQt63DRender.so.6:_ZN10Qt3DRender10QAlphaTest20alphaFunctionChangedENS0_13AlphaFunctionE
libQt63DRender.so.6:_ZN10Qt3DRender10QAlphaTest21referenceValueChangedEf
libQt63DRender.so.6:_ZN10Qt3DRender10QAlphaTestC1EPN8Qt3DCore5QNodeE
libQt63DRender.so.6:_ZN10Qt3DRender10QAlphaTestC2EPN8Qt3DCore5QNodeE
libQt63DRender.so.6:_ZN10Qt3DRender10QAlphaTestD0Ev
libQt63DRender.so.6:_ZN10Qt3DRender10QAlphaTestD1Ev
libQt63DRender.so.6:_ZN10Qt3DRender10QAlphaTestD2Ev
libQt63DRender.so.6:_ZN10Qt3DRender10QClipPlane11qt_metacallEN11QMetaObject4CallEiPPv
libQt63DRender.so.6:_ZN10Qt3DRender10QClipPlane11qt_metacastEPKc
libQt63DRender.so.6:_ZN10Qt3DRender10QClipPlane11setDistanceEf
libQt63DRender.so.6:_ZN10Qt3DRender10QClipPlane13normalChangedE9QVector3D
libQt63DRender.so.6:_ZN10Qt3DRender10QClipPlane13setPlaneIndexEi
libQt63DRender.so.6:_ZN10Qt3DRender10QClipPlane15distanceChangedEf
libQt63DRender.so.6:_ZN10Qt3DRender10QClipPlane16staticMetaObjectE
libQt63DRender.so.6:_ZN10Qt3DRender10QClipPlane17planeIndexChangedEi
libQt63DRender.so.6:_ZN10Qt3DRender10QClipPlane9setNormalE9QVector3D
libQt63DRender.so.6:_ZN10Qt3DRender10QClipPlaneC1EPN8Qt3DCore5QNodeE
libQt63DRender.so.6:_ZN10Qt3DRender10QClipPlaneC2EPN8Qt3DCore5QNodeE
libQt63DRender.so.6:_ZN10Qt3DRender10QClipPlaneD0Ev
libQt63DRender.so.6:_ZN10Qt3DRender10QClipPlaneD1Ev
libQt63DRender.so.6:_ZN10Qt3DRender10QClipPlaneD2Ev
libQt63DRender.so.6:_ZN10Qt3DRender10QColorMask11qt_metacallEN11QMetaObject4CallEiPPv
libQt63DRender.so.6:_ZN10Qt3DRender10QColorMask11qt_metacastEPKc
libQt63DRender.so.6:_ZN10Qt3DRender10QColorMask12setRedMaskedEb
libQt63DRender.so.6:_ZN10Qt3DRender10QColorMask13setBlueMaskedEb
libQt63DRender.so.6:_ZN10Qt3DRender10QColorMask14setAlphaMaskedEb
libQt63DRender.so.6:_ZN10Qt3DRender10QColorMask14setGreenMaskedEb
libQt63DRender.so.6:_ZN10Qt3DRender10QColorMask16redMaskedChangedEb
libQt63DRender.so.6:_ZN10Qt3DRender10QColorMask16staticMetaObjectE
libQt63DRender.so.6:_ZN10Qt3DRender10QColorMask17blueMaskedChangedEb
libQt63DRender.so.6:_ZN10Qt3DRender10QColorMask18alphaMaskedChangedEb
libQt63DRender.so.6:_ZN10Qt3DRender10QColorMask18greenMaskedChangedEb
libQt63DRender.so.6:_ZN10Qt3DRender10QColorMaskC1EPN8Qt3DCore5QNodeE
libQt63DRender.so.6:_ZN10Qt3DRender10QColorMaskC2EPN8Qt3DCore5QNodeE
libQt63DRender.so.6:_ZN10Qt3DRender10QColorMaskD0Ev
libQt63DRender.so.6:_ZN10Qt3DRender10QColorMaskD1Ev
libQt63DRender.so.6:_ZN10Qt3DRender10QColorMaskD2Ev
libQt63DRender.so.6:_ZN10Qt3DRender10QDepthTest11qt_metacallEN11QMetaObject4CallEiPPv
libQt63DRender.so.6:_ZN10Qt3DRender10QDepthTest11qt_metacastEPKc
libQt63DRender.so.6:_ZN10Qt3DRender10QDepthTest16setDepthFunctionENS0_13DepthFunctionE
libQt63DRender.so.6:_ZN10Qt3DRender10QDepthTest16staticMetaObjectE
libQt63DRender.so.6:_ZN10Qt3DRender10QDepthTest20depthFunctionChangedENS0_13DepthFunctionE
libQt63DRender.so.6:_ZN10Qt3DRender10QDepthTestC1EPN8Qt3DCore5QNodeE
libQt63DRender.so.6:_ZN10Qt3DRender10QDepthTestC2EPN8Qt3DCore5QNodeE
libQt63DRender.so.6:_ZN10Qt3DRender10QDepthTestD0Ev
libQt63DRender.so.6:_ZN10Qt3DRender10QDepthTestD1Ev
libQt63DRender.so.6:_ZN10Qt3DRender10QDepthTestD2Ev
libQt63DRender.so.6:_ZN10Qt3DRender10QDithering11qt_metacallEN11QMetaObject4CallEiPPv
libQt63DRender.so.6:_ZN10Qt3DRender10QDithering11qt_metacastEPKc
libQt63DRender.so.6:_ZN10Qt3DRender10QDithering16staticMetaObjectE
libQt63DRender.so.6:_ZN10Qt3DRender10QDitheringC1EPN8Qt3DCore5QNodeE
libQt63DRender.so.6:_ZN10Qt3DRender10QDitheringC2EPN8Qt3DCore5QNodeE
libQt63DRender.so.6:_ZN10Qt3DRender10QDitheringD0Ev
libQt63DRender.so.6:_ZN10Qt3DRender10QDitheringD1Ev
libQt63DRender.so.6:_ZN10Qt3DRender10QDitheringD2Ev
libQt63DRender.so.6:_ZN10Qt3DRender10QFilterKey11nameChangedERK7QString
libQt63DRender.so.6:_ZN10Qt3DRender10QFilterKey11qt_metacallEN11QMetaObject4CallEiPPv
libQt63DRender.so.6:_ZN10Qt3DRender10QFilterKey11qt_metacastEPKc
libQt63DRender.so.6:_ZN10Qt3DRender10QFilterKey12valueChangedERK8QVariant
libQt63DRender.so.6:_ZN10Qt3DRender10QFilterKey16staticMetaObjectE
libQt63DRender.so.6:_ZN10Qt3DRender10QFilterKey7setNameERK7QString
libQt63DRender.so.6:_ZN10Qt3DRender10QFilterKey8setValueERK8QVariant
libQt63DRender.so.6:_ZN10Qt3DRender10QFilterKeyC1EPN8Qt3DCore5QNodeE
libQt63DRender.so.6:_ZN10Qt3DRender10QFilterKeyC2EPN8Qt3DCore5QNodeE
libQt63DRender.so.6:_ZN10Qt3DRender10QFilterKeyD0Ev
libQt63DRender.so.6:_ZN10Qt3DRender10QFilterKeyD1Ev
libQt63DRender.so.6:_ZN10Qt3DRender10QFilterKeyD2Ev
libQt63DRender.so.6:_ZN10Qt3DRender10QFrontFace11qt_metacallEN11QMetaObject4CallEiPPv
libQt63DRender.so.6:_ZN10Qt3DRender10QFrontFace11qt_metacastEPKc
libQt63DRender.so.6:_ZN10Qt3DRender10QFrontFace12setDirectionENS0_16WindingDirectionE
libQt63DRender.so.6:_ZN10Qt3DRender10QFrontFace16directionChangedENS0_16WindingDirectionE
libQt63DRender.so.6:_ZN10Qt3DRender10QFrontFace16staticMetaObjectE
libQt63DRender.so.6:_ZN10Qt3DRender10QFrontFaceC1EPN8Qt3DCore5QNodeE
libQt63DRender.so.6:_ZN10Qt3DRender10QFrontFaceC2EPN8Qt3DCore5QNodeE
libQt63DRender.so.6:_ZN10Qt3DRender10QFrontFaceD0Ev
libQt63DRender.so.6:_ZN10Qt3DRender10QFrontFaceD1Ev
libQt63DRender.so.6:_ZN10Qt3DRender10QFrontFaceD2Ev
libQt63DRender.so.6:_ZN10Qt3DRender10QLineWidth11qt_metacallEN11QMetaObject4CallEiPPv
libQt63DRender.so.6:_ZN10Qt3DRender10QLineWidth11qt_metacastEPKc
libQt63DRender.so.6:_ZN10Qt3DRender10QLineWidth12valueChangedEf
libQt63DRender.so.6:_ZN10Qt3DRender10QLineWidth13smoothChangedEb
libQt63DRender.so.6:_ZN10Qt3DRender10QLineWidth16staticMetaObjectE
libQt63DRender.so.6:_ZN10Qt3DRender10QLineWidth8setValueEf
libQt63DRender.so.6:_ZN10Qt3DRender10QLineWidth9setSmoothEb
libQt63DRender.so.6:_ZN10Qt3DRender10QLineWidthC1EPN8Qt3DCore5QNodeE
libQt63DRender.so.6:_ZN10Qt3DRender10QLineWidthC2EPN8Qt3DCore5QNodeE
libQt63DRender.so.6:_ZN10Qt3DRender10QLineWidthD0Ev
libQt63DRender.so.6:_ZN10Qt3DRender10QLineWidthD1Ev
libQt63DRender.so.6:_ZN10Qt3DRender10QLineWidthD2Ev
libQt63DRender.so.6:_ZN10Qt3DRender10QNoPicking11qt_metacallEN11QMetaObject4CallEiPPv
libQt63DRender.so.6:_ZN10Qt3DRender10QNoPicking11qt_metacastEPKc
libQt63DRender.so.6:_ZN10Qt3DRender10QNoPicking16staticMetaObjectE
libQt63DRender.so.6:_ZN10Qt3DRender10QNoPickingC1EPN8Qt3DCore5QNodeE
libQt63DRender.so.6:_ZN10Qt3DRender10QNoPickingC2EPN8Qt3DCore5QNodeE
libQt63DRender.so.6:_ZN10Qt3DRender10QNoPickingD0Ev
libQt63DRender.so.6:_ZN10Qt3DRender10QNoPickingD1Ev
libQt63DRender.so.6:_ZN10Qt3DRender10QNoPickingD2Ev
libQt63DRender.so.6:_ZN10Qt3DRender10QParameter11nameChangedERK7QString
libQt63DRender.so.6:_ZN10Qt3DRender10QParameter11qt_metacallEN11QMetaObject4CallEiPPv
libQt63DRender.so.6:_ZN10Qt3DRender10QParameter11qt_metacastEPKc
libQt63DRender.so.6:_ZN10Qt3DRender10QParameter12valueChangedERK8QVariant
libQt63DRender.so.6:_ZN10Qt3DRender10QParameter16staticMetaObjectE
libQt63DRender.so.6:_ZN10Qt3DRender10QParameter7setNameERK7QString
libQt63DRender.so.6:_ZN10Qt3DRender10QParameter8setValueERK8QVariant
libQt63DRender.so.6:_ZN10Qt3DRender10QParameterC1EPN8Qt3DCore5QNodeE
libQt63DRender.so.6:_ZN10Qt3DRender10QParameterC1ERK7QStringPNS_16QAbstractTextureEPN8Qt3DCore5QNodeE
libQt63DRender.so.6:_ZN10Qt3DRender10QParameterC1ERK7QStringRK8QVariantPN8Qt3DCore5QNodeE
libQt63DRender.so.6:_ZN10Qt3DRender10QParameterC1ERNS_17QParameterPrivateEPN8Qt3DCore5QNodeE
libQt63DRender.so.6:_ZN10Qt3DRender10QParameterC2EPN8Qt3DCore5QNodeE
libQt63DRender.so.6:_ZN10Qt3DRender10QParameterC2ERK7QStringPNS_16QAbstractTextureEPN8Qt3DCore5QNodeE
libQt63DRender.so.6:_ZN10Qt3DRender10QParameterC2ERK7QStringRK8QVariantPN8Qt3DCore5QNodeE
libQt63DRender.so.6:_ZN10Qt3DRender10QParameterC2ERNS_17QParameterPrivateEPN8Qt3DCore5QNodeE
libQt63DRender.so.6:_ZN10Qt3DRender10QParameterD0Ev
libQt63DRender.so.6:_ZN10Qt3DRender10QParameterD1Ev
libQt63DRender.so.6:_ZN10Qt3DRender10QParameterD2Ev
libQt63DRender.so.6:_ZN10Qt3DRender10QPickEvent11qt_metacallEN11QMetaObject4CallEiPPv
libQt63DRender.so.6:_ZN10Qt3DRender10QPickEvent11qt_metacastEPKc
libQt63DRender.so.6:_ZN10Qt3DRender10QPickEvent11setAcceptedEb
libQt63DRender.so.6:_ZN10Qt3DRender10QPickEvent15acceptedChangedEb
libQt63DRender.so.6:_ZN10Qt3DRender10QPickEvent16staticMetaObjectE
libQt63DRender.so.6:_ZN10Qt3DRender10QPickEventC1ER14QObjectPrivateP7QObject
libQt63DRender.so.6:_ZN10Qt3DRender10QPickEventC1ERK7QPointFRK9QVector3DS6_f
libQt63DRender.so.6:_ZN10Qt3DRender10QPickEventC1ERK7QPointFRK9QVector3DS6_fNS0_7ButtonsEii
libQt63DRender.so.6:_ZN10Qt3DRender10QPickEventC1Ev
libQt63DRender.so.6:_ZN10Qt3DRender10QPickEventC2ER14QObjectPrivateP7QObject
libQt63DRender.so.6:_ZN10Qt3DRender10QPickEventC2ERK7QPointFRK9QVector3DS6_f
libQt63DRender.so.6:_ZN10Qt3DRender10QPickEventC2ERK7QPointFRK9QVector3DS6_fNS0_7ButtonsEii
libQt63DRender.so.6:_ZN10Qt3DRender10QPickEventC2Ev
libQt63DRender.so.6:_ZN10Qt3DRender10QPickEventD0Ev
libQt63DRender.so.6:_ZN10Qt3DRender10QPickEventD1Ev
libQt63DRender.so.6:_ZN10Qt3DRender10QPickEventD2Ev
libQt63DRender.so.6:_ZN10Qt3DRender10QPointSize11qt_metacallEN11QMetaObject4CallEiPPv
libQt63DRender.so.6:_ZN10Qt3DRender10QPointSize11qt_metacastEPKc
libQt63DRender.so.6:_ZN10Qt3DRender10QPointSize11setSizeModeENS0_8SizeModeE
libQt63DRender.so.6:_ZN10Qt3DRender10QPointSize12valueChangedEf
libQt63DRender.so.6:_ZN10Qt3DRender10QPointSize15sizeModeChangedENS0_8SizeModeE
libQt63DRender.so.6:_ZN10Qt3DRender10QPointSize16staticMetaObjectE
libQt63DRender.so.6:_ZN10Qt3DRender10QPointSize8setValueEf
libQt63DRender.so.6:_ZN10Qt3DRender10QPointSizeC1EPN8Qt3DCore5QNodeE
libQt63DRender.so.6:_ZN10Qt3DRender10QPointSizeC2EPN8Qt3DCore5QNodeE
libQt63DRender.so.6:_ZN10Qt3DRender10QPointSizeD0Ev
libQt63DRender.so.6:_ZN10Qt3DRender10QPointSizeD1Ev
libQt63DRender.so.6:_ZN10Qt3DRender10QPointSizeD2Ev
libQt63DRender.so.6:_ZN10Qt3DRender10QRayCaster11qt_metacallEN11QMetaObject4CallEiPPv
libQt63DRender.so.6:_ZN10Qt3DRender10QRayCaster11qt_metacastEPKc
libQt63DRender.so.6:_ZN10Qt3DRender10QRayCaster12setDirectionERK9QVector3D
libQt63DRender.so.6:_ZN10Qt3DRender10QRayCaster13lengthChangedEf
libQt63DRender.so.6:_ZN10Qt3DRender10QRayCaster13originChangedERK9QVector3D
libQt63DRender.so.6:_ZN10Qt3DRender10QRayCaster16directionChangedERK9QVector3D
libQt63DRender.so.6:_ZN10Qt3DRender10QRayCaster16staticMetaObjectE
libQt63DRender.so.6:_ZN10Qt3DRender10QRayCaster4pickERK9QVector3DS3_f
libQt63DRender.so.6:_ZN10Qt3DRender10QRayCaster7triggerERK9QVector3DS3_f
libQt63DRender.so.6:_ZN10Qt3DRender10QRayCaster7triggerEv
libQt63DRender.so.6:_ZN10Qt3DRender10QRayCaster9setLengthEf
libQt63DRender.so.6:_ZN10Qt3DRender10QRayCaster9setOriginERK9QVector3D
libQt63DRender.so.6:_ZN10Qt3DRender10QRayCasterC1EPN8Qt3DCore5QNodeE
libQt63DRender.so.6:_ZN10Qt3DRender10QRayCasterC1ERNS_25QAbstractRayCasterPrivateEPN8Qt3DCore5QNodeE
libQt63DRender.so.6:_ZN10Qt3DRender10QRayCasterC2EPN8Qt3DCore5QNodeE
libQt63DRender.so.6:_ZN10Qt3DRender10QRayCasterC2ERNS_25QAbstractRayCasterPrivateEPN8Qt3DCore5QNodeE
libQt63DRender.so.6:_ZN10Qt3DRender10QRayCasterD0Ev
libQt63DRender.so.6:_ZN10Qt3DRender10QRayCasterD1Ev
libQt63DRender.so.6:_ZN10Qt3DRender10QRayCasterD2Ev
libQt63DRender.so.6:_ZN10Qt3DRender10QSpotLight11qt_metacallEN11QMetaObject4CallEiPPv
libQt63DRender.so.6:_ZN10Qt3DRender10QSpotLight11qt_metacastEPKc
libQt63DRender.so.6:_ZN10Qt3DRender10QSpotLight14setCutOffAngleEf
libQt63DRender.so.6:_ZN10Qt3DRender10QSpotLight16staticMetaObjectE
libQt63DRender.so.6:_ZN10Qt3DRender10QSpotLight17setLocalDirectionERK9QVector3D
libQt63DRender.so.6:_ZN10Qt3DRender10QSpotLight18cutOffAngleChangedEf
libQt63DRender.so.6:_ZN10Qt3DRender10QSpotLight20setLinearAttenuationEf
libQt63DRender.so.6:_ZN10Qt3DRender10QSpotLight21localDirectionChangedERK9QVector3D
libQt63DRender.so.6:_ZN10Qt3DRender10QSpotLight22setConstantAttenuationEf
libQt63DRender.so.6:_ZN10Qt3DRender10QSpotLight23setQuadraticAttenuationEf
libQt63DRender.so.6:_ZN10Qt3DRender10QSpotLight24linearAttenuationChangedEf
libQt63DRender.so.6:_ZN10Qt3DRender10QSpotLight26constantAttenuationChangedEf
libQt63DRender.so.6:_ZN10Qt3DRender10QSpotLight27quadraticAttenuationChangedEf
libQt63DRender.so.6:_ZN10Qt3DRender10QSpotLightC1EPN8Qt3DCore5QNodeE
libQt63DRender.so.6:_ZN10Qt3DRender10QSpotLightC1ERNS_17QSpotLightPrivateEPN8Qt3DCore5QNodeE
libQt63DRender.so.6:_ZN10Qt3DRender10QSpotLightC2EPN8Qt3DCore5QNodeE
libQt63DRender.so.6:_ZN10Qt3DRender10QSpotLightC2ERNS_17QSpotLightPrivateEPN8Qt3DCore5QNodeE
libQt63DRender.so.6:_ZN10Qt3DRender10QSpotLightD0Ev
libQt63DRender.so.6:_ZN10Qt3DRender10QSpotLightD1Ev
libQt63DRender.so.6:_ZN10Qt3DRender10QSpotLightD2Ev
libQt63DRender.so.6:_ZN10Qt3DRender10QTechnique11qt_metacallEN11QMetaObject4CallEiPPv
libQt63DRender.so.6:_ZN10Qt3DRender10QTechnique11qt_metacastEPKc
libQt63DRender.so.6:_ZN10Qt3DRender10QTechnique12addFilterKeyEPNS_10QFilterKeyE
libQt63DRender.so.6:_ZN10Qt3DRender10QTechnique12addParameterEPNS_10QParameterE
libQt63DRender.so.6:_ZN10Qt3DRender10QTechnique13addRenderPassEPNS_11QRenderPassE
libQt63DRender.so.6:_ZN10Qt3DRender10QTechnique15removeFilterKeyEPNS_10QFilterKeyE
libQt63DRender.so.6:_ZN10Qt3DRender10QTechnique15removeParameterEPNS_10QParameterE
libQt63DRender.so.6:_ZN10Qt3DRender10QTechnique16removeRenderPassEPNS_11QRenderPassE
libQt63DRender.so.6:_ZN10Qt3DRender10QTechnique16staticMetaObjectE
libQt63DRender.so.6:_ZN10Qt3DRender10QTechnique17graphicsApiFilterEv
libQt63DRender.so.6:_ZN10Qt3DRender10QTechniqueC1EPN8Qt3DCore5QNodeE
libQt63DRender.so.6:_ZN10Qt3DRender10QTechniqueC1ERNS_17QTechniquePrivateEPN8Qt3DCore5QNodeE
libQt63DRender.so.6:_ZN10Qt3DRender10QTechniqueC2EPN8Qt3DCore5QNodeE
libQt63DRender.so.6:_ZN10Qt3DRender10QTechniqueC2ERNS_17QTechniquePrivateEPN8Qt3DCore5QNodeE
libQt63DRender.so.6:_ZN10Qt3DRender10QTechniqueD0Ev
libQt63DRender.so.6:_ZN10Qt3DRender10QTechniqueD1Ev
libQt63DRender.so.6:_ZN10Qt3DRender10QTechniqueD2Ev
libQt63DRender.so.6:_ZN10Qt3DRender10QTexture1D11qt_metacallEN11QMetaObject4CallEiPPv
libQt63DRender.so.6:_ZN10Qt3DRender10QTexture1D11qt_metacastEPKc
libQt63DRender.so.6:_ZN10Qt3DRender10QTexture1D16staticMetaObjectE
libQt63DRender.so.6:_ZN10Qt3DRender10QTexture1DC1EPN8Qt3DCore5QNodeE
libQt63DRender.so.6:_ZN10Qt3DRender10QTexture1DC2EPN8Qt3DCore5QNodeE
libQt63DRender.so.6:_ZN10Qt3DRender10QTexture1DD0Ev
libQt63DRender.so.6:_ZN10Qt3DRender10QTexture1DD1Ev
libQt63DRender.so.6:_ZN10Qt3DRender10QTexture1DD2Ev
libQt63DRender.so.6:_ZN10Qt3DRender10QTexture2D11qt_metacallEN11QMetaObject4CallEiPPv
libQt63DRender.so.6:_ZN10Qt3DRender10QTexture2D11qt_metacastEPKc
libQt63DRender.so.6:_ZN10Qt3DRender10QTexture2D16staticMetaObjectE
libQt63DRender.so.6:_ZN10Qt3DRender10QTexture2DC1EPN8Qt3DCore5QNodeE
libQt63DRender.so.6:_ZN10Qt3DRender10QTexture2DC2EPN8Qt3DCore5QNodeE
libQt63DRender.so.6:_ZN10Qt3DRender10QTexture2DD0Ev
libQt63DRender.so.6:_ZN10Qt3DRender10QTexture2DD1Ev
libQt63DRender.so.6:_ZN10Qt3DRender10QTexture2DD2Ev
libQt63DRender.so.6:_ZN10Qt3DRender10QTexture3D11qt_metacallEN11QMetaObject4CallEiPPv
libQt63DRender.so.6:_ZN10Qt3DRender10QTexture3D11qt_metacastEPKc
libQt63DRender.so.6:_ZN10Qt3DRender10QTexture3D16staticMetaObjectE
libQt63DRender.so.6:_ZN10Qt3DRender10QTexture3DC1EPN8Qt3DCore5QNodeE
libQt63DRender.so.6:_ZN10Qt3DRender10QTexture3DC2EPN8Qt3DCore5QNodeE
libQt63DRender.so.6:_ZN10Qt3DRender10QTexture3DD0Ev
libQt63DRender.so.6:_ZN10Qt3DRender10QTexture3DD1Ev
libQt63DRender.so.6:_ZN10Qt3DRender10QTexture3DD2Ev
libQt63DRender.so.6:_ZN10Qt3DRender10QWaitFence10setTimeoutEy
libQt63DRender.so.6:_ZN10Qt3DRender10QWaitFence11qt_metacallEN11QMetaObject4CallEiPPv
libQt63DRender.so.6:_ZN10Qt3DRender10QWaitFence11qt_metacastEPKc
libQt63DRender.so.6:_ZN10Qt3DRender10QWaitFence12setWaitOnCPUEb
libQt63DRender.so.6:_ZN10Qt3DRender10QWaitFence13handleChangedE8QVariant
libQt63DRender.so.6:_ZN10Qt3DRender10QWaitFence13setHandleTypeENS0_10HandleTypeE
libQt63DRender.so.6:_ZN10Qt3DRender10QWaitFence14timeoutChangedEy
libQt63DRender.so.6:_ZN10Qt3DRender10QWaitFence16staticMetaObjectE
libQt63DRender.so.6:_ZN10Qt3DRender10QWaitFence16waitOnCPUChangedEb
libQt63DRender.so.6:_ZN10Qt3DRender10QWaitFence17handleTypeChangedENS0_10HandleTypeE
libQt63DRender.so.6:_ZN10Qt3DRender10QWaitFence9setHandleE8QVariant
libQt63DRender.so.6:_ZN10Qt3DRender10QWaitFenceC1EPN8Qt3DCore5QNodeE
libQt63DRender.so.6:_ZN10Qt3DRender10QWaitFenceC1ERNS_17QWaitFencePrivateEPN8Qt3DCore5QNodeE
libQt63DRender.so.6:_ZN10Qt3DRender10QWaitFenceC2EPN8Qt3DCore5QNodeE
libQt63DRender.so.6:_ZN10Qt3DRender10QWaitFenceC2ERNS_17QWaitFencePrivateEPN8Qt3DCore5QNodeE
libQt63DRender.so.6:_ZN10Qt3DRender10QWaitFenceD0Ev
libQt63DRender.so.6:_ZN10Qt3DRender10QWaitFenceD1Ev
libQt63DRender.so.6:_ZN10Qt3DRender10QWaitFenceD2Ev
libQt63DRender.so.6:_ZN10Qt3DRender10RayCasting14BoundingSphereC2Ev
libQt63DRender.so.6:_ZN10Qt3DRender10RayCasting14BoundingSphereD0Ev
libQt63DRender.so.6:_ZN10Qt3DRender10RayCasting14BoundingSphereD1Ev
libQt63DRender.so.6:_ZN10Qt3DRender10RayCasting14BoundingSphereD2Ev
libQt63DRender.so.6:_ZN10Qt3DRender10RayCasting15QBoundingVolumeC2Ev
libQt63DRender.so.6:_ZN10Qt3DRender10RayCasting15QBoundingVolumeD0Ev
libQt63DRender.so.6:_ZN10Qt3DRender10RayCasting15QBoundingVolumeD1Ev
libQt63DRender.so.6:_ZN10Qt3DRender10RayCasting15QBoundingVolumeD2Ev
libQt63DRender.so.6:_ZN10Qt3DRender10RayCasting18QRayCastingService11fetchResultERKi
libQt63DRender.so.6:_ZN10Qt3DRender10RayCasting18QRayCastingService5queryERKNS0_6QRay3DENS0_30QAbstractCollisionQueryService9QueryModeEPNS0_23QBoundingVolumeProviderE
libQt63DRender.so.6:_ZN10Qt3DRender10RayCasting18QRayCastingService5queryERKNS0_6QRay3DEPKNS0_15QBoundingVolumeE
libQt63DRender.so.6:_ZN10Qt3DRender10RayCasting18QRayCastingServiceC1Ev
libQt63DRender.so.6:_ZN10Qt3DRender10RayCasting18QRayCastingServiceC2Ev
libQt63DRender.so.6:_ZN10Qt3DRender10RayCasting21QCollisionQueryResult6d_funcEv
libQt63DRender.so.6:_ZN10Qt3DRender10RayCasting21QCollisionQueryResultC1ERKS1_
libQt63DRender.so.6:_ZN10Qt3DRender10RayCasting21QCollisionQueryResultC1ERNS0_28QCollisionQueryResultPrivateE
libQt63DRender.so.6:_ZN10Qt3DRender10RayCasting21QCollisionQueryResultC1Ev
libQt63DRender.so.6:_ZN10Qt3DRender10RayCasting21QCollisionQueryResultC2ERKS1_
libQt63DRender.so.6:_ZN10Qt3DRender10RayCasting21QCollisionQueryResultC2ERNS0_28QCollisionQueryResultPrivateE
libQt63DRender.so.6:_ZN10Qt3DRender10RayCasting21QCollisionQueryResultC2Ev
libQt63DRender.so.6:_ZN10Qt3DRender10RayCasting21QCollisionQueryResultD1Ev
libQt63DRender.so.6:_ZN10Qt3DRender10RayCasting21QCollisionQueryResultD2Ev
libQt63DRender.so.6:_ZN10Qt3DRender10RayCasting21QCollisionQueryResultaSERKS1_
libQt63DRender.so.6:_ZN10Qt3DRender10RayCasting23QBoundingVolumeProviderD0Ev
libQt63DRender.so.6:_ZN10Qt3DRender10RayCasting23QBoundingVolumeProviderD1Ev
libQt63DRender.so.6:_ZN10Qt3DRender10RayCasting23QBoundingVolumeProviderD2Ev
libQt63DRender.so.6:_ZN10Qt3DRender10RayCasting30QAbstractCollisionQueryService11qt_metacallEN11QMetaObject4CallEiPPv
libQt63DRender.so.6:_ZN10Qt3DRender10RayCasting30QAbstractCollisionQueryService11qt_metacastEPKc
libQt63DRender.so.6:_ZN10Qt3DRender10RayCasting30QAbstractCollisionQueryService12addEntityHitERNS0_21QCollisionQueryResultEN8Qt3DCore7QNodeIdERKNS4_12Vector3D_SSEEfS8_
libQt63DRender.so.6:_ZN10Qt3DRender10RayCasting30QAbstractCollisionQueryService15setResultHandleERNS0_21QCollisionQueryResultERKi
libQt63DRender.so.6:_ZN10Qt3DRender10RayCasting30QAbstractCollisionQueryService16staticMetaObjectE
libQt63DRender.so.6:_ZN10Qt3DRender10RayCasting30QAbstractCollisionQueryServiceC2ERK7QString
libQt63DRender.so.6:_ZN10Qt3DRender10RayCasting30QAbstractCollisionQueryServiceC2ERNS0_37QAbstractCollisionQueryServicePrivateE
libQt63DRender.so.6:_ZN10Qt3DRender10RayCasting6QRay3D11setDistanceEf
libQt63DRender.so.6:_ZN10Qt3DRender10RayCasting6QRay3D12setDirectionERKN8Qt3DCore12Vector3D_SSEE
libQt63DRender.so.6:_ZN10Qt3DRender10RayCasting6QRay3D9setOriginERKN8Qt3DCore12Vector3D_SSEE
libQt63DRender.so.6:_ZN10Qt3DRender10RayCasting6QRay3D9transformERKN8Qt3DCore13Matrix4x4_SSEE
libQt63DRender.so.6:_ZN10Qt3DRender10RayCasting6QRay3DC1ERKN8Qt3DCore12Vector3D_SSEES5_f
libQt63DRender.so.6:_ZN10Qt3DRender10RayCasting6QRay3DC1Ev
libQt63DRender.so.6:_ZN10Qt3DRender10RayCasting6QRay3DC2ERKN8Qt3DCore12Vector3D_SSEES5_f
libQt63DRender.so.6:_ZN10Qt3DRender10RayCasting6QRay3DC2Ev
libQt63DRender.so.6:_ZN10Qt3DRender10RayCasting6QRay3DD1Ev
libQt63DRender.so.6:_ZN10Qt3DRender10RayCasting6QRay3DD2Ev
libQt63DRender.so.6:_ZN10Qt3DRender10RayCastinglsE6QDebugRKNS0_6QRay3DE
libQt63DRender.so.6:_ZN10Qt3DRender10RayCastinglsER11QDataStreamRKNS0_6QRay3DE
libQt63DRender.so.6:_ZN10Qt3DRender10RayCastingrsER11QDataStreamRNS0_6QRay3DE
libQt63DRender.so.6:_ZN10Qt3DRender11QCameraLens10topChangedEf
libQt63DRender.so.6:_ZN10Qt3DRender11QCameraLens10viewEntityEN8Qt3DCore7QNodeIdES2_
libQt63DRender.so.6:_ZN10Qt3DRender11QCameraLens10viewSphereERK9QVector3Df
libQt63DRender.so.6:_ZN10Qt3DRender11QCameraLens11leftChangedEf
libQt63DRender.so.6:_ZN10Qt3DRender11QCameraLens11qt_metacallEN11QMetaObject4CallEiPPv
libQt63DRender.so.6:_ZN10Qt3DRender11QCameraLens11qt_metacastEPKc
libQt63DRender.so.6:_ZN10Qt3DRender11QCameraLens11setExposureEf
libQt63DRender.so.6:_ZN10Qt3DRender11QCameraLens11setFarPlaneEf
libQt63DRender.so.6:_ZN10Qt3DRender11QCameraLens12rightChangedEf
libQt63DRender.so.6:_ZN10Qt3DRender11QCameraLens12setNearPlaneEf
libQt63DRender.so.6:_ZN10Qt3DRender11QCameraLens13bottomChangedEf
libQt63DRender.so.6:_ZN10Qt3DRender11QCameraLens14setAspectRatioEf
libQt63DRender.so.6:_ZN10Qt3DRender11QCameraLens14setFieldOfViewEf
libQt63DRender.so.6:_ZN10Qt3DRender11QCameraLens15exposureChangedEf
libQt63DRender.so.6:_ZN10Qt3DRender11QCameraLens15farPlaneChangedEf
libQt63DRender.so.6:_ZN10Qt3DRender11QCameraLens16nearPlaneChangedEf
libQt63DRender.so.6:_ZN10Qt3DRender11QCameraLens16staticMetaObjectE
libQt63DRender.so.6:_ZN10Qt3DRender11QCameraLens17setProjectionTypeENS0_14ProjectionTypeE
libQt63DRender.so.6:_ZN10Qt3DRender11QCameraLens18aspectRatioChangedEf
libQt63DRender.so.6:_ZN10Qt3DRender11QCameraLens18fieldOfViewChangedEf
libQt63DRender.so.6:_ZN10Qt3DRender11QCameraLens19setProjectionMatrixERK10QMatrix4x4
libQt63DRender.so.6:_ZN10Qt3DRender11QCameraLens20setFrustumProjectionEffffff
libQt63DRender.so.6:_ZN10Qt3DRender11QCameraLens21projectionTypeChangedENS0_14ProjectionTypeE
libQt63DRender.so.6:_ZN10Qt3DRender11QCameraLens23projectionMatrixChangedERK10QMatrix4x4
libQt63DRender.so.6:_ZN10Qt3DRender11QCameraLens24setPerspectiveProjectionEffff
libQt63DRender.so.6:_ZN10Qt3DRender11QCameraLens25setOrthographicProjectionEffffff
libQt63DRender.so.6:_ZN10Qt3DRender11QCameraLens6setTopEf
libQt63DRender.so.6:_ZN10Qt3DRender11QCameraLens7setLeftEf
libQt63DRender.so.6:_ZN10Qt3DRender11QCameraLens7viewAllEN8Qt3DCore7QNodeIdE
libQt63DRender.so.6:_ZN10Qt3DRender11QCameraLens8setRightEf
libQt63DRender.so.6:_ZN10Qt3DRender11QCameraLens9setBottomEf
libQt63DRender.so.6:_ZN10Qt3DRender11QCameraLensC1EPN8Qt3DCore5QNodeE
libQt63DRender.so.6:_ZN10Qt3DRender11QCameraLensC1ERNS_18QCameraLensPrivateEPN8Qt3DCore5QNodeE
libQt63DRender.so.6:_ZN10Qt3DRender11QCameraLensC2EPN8Qt3DCore5QNodeE
libQt63DRender.so.6:_ZN10Qt3DRender11QCameraLensC2ERNS_18QCameraLensPrivateEPN8Qt3DCore5QNodeE
libQt63DRender.so.6:_ZN10Qt3DRender11QCameraLensD0Ev
libQt63DRender.so.6:_ZN10Qt3DRender11QCameraLensD1Ev
libQt63DRender.so.6:_ZN10Qt3DRender11QCameraLensD2Ev
libQt63DRender.so.6:_ZN10Qt3DRender11QDepthRange11qt_metacallEN11QMetaObject4CallEiPPv
libQt63DRender.so.6:_ZN10Qt3DRender11QDepthRange11qt_metacastEPKc
libQt63DRender.so.6:_ZN10Qt3DRender11QDepthRange11setFarValueEd
libQt63DRender.so.6:_ZN10Qt3DRender11QDepthRange12setNearValueEd
libQt63DRender.so.6:_ZN10Qt3DRender11QDepthRange15farValueChangedEd
libQt63DRender.so.6:_ZN10Qt3DRender11QDepthRange16nearValueChangedEd
libQt63DRender.so.6:_ZN10Qt3DRender11QDepthRange16staticMetaObjectE
libQt63DRender.so.6:_ZN10Qt3DRender11QDepthRangeC1EPN8Qt3DCore5QNodeE
libQt63DRender.so.6:_ZN10Qt3DRender11QDepthRangeC2EPN8Qt3DCore5QNodeE
libQt63DRender.so.6:_ZN10Qt3DRender11QDepthRangeD0Ev
libQt63DRender.so.6:_ZN10Qt3DRender11QDepthRangeD1Ev
libQt63DRender.so.6:_ZN10Qt3DRender11QDepthRangeD2Ev
libQt63DRender.so.6:_ZN10Qt3DRender11QPointLight11qt_metacallEN11QMetaObject4CallEiPPv
libQt63DRender.so.6:_ZN10Qt3DRender11QPointLight11qt_metacastEPKc
libQt63DRender.so.6:_ZN10Qt3DRender11QPointLight16staticMetaObjectE
libQt63DRender.so.6:_ZN10Qt3DRender11QPointLight20setLinearAttenuationEf
libQt63DRender.so.6:_ZN10Qt3DRender11QPointLight22setConstantAttenuationEf
libQt63DRender.so.6:_ZN10Qt3DRender11QPointLight23setQuadraticAttenuationEf
libQt63DRender.so.6:_ZN10Qt3DRender11QPointLight24linearAttenuationChangedEf
libQt63DRender.so.6:_ZN10Qt3DRender11QPointLight26constantAttenuationChangedEf
libQt63DRender.so.6:_ZN10Qt3DRender11QPointLight27quadraticAttenuationChangedEf
libQt63DRender.so.6:_ZN10Qt3DRender11QPointLightC1EPN8Qt3DCore5QNodeE
libQt63DRender.so.6:_ZN10Qt3DRender11QPointLightC1ERNS_18QPointLightPrivateEPN8Qt3DCore5QNodeE
libQt63DRender.so.6:_ZN10Qt3DRender11QPointLightC2EPN8Qt3DCore5QNodeE
libQt63DRender.so.6:_ZN10Qt3DRender11QPointLightC2ERNS_18QPointLightPrivateEPN8Qt3DCore5QNodeE
libQt63DRender.so.6:_ZN10Qt3DRender11QPointLightD0Ev
libQt63DRender.so.6:_ZN10Qt3DRender11QPointLightD1Ev
libQt63DRender.so.6:_ZN10Qt3DRender11QPointLightD2Ev
libQt63DRender.so.6:_ZN10Qt3DRender11QRasterMode11qt_metacallEN11QMetaObject4CallEiPPv
libQt63DRender.so.6:_ZN10Qt3DRender11QRasterMode11qt_metacastEPKc
libQt63DRender.so.6:_ZN10Qt3DRender11QRasterMode11setFaceModeENS0_8FaceModeE
libQt63DRender.so.6:_ZN10Qt3DRender11QRasterMode13setRasterModeENS0_10RasterModeE
libQt63DRender.so.6:_ZN10Qt3DRender11QRasterMode15faceModeChangedENS0_8FaceModeE
libQt63DRender.so.6:_ZN10Qt3DRender11QRasterMode16staticMetaObjectE
libQt63DRender.so.6:_ZN10Qt3DRender11QRasterMode17rasterModeChangedENS0_10RasterModeE
libQt63DRender.so.6:_ZN10Qt3DRender11QRasterModeC1EPN8Qt3DCore5QNodeE
libQt63DRender.so.6:_ZN10Qt3DRender11QRasterModeC2EPN8Qt3DCore5QNodeE
libQt63DRender.so.6:_ZN10Qt3DRender11QRasterModeD0Ev
libQt63DRender.so.6:_ZN10Qt3DRender11QRasterModeD1Ev
libQt63DRender.so.6:_ZN10Qt3DRender11QRasterModeD2Ev
libQt63DRender.so.6:_ZN10Qt3DRender11QRenderPass11qt_metacallEN11QMetaObject4CallEiPPv
libQt63DRender.so.6:_ZN10Qt3DRender11QRenderPass11qt_metacastEPKc
libQt63DRender.so.6:_ZN10Qt3DRender11QRenderPass12addFilterKeyEPNS_10QFilterKeyE
libQt63DRender.so.6:_ZN10Qt3DRender11QRenderPass12addParameterEPNS_10QParameterE
libQt63DRender.so.6:_ZN10Qt3DRender11QRenderPass14addRenderStateEPNS_12QRenderStateE
libQt63DRender.so.6:_ZN10Qt3DRender11QRenderPass15removeFilterKeyEPNS_10QFilterKeyE
libQt63DRender.so.6:_ZN10Qt3DRender11QRenderPass15removeParameterEPNS_10QParameterE
libQt63DRender.so.6:_ZN10Qt3DRender11QRenderPass16setShaderProgramEPNS_14QShaderProgramE
libQt63DRender.so.6:_ZN10Qt3DRender11QRenderPass16staticMetaObjectE
libQt63DRender.so.6:_ZN10Qt3DRender11QRenderPass17removeRenderStateEPNS_12QRenderStateE
libQt63DRender.so.6:_ZN10Qt3DRender11QRenderPass20shaderProgramChangedEPNS_14QShaderProgramE
libQt63DRender.so.6:_ZN10Qt3DRender11QRenderPassC1EPN8Qt3DCore5QNodeE
libQt63DRender.so.6:_ZN10Qt3DRender11QRenderPassC1ERNS_18QRenderPassPrivateEPN8Qt3DCore5QNodeE
libQt63DRender.so.6:_ZN10Qt3DRender11QRenderPassC2EPN8Qt3DCore5QNodeE
libQt63DRender.so.6:_ZN10Qt3DRender11QRenderPassC2ERNS_18QRenderPassPrivateEPN8Qt3DCore5QNodeE
libQt63DRender.so.6:_ZN10Qt3DRender11QRenderPassD0Ev
libQt63DRender.so.6:_ZN10Qt3DRender11QRenderPassD1Ev
libQt63DRender.so.6:_ZN10Qt3DRender11QRenderPassD2Ev
libQt63DRender.so.6:_ZN10Qt3DRender11QShaderData11qt_metacallEN11QMetaObject4CallEiPPv
libQt63DRender.so.6:_ZN10Qt3DRender11QShaderData11qt_metacastEPKc
libQt63DRender.so.6:_ZN10Qt3DRender11QShaderData16staticMetaObjectE
libQt63DRender.so.6:_ZN10Qt3DRender11QShaderData5eventEP6QEvent
libQt63DRender.so.6:_ZN10Qt3DRender11QShaderDataC1EPN8Qt3DCore5QNodeE
libQt63DRender.so.6:_ZN10Qt3DRender11QShaderDataC1ERNS_18QShaderDataPrivateEPN8Qt3DCore5QNodeE
libQt63DRender.so.6:_ZN10Qt3DRender11QShaderDataC2EPN8Qt3DCore5QNodeE
libQt63DRender.so.6:_ZN10Qt3DRender11QShaderDataC2ERNS_18QShaderDataPrivateEPN8Qt3DCore5QNodeE
libQt63DRender.so.6:_ZN10Qt3DRender11QShaderDataD0Ev
libQt63DRender.so.6:_ZN10Qt3DRender11QShaderDataD1Ev
libQt63DRender.so.6:_ZN10Qt3DRender11QShaderDataD2Ev
libQt63DRender.so.6:_ZN10Qt3DRender11QShaderNode10removePortERKNS_15QShaderNodePortE
libQt63DRender.so.6:_ZN10Qt3DRender11QShaderNode10removeRuleERKNS_13QShaderFormatE
libQt63DRender.so.6:_ZN10Qt3DRender11QShaderNode12setParameterERK7QStringRK8QVariant
libQt63DRender.so.6:_ZN10Qt3DRender11QShaderNode14clearParameterERK7QString
libQt63DRender.so.6:_ZN10Qt3DRender11QShaderNode4RuleC1ERK10QByteArrayRK5QListIS2_E
libQt63DRender.so.6:_ZN10Qt3DRender11QShaderNode4RuleC2ERK10QByteArrayRK5QListIS2_E
libQt63DRender.so.6:_ZN10Qt3DRender11QShaderNode7addPortERKNS_15QShaderNodePortE
libQt63DRender.so.6:_ZN10Qt3DRender11QShaderNode7addRuleERKNS_13QShaderFormatERKNS0_4RuleE
libQt63DRender.so.6:_ZN10Qt3DRender11QShaderNode7setUuidERK5QUuid
libQt63DRender.so.6:_ZN10Qt3DRender11QShaderNode9setLayersERK5QListI7QStringE
libQt63DRender.so.6:_ZN10Qt3DRender11QSortPolicy11qt_metacallEN11QMetaObject4CallEiPPv
libQt63DRender.so.6:_ZN10Qt3DRender11QSortPolicy11qt_metacastEPKc
libQt63DRender.so.6:_ZN10Qt3DRender11QSortPolicy12setSortTypesERK5QListINS0_8SortTypeEE
libQt63DRender.so.6:_ZN10Qt3DRender11QSortPolicy12setSortTypesERK5QListIiE
libQt63DRender.so.6:_ZN10Qt3DRender11QSortPolicy16sortTypesChangedERK5QListINS0_8SortTypeEE
libQt63DRender.so.6:_ZN10Qt3DRender11QSortPolicy16sortTypesChangedERK5QListIiE
libQt63DRender.so.6:_ZN10Qt3DRender11QSortPolicy16staticMetaObjectE
libQt63DRender.so.6:_ZN10Qt3DRender11QSortPolicyC1EPN8Qt3DCore5QNodeE
libQt63DRender.so.6:_ZN10Qt3DRender11QSortPolicyC1ERNS_18QSortPolicyPrivateEPN8Qt3DCore5QNodeE
libQt63DRender.so.6:_ZN10Qt3DRender11QSortPolicyC2EPN8Qt3DCore5QNodeE
libQt63DRender.so.6:_ZN10Qt3DRender11QSortPolicyC2ERNS_18QSortPolicyPrivateEPN8Qt3DCore5QNodeE
libQt63DRender.so.6:_ZN10Qt3DRender11QSortPolicyD0Ev
libQt63DRender.so.6:_ZN10Qt3DRender11QSortPolicyD1Ev
libQt63DRender.so.6:_ZN10Qt3DRender11QSortPolicyD2Ev
libQt63DRender.so.6:_ZN10Qt3DRender12QLayerFilter11qt_metacallEN11QMetaObject4CallEiPPv
libQt63DRender.so.6:_ZN10Qt3DRender12QLayerFilter11qt_metacastEPKc
libQt63DRender.so.6:_ZN10Qt3DRender12QLayerFilter11removeLayerEPNS_6QLayerE
libQt63DRender.so.6:_ZN10Qt3DRender12QLayerFilter13setFilterModeENS0_10FilterModeE
libQt63DRender.so.6:_ZN10Qt3DRender12QLayerFilter16staticMetaObjectE
libQt63DRender.so.6:_ZN10Qt3DRender12QLayerFilter17filterModeChangedENS0_10FilterModeE
libQt63DRender.so.6:_ZN10Qt3DRender12QLayerFilter8addLayerEPNS_6QLayerE
libQt63DRender.so.6:_ZN10Qt3DRender12QLayerFilterC1EPN8Qt3DCore5QNodeE
libQt63DRender.so.6:_ZN10Qt3DRender12QLayerFilterC1ERNS_19QLayerFilterPrivateEPN8Qt3DCore5QNodeE
libQt63DRender.so.6:_ZN10Qt3DRender12QLayerFilterC2EPN8Qt3DCore5QNodeE
libQt63DRender.so.6:_ZN10Qt3DRender12QLayerFilterC2ERNS_19QLayerFilterPrivateEPN8Qt3DCore5QNodeE
libQt63DRender.so.6:_ZN10Qt3DRender12QLayerFilterD0Ev
libQt63DRender.so.6:_ZN10Qt3DRender12QLayerFilterD1Ev
libQt63DRender.so.6:_ZN10Qt3DRender12QLayerFilterD2Ev
libQt63DRender.so.6:_ZN10Qt3DRender12QMeshPrivate13updateFunctorEv
libQt63DRender.so.6:_ZN10Qt3DRender12QMeshPrivate3getEPNS_5QMeshE
libQt63DRender.so.6:_ZN10Qt3DRender12QMeshPrivate8setSceneEPN8Qt3DCore6QSceneE
libQt63DRender.so.6:_ZN10Qt3DRender12QMeshPrivate9setStatusENS_5QMesh6StatusE
libQt63DRender.so.6:_ZN10Qt3DRender12QMeshPrivateC1Ev
libQt63DRender.so.6:_ZN10Qt3DRender12QMeshPrivateC2Ev
libQt63DRender.so.6:_ZN10Qt3DRender12QNoDepthMask11qt_metacallEN11QMetaObject4CallEiPPv
libQt63DRender.so.6:_ZN10Qt3DRender12QNoDepthMask11qt_metacastEPKc
libQt63DRender.so.6:_ZN10Qt3DRender12QNoDepthMask16staticMetaObjectE
libQt63DRender.so.6:_ZN10Qt3DRender12QNoDepthMaskC1EPN8Qt3DCore5QNodeE
libQt63DRender.so.6:_ZN10Qt3DRender12QNoDepthMaskC2EPN8Qt3DCore5QNodeE
libQt63DRender.so.6:_ZN10Qt3DRender12QNoDepthMaskD0Ev
libQt63DRender.so.6:_ZN10Qt3DRender12QNoDepthMaskD1Ev
libQt63DRender.so.6:_ZN10Qt3DRender12QNoDepthMaskD2Ev
libQt63DRender.so.6:_ZN10Qt3DRender12QRenderState11qt_metacallEN11QMetaObject4CallEiPPv
libQt63DRender.so.6:_ZN10Qt3DRender12QRenderState11qt_metacastEPKc
libQt63DRender.so.6:_ZN10Qt3DRender12QRenderState16staticMetaObjectE
libQt63DRender.so.6:_ZN10Qt3DRender12QRenderStateC1ERNS_19QRenderStatePrivateEPN8Qt3DCore5QNodeE
libQt63DRender.so.6:_ZN10Qt3DRender12QRenderStateC2ERNS_19QRenderStatePrivateEPN8Qt3DCore5QNodeE
libQt63DRender.so.6:_ZN10Qt3DRender12QRenderStateD0Ev
libQt63DRender.so.6:_ZN10Qt3DRender12QRenderStateD1Ev
libQt63DRender.so.6:_ZN10Qt3DRender12QRenderStateD2Ev
libQt63DRender.so.6:_ZN10Qt3DRender12QSceneLoader11qt_metacallEN11QMetaObject4CallEiPPv
libQt63DRender.so.6:_ZN10Qt3DRender12QSceneLoader11qt_metacastEPKc
libQt63DRender.so.6:_ZN10Qt3DRender12QSceneLoader13sourceChangedERK4QUrl
libQt63DRender.so.6:_ZN10Qt3DRender12QSceneLoader13statusChangedENS0_6StatusE
libQt63DRender.so.6:_ZN10Qt3DRender12QSceneLoader16staticMetaObjectE
libQt63DRender.so.6:_ZN10Qt3DRender12QSceneLoader9setSourceERK4QUrl
libQt63DRender.so.6:_ZN10Qt3DRender12QSceneLoaderC1EPN8Qt3DCore5QNodeE
libQt63DRender.so.6:_ZN10Qt3DRender12QSceneLoaderC1ERNS_19QSceneLoaderPrivateEPN8Qt3DCore5QNodeE
libQt63DRender.so.6:_ZN10Qt3DRender12QSceneLoaderC2EPN8Qt3DCore5QNodeE
libQt63DRender.so.6:_ZN10Qt3DRender12QSceneLoaderC2ERNS_19QSceneLoaderPrivateEPN8Qt3DCore5QNodeE
libQt63DRender.so.6:_ZN10Qt3DRender12QSceneLoaderD0Ev
libQt63DRender.so.6:_ZN10Qt3DRender12QSceneLoaderD1Ev
libQt63DRender.so.6:_ZN10Qt3DRender12QSceneLoaderD2Ev
libQt63DRender.so.6:_ZN10Qt3DRender12QScissorTest11leftChangedEi
libQt63DRender.so.6:_ZN10Qt3DRender12QScissorTest11qt_metacallEN11QMetaObject4CallEiPPv
libQt63DRender.so.6:_ZN10Qt3DRender12QScissorTest11qt_metacastEPKc
libQt63DRender.so.6:_ZN10Qt3DRender12QScissorTest12widthChangedEi
libQt63DRender.so.6:_ZN10Qt3DRender12QScissorTest13bottomChangedEi
libQt63DRender.so.6:_ZN10Qt3DRender12QScissorTest13heightChangedEi
libQt63DRender.so.6:_ZN10Qt3DRender12QScissorTest16staticMetaObjectE
libQt63DRender.so.6:_ZN10Qt3DRender12QScissorTest7setLeftEi
libQt63DRender.so.6:_ZN10Qt3DRender12QScissorTest8setWidthEi
libQt63DRender.so.6:_ZN10Qt3DRender12QScissorTest9setBottomEi
libQt63DRender.so.6:_ZN10Qt3DRender12QScissorTest9setHeightEi
libQt63DRender.so.6:_ZN10Qt3DRender12QScissorTestC1EPN8Qt3DCore5QNodeE
libQt63DRender.so.6:_ZN10Qt3DRender12QScissorTestC2EPN8Qt3DCore5QNodeE
libQt63DRender.so.6:_ZN10Qt3DRender12QScissorTestD0Ev
libQt63DRender.so.6:_ZN10Qt3DRender12QScissorTestD1Ev
libQt63DRender.so.6:_ZN10Qt3DRender12QScissorTestD2Ev
libQt63DRender.so.6:_ZN10Qt3DRender12QShaderGraph10removeEdgeERKNS0_4EdgeE
libQt63DRender.so.6:_ZN10Qt3DRender12QShaderGraph10removeNodeERKNS_11QShaderNodeE
libQt63DRender.so.6:_ZN10Qt3DRender12QShaderGraph7addEdgeERKNS0_4EdgeE
libQt63DRender.so.6:_ZN10Qt3DRender12QShaderGraph7addNodeERKNS_11QShaderNodeE
libQt63DRender.so.6:_ZN10Qt3DRender12QShaderImage10setLayeredEb
libQt63DRender.so.6:_ZN10Qt3DRender12QShaderImage10setTextureEPNS_16QAbstractTextureE
libQt63DRender.so.6:_ZN10Qt3DRender12QShaderImage11qt_metacallEN11QMetaObject4CallEiPPv
libQt63DRender.so.6:_ZN10Qt3DRender12QShaderImage11qt_metacastEPKc
libQt63DRender.so.6:_ZN10Qt3DRender12QShaderImage11setMipLevelEi
libQt63DRender.so.6:_ZN10Qt3DRender12QShaderImage12layerChangedEi
libQt63DRender.so.6:_ZN10Qt3DRender12QShaderImage13accessChangedENS0_6AccessE
libQt63DRender.so.6:_ZN10Qt3DRender12QShaderImage13formatChangedENS0_11ImageFormatE
libQt63DRender.so.6:_ZN10Qt3DRender12QShaderImage14layeredChangedEb
libQt63DRender.so.6:_ZN10Qt3DRender12QShaderImage14textureChangedEPNS_16QAbstractTextureE
libQt63DRender.so.6:_ZN10Qt3DRender12QShaderImage15mipLevelChangedEi
libQt63DRender.so.6:_ZN10Qt3DRender12QShaderImage16staticMetaObjectE
libQt63DRender.so.6:_ZN10Qt3DRender12QShaderImage8setLayerEi
libQt63DRender.so.6:_ZN10Qt3DRender12QShaderImage9setAccessENS0_6AccessE
libQt63DRender.so.6:_ZN10Qt3DRender12QShaderImage9setFormatENS0_11ImageFormatE
libQt63DRender.so.6:_ZN10Qt3DRender12QShaderImageC1EPN8Qt3DCore5QNodeE
libQt63DRender.so.6:_ZN10Qt3DRender12QShaderImageC2EPN8Qt3DCore5QNodeE
libQt63DRender.so.6:_ZN10Qt3DRender12QShaderImageD0Ev
libQt63DRender.so.6:_ZN10Qt3DRender12QShaderImageD1Ev
libQt63DRender.so.6:_ZN10Qt3DRender12QShaderImageD2Ev
libQt63DRender.so.6:_ZN10Qt3DRender12QStencilMask11qt_metacallEN11QMetaObject4CallEiPPv
libQt63DRender.so.6:_ZN10Qt3DRender12QStencilMask11qt_metacastEPKc
libQt63DRender.so.6:_ZN10Qt3DRender12QStencilMask16staticMetaObjectE
libQt63DRender.so.6:_ZN10Qt3DRender12QStencilMask17setBackOutputMaskEj
libQt63DRender.so.6:_ZN10Qt3DRender12QStencilMask18setFrontOutputMaskEj
libQt63DRender.so.6:_ZN10Qt3DRender12QStencilMask21backOutputMaskChangedEj
libQt63DRender.so.6:_ZN10Qt3DRender12QStencilMask22frontOutputMaskChangedEj
libQt63DRender.so.6:_ZN10Qt3DRender12QStencilMaskC1EPN8Qt3DCore5QNodeE
libQt63DRender.so.6:_ZN10Qt3DRender12QStencilMaskC2EPN8Qt3DCore5QNodeE
libQt63DRender.so.6:_ZN10Qt3DRender12QStencilMaskD0Ev
libQt63DRender.so.6:_ZN10Qt3DRender12QStencilMaskD1Ev
libQt63DRender.so.6:_ZN10Qt3DRender12QStencilMaskD2Ev
libQt63DRender.so.6:_ZN10Qt3DRender12QStencilTest11qt_metacallEN11QMetaObject4CallEiPPv
libQt63DRender.so.6:_ZN10Qt3DRender12QStencilTest11qt_metacastEPKc
libQt63DRender.so.6:_ZN10Qt3DRender12QStencilTest16staticMetaObjectE
libQt63DRender.so.6:_ZN10Qt3DRender12QStencilTestC1EPN8Qt3DCore5QNodeE
libQt63DRender.so.6:_ZN10Qt3DRender12QStencilTestC2EPN8Qt3DCore5QNodeE
libQt63DRender.so.6:_ZN10Qt3DRender12QStencilTestD0Ev
libQt63DRender.so.6:_ZN10Qt3DRender12QStencilTestD1Ev
libQt63DRender.so.6:_ZN10Qt3DRender12QStencilTestD2Ev
libQt63DRender.so.6:_ZN10Qt3DRender12QTextureData12addImageDataERK14QSharedPointerINS_17QTextureImageDataEE
libQt63DRender.so.6:_ZN10Qt3DRender12QTextureData12setWrapModeXENS_16QTextureWrapMode8WrapModeE
libQt63DRender.so.6:_ZN10Qt3DRender12QTextureData12setWrapModeYENS_16QTextureWrapMode8WrapModeE
libQt63DRender.so.6:_ZN10Qt3DRender12QTextureData12setWrapModeZENS_16QTextureWrapMode8WrapModeE
libQt63DRender.so.6:_ZN10Qt3DRender12QTextureData17setComparisonModeENS_16QAbstractTexture14ComparisonModeE
libQt63DRender.so.6:_ZN10Qt3DRender12QTextureData20setMaximumAnisotropyEf
libQt63DRender.so.6:_ZN10Qt3DRender12QTextureData21setComparisonFunctionENS_16QAbstractTexture18ComparisonFunctionE
libQt63DRender.so.6:_ZN10Qt3DRender12QTextureData21setMinificationFilterENS_16QAbstractTexture6FilterE
libQt63DRender.so.6:_ZN10Qt3DRender12QTextureData22setMagnificationFilterENS_16QAbstractTexture6FilterE
libQt63DRender.so.6:_ZN10Qt3DRender12QTextureData30setAutoMipMapGenerationEnabledEb
libQt63DRender.so.6:_ZN10Qt3DRender12QTextureData8setDepthEi
libQt63DRender.so.6:_ZN10Qt3DRender12QTextureData8setWidthEi
libQt63DRender.so.6:_ZN10Qt3DRender12QTextureData9setFormatENS_16QAbstractTexture13TextureFormatE
libQt63DRender.so.6:_ZN10Qt3DRender12QTextureData9setHeightEi
libQt63DRender.so.6:_ZN10Qt3DRender12QTextureData9setLayersEi
libQt63DRender.so.6:_ZN10Qt3DRender12QTextureData9setTargetENS_16QAbstractTexture6TargetE
libQt63DRender.so.6:_ZN10Qt3DRender12QTextureDataC1Ev
libQt63DRender.so.6:_ZN10Qt3DRender12QTextureDataC2Ev
libQt63DRender.so.6:_ZN10Qt3DRender12QTextureDataD1Ev
libQt63DRender.so.6:_ZN10Qt3DRender12QTextureDataD2Ev
libQt63DRender.so.6:_ZN10Qt3DRender13QClearBuffers10setBuffersENS0_10BufferTypeE
libQt63DRender.so.6:_ZN10Qt3DRender13QClearBuffers11qt_metacallEN11QMetaObject4CallEiPPv
libQt63DRender.so.6:_ZN10Qt3DRender13QClearBuffers11qt_metacastEPKc
libQt63DRender.so.6:_ZN10Qt3DRender13QClearBuffers13setClearColorERK6QColor
libQt63DRender.so.6:_ZN10Qt3DRender13QClearBuffers14buffersChangedENS0_10BufferTypeE
libQt63DRender.so.6:_ZN10Qt3DRender13QClearBuffers14setColorBufferEPNS_19QRenderTargetOutputE
libQt63DRender.so.6:_ZN10Qt3DRender13QClearBuffers16staticMetaObjectE
libQt63DRender.so.6:_ZN10Qt3DRender13QClearBuffers17clearColorChangedERK6QColor
libQt63DRender.so.6:_ZN10Qt3DRender13QClearBuffers18colorBufferChangedEPNS_19QRenderTargetOutputE
libQt63DRender.so.6:_ZN10Qt3DRender13QClearBuffers18setClearDepthValueEf
libQt63DRender.so.6:_ZN10Qt3DRender13QClearBuffers20setClearStencilValueEi
libQt63DRender.so.6:_ZN10Qt3DRender13QClearBuffers22clearDepthValueChangedEf
libQt63DRender.so.6:_ZN10Qt3DRender13QClearBuffers24clearStencilValueChangedEi
libQt63DRender.so.6:_ZN10Qt3DRender13QClearBuffersC1EPN8Qt3DCore5QNodeE
libQt63DRender.so.6:_ZN10Qt3DRender13QClearBuffersC1ERNS_20QClearBuffersPrivateEPN8Qt3DCore5QNodeE
libQt63DRender.so.6:_ZN10Qt3DRender13QClearBuffersC2EPN8Qt3DCore5QNodeE
libQt63DRender.so.6:_ZN10Qt3DRender13QClearBuffersC2ERNS_20QClearBuffersPrivateEPN8Qt3DCore5QNodeE
libQt63DRender.so.6:_ZN10Qt3DRender13QClearBuffersD0Ev
libQt63DRender.so.6:_ZN10Qt3DRender13QClearBuffersD1Ev
libQt63DRender.so.6:_ZN10Qt3DRender13QClearBuffersD2Ev
libQt63DRender.so.6:_ZN10Qt3DRender13QDebugOverlay11qt_metacallEN11QMetaObject4CallEiPPv
libQt63DRender.so.6:_ZN10Qt3DRender13QDebugOverlay11qt_metacastEPKc
libQt63DRender.so.6:_ZN10Qt3DRender13QDebugOverlay16staticMetaObjectE
libQt63DRender.so.6:_ZN10Qt3DRender13QDebugOverlayC1EPN8Qt3DCore5QNodeE
libQt63DRender.so.6:_ZN10Qt3DRender13QDebugOverlayC2EPN8Qt3DCore5QNodeE
libQt63DRender.so.6:_ZN10Qt3DRender13QLayerPrivateC1Ev
libQt63DRender.so.6:_ZN10Qt3DRender13QLayerPrivateC2Ev
libQt63DRender.so.6:_ZN10Qt3DRender13QObjectPicker11qt_metacallEN11QMetaObject4CallEiPPv
libQt63DRender.so.6:_ZN10Qt3DRender13QObjectPicker11qt_metacastEPKc
libQt63DRender.so.6:_ZN10Qt3DRender13QObjectPicker11setPriorityEi
libQt63DRender.so.6:_ZN10Qt3DRender13QObjectPicker14pressedChangedEb
libQt63DRender.so.6:_ZN10Qt3DRender13QObjectPicker14setDragEnabledEb
libQt63DRender.so.6:_ZN10Qt3DRender13QObjectPicker15priorityChangedEi
libQt63DRender.so.6:_ZN10Qt3DRender13QObjectPicker15setHoverEnabledEb
libQt63DRender.so.6:_ZN10Qt3DRender13QObjectPicker16staticMetaObjectE
libQt63DRender.so.6:_ZN10Qt3DRender13QObjectPicker18dragEnabledChangedEb
libQt63DRender.so.6:_ZN10Qt3DRender13QObjectPicker19hoverEnabledChangedEb
libQt63DRender.so.6:_ZN10Qt3DRender13QObjectPicker20containsMouseChangedEb
libQt63DRender.so.6:_ZN10Qt3DRender13QObjectPicker5movedEPNS_10QPickEventE
libQt63DRender.so.6:_ZN10Qt3DRender13QObjectPicker6exitedEv
libQt63DRender.so.6:_ZN10Qt3DRender13QObjectPicker7clickedEPNS_10QPickEventE
libQt63DRender.so.6:_ZN10Qt3DRender13QObjectPicker7enteredEv
libQt63DRender.so.6:_ZN10Qt3DRender13QObjectPicker7pressedEPNS_10QPickEventE
libQt63DRender.so.6:_ZN10Qt3DRender13QObjectPicker8releasedEPNS_10QPickEventE
libQt63DRender.so.6:_ZN10Qt3DRender13QObjectPickerC1EPN8Qt3DCore5QNodeE
libQt63DRender.so.6:_ZN10Qt3DRender13QObjectPickerC2EPN8Qt3DCore5QNodeE
libQt63DRender.so.6:_ZN10Qt3DRender13QObjectPickerD0Ev
libQt63DRender.so.6:_ZN10Qt3DRender13QObjectPickerD1Ev
libQt63DRender.so.6:_ZN10Qt3DRender13QObjectPickerD2Ev
libQt63DRender.so.6:_ZN10Qt3DRender13QPickingProxy11qt_metacallEN11QMetaObject4CallEiPPv
libQt63DRender.so.6:_ZN10Qt3DRender13QPickingProxy11qt_metacastEPKc
libQt63DRender.so.6:_ZN10Qt3DRender13QPickingProxy16staticMetaObjectE
libQt63DRender.so.6:_ZN10Qt3DRender13QPickingProxyC1EPN8Qt3DCore5QNodeE
libQt63DRender.so.6:_ZN10Qt3DRender13QPickingProxyC1ERNS_20QPickingProxyPrivateEPN8Qt3DCore5QNodeE
libQt63DRender.so.6:_ZN10Qt3DRender13QPickingProxyC2EPN8Qt3DCore5QNodeE
libQt63DRender.so.6:_ZN10Qt3DRender13QPickingProxyC2ERNS_20QPickingProxyPrivateEPN8Qt3DCore5QNodeE
libQt63DRender.so.6:_ZN10Qt3DRender13QPickingProxyD0Ev
libQt63DRender.so.6:_ZN10Qt3DRender13QPickingProxyD1Ev
libQt63DRender.so.6:_ZN10Qt3DRender13QPickingProxyD2Ev
libQt63DRender.so.6:_ZN10Qt3DRender13QRayCasterHit16staticMetaObjectE
libQt63DRender.so.6:_ZN10Qt3DRender13QRayCasterHit8toStringEv
libQt63DRender.so.6:_ZN10Qt3DRender13QRayCasterHitC1ENS0_7HitTypeEN8Qt3DCore7QNodeIdEfRK9QVector3DS6_jjjj
libQt63DRender.so.6:_ZN10Qt3DRender13QRayCasterHitC1ERKS0_
libQt63DRender.so.6:_ZN10Qt3DRender13QRayCasterHitC1Ev
libQt63DRender.so.6:_ZN10Qt3DRender13QRayCasterHitC2ENS0_7HitTypeEN8Qt3DCore7QNodeIdEfRK9QVector3DS6_jjjj
libQt63DRender.so.6:_ZN10Qt3DRender13QRayCasterHitC2ERKS0_
libQt63DRender.so.6:_ZN10Qt3DRender13QRayCasterHitC2Ev
libQt63DRender.so.6:_ZN10Qt3DRender13QRayCasterHitD1Ev
libQt63DRender.so.6:_ZN10Qt3DRender13QRayCasterHitD2Ev
libQt63DRender.so.6:_ZN10Qt3DRender13QRayCasterHitaSERKS0_
libQt63DRender.so.6:_ZN10Qt3DRender13QRenderAspect11qt_metacallEN11QMetaObject4CallEiPPv
libQt63DRender.so.6:_ZN10Qt3DRender13QRenderAspect11qt_metacastEPKc
libQt63DRender.so.6:_ZN10Qt3DRender13QRenderAspect12onRegisteredEv
libQt63DRender.so.6:_ZN10Qt3DRender13QRenderAspect13jobsToExecuteEx
libQt63DRender.so.6:_ZN10Qt3DRender13QRenderAspect14executeCommandERK5QListI7QStringE
libQt63DRender.so.6:_ZN10Qt3DRender13QRenderAspect14onUnregisteredEv
libQt63DRender.so.6:_ZN10Qt3DRender13QRenderAspect15onEngineStartupEv
libQt63DRender.so.6:_ZN10Qt3DRender13QRenderAspect16staticMetaObjectE
libQt63DRender.so.6:_ZN10Qt3DRender13QRenderAspectC1ENS0_14SubmissionTypeEP7QObject
libQt63DRender.so.6:_ZN10Qt3DRender13QRenderAspectC1EP7QObject
libQt63DRender.so.6:_ZN10Qt3DRender13QRenderAspectC1ERNS_20QRenderAspectPrivateEP7QObject
libQt63DRender.so.6:_ZN10Qt3DRender13QRenderAspectC2ENS0_14SubmissionTypeEP7QObject
libQt63DRender.so.6:_ZN10Qt3DRender13QRenderAspectC2EP7QObject
libQt63DRender.so.6:_ZN10Qt3DRender13QRenderAspectC2ERNS_20QRenderAspectPrivateEP7QObject
libQt63DRender.so.6:_ZN10Qt3DRender13QRenderAspectD0Ev
libQt63DRender.so.6:_ZN10Qt3DRender13QRenderAspectD1Ev
libQt63DRender.so.6:_ZN10Qt3DRender13QRenderAspectD2Ev
libQt63DRender.so.6:_ZN10Qt3DRender13QRenderTarget11qt_metacallEN11QMetaObject4CallEiPPv
libQt63DRender.so.6:_ZN10Qt3DRender13QRenderTarget11qt_metacastEPKc
libQt63DRender.so.6:_ZN10Qt3DRender13QRenderTarget12removeOutputEPNS_19QRenderTargetOutputE
libQt63DRender.so.6:_ZN10Qt3DRender13QRenderTarget16staticMetaObjectE
libQt63DRender.so.6:_ZN10Qt3DRender13QRenderTarget9addOutputEPNS_19QRenderTargetOutputE
libQt63DRender.so.6:_ZN10Qt3DRender13QRenderTargetC1EPN8Qt3DCore5QNodeE
libQt63DRender.so.6:_ZN10Qt3DRender13QRenderTargetC1ERNS_20QRenderTargetPrivateEPN8Qt3DCore5QNodeE
libQt63DRender.so.6:_ZN10Qt3DRender13QRenderTargetC2EPN8Qt3DCore5QNodeE
libQt63DRender.so.6:_ZN10Qt3DRender13QRenderTargetC2ERNS_20QRenderTargetPrivateEPN8Qt3DCore5QNodeE
libQt63DRender.so.6:_ZN10Qt3DRender13QRenderTargetD0Ev
libQt63DRender.so.6:_ZN10Qt3DRender13QRenderTargetD1Ev
libQt63DRender.so.6:_ZN10Qt3DRender13QRenderTargetD2Ev
libQt63DRender.so.6:_ZN10Qt3DRender13QShaderFormat10setVersionERK14QVersionNumber
libQt63DRender.so.6:_ZN10Qt3DRender13QShaderFormat13setExtensionsERK5QListI7QStringE
libQt63DRender.so.6:_ZN10Qt3DRender13QShaderFormat13setShaderTypeENS0_10ShaderTypeE
libQt63DRender.so.6:_ZN10Qt3DRender13QShaderFormat6setApiENS0_3ApiE
libQt63DRender.so.6:_ZN10Qt3DRender13QShaderFormat9setVendorERK7QString
libQt63DRender.so.6:_ZN10Qt3DRender13QShaderFormatC1Ev
libQt63DRender.so.6:_ZN10Qt3DRender13QShaderFormatC2Ev
libQt63DRender.so.6:_ZN10Qt3DRender13QTextureImage11qt_metacallEN11QMetaObject4CallEiPPv
libQt63DRender.so.6:_ZN10Qt3DRender13QTextureImage11qt_metacastEPKc
libQt63DRender.so.6:_ZN10Qt3DRender13QTextureImage11setMirroredEb
libQt63DRender.so.6:_ZN10Qt3DRender13QTextureImage13sourceChangedERK4QUrl
libQt63DRender.so.6:_ZN10Qt3DRender13QTextureImage13statusChangedENS0_6StatusE
libQt63DRender.so.6:_ZN10Qt3DRender13QTextureImage15mirroredChangedEb
libQt63DRender.so.6:_ZN10Qt3DRender13QTextureImage16staticMetaObjectE
libQt63DRender.so.6:_ZN10Qt3DRender13QTextureImage9setSourceERK4QUrl
libQt63DRender.so.6:_ZN10Qt3DRender13QTextureImage9setStatusENS0_6StatusE
libQt63DRender.so.6:_ZN10Qt3DRender13QTextureImageC1EPN8Qt3DCore5QNodeE
libQt63DRender.so.6:_ZN10Qt3DRender13QTextureImageC2EPN8Qt3DCore5QNodeE
libQt63DRender.so.6:_ZN10Qt3DRender13QTextureImageD0Ev
libQt63DRender.so.6:_ZN10Qt3DRender13QTextureImageD1Ev
libQt63DRender.so.6:_ZN10Qt3DRender13QTextureImageD2Ev
libQt63DRender.so.6:_ZN10Qt3DRender14QAbstractLight11qt_metacallEN11QMetaObject4CallEiPPv
libQt63DRender.so.6:_ZN10Qt3DRender14QAbstractLight11qt_metacastEPKc
libQt63DRender.so.6:_ZN10Qt3DRender14QAbstractLight12colorChangedERK6QColor
libQt63DRender.so.6:_ZN10Qt3DRender14QAbstractLight12setIntensityEf
libQt63DRender.so.6:_ZN10Qt3DRender14QAbstractLight16intensityChangedEf
libQt63DRender.so.6:_ZN10Qt3DRender14QAbstractLight16staticMetaObjectE
libQt63DRender.so.6:_ZN10Qt3DRender14QAbstractLight8setColorERK6QColor
libQt63DRender.so.6:_ZN10Qt3DRender14QAbstractLightC1ERNS_21QAbstractLightPrivateEPN8Qt3DCore5QNodeE
libQt63DRender.so.6:_ZN10Qt3DRender14QAbstractLightC2ERNS_21QAbstractLightPrivateEPN8Qt3DCore5QNodeE
libQt63DRender.so.6:_ZN10Qt3DRender14QAbstractLightD0Ev
libQt63DRender.so.6:_ZN10Qt3DRender14QAbstractLightD1Ev
libQt63DRender.so.6:_ZN10Qt3DRender14QAbstractLightD2Ev
libQt63DRender.so.6:_ZN10Qt3DRender14QAlphaCoverage11qt_metacallEN11QMetaObject4CallEiPPv
libQt63DRender.so.6:_ZN10Qt3DRender14QAlphaCoverage11qt_metacastEPKc
libQt63DRender.so.6:_ZN10Qt3DRender14QAlphaCoverage16staticMetaObjectE
libQt63DRender.so.6:_ZN10Qt3DRender14QAlphaCoverageC1EPN8Qt3DCore5QNodeE
libQt63DRender.so.6:_ZN10Qt3DRender14QAlphaCoverageC2EPN8Qt3DCore5QNodeE
libQt63DRender.so.6:_ZN10Qt3DRender14QAlphaCoverageD0Ev
libQt63DRender.so.6:_ZN10Qt3DRender14QAlphaCoverageD1Ev
libQt63DRender.so.6:_ZN10Qt3DRender14QAlphaCoverageD2Ev
libQt63DRender.so.6:_ZN10Qt3DRender14QBlendEquation11qt_metacallEN11QMetaObject4CallEiPPv
libQt63DRender.so.6:_ZN10Qt3DRender14QBlendEquation11qt_metacastEPKc
libQt63DRender.so.6:_ZN10Qt3DRender14QBlendEquation16setBlendFunctionENS0_13BlendFunctionE
libQt63DRender.so.6:_ZN10Qt3DRender14QBlendEquation16staticMetaObjectE
libQt63DRender.so.6:_ZN10Qt3DRender14QBlendEquation20blendFunctionChangedENS0_13BlendFunctionE
libQt63DRender.so.6:_ZN10Qt3DRender14QBlendEquationC1EPN8Qt3DCore5QNodeE
libQt63DRender.so.6:_ZN10Qt3DRender14QBlendEquationC2EPN8Qt3DCore5QNodeE
libQt63DRender.so.6:_ZN10Qt3DRender14QBlendEquationD0Ev
libQt63DRender.so.6:_ZN10Qt3DRender14QBlendEquationD1Ev
libQt63DRender.so.6:_ZN10Qt3DRender14QBlendEquationD2Ev
libQt63DRender.so.6:_ZN10Qt3DRender14QBufferCapture11qt_metacallEN11QMetaObject4CallEiPPv
libQt63DRender.so.6:_ZN10Qt3DRender14QBufferCapture11qt_metacastEPKc
libQt63DRender.so.6:_ZN10Qt3DRender14QBufferCapture16staticMetaObjectE
libQt63DRender.so.6:_ZN10Qt3DRender14QBufferCaptureC1EPN8Qt3DCore5QNodeE
libQt63DRender.so.6:_ZN10Qt3DRender14QBufferCaptureC2EPN8Qt3DCore5QNodeE
libQt63DRender.so.6:_ZN10Qt3DRender14QBufferCaptureD0Ev
libQt63DRender.so.6:_ZN10Qt3DRender14QBufferCaptureD1Ev
libQt63DRender.so.6:_ZN10Qt3DRender14QBufferCaptureD2Ev
libQt63DRender.so.6:_ZN10Qt3DRender14QCameraPrivate28updateViewMatrixAndTransformEb
libQt63DRender.so.6:_ZN10Qt3DRender14QCameraPrivateC1Ev
libQt63DRender.so.6:_ZN10Qt3DRender14QCameraPrivateC2Ev
libQt63DRender.so.6:_ZN10Qt3DRender14QEffectPrivateC1Ev
libQt63DRender.so.6:_ZN10Qt3DRender14QEffectPrivateC2Ev
libQt63DRender.so.6:_ZN10Qt3DRender14QLevelOfDetail11qt_metacallEN11QMetaObject4CallEiPPv
libQt63DRender.so.6:_ZN10Qt3DRender14QLevelOfDetail11qt_metacastEPKc
libQt63DRender.so.6:_ZN10Qt3DRender14QLevelOfDetail13cameraChangedEPNS_7QCameraE
libQt63DRender.so.6:_ZN10Qt3DRender14QLevelOfDetail13setThresholdsERK5QListIdE
libQt63DRender.so.6:_ZN10Qt3DRender14QLevelOfDetail15setCurrentIndexEi
libQt63DRender.so.6:_ZN10Qt3DRender14QLevelOfDetail16setThresholdTypeENS0_13ThresholdTypeE
libQt63DRender.so.6:_ZN10Qt3DRender14QLevelOfDetail16staticMetaObjectE
libQt63DRender.so.6:_ZN10Qt3DRender14QLevelOfDetail17setVolumeOverrideERKNS_28QLevelOfDetailBoundingSphereE
libQt63DRender.so.6:_ZN10Qt3DRender14QLevelOfDetail17thresholdsChangedERK5QListIdE
libQt63DRender.so.6:_ZN10Qt3DRender14QLevelOfDetail19currentIndexChangedEi
libQt63DRender.so.6:_ZN10Qt3DRender14QLevelOfDetail20createBoundingSphereERK9QVector3Df
libQt63DRender.so.6:_ZN10Qt3DRender14QLevelOfDetail20thresholdTypeChangedENS0_13ThresholdTypeE
libQt63DRender.so.6:_ZN10Qt3DRender14QLevelOfDetail21volumeOverrideChangedERKNS_28QLevelOfDetailBoundingSphereE
libQt63DRender.so.6:_ZN10Qt3DRender14QLevelOfDetail9setCameraEPNS_7QCameraE
libQt63DRender.so.6:_ZN10Qt3DRender14QLevelOfDetailC1EPN8Qt3DCore5QNodeE
libQt63DRender.so.6:_ZN10Qt3DRender14QLevelOfDetailC1ERNS_21QLevelOfDetailPrivateEPN8Qt3DCore5QNodeE
libQt63DRender.so.6:_ZN10Qt3DRender14QLevelOfDetailC2EPN8Qt3DCore5QNodeE
libQt63DRender.so.6:_ZN10Qt3DRender14QLevelOfDetailC2ERNS_21QLevelOfDetailPrivateEPN8Qt3DCore5QNodeE
libQt63DRender.so.6:_ZN10Qt3DRender14QLevelOfDetailD0Ev
libQt63DRender.so.6:_ZN10Qt3DRender14QLevelOfDetailD1Ev
libQt63DRender.so.6:_ZN10Qt3DRender14QLevelOfDetailD2Ev
libQt63DRender.so.6:_ZN10Qt3DRender14QMemoryBarrier11qt_metacallEN11QMetaObject4CallEiPPv
libQt63DRender.so.6:_ZN10Qt3DRender14QMemoryBarrier11qt_metacastEPKc
libQt63DRender.so.6:_ZN10Qt3DRender14QMemoryBarrier16staticMetaObjectE
libQt63DRender.so.6:_ZN10Qt3DRender14QMemoryBarrier17setWaitOperationsE6QFlagsINS0_9OperationEE
libQt63DRender.so.6:_ZN10Qt3DRender14QMemoryBarrier21waitOperationsChangedE6QFlagsINS0_9OperationEE
libQt63DRender.so.6:_ZN10Qt3DRender14QMemoryBarrierC1EPN8Qt3DCore5QNodeE
libQt63DRender.so.6:_ZN10Qt3DRender14QMemoryBarrierC1ERNS_21QMemoryBarrierPrivateEPN8Qt3DCore5QNodeE
libQt63DRender.so.6:_ZN10Qt3DRender14QMemoryBarrierC2EPN8Qt3DCore5QNodeE
libQt63DRender.so.6:_ZN10Qt3DRender14QMemoryBarrierC2ERNS_21QMemoryBarrierPrivateEPN8Qt3DCore5QNodeE
libQt63DRender.so.6:_ZN10Qt3DRender14QMemoryBarrierD0Ev
libQt63DRender.so.6:_ZN10Qt3DRender14QMemoryBarrierD1Ev
libQt63DRender.so.6:_ZN10Qt3DRender14QMemoryBarrierD2Ev
libQt63DRender.so.6:_ZN10Qt3DRender14QPickLineEvent11qt_metacallEN11QMetaObject4CallEiPPv
libQt63DRender.so.6:_ZN10Qt3DRender14QPickLineEvent11qt_metacastEPKc
libQt63DRender.so.6:_ZN10Qt3DRender14QPickLineEvent16staticMetaObjectE
libQt63DRender.so.6:_ZN10Qt3DRender14QPickLineEventC1ERK7QPointFRK9QVector3DS6_fjjjNS_10QPickEvent7ButtonsEii
libQt63DRender.so.6:_ZN10Qt3DRender14QPickLineEventC1Ev
libQt63DRender.so.6:_ZN10Qt3DRender14QPickLineEventC2ERK7QPointFRK9QVector3DS6_fjjjNS_10QPickEvent7ButtonsEii
libQt63DRender.so.6:_ZN10Qt3DRender14QPickLineEventC2Ev
libQt63DRender.so.6:_ZN10Qt3DRender14QPickLineEventD0Ev
libQt63DRender.so.6:_ZN10Qt3DRender14QPickLineEventD1Ev
libQt63DRender.so.6:_ZN10Qt3DRender14QPickLineEventD2Ev
libQt63DRender.so.6:_ZN10Qt3DRender14QPolygonOffset11qt_metacallEN11QMetaObject4CallEiPPv
libQt63DRender.so.6:_ZN10Qt3DRender14QPolygonOffset11qt_metacastEPKc
libQt63DRender.so.6:_ZN10Qt3DRender14QPolygonOffset13setDepthStepsEf
libQt63DRender.so.6:_ZN10Qt3DRender14QPolygonOffset14setScaleFactorEf
libQt63DRender.so.6:_ZN10Qt3DRender14QPolygonOffset16staticMetaObjectE
libQt63DRender.so.6:_ZN10Qt3DRender14QPolygonOffset17depthStepsChangedEf
libQt63DRender.so.6:_ZN10Qt3DRender14QPolygonOffset18scaleFactorChangedEf
libQt63DRender.so.6:_ZN10Qt3DRender14QPolygonOffsetC1EPN8Qt3DCore5QNodeE
libQt63DRender.so.6:_ZN10Qt3DRender14QPolygonOffsetC2EPN8Qt3DCore5QNodeE
libQt63DRender.so.6:_ZN10Qt3DRender14QPolygonOffsetD0Ev
libQt63DRender.so.6:_ZN10Qt3DRender14QPolygonOffsetD1Ev
libQt63DRender.so.6:_ZN10Qt3DRender14QPolygonOffsetD2Ev
libQt63DRender.so.6:_ZN10Qt3DRender14QRenderCapture11qt_metacallEN11QMetaObject4CallEiPPv
libQt63DRender.so.6:_ZN10Qt3DRender14QRenderCapture11qt_metacastEPKc
libQt63DRender.so.6:_ZN10Qt3DRender14QRenderCapture14requestCaptureERK5QRect
libQt63DRender.so.6:_ZN10Qt3DRender14QRenderCapture14requestCaptureEi
libQt63DRender.so.6:_ZN10Qt3DRender14QRenderCapture14requestCaptureEv
libQt63DRender.so.6:_ZN10Qt3DRender14QRenderCapture16staticMetaObjectE
libQt63DRender.so.6:_ZN10Qt3DRender14QRenderCaptureC1EPN8Qt3DCore5QNodeE
libQt63DRender.so.6:_ZN10Qt3DRender14QRenderCaptureC2EPN8Qt3DCore5QNodeE
libQt63DRender.so.6:_ZN10Qt3DRender14QSceneExporter11qt_metacallEN11QMetaObject4CallEiPPv
libQt63DRender.so.6:_ZN10Qt3DRender14QSceneExporter11qt_metacastEPKc
libQt63DRender.so.6:_ZN10Qt3DRender14QSceneExporter13errorsChangedERK5QListI7QStringE
libQt63DRender.so.6:_ZN10Qt3DRender14QSceneExporter16staticMetaObjectE
libQt63DRender.so.6:_ZN10Qt3DRender14QSceneExporter7logInfoERK7QString
libQt63DRender.so.6:_ZN10Qt3DRender14QSceneExporter8logErrorERK7QString
libQt63DRender.so.6:_ZN10Qt3DRender14QSceneExporterC2Ev
libQt63DRender.so.6:_ZN10Qt3DRender14QSceneExporterD0Ev
libQt63DRender.so.6:_ZN10Qt3DRender14QSceneExporterD1Ev
libQt63DRender.so.6:_ZN10Qt3DRender14QSceneExporterD2Ev
libQt63DRender.so.6:_ZN10Qt3DRender14QSceneImporter11qt_metacallEN11QMetaObject4CallEiPPv
libQt63DRender.so.6:_ZN10Qt3DRender14QSceneImporter11qt_metacastEPKc
libQt63DRender.so.6:_ZN10Qt3DRender14QSceneImporter13errorsChangedERK5QListI7QStringE
libQt63DRender.so.6:_ZN10Qt3DRender14QSceneImporter13statusChangedENS0_12ParserStatusE
libQt63DRender.so.6:_ZN10Qt3DRender14QSceneImporter16staticMetaObjectE
libQt63DRender.so.6:_ZN10Qt3DRender14QSceneImporter7logInfoERK7QString
libQt63DRender.so.6:_ZN10Qt3DRender14QSceneImporter8logErrorERK7QString
libQt63DRender.so.6:_ZN10Qt3DRender14QSceneImporter9setStatusENS0_12ParserStatusE
libQt63DRender.so.6:_ZN10Qt3DRender14QSceneImporterC2Ev
libQt63DRender.so.6:_ZN10Qt3DRender14QSceneImporterD0Ev
libQt63DRender.so.6:_ZN10Qt3DRender14QSceneImporterD1Ev
libQt63DRender.so.6:_ZN10Qt3DRender14QSceneImporterD2Ev
libQt63DRender.so.6:_ZN10Qt3DRender14QShaderProgram10loadSourceERK4QUrl
libQt63DRender.so.6:_ZN10Qt3DRender14QShaderProgram10logChangedERK7QString
libQt63DRender.so.6:_ZN10Qt3DRender14QShaderProgram11qt_metacallEN11QMetaObject4CallEiPPv
libQt63DRender.so.6:_ZN10Qt3DRender14QShaderProgram11qt_metacastEPKc
libQt63DRender.so.6:_ZN10Qt3DRender14QShaderProgram13formatChangedENS0_6FormatE
libQt63DRender.so.6:_ZN10Qt3DRender14QShaderProgram13setShaderCodeENS0_10ShaderTypeERK10QByteArray
libQt63DRender.so.6:_ZN10Qt3DRender14QShaderProgram13statusChangedENS0_6StatusE
libQt63DRender.so.6:_ZN10Qt3DRender14QShaderProgram16staticMetaObjectE
libQt63DRender.so.6:_ZN10Qt3DRender14QShaderProgram19setVertexShaderCodeERK10QByteArray
libQt63DRender.so.6:_ZN10Qt3DRender14QShaderProgram20setComputeShaderCodeERK10QByteArray
libQt63DRender.so.6:_ZN10Qt3DRender14QShaderProgram21setFragmentShaderCodeERK10QByteArray
libQt63DRender.so.6:_ZN10Qt3DRender14QShaderProgram21setGeometryShaderCodeERK10QByteArray
libQt63DRender.so.6:_ZN10Qt3DRender14QShaderProgram23vertexShaderCodeChangedERK10QByteArray
libQt63DRender.so.6:_ZN10Qt3DRender14QShaderProgram24computeShaderCodeChangedERK10QByteArray
libQt63DRender.so.6:_ZN10Qt3DRender14QShaderProgram25fragmentShaderCodeChangedERK10QByteArray
libQt63DRender.so.6:_ZN10Qt3DRender14QShaderProgram25geometryShaderCodeChangedERK10QByteArray
libQt63DRender.so.6:_ZN10Qt3DRender14QShaderProgram32setTessellationControlShaderCodeERK10QByteArray
libQt63DRender.so.6:_ZN10Qt3DRender14QShaderProgram35setTessellationEvaluationShaderCodeERK10QByteArray
libQt63DRender.so.6:_ZN10Qt3DRender14QShaderProgram36tessellationControlShaderCodeChangedERK10QByteArray
libQt63DRender.so.6:_ZN10Qt3DRender14QShaderProgram39tessellationEvaluationShaderCodeChangedERK10QByteArray
libQt63DRender.so.6:_ZN10Qt3DRender14QShaderProgram9setFormatENS0_6FormatE
libQt63DRender.so.6:_ZN10Qt3DRender14QShaderProgramC1EPN8Qt3DCore5QNodeE
libQt63DRender.so.6:_ZN10Qt3DRender14QShaderProgramC1ERNS_21QShaderProgramPrivateEPN8Qt3DCore5QNodeE
libQt63DRender.so.6:_ZN10Qt3DRender14QShaderProgramC2EPN8Qt3DCore5QNodeE
libQt63DRender.so.6:_ZN10Qt3DRender14QShaderProgramC2ERNS_21QShaderProgramPrivateEPN8Qt3DCore5QNodeE
libQt63DRender.so.6:_ZN10Qt3DRender14QShaderProgramD0Ev
libQt63DRender.so.6:_ZN10Qt3DRender14QShaderProgramD1Ev
libQt63DRender.so.6:_ZN10Qt3DRender14QShaderProgramD2Ev
libQt63DRender.so.6:_ZN10Qt3DRender14QTextureBuffer11qt_metacallEN11QMetaObject4CallEiPPv
libQt63DRender.so.6:_ZN10Qt3DRender14QTextureBuffer11qt_metacastEPKc
libQt63DRender.so.6:_ZN10Qt3DRender14QTextureBuffer16staticMetaObjectE
libQt63DRender.so.6:_ZN10Qt3DRender14QTextureBufferC1EPN8Qt3DCore5QNodeE
libQt63DRender.so.6:_ZN10Qt3DRender14QTextureBufferC2EPN8Qt3DCore5QNodeE
libQt63DRender.so.6:_ZN10Qt3DRender14QTextureBufferD0Ev
libQt63DRender.so.6:_ZN10Qt3DRender14QTextureBufferD1Ev
libQt63DRender.so.6:_ZN10Qt3DRender14QTextureBufferD2Ev
libQt63DRender.so.6:_ZN10Qt3DRender14QTextureLoader11qt_metacallEN11QMetaObject4CallEiPPv
libQt63DRender.so.6:_ZN10Qt3DRender14QTextureLoader11qt_metacastEPKc
libQt63DRender.so.6:_ZN10Qt3DRender14QTextureLoader11setMirroredEb
libQt63DRender.so.6:_ZN10Qt3DRender14QTextureLoader13sourceChangedERK4QUrl
libQt63DRender.so.6:_ZN10Qt3DRender14QTextureLoader15mirroredChangedEb
libQt63DRender.so.6:_ZN10Qt3DRender14QTextureLoader16staticMetaObjectE
libQt63DRender.so.6:_ZN10Qt3DRender14QTextureLoader9setSourceERK4QUrl
libQt63DRender.so.6:_ZN10Qt3DRender14QTextureLoaderC1EPN8Qt3DCore5QNodeE
libQt63DRender.so.6:_ZN10Qt3DRender14QTextureLoaderC2EPN8Qt3DCore5QNodeE
libQt63DRender.so.6:_ZN10Qt3DRender14QTextureLoaderD0Ev
libQt63DRender.so.6:_ZN10Qt3DRender14QTextureLoaderD1Ev
libQt63DRender.so.6:_ZN10Qt3DRender14QTextureLoaderD2Ev
libQt63DRender.so.6:_ZN10Qt3DRender15QCameraSelector11qt_metacallEN11QMetaObject4CallEiPPv
libQt63DRender.so.6:_ZN10Qt3DRender15QCameraSelector11qt_metacastEPKc
libQt63DRender.so.6:_ZN10Qt3DRender15QCameraSelector13cameraChangedEPN8Qt3DCore7QEntityE
libQt63DRender.so.6:_ZN10Qt3DRender15QCameraSelector16staticMetaObjectE
libQt63DRender.so.6:_ZN10Qt3DRender15QCameraSelector9setCameraEPN8Qt3DCore7QEntityE
libQt63DRender.so.6:_ZN10Qt3DRender15QCameraSelectorC1EPN8Qt3DCore5QNodeE
libQt63DRender.so.6:_ZN10Qt3DRender15QCameraSelectorC1ERNS_22QCameraSelectorPrivateEPN8Qt3DCore5QNodeE
libQt63DRender.so.6:_ZN10Qt3DRender15QCameraSelectorC2EPN8Qt3DCore5QNodeE
libQt63DRender.so.6:_ZN10Qt3DRender15QCameraSelectorC2ERNS_22QCameraSelectorPrivateEPN8Qt3DCore5QNodeE
libQt63DRender.so.6:_ZN10Qt3DRender15QCameraSelectorD0Ev
libQt63DRender.so.6:_ZN10Qt3DRender15QCameraSelectorD1Ev
libQt63DRender.so.6:_ZN10Qt3DRender15QCameraSelectorD2Ev
libQt63DRender.so.6:_ZN10Qt3DRender15QComputeCommand10setRunTypeENS0_7RunTypeE
libQt63DRender.so.6:_ZN10Qt3DRender15QComputeCommand11qt_metacallEN11QMetaObject4CallEiPPv
libQt63DRender.so.6:_ZN10Qt3DRender15QComputeCommand11qt_metacastEPKc
libQt63DRender.so.6:_ZN10Qt3DRender15QComputeCommand13setWorkGroupXEi
libQt63DRender.so.6:_ZN10Qt3DRender15QComputeCommand13setWorkGroupYEi
libQt63DRender.so.6:_ZN10Qt3DRender15QComputeCommand13setWorkGroupZEi
libQt63DRender.so.6:_ZN10Qt3DRender15QComputeCommand14runTypeChangedEv
libQt63DRender.so.6:_ZN10Qt3DRender15QComputeCommand16staticMetaObjectE
libQt63DRender.so.6:_ZN10Qt3DRender15QComputeCommand17workGroupXChangedEv
libQt63DRender.so.6:_ZN10Qt3DRender15QComputeCommand17workGroupYChangedEv
libQt63DRender.so.6:_ZN10Qt3DRender15QComputeCommand17workGroupZChangedEv
libQt63DRender.so.6:_ZN10Qt3DRender15QComputeCommand7triggerEi
libQt63DRender.so.6:_ZN10Qt3DRender15QComputeCommand7triggerEiiii
libQt63DRender.so.6:_ZN10Qt3DRender15QComputeCommandC1EPN8Qt3DCore5QNodeE
libQt63DRender.so.6:_ZN10Qt3DRender15QComputeCommandC2EPN8Qt3DCore5QNodeE
libQt63DRender.so.6:_ZN10Qt3DRender15QComputeCommandD0Ev
libQt63DRender.so.6:_ZN10Qt3DRender15QComputeCommandD1Ev
libQt63DRender.so.6:_ZN10Qt3DRender15QComputeCommandD2Ev
libQt63DRender.so.6:_ZN10Qt3DRender15QFrameGraphNode11qt_metacallEN11QMetaObject4CallEiPPv
libQt63DRender.so.6:_ZN10Qt3DRender15QFrameGraphNode11qt_metacastEPKc
libQt63DRender.so.6:_ZN10Qt3DRender15QFrameGraphNode15onParentChangedEP7QObject
libQt63DRender.so.6:_ZN10Qt3DRender15QFrameGraphNode16staticMetaObjectE
libQt63DRender.so.6:_ZN10Qt3DRender15QFrameGraphNodeC1EPN8Qt3DCore5QNodeE
libQt63DRender.so.6:_ZN10Qt3DRender15QFrameGraphNodeC1ERNS_22QFrameGraphNodePrivateEPN8Qt3DCore5QNodeE
libQt63DRender.so.6:_ZN10Qt3DRender15QFrameGraphNodeC2EPN8Qt3DCore5QNodeE
libQt63DRender.so.6:_ZN10Qt3DRender15QFrameGraphNodeC2ERNS_22QFrameGraphNodePrivateEPN8Qt3DCore5QNodeE
libQt63DRender.so.6:_ZN10Qt3DRender15QFrameGraphNodeD0Ev
libQt63DRender.so.6:_ZN10Qt3DRender15QFrameGraphNodeD1Ev
libQt63DRender.so.6:_ZN10Qt3DRender15QFrameGraphNodeD2Ev
libQt63DRender.so.6:_ZN10Qt3DRender15QFrustumCulling11qt_metacallEN11QMetaObject4CallEiPPv
libQt63DRender.so.6:_ZN10Qt3DRender15QFrustumCulling11qt_metacastEPKc
libQt63DRender.so.6:_ZN10Qt3DRender15QFrustumCulling16staticMetaObjectE
libQt63DRender.so.6:_ZN10Qt3DRender15QFrustumCullingC1EPN8Qt3DCore5QNodeE
libQt63DRender.so.6:_ZN10Qt3DRender15QFrustumCullingC2EPN8Qt3DCore5QNodeE
libQt63DRender.so.6:_ZN10Qt3DRender15QFrustumCullingD0Ev
libQt63DRender.so.6:_ZN10Qt3DRender15QFrustumCullingD1Ev
libQt63DRender.so.6:_ZN10Qt3DRender15QFrustumCullingD2Ev
libQt63DRender.so.6:_ZN10Qt3DRender15QPickPointEvent11qt_metacallEN11QMetaObject4CallEiPPv
libQt63DRender.so.6:_ZN10Qt3DRender15QPickPointEvent11qt_metacastEPKc
libQt63DRender.so.6:_ZN10Qt3DRender15QPickPointEvent16staticMetaObjectE
libQt63DRender.so.6:_ZN10Qt3DRender15QPickPointEventC1ERK7QPointFRK9QVector3DS6_fjNS_10QPickEvent7ButtonsEii
libQt63DRender.so.6:_ZN10Qt3DRender15QPickPointEventC1Ev
libQt63DRender.so.6:_ZN10Qt3DRender15QPickPointEventC2ERK7QPointFRK9QVector3DS6_fjNS_10QPickEvent7ButtonsEii
libQt63DRender.so.6:_ZN10Qt3DRender15QPickPointEventC2Ev
libQt63DRender.so.6:_ZN10Qt3DRender15QPickPointEventD0Ev
libQt63DRender.so.6:_ZN10Qt3DRender15QPickPointEventD1Ev
libQt63DRender.so.6:_ZN10Qt3DRender15QPickPointEventD2Ev
libQt63DRender.so.6:_ZN10Qt3DRender15QRenderSettings11qt_metacallEN11QMetaObject4CallEiPPv
libQt63DRender.so.6:_ZN10Qt3DRender15QRenderSettings11qt_metacastEPKc
libQt63DRender.so.6:_ZN10Qt3DRender15QRenderSettings15pickingSettingsEv
libQt63DRender.so.6:_ZN10Qt3DRender15QRenderSettings15setRenderPolicyENS0_12RenderPolicyE
libQt63DRender.so.6:_ZN10Qt3DRender15QRenderSettings16staticMetaObjectE
libQt63DRender.so.6:_ZN10Qt3DRender15QRenderSettings18renderCapabilitiesEv
libQt63DRender.so.6:_ZN10Qt3DRender15QRenderSettings19renderPolicyChangedENS0_12RenderPolicyE
libQt63DRender.so.6:_ZN10Qt3DRender15QRenderSettings19setActiveFrameGraphEPNS_15QFrameGraphNodeE
libQt63DRender.so.6:_ZN10Qt3DRender15QRenderSettings23activeFrameGraphChangedEPNS_15QFrameGraphNodeE
libQt63DRender.so.6:_ZN10Qt3DRender15QRenderSettingsC1EPN8Qt3DCore5QNodeE
libQt63DRender.so.6:_ZN10Qt3DRender15QRenderSettingsC1ERNS_22QRenderSettingsPrivateEPN8Qt3DCore5QNodeE
libQt63DRender.so.6:_ZN10Qt3DRender15QRenderSettingsC2EPN8Qt3DCore5QNodeE
libQt63DRender.so.6:_ZN10Qt3DRender15QRenderSettingsC2ERNS_22QRenderSettingsPrivateEPN8Qt3DCore5QNodeE
libQt63DRender.so.6:_ZN10Qt3DRender15QRenderSettingsD0Ev
libQt63DRender.so.6:_ZN10Qt3DRender15QRenderSettingsD1Ev
libQt63DRender.so.6:_ZN10Qt3DRender15QRenderSettingsD2Ev
libQt63DRender.so.6:_ZN10Qt3DRender15QRenderStateSet11qt_metacallEN11QMetaObject4CallEiPPv
libQt63DRender.so.6:_ZN10Qt3DRender15QRenderStateSet11qt_metacastEPKc
libQt63DRender.so.6:_ZN10Qt3DRender15QRenderStateSet14addRenderStateEPNS_12QRenderStateE
libQt63DRender.so.6:_ZN10Qt3DRender15QRenderStateSet16staticMetaObjectE
libQt63DRender.so.6:_ZN10Qt3DRender15QRenderStateSet17removeRenderStateEPNS_12QRenderStateE
libQt63DRender.so.6:_ZN10Qt3DRender15QRenderStateSetC1EPN8Qt3DCore5QNodeE
libQt63DRender.so.6:_ZN10Qt3DRender15QRenderStateSetC2EPN8Qt3DCore5QNodeE
libQt63DRender.so.6:_ZN10Qt3DRender15QRenderStateSetD0Ev
libQt63DRender.so.6:_ZN10Qt3DRender15QRenderStateSetD1Ev
libQt63DRender.so.6:_ZN10Qt3DRender15QRenderStateSetD2Ev
libQt63DRender.so.6:_ZN10Qt3DRender15QShaderNodePortC1Ev
libQt63DRender.so.6:_ZN10Qt3DRender15QShaderNodePortC2Ev
libQt63DRender.so.6:_ZN10Qt3DRender15QSubtreeEnabler11qt_metacallEN11QMetaObject4CallEiPPv
libQt63DRender.so.6:_ZN10Qt3DRender15QSubtreeEnabler11qt_metacastEPKc
libQt63DRender.so.6:_ZN10Qt3DRender15QSubtreeEnabler13requestUpdateEv
libQt63DRender.so.6:_ZN10Qt3DRender15QSubtreeEnabler13setEnablementENS0_10EnablementE
libQt63DRender.so.6:_ZN10Qt3DRender15QSubtreeEnabler16staticMetaObjectE
libQt63DRender.so.6:_ZN10Qt3DRender15QSubtreeEnabler17enablementChangedENS0_10EnablementE
libQt63DRender.so.6:_ZN10Qt3DRender15QSubtreeEnablerC1EPN8Qt3DCore5QNodeE
libQt63DRender.so.6:_ZN10Qt3DRender15QSubtreeEnablerC2EPN8Qt3DCore5QNodeE
libQt63DRender.so.6:_ZN10Qt3DRender15QSubtreeEnablerD0Ev
libQt63DRender.so.6:_ZN10Qt3DRender15QSubtreeEnablerD1Ev
libQt63DRender.so.6:_ZN10Qt3DRender15QSubtreeEnablerD2Ev
libQt63DRender.so.6:_ZN10Qt3DRender15QTexture1DArray11qt_metacallEN11QMetaObject4CallEiPPv
libQt63DRender.so.6:_ZN10Qt3DRender15QTexture1DArray11qt_metacastEPKc
libQt63DRender.so.6:_ZN10Qt3DRender15QTexture1DArray16staticMetaObjectE
libQt63DRender.so.6:_ZN10Qt3DRender15QTexture1DArrayC1EPN8Qt3DCore5QNodeE
libQt63DRender.so.6:_ZN10Qt3DRender15QTexture1DArrayC2EPN8Qt3DCore5QNodeE
libQt63DRender.so.6:_ZN10Qt3DRender15QTexture1DArrayD0Ev
libQt63DRender.so.6:_ZN10Qt3DRender15QTexture1DArrayD1Ev
libQt63DRender.so.6:_ZN10Qt3DRender15QTexture1DArrayD2Ev
libQt63DRender.so.6:_ZN10Qt3DRender15QTexture2DArray11qt_metacallEN11QMetaObject4CallEiPPv
libQt63DRender.so.6:_ZN10Qt3DRender15QTexture2DArray11qt_metacastEPKc
libQt63DRender.so.6:_ZN10Qt3DRender15QTexture2DArray16staticMetaObjectE
libQt63DRender.so.6:_ZN10Qt3DRender15QTexture2DArrayC1EPN8Qt3DCore5QNodeE
libQt63DRender.so.6:_ZN10Qt3DRender15QTexture2DArrayC2EPN8Qt3DCore5QNodeE
libQt63DRender.so.6:_ZN10Qt3DRender15QTexture2DArrayD0Ev
libQt63DRender.so.6:_ZN10Qt3DRender15QTexture2DArrayD1Ev
libQt63DRender.so.6:_ZN10Qt3DRender15QTexture2DArrayD2Ev
libQt63DRender.so.6:_ZN10Qt3DRender15QTextureCubeMap11qt_metacallEN11QMetaObject4CallEiPPv
libQt63DRender.so.6:_ZN10Qt3DRender15QTextureCubeMap11qt_metacastEPKc
libQt63DRender.so.6:_ZN10Qt3DRender15QTextureCubeMap16staticMetaObjectE
libQt63DRender.so.6:_ZN10Qt3DRender15QTextureCubeMapC1EPN8Qt3DCore5QNodeE
libQt63DRender.so.6:_ZN10Qt3DRender15QTextureCubeMapC2EPN8Qt3DCore5QNodeE
libQt63DRender.so.6:_ZN10Qt3DRender15QTextureCubeMapD0Ev
libQt63DRender.so.6:_ZN10Qt3DRender15QTextureCubeMapD1Ev
libQt63DRender.so.6:_ZN10Qt3DRender15QTextureCubeMapD2Ev
libQt63DRender.so.6:_ZN10Qt3DRender16QAbstractTexture10setSamplesEi
libQt63DRender.so.6:_ZN10Qt3DRender16QAbstractTexture10updateDataERKNS_18QTextureDataUpdateE
libQt63DRender.so.6:_ZN10Qt3DRender16QAbstractTexture11qt_metacallEN11QMetaObject4CallEiPPv
libQt63DRender.so.6:_ZN10Qt3DRender16QAbstractTexture11qt_metacastEPKc
libQt63DRender.so.6:_ZN10Qt3DRender16QAbstractTexture11setWrapModeERKNS_16QTextureWrapModeE
libQt63DRender.so.6:_ZN10Qt3DRender16QAbstractTexture12depthChangedEi
libQt63DRender.so.6:_ZN10Qt3DRender16QAbstractTexture12setMipLevelsEi
libQt63DRender.so.6:_ZN10Qt3DRender16QAbstractTexture12widthChangedEi
libQt63DRender.so.6:_ZN10Qt3DRender16QAbstractTexture13formatChangedENS0_13TextureFormatE
libQt63DRender.so.6:_ZN10Qt3DRender16QAbstractTexture13handleChangedE8QVariant
libQt63DRender.so.6:_ZN10Qt3DRender16QAbstractTexture13heightChangedEi
libQt63DRender.so.6:_ZN10Qt3DRender16QAbstractTexture13layersChangedEi
libQt63DRender.so.6:_ZN10Qt3DRender16QAbstractTexture13setHandleTypeENS0_10HandleTypeE
libQt63DRender.so.6:_ZN10Qt3DRender16QAbstractTexture13statusChangedENS0_6StatusE
libQt63DRender.so.6:_ZN10Qt3DRender16QAbstractTexture14samplesChangedEi
libQt63DRender.so.6:_ZN10Qt3DRender16QAbstractTexture15addTextureImageEPNS_21QAbstractTextureImageE
libQt63DRender.so.6:_ZN10Qt3DRender16QAbstractTexture16mipLevelsChangedEi
libQt63DRender.so.6:_ZN10Qt3DRender16QAbstractTexture16staticMetaObjectE
libQt63DRender.so.6:_ZN10Qt3DRender16QAbstractTexture17handleTypeChangedENS0_10HandleTypeE
libQt63DRender.so.6:_ZN10Qt3DRender16QAbstractTexture17setComparisonModeENS0_14ComparisonModeE
libQt63DRender.so.6:_ZN10Qt3DRender16QAbstractTexture18removeTextureImageEPNS_21QAbstractTextureImageE
libQt63DRender.so.6:_ZN10Qt3DRender16QAbstractTexture18setGenerateMipMapsEb
libQt63DRender.so.6:_ZN10Qt3DRender16QAbstractTexture20setMaximumAnisotropyEf
libQt63DRender.so.6:_ZN10Qt3DRender16QAbstractTexture21comparisonModeChangedENS0_14ComparisonModeE
libQt63DRender.so.6:_ZN10Qt3DRender16QAbstractTexture21setComparisonFunctionENS0_18ComparisonFunctionE
libQt63DRender.so.6:_ZN10Qt3DRender16QAbstractTexture21setMinificationFilterENS0_6FilterE
libQt63DRender.so.6:_ZN10Qt3DRender16QAbstractTexture22generateMipMapsChangedEb
libQt63DRender.so.6:_ZN10Qt3DRender16QAbstractTexture22setMagnificationFilterENS0_6FilterE
libQt63DRender.so.6:_ZN10Qt3DRender16QAbstractTexture24maximumAnisotropyChangedEf
libQt63DRender.so.6:_ZN10Qt3DRender16QAbstractTexture25comparisonFunctionChangedENS0_18ComparisonFunctionE
libQt63DRender.so.6:_ZN10Qt3DRender16QAbstractTexture25minificationFilterChangedENS0_6FilterE
libQt63DRender.so.6:_ZN10Qt3DRender16QAbstractTexture26magnificationFilterChangedENS0_6FilterE
libQt63DRender.so.6:_ZN10Qt3DRender16QAbstractTexture7setSizeEiii
libQt63DRender.so.6:_ZN10Qt3DRender16QAbstractTexture8setDepthEi
libQt63DRender.so.6:_ZN10Qt3DRender16QAbstractTexture8setWidthEi
libQt63DRender.so.6:_ZN10Qt3DRender16QAbstractTexture8wrapModeEv
libQt63DRender.so.6:_ZN10Qt3DRender16QAbstractTexture9setFormatENS0_13TextureFormatE
libQt63DRender.so.6:_ZN10Qt3DRender16QAbstractTexture9setHandleERK8QVariant
libQt63DRender.so.6:_ZN10Qt3DRender16QAbstractTexture9setHeightEi
libQt63DRender.so.6:_ZN10Qt3DRender16QAbstractTexture9setLayersEi
libQt63DRender.so.6:_ZN10Qt3DRender16QAbstractTexture9setStatusENS0_6StatusE
libQt63DRender.so.6:_ZN10Qt3DRender16QAbstractTextureC1ENS0_6TargetEPN8Qt3DCore5QNodeE
libQt63DRender.so.6:_ZN10Qt3DRender16QAbstractTextureC1EPN8Qt3DCore5QNodeE
libQt63DRender.so.6:_ZN10Qt3DRender16QAbstractTextureC1ERNS_23QAbstractTexturePrivateEPN8Qt3DCore5QNodeE
libQt63DRender.so.6:_ZN10Qt3DRender16QAbstractTextureC2ENS0_6TargetEPN8Qt3DCore5QNodeE
libQt63DRender.so.6:_ZN10Qt3DRender16QAbstractTextureC2EPN8Qt3DCore5QNodeE
libQt63DRender.so.6:_ZN10Qt3DRender16QAbstractTextureC2ERNS_23QAbstractTexturePrivateEPN8Qt3DCore5QNodeE
libQt63DRender.so.6:_ZN10Qt3DRender16QAbstractTextureD0Ev
libQt63DRender.so.6:_ZN10Qt3DRender16QAbstractTextureD1Ev
libQt63DRender.so.6:_ZN10Qt3DRender16QAbstractTextureD2Ev
libQt63DRender.so.6:_ZN10Qt3DRender16QBlitFramebuffer11qt_metacallEN11QMetaObject4CallEiPPv
libQt63DRender.so.6:_ZN10Qt3DRender16QBlitFramebuffer11qt_metacastEPKc
libQt63DRender.so.6:_ZN10Qt3DRender16QBlitFramebuffer13setSourceRectERK6QRectF
libQt63DRender.so.6:_ZN10Qt3DRender16QBlitFramebuffer13sourceChangedEv
libQt63DRender.so.6:_ZN10Qt3DRender16QBlitFramebuffer14setDestinationEPNS_13QRenderTargetE
libQt63DRender.so.6:_ZN10Qt3DRender16QBlitFramebuffer16staticMetaObjectE
libQt63DRender.so.6:_ZN10Qt3DRender16QBlitFramebuffer17sourceRectChangedEv
libQt63DRender.so.6:_ZN10Qt3DRender16QBlitFramebuffer18destinationChangedEv
libQt63DRender.so.6:_ZN10Qt3DRender16QBlitFramebuffer18setDestinationRectERK6QRectF
libQt63DRender.so.6:_ZN10Qt3DRender16QBlitFramebuffer22destinationRectChangedEv
libQt63DRender.so.6:_ZN10Qt3DRender16QBlitFramebuffer22setInterpolationMethodENS0_19InterpolationMethodE
libQt63DRender.so.6:_ZN10Qt3DRender16QBlitFramebuffer24setSourceAttachmentPointENS_19QRenderTargetOutput15AttachmentPointE
libQt63DRender.so.6:_ZN10Qt3DRender16QBlitFramebuffer26interpolationMethodChangedEv
libQt63DRender.so.6:_ZN10Qt3DRender16QBlitFramebuffer28sourceAttachmentPointChangedEv
libQt63DRender.so.6:_ZN10Qt3DRender16QBlitFramebuffer29setDestinationAttachmentPointENS_19QRenderTargetOutput15AttachmentPointE
libQt63DRender.so.6:_ZN10Qt3DRender16QBlitFramebuffer33destinationAttachmentPointChangedEv
libQt63DRender.so.6:_ZN10Qt3DRender16QBlitFramebuffer9setSourceEPNS_13QRenderTargetE
libQt63DRender.so.6:_ZN10Qt3DRender16QBlitFramebufferC1EPN8Qt3DCore5QNodeE
libQt63DRender.so.6:_ZN10Qt3DRender16QBlitFramebufferC1ERNS_23QBlitFramebufferPrivateEPN8Qt3DCore5QNodeE
libQt63DRender.so.6:_ZN10Qt3DRender16QBlitFramebufferC2EPN8Qt3DCore5QNodeE
libQt63DRender.so.6:_ZN10Qt3DRender16QBlitFramebufferC2ERNS_23QBlitFramebufferPrivateEPN8Qt3DCore5QNodeE
libQt63DRender.so.6:_ZN10Qt3DRender16QBlitFramebufferD0Ev
libQt63DRender.so.6:_ZN10Qt3DRender16QBlitFramebufferD1Ev
libQt63DRender.so.6:_ZN10Qt3DRender16QBlitFramebufferD2Ev
libQt63DRender.so.6:_ZN10Qt3DRender16QDispatchCompute11qt_metacallEN11QMetaObject4CallEiPPv
libQt63DRender.so.6:_ZN10Qt3DRender16QDispatchCompute11qt_metacastEPKc
libQt63DRender.so.6:_ZN10Qt3DRender16QDispatchCompute13setWorkGroupXEi
libQt63DRender.so.6:_ZN10Qt3DRender16QDispatchCompute13setWorkGroupYEi
libQt63DRender.so.6:_ZN10Qt3DRender16QDispatchCompute13setWorkGroupZEi
libQt63DRender.so.6:_ZN10Qt3DRender16QDispatchCompute16staticMetaObjectE
libQt63DRender.so.6:_ZN10Qt3DRender16QDispatchCompute17workGroupXChangedEv
libQt63DRender.so.6:_ZN10Qt3DRender16QDispatchCompute17workGroupYChangedEv
libQt63DRender.so.6:_ZN10Qt3DRender16QDispatchCompute17workGroupZChangedEv
libQt63DRender.so.6:_ZN10Qt3DRender16QDispatchComputeC1EPN8Qt3DCore5QNodeE
libQt63DRender.so.6:_ZN10Qt3DRender16QDispatchComputeC2EPN8Qt3DCore5QNodeE
libQt63DRender.so.6:_ZN10Qt3DRender16QDispatchComputeD0Ev
libQt63DRender.so.6:_ZN10Qt3DRender16QDispatchComputeD1Ev
libQt63DRender.so.6:_ZN10Qt3DRender16QDispatchComputeD2Ev
libQt63DRender.so.6:_ZN10Qt3DRender16QMaterialPrivateC1Ev
libQt63DRender.so.6:_ZN10Qt3DRender16QMaterialPrivateC2Ev
libQt63DRender.so.6:_ZN10Qt3DRender16QMaterialPrivateD0Ev
libQt63DRender.so.6:_ZN10Qt3DRender16QMaterialPrivateD1Ev
libQt63DRender.so.6:_ZN10Qt3DRender16QMaterialPrivateD2Ev
libQt63DRender.so.6:_ZN10Qt3DRender16QPickingSettings11qt_metacallEN11QMetaObject4CallEiPPv
libQt63DRender.so.6:_ZN10Qt3DRender16QPickingSettings11qt_metacastEPKc
libQt63DRender.so.6:_ZN10Qt3DRender16QPickingSettings13setPickMethodENS0_10PickMethodE
libQt63DRender.so.6:_ZN10Qt3DRender16QPickingSettings16staticMetaObjectE
libQt63DRender.so.6:_ZN10Qt3DRender16QPickingSettings17pickMethodChangedENS0_10PickMethodE
libQt63DRender.so.6:_ZN10Qt3DRender16QPickingSettings17setPickResultModeENS0_14PickResultModeE
libQt63DRender.so.6:_ZN10Qt3DRender16QPickingSettings21pickResultModeChangedENS0_14PickResultModeE
libQt63DRender.so.6:_ZN10Qt3DRender16QPickingSettings22setWorldSpaceToleranceEf
libQt63DRender.so.6:_ZN10Qt3DRender16QPickingSettings26worldSpaceToleranceChangedEf
libQt63DRender.so.6:_ZN10Qt3DRender16QPickingSettings29setFaceOrientationPickingModeENS0_26FaceOrientationPickingModeE
libQt63DRender.so.6:_ZN10Qt3DRender16QPickingSettings33faceOrientationPickingModeChangedENS0_26FaceOrientationPickingModeE
libQt63DRender.so.6:_ZN10Qt3DRender16QPickingSettingsC1EPN8Qt3DCore5QNodeE
libQt63DRender.so.6:_ZN10Qt3DRender16QPickingSettingsC1ERNS_23QPickingSettingsPrivateEPN8Qt3DCore5QNodeE
libQt63DRender.so.6:_ZN10Qt3DRender16QPickingSettingsC2EPN8Qt3DCore5QNodeE
libQt63DRender.so.6:_ZN10Qt3DRender16QPickingSettingsC2ERNS_23QPickingSettingsPrivateEPN8Qt3DCore5QNodeE
libQt63DRender.so.6:_ZN10Qt3DRender16QPickingSettingsD0Ev
libQt63DRender.so.6:_ZN10Qt3DRender16QPickingSettingsD1Ev
libQt63DRender.so.6:_ZN10Qt3DRender16QPickingSettingsD2Ev
libQt63DRender.so.6:_ZN10Qt3DRender16QProximityFilter11qt_metacallEN11QMetaObject4CallEiPPv
libQt63DRender.so.6:_ZN10Qt3DRender16QProximityFilter11qt_metacastEPKc
libQt63DRender.so.6:_ZN10Qt3DRender16QProximityFilter13entityChangedEPN8Qt3DCore7QEntityE
libQt63DRender.so.6:_ZN10Qt3DRender16QProximityFilter16staticMetaObjectE
libQt63DRender.so.6:_ZN10Qt3DRender16QProximityFilter20setDistanceThresholdEf
libQt63DRender.so.6:_ZN10Qt3DRender16QProximityFilter24distanceThresholdChangedEf
libQt63DRender.so.6:_ZN10Qt3DRender16QProximityFilter9setEntityEPN8Qt3DCore7QEntityE
libQt63DRender.so.6:_ZN10Qt3DRender16QProximityFilterC1EPN8Qt3DCore5QNodeE
libQt63DRender.so.6:_ZN10Qt3DRender16QProximityFilterC1ERNS_23QProximityFilterPrivateEPN8Qt3DCore5QNodeE
libQt63DRender.so.6:_ZN10Qt3DRender16QProximityFilterC2EPN8Qt3DCore5QNodeE
libQt63DRender.so.6:_ZN10Qt3DRender16QProximityFilterC2ERNS_23QProximityFilterPrivateEPN8Qt3DCore5QNodeE
libQt63DRender.so.6:_ZN10Qt3DRender16QProximityFilterD0Ev
libQt63DRender.so.6:_ZN10Qt3DRender16QProximityFilterD1Ev
libQt63DRender.so.6:_ZN10Qt3DRender16QProximityFilterD2Ev
libQt63DRender.so.6:_ZN10Qt3DRender16QScreenRayCaster11qt_metacallEN11QMetaObject4CallEiPPv
libQt63DRender.so.6:_ZN10Qt3DRender16QScreenRayCaster11qt_metacastEPKc
libQt63DRender.so.6:_ZN10Qt3DRender16QScreenRayCaster11setPositionERK6QPoint
libQt63DRender.so.6:_ZN10Qt3DRender16QScreenRayCaster15positionChangedERK6QPoint
libQt63DRender.so.6:_ZN10Qt3DRender16QScreenRayCaster16staticMetaObjectE
libQt63DRender.so.6:_ZN10Qt3DRender16QScreenRayCaster4pickERK6QPoint
libQt63DRender.so.6:_ZN10Qt3DRender16QScreenRayCaster7triggerERK6QPoint
libQt63DRender.so.6:_ZN10Qt3DRender16QScreenRayCaster7triggerEv
libQt63DRender.so.6:_ZN10Qt3DRender16QScreenRayCasterC1EPN8Qt3DCore5QNodeE
libQt63DRender.so.6:_ZN10Qt3DRender16QScreenRayCasterC1ERNS_25QAbstractRayCasterPrivateEPN8Qt3DCore5QNodeE
libQt63DRender.so.6:_ZN10Qt3DRender16QScreenRayCasterC2EPN8Qt3DCore5QNodeE
libQt63DRender.so.6:_ZN10Qt3DRender16QScreenRayCasterC2ERNS_25QAbstractRayCasterPrivateEPN8Qt3DCore5QNodeE
libQt63DRender.so.6:_ZN10Qt3DRender16QScreenRayCasterD0Ev
libQt63DRender.so.6:_ZN10Qt3DRender16QScreenRayCasterD1Ev
libQt63DRender.so.6:_ZN10Qt3DRender16QScreenRayCasterD2Ev
libQt63DRender.so.6:_ZN10Qt3DRender16QSeamlessCubemap11qt_metacallEN11QMetaObject4CallEiPPv
libQt63DRender.so.6:_ZN10Qt3DRender16QSeamlessCubemap11qt_metacastEPKc
libQt63DRender.so.6:_ZN10Qt3DRender16QSeamlessCubemap16staticMetaObjectE
libQt63DRender.so.6:_ZN10Qt3DRender16QSeamlessCubemapC1EPN8Qt3DCore5QNodeE
libQt63DRender.so.6:_ZN10Qt3DRender16QSeamlessCubemapC2EPN8Qt3DCore5QNodeE
libQt63DRender.so.6:_ZN10Qt3DRender16QSeamlessCubemapD0Ev
libQt63DRender.so.6:_ZN10Qt3DRender16QSeamlessCubemapD1Ev
libQt63DRender.so.6:_ZN10Qt3DRender16QSeamlessCubemapD2Ev
libQt63DRender.so.6:_ZN10Qt3DRender16QSetFencePrivate13setHandleTypeENS_9QSetFence10HandleTypeE
libQt63DRender.so.6:_ZN10Qt3DRender16QSetFencePrivate9setHandleE8QVariant
libQt63DRender.so.6:_ZN10Qt3DRender16QSetFencePrivateC1Ev
libQt63DRender.so.6:_ZN10Qt3DRender16QSetFencePrivateC2Ev
libQt63DRender.so.6:_ZN10Qt3DRender16QSharedGLTexture11qt_metacallEN11QMetaObject4CallEiPPv
libQt63DRender.so.6:_ZN10Qt3DRender16QSharedGLTexture11qt_metacastEPKc
libQt63DRender.so.6:_ZN10Qt3DRender16QSharedGLTexture12setTextureIdEi
libQt63DRender.so.6:_ZN10Qt3DRender16QSharedGLTexture16staticMetaObjectE
libQt63DRender.so.6:_ZN10Qt3DRender16QSharedGLTexture16textureIdChangedEi
libQt63DRender.so.6:_ZN10Qt3DRender16QSharedGLTextureC1EPN8Qt3DCore5QNodeE
libQt63DRender.so.6:_ZN10Qt3DRender16QSharedGLTextureC2EPN8Qt3DCore5QNodeE
libQt63DRender.so.6:_ZN10Qt3DRender16QSharedGLTextureD0Ev
libQt63DRender.so.6:_ZN10Qt3DRender16QSharedGLTextureD1Ev
libQt63DRender.so.6:_ZN10Qt3DRender16QSharedGLTextureD2Ev
libQt63DRender.so.6:_ZN10Qt3DRender16QTechniqueFilter11qt_metacallEN11QMetaObject4CallEiPPv
libQt63DRender.so.6:_ZN10Qt3DRender16QTechniqueFilter11qt_metacastEPKc
libQt63DRender.so.6:_ZN10Qt3DRender16QTechniqueFilter11removeMatchEPNS_10QFilterKeyE
libQt63DRender.so.6:_ZN10Qt3DRender16QTechniqueFilter12addParameterEPNS_10QParameterE
libQt63DRender.so.6:_ZN10Qt3DRender16QTechniqueFilter15removeParameterEPNS_10QParameterE
libQt63DRender.so.6:_ZN10Qt3DRender16QTechniqueFilter16staticMetaObjectE
libQt63DRender.so.6:_ZN10Qt3DRender16QTechniqueFilter8addMatchEPNS_10QFilterKeyE
libQt63DRender.so.6:_ZN10Qt3DRender16QTechniqueFilterC1EPN8Qt3DCore5QNodeE
libQt63DRender.so.6:_ZN10Qt3DRender16QTechniqueFilterC1ERNS_23QTechniqueFilterPrivateEPN8Qt3DCore5QNodeE
libQt63DRender.so.6:_ZN10Qt3DRender16QTechniqueFilterC2EPN8Qt3DCore5QNodeE
libQt63DRender.so.6:_ZN10Qt3DRender16QTechniqueFilterC2ERNS_23QTechniqueFilterPrivateEPN8Qt3DCore5QNodeE
libQt63DRender.so.6:_ZN10Qt3DRender16QTechniqueFilterD0Ev
libQt63DRender.so.6:_ZN10Qt3DRender16QTechniqueFilterD1Ev
libQt63DRender.so.6:_ZN10Qt3DRender16QTechniqueFilterD2Ev
libQt63DRender.so.6:_ZN10Qt3DRender16QTextureWrapMode11qt_metacallEN11QMetaObject4CallEiPPv
libQt63DRender.so.6:_ZN10Qt3DRender16QTextureWrapMode11qt_metacastEPKc
libQt63DRender.so.6:_ZN10Qt3DRender16QTextureWrapMode16staticMetaObjectE
libQt63DRender.so.6:_ZN10Qt3DRender16QTextureWrapMode4setXENS0_8WrapModeE
libQt63DRender.so.6:_ZN10Qt3DRender16QTextureWrapMode4setYENS0_8WrapModeE
libQt63DRender.so.6:_ZN10Qt3DRender16QTextureWrapMode4setZENS0_8WrapModeE
libQt63DRender.so.6:_ZN10Qt3DRender16QTextureWrapMode8xChangedENS0_8WrapModeE
libQt63DRender.so.6:_ZN10Qt3DRender16QTextureWrapMode8yChangedENS0_8WrapModeE
libQt63DRender.so.6:_ZN10Qt3DRender16QTextureWrapMode8zChangedENS0_8WrapModeE
libQt63DRender.so.6:_ZN10Qt3DRender16QTextureWrapModeC1ENS0_8WrapModeEP7QObject
libQt63DRender.so.6:_ZN10Qt3DRender16QTextureWrapModeC1ENS0_8WrapModeES1_S1_P7QObject
libQt63DRender.so.6:_ZN10Qt3DRender16QTextureWrapModeC2ENS0_8WrapModeEP7QObject
libQt63DRender.so.6:_ZN10Qt3DRender16QTextureWrapModeC2ENS0_8WrapModeES1_S1_P7QObject
libQt63DRender.so.6:_ZN10Qt3DRender16QTextureWrapModeD0Ev
libQt63DRender.so.6:_ZN10Qt3DRender16QTextureWrapModeD1Ev
libQt63DRender.so.6:_ZN10Qt3DRender16QTextureWrapModeD2Ev
libQt63DRender.so.6:_ZN10Qt3DRender17QDirectionalLight11qt_metacallEN11QMetaObject4CallEiPPv
libQt63DRender.so.6:_ZN10Qt3DRender17QDirectionalLight11qt_metacastEPKc
libQt63DRender.so.6:_ZN10Qt3DRender17QDirectionalLight16staticMetaObjectE
libQt63DRender.so.6:_ZN10Qt3DRender17QDirectionalLight17setWorldDirectionERK9QVector3D
libQt63DRender.so.6:_ZN10Qt3DRender17QDirectionalLight21worldDirectionChangedERK9QVector3D
libQt63DRender.so.6:_ZN10Qt3DRender17QDirectionalLightC1EPN8Qt3DCore5QNodeE
libQt63DRender.so.6:_ZN10Qt3DRender17QDirectionalLightC1ERNS_24QDirectionalLightPrivateEPN8Qt3DCore5QNodeE
libQt63DRender.so.6:_ZN10Qt3DRender17QDirectionalLightC2EPN8Qt3DCore5QNodeE
libQt63DRender.so.6:_ZN10Qt3DRender17QDirectionalLightC2ERNS_24QDirectionalLightPrivateEPN8Qt3DCore5QNodeE
libQt63DRender.so.6:_ZN10Qt3DRender17QDirectionalLightD0Ev
libQt63DRender.so.6:_ZN10Qt3DRender17QDirectionalLightD1Ev
libQt63DRender.so.6:_ZN10Qt3DRender17QDirectionalLightD2Ev
libQt63DRender.so.6:_ZN10Qt3DRender17QEnvironmentLight11qt_metacallEN11QMetaObject4CallEiPPv
libQt63DRender.so.6:_ZN10Qt3DRender17QEnvironmentLight11qt_metacastEPKc
libQt63DRender.so.6:_ZN10Qt3DRender17QEnvironmentLight11setSpecularEPNS_16QAbstractTextureE
libQt63DRender.so.6:_ZN10Qt3DRender17QEnvironmentLight13setIrradianceEPNS_16QAbstractTextureE
libQt63DRender.so.6:_ZN10Qt3DRender17QEnvironmentLight15specularChangedEPNS_16QAbstractTextureE
libQt63DRender.so.6:_ZN10Qt3DRender17QEnvironmentLight16staticMetaObjectE
libQt63DRender.so.6:_ZN10Qt3DRender17QEnvironmentLight17irradianceChangedEPNS_16QAbstractTextureE
libQt63DRender.so.6:_ZN10Qt3DRender17QEnvironmentLightC1EPN8Qt3DCore5QNodeE
libQt63DRender.so.6:_ZN10Qt3DRender17QEnvironmentLightC1ERNS_24QEnvironmentLightPrivateEPN8Qt3DCore5QNodeE
libQt63DRender.so.6:_ZN10Qt3DRender17QEnvironmentLightC2EPN8Qt3DCore5QNodeE
libQt63DRender.so.6:_ZN10Qt3DRender17QEnvironmentLightC2ERNS_24QEnvironmentLightPrivateEPN8Qt3DCore5QNodeE
libQt63DRender.so.6:_ZN10Qt3DRender17QEnvironmentLightD0Ev
libQt63DRender.so.6:_ZN10Qt3DRender17QEnvironmentLightD1Ev
libQt63DRender.so.6:_ZN10Qt3DRender17QEnvironmentLightD2Ev
libQt63DRender.so.6:_ZN10Qt3DRender17QFilterKeyPrivateC1Ev
libQt63DRender.so.6:_ZN10Qt3DRender17QFilterKeyPrivateC2Ev
libQt63DRender.so.6:_ZN10Qt3DRender17QGeometryRenderer11qt_metacallEN11QMetaObject4CallEiPPv
libQt63DRender.so.6:_ZN10Qt3DRender17QGeometryRenderer11qt_metacastEPKc
libQt63DRender.so.6:_ZN10Qt3DRender17QGeometryRenderer11setGeometryEPN8Qt3DCore9QGeometryE
libQt63DRender.so.6:_ZN10Qt3DRender17QGeometryRenderer12setSortIndexEf
libQt63DRender.so.6:_ZN10Qt3DRender17QGeometryRenderer14setFirstVertexEi
libQt63DRender.so.6:_ZN10Qt3DRender17QGeometryRenderer14setIndexOffsetEi
libQt63DRender.so.6:_ZN10Qt3DRender17QGeometryRenderer14setVertexCountEi
libQt63DRender.so.6:_ZN10Qt3DRender17QGeometryRenderer15geometryChangedEPN8Qt3DCore9QGeometryE
libQt63DRender.so.6:_ZN10Qt3DRender17QGeometryRenderer16setFirstInstanceEi
libQt63DRender.so.6:_ZN10Qt3DRender17QGeometryRenderer16setInstanceCountEi
libQt63DRender.so.6:_ZN10Qt3DRender17QGeometryRenderer16setPrimitiveTypeENS0_13PrimitiveTypeE
libQt63DRender.so.6:_ZN10Qt3DRender17QGeometryRenderer16sortIndexChangedEf
libQt63DRender.so.6:_ZN10Qt3DRender17QGeometryRenderer16staticMetaObjectE
libQt63DRender.so.6:_ZN10Qt3DRender17QGeometryRenderer18firstVertexChangedEi
libQt63DRender.so.6:_ZN10Qt3DRender17QGeometryRenderer18indexOffsetChangedEi
libQt63DRender.so.6:_ZN10Qt3DRender17QGeometryRenderer18vertexCountChangedEi
libQt63DRender.so.6:_ZN10Qt3DRender17QGeometryRenderer19setVerticesPerPatchEi
libQt63DRender.so.6:_ZN10Qt3DRender17QGeometryRenderer20firstInstanceChangedEi
libQt63DRender.so.6:_ZN10Qt3DRender17QGeometryRenderer20instanceCountChangedEi
libQt63DRender.so.6:_ZN10Qt3DRender17QGeometryRenderer20primitiveTypeChangedENS0_13PrimitiveTypeE
libQt63DRender.so.6:_ZN10Qt3DRender17QGeometryRenderer20setRestartIndexValueEi
libQt63DRender.so.6:_ZN10Qt3DRender17QGeometryRenderer23verticesPerPatchChangedEi
libQt63DRender.so.6:_ZN10Qt3DRender17QGeometryRenderer24restartIndexValueChangedEi
libQt63DRender.so.6:_ZN10Qt3DRender17QGeometryRenderer24setIndexBufferByteOffsetEi
libQt63DRender.so.6:_ZN10Qt3DRender17QGeometryRenderer26setPrimitiveRestartEnabledEb
libQt63DRender.so.6:_ZN10Qt3DRender17QGeometryRenderer28indexBufferByteOffsetChangedEi
libQt63DRender.so.6:_ZN10Qt3DRender17QGeometryRenderer30primitiveRestartEnabledChangedEb
libQt63DRender.so.6:_ZN10Qt3DRender17QGeometryRendererC1EPN8Qt3DCore5QNodeE
libQt63DRender.so.6:_ZN10Qt3DRender17QGeometryRendererC1ERNS_24QGeometryRendererPrivateEPN8Qt3DCore5QNodeE
libQt63DRender.so.6:_ZN10Qt3DRender17QGeometryRendererC2EPN8Qt3DCore5QNodeE
libQt63DRender.so.6:_ZN10Qt3DRender17QGeometryRendererC2ERNS_24QGeometryRendererPrivateEPN8Qt3DCore5QNodeE
libQt63DRender.so.6:_ZN10Qt3DRender17QGeometryRendererD0Ev
libQt63DRender.so.6:_ZN10Qt3DRender17QGeometryRendererD1Ev
libQt63DRender.so.6:_ZN10Qt3DRender17QGeometryRendererD2Ev
libQt63DRender.so.6:_ZN10Qt3DRender17QParameterPrivate8setValueERK8QVariant
libQt63DRender.so.6:_ZN10Qt3DRender17QParameterPrivateC1Ev
libQt63DRender.so.6:_ZN10Qt3DRender17QParameterPrivateC2Ev
libQt63DRender.so.6:_ZN10Qt3DRender17QPickEventPrivate3getEPNS_10QPickEventE
libQt63DRender.so.6:_ZN10Qt3DRender17QRenderPassFilter11qt_metacallEN11QMetaObject4CallEiPPv
libQt63DRender.so.6:_ZN10Qt3DRender17QRenderPassFilter11qt_metacastEPKc
libQt63DRender.so.6:_ZN10Qt3DRender17QRenderPassFilter11removeMatchEPNS_10QFilterKeyE
libQt63DRender.so.6:_ZN10Qt3DRender17QRenderPassFilter12addParameterEPNS_10QParameterE
libQt63DRender.so.6:_ZN10Qt3DRender17QRenderPassFilter15removeParameterEPNS_10QParameterE
libQt63DRender.so.6:_ZN10Qt3DRender17QRenderPassFilter16staticMetaObjectE
libQt63DRender.so.6:_ZN10Qt3DRender17QRenderPassFilter8addMatchEPNS_10QFilterKeyE
libQt63DRender.so.6:_ZN10Qt3DRender17QRenderPassFilterC1EPN8Qt3DCore5QNodeE
libQt63DRender.so.6:_ZN10Qt3DRender17QRenderPassFilterC1ERNS_24QRenderPassFilterPrivateEPN8Qt3DCore5QNodeE
libQt63DRender.so.6:_ZN10Qt3DRender17QRenderPassFilterC2EPN8Qt3DCore5QNodeE
libQt63DRender.so.6:_ZN10Qt3DRender17QRenderPassFilterC2ERNS_24QRenderPassFilterPrivateEPN8Qt3DCore5QNodeE
libQt63DRender.so.6:_ZN10Qt3DRender17QRenderPassFilterD0Ev
libQt63DRender.so.6:_ZN10Qt3DRender17QRenderPassFilterD1Ev
libQt63DRender.so.6:_ZN10Qt3DRender17QRenderPassFilterD2Ev
libQt63DRender.so.6:_ZN10Qt3DRender17QSpotLightPrivateC1Ev
libQt63DRender.so.6:_ZN10Qt3DRender17QSpotLightPrivateC2Ev
libQt63DRender.so.6:_ZN10Qt3DRender17QStencilOperation11qt_metacallEN11QMetaObject4CallEiPPv
libQt63DRender.so.6:_ZN10Qt3DRender17QStencilOperation11qt_metacastEPKc
libQt63DRender.so.6:_ZN10Qt3DRender17QStencilOperation16staticMetaObjectE
libQt63DRender.so.6:_ZN10Qt3DRender17QStencilOperationC1EPN8Qt3DCore5QNodeE
libQt63DRender.so.6:_ZN10Qt3DRender17QStencilOperationC2EPN8Qt3DCore5QNodeE
libQt63DRender.so.6:_ZN10Qt3DRender17QStencilOperationD0Ev
libQt63DRender.so.6:_ZN10Qt3DRender17QStencilOperationD1Ev
libQt63DRender.so.6:_ZN10Qt3DRender17QStencilOperationD2Ev
libQt63DRender.so.6:_ZN10Qt3DRender17QTextureGeneratorD0Ev
libQt63DRender.so.6:_ZN10Qt3DRender17QTextureGeneratorD1Ev
libQt63DRender.so.6:_ZN10Qt3DRender17QTextureGeneratorD2Ev
libQt63DRender.so.6:_ZN10Qt3DRender17QTextureImageData12setAlignmentEi
libQt63DRender.so.6:_ZN10Qt3DRender17QTextureImageData12setMipLevelsEi
libQt63DRender.so.6:_ZN10Qt3DRender17QTextureImageData12setPixelTypeEN14QOpenGLTexture9PixelTypeE
libQt63DRender.so.6:_ZN10Qt3DRender17QTextureImageData14setPixelFormatEN14QOpenGLTexture11PixelFormatE
libQt63DRender.so.6:_ZN10Qt3DRender17QTextureImageData7cleanupEv
libQt63DRender.so.6:_ZN10Qt3DRender17QTextureImageData7setDataERK10QByteArraySt8functionIFS1_S1_iiiEEb
libQt63DRender.so.6:_ZN10Qt3DRender17QTextureImageData7setDataERK10QByteArrayib
libQt63DRender.so.6:_ZN10Qt3DRender17QTextureImageData8setDepthEi
libQt63DRender.so.6:_ZN10Qt3DRender17QTextureImageData8setFacesEi
libQt63DRender.so.6:_ZN10Qt3DRender17QTextureImageData8setImageERK6QImage
libQt63DRender.so.6:_ZN10Qt3DRender17QTextureImageData8setWidthEi
libQt63DRender.so.6:_ZN10Qt3DRender17QTextureImageData9setFormatEN14QOpenGLTexture13TextureFormatE
libQt63DRender.so.6:_ZN10Qt3DRender17QTextureImageData9setHeightEi
libQt63DRender.so.6:_ZN10Qt3DRender17QTextureImageData9setLayersEi
libQt63DRender.so.6:_ZN10Qt3DRender17QTextureImageData9setTargetEN14QOpenGLTexture6TargetE
libQt63DRender.so.6:_ZN10Qt3DRender17QTextureImageDataC1ERNS_24QTextureImageDataPrivateE
libQt63DRender.so.6:_ZN10Qt3DRender17QTextureImageDataC1Ev
libQt63DRender.so.6:_ZN10Qt3DRender17QTextureImageDataC2ERNS_24QTextureImageDataPrivateE
libQt63DRender.so.6:_ZN10Qt3DRender17QTextureImageDataC2Ev
libQt63DRender.so.6:_ZN10Qt3DRender17QTextureImageDataD1Ev
libQt63DRender.so.6:_ZN10Qt3DRender17QTextureImageDataD2Ev
libQt63DRender.so.6:_ZN10Qt3DRender17QTextureImageDataaSERKS0_
libQt63DRender.so.6:_ZN10Qt3DRender17QTextureRectangle11qt_metacallEN11QMetaObject4CallEiPPv
libQt63DRender.so.6:_ZN10Qt3DRender17QTextureRectangle11qt_metacastEPKc
libQt63DRender.so.6:_ZN10Qt3DRender17QTextureRectangle16staticMetaObjectE
libQt63DRender.so.6:_ZN10Qt3DRender17QTextureRectangleC1EPN8Qt3DCore5QNodeE
libQt63DRender.so.6:_ZN10Qt3DRender17QTextureRectangleC2EPN8Qt3DCore5QNodeE
libQt63DRender.so.6:_ZN10Qt3DRender17QTextureRectangleD0Ev
libQt63DRender.so.6:_ZN10Qt3DRender17QTextureRectangleD1Ev
libQt63DRender.so.6:_ZN10Qt3DRender17QTextureRectangleD2Ev
libQt63DRender.so.6:_ZN10Qt3DRender18QAbstractRayCaster10setRunModeENS0_7RunModeE
libQt63DRender.so.6:_ZN10Qt3DRender18QAbstractRayCaster11hitsChangedERK5QListINS_13QRayCasterHitEE
libQt63DRender.so.6:_ZN10Qt3DRender18QAbstractRayCaster11qt_metacallEN11QMetaObject4CallEiPPv
libQt63DRender.so.6:_ZN10Qt3DRender18QAbstractRayCaster11qt_metacastEPKc
libQt63DRender.so.6:_ZN10Qt3DRender18QAbstractRayCaster11removeLayerEPNS_6QLayerE
libQt63DRender.so.6:_ZN10Qt3DRender18QAbstractRayCaster13setFilterModeENS0_10FilterModeE
libQt63DRender.so.6:_ZN10Qt3DRender18QAbstractRayCaster14runModeChangedENS0_7RunModeE
libQt63DRender.so.6:_ZN10Qt3DRender18QAbstractRayCaster16staticMetaObjectE
libQt63DRender.so.6:_ZN10Qt3DRender18QAbstractRayCaster17filterModeChangedENS0_10FilterModeE
libQt63DRender.so.6:_ZN10Qt3DRender18QAbstractRayCaster8addLayerEPNS_6QLayerE
libQt63DRender.so.6:_ZN10Qt3DRender18QAbstractRayCasterC1EPN8Qt3DCore5QNodeE
libQt63DRender.so.6:_ZN10Qt3DRender18QAbstractRayCasterC1ERNS_25QAbstractRayCasterPrivateEPN8Qt3DCore5QNodeE
libQt63DRender.so.6:_ZN10Qt3DRender18QAbstractRayCasterC2EPN8Qt3DCore5QNodeE
libQt63DRender.so.6:_ZN10Qt3DRender18QAbstractRayCasterC2ERNS_25QAbstractRayCasterPrivateEPN8Qt3DCore5QNodeE
libQt63DRender.so.6:_ZN10Qt3DRender18QAbstractRayCasterD0Ev
libQt63DRender.so.6:_ZN10Qt3DRender18QAbstractRayCasterD1Ev
libQt63DRender.so.6:_ZN10Qt3DRender18QAbstractRayCasterD2Ev
libQt63DRender.so.6:_ZN10Qt3DRender18QCameraLensPrivate20processViewAllResultEN8Qt3DCore7QNodeIdERK9QVector3Df
libQt63DRender.so.6:_ZN10Qt3DRender18QCameraLensPrivateC1Ev
libQt63DRender.so.6:_ZN10Qt3DRender18QCameraLensPrivateC2Ev
libQt63DRender.so.6:_ZN10Qt3DRender18QGraphicsApiFilter10apiChangedENS0_3ApiE
libQt63DRender.so.6:_ZN10Qt3DRender18QGraphicsApiFilter10setProfileENS0_13OpenGLProfileE
libQt63DRender.so.6:_ZN10Qt3DRender18QGraphicsApiFilter11qt_metacallEN11QMetaObject4CallEiPPv
libQt63DRender.so.6:_ZN10Qt3DRender18QGraphicsApiFilter11qt_metacastEPKc
libQt63DRender.so.6:_ZN10Qt3DRender18QGraphicsApiFilter13setExtensionsERK5QListI7QStringE
libQt63DRender.so.6:_ZN10Qt3DRender18QGraphicsApiFilter13vendorChangedERK7QString
libQt63DRender.so.6:_ZN10Qt3DRender18QGraphicsApiFilter14profileChangedENS0_13OpenGLProfileE
libQt63DRender.so.6:_ZN10Qt3DRender18QGraphicsApiFilter15setMajorVersionEi
libQt63DRender.so.6:_ZN10Qt3DRender18QGraphicsApiFilter15setMinorVersionEi
libQt63DRender.so.6:_ZN10Qt3DRender18QGraphicsApiFilter16staticMetaObjectE
libQt63DRender.so.6:_ZN10Qt3DRender18QGraphicsApiFilter17extensionsChangedERK5QListI7QStringE
libQt63DRender.so.6:_ZN10Qt3DRender18QGraphicsApiFilter19majorVersionChangedEi
libQt63DRender.so.6:_ZN10Qt3DRender18QGraphicsApiFilter19minorVersionChangedEi
libQt63DRender.so.6:_ZN10Qt3DRender18QGraphicsApiFilter24graphicsApiFilterChangedEv
libQt63DRender.so.6:_ZN10Qt3DRender18QGraphicsApiFilter6setApiENS0_3ApiE
libQt63DRender.so.6:_ZN10Qt3DRender18QGraphicsApiFilter9setVendorERK7QString
libQt63DRender.so.6:_ZN10Qt3DRender18QGraphicsApiFilterC1EP7QObject
libQt63DRender.so.6:_ZN10Qt3DRender18QGraphicsApiFilterC2EP7QObject
libQt63DRender.so.6:_ZN10Qt3DRender18QGraphicsApiFilterD0Ev
libQt63DRender.so.6:_ZN10Qt3DRender18QGraphicsApiFilterD1Ev
libQt63DRender.so.6:_ZN10Qt3DRender18QGraphicsApiFilterD2Ev
libQt63DRender.so.6:_ZN10Qt3DRender18QPickTriangleEvent11qt_metacallEN11QMetaObject4CallEiPPv
libQt63DRender.so.6:_ZN10Qt3DRender18QPickTriangleEvent11qt_metacastEPKc
libQt63DRender.so.6:_ZN10Qt3DRender18QPickTriangleEvent16staticMetaObjectE
libQt63DRender.so.6:_ZN10Qt3DRender18QPickTriangleEventC1ERK7QPointFRK9QVector3DS6_fjjjj
libQt63DRender.so.6:_ZN10Qt3DRender18QPickTriangleEventC1ERK7QPointFRK9QVector3DS6_fjjjjNS_10QPickEvent7ButtonsEiiS6_
libQt63DRender.so.6:_ZN10Qt3DRender18QPickTriangleEventC1Ev
libQt63DRender.so.6:_ZN10Qt3DRender18QPickTriangleEventC2ERK7QPointFRK9QVector3DS6_fjjjj
libQt63DRender.so.6:_ZN10Qt3DRender18QPickTriangleEventC2ERK7QPointFRK9QVector3DS6_fjjjjNS_10QPickEvent7ButtonsEiiS6_
libQt63DRender.so.6:_ZN10Qt3DRender18QPickTriangleEventC2Ev
libQt63DRender.so.6:_ZN10Qt3DRender18QPickTriangleEventD0Ev
libQt63DRender.so.6:_ZN10Qt3DRender18QPickTriangleEventD1Ev
libQt63DRender.so.6:_ZN10Qt3DRender18QPickTriangleEventD2Ev
libQt63DRender.so.6:_ZN10Qt3DRender18QPointLightPrivateC1Ev
libQt63DRender.so.6:_ZN10Qt3DRender18QPointLightPrivateC2Ev
libQt63DRender.so.6:_ZN10Qt3DRender18QSceneExportPlugin11qt_metacallEN11QMetaObject4CallEiPPv
libQt63DRender.so.6:_ZN10Qt3DRender18QSceneExportPlugin11qt_metacastEPKc
libQt63DRender.so.6:_ZN10Qt3DRender18QSceneExportPlugin16staticMetaObjectE
libQt63DRender.so.6:_ZN10Qt3DRender18QSceneExportPlugin6createERK7QStringRK5QListIS1_E
libQt63DRender.so.6:_ZN10Qt3DRender18QSceneExportPluginC1EP7QObject
libQt63DRender.so.6:_ZN10Qt3DRender18QSceneExportPluginC2EP7QObject
libQt63DRender.so.6:_ZN10Qt3DRender18QSceneExportPluginD0Ev
libQt63DRender.so.6:_ZN10Qt3DRender18QSceneExportPluginD1Ev
libQt63DRender.so.6:_ZN10Qt3DRender18QSceneExportPluginD2Ev
libQt63DRender.so.6:_ZN10Qt3DRender18QSceneImportPlugin11qt_metacallEN11QMetaObject4CallEiPPv
libQt63DRender.so.6:_ZN10Qt3DRender18QSceneImportPlugin11qt_metacastEPKc
libQt63DRender.so.6:_ZN10Qt3DRender18QSceneImportPlugin16staticMetaObjectE
libQt63DRender.so.6:_ZN10Qt3DRender18QSceneImportPlugin6createERK7QStringRK5QListIS1_E
libQt63DRender.so.6:_ZN10Qt3DRender18QSceneImportPluginC1EP7QObject
libQt63DRender.so.6:_ZN10Qt3DRender18QSceneImportPluginC2EP7QObject
libQt63DRender.so.6:_ZN10Qt3DRender18QSceneImportPluginD0Ev
libQt63DRender.so.6:_ZN10Qt3DRender18QSceneImportPluginD1Ev
libQt63DRender.so.6:_ZN10Qt3DRender18QSceneImportPluginD2Ev
libQt63DRender.so.6:_ZN10Qt3DRender18QShaderDataPrivateC1E14QSharedPointerINS_23PropertyReaderInterfaceEE
libQt63DRender.so.6:_ZN10Qt3DRender18QShaderDataPrivateC1Ev
libQt63DRender.so.6:_ZN10Qt3DRender18QShaderDataPrivateC2E14QSharedPointerINS_23PropertyReaderInterfaceEE
libQt63DRender.so.6:_ZN10Qt3DRender18QShaderDataPrivateC2Ev
libQt63DRender.so.6:_ZN10Qt3DRender18QShaderGraphLoader13setPrototypesERK5QHashI7QStringNS_11QShaderNodeEE
libQt63DRender.so.6:_ZN10Qt3DRender18QShaderGraphLoader4loadEv
libQt63DRender.so.6:_ZN10Qt3DRender18QShaderGraphLoader9setDeviceEP9QIODevice
libQt63DRender.so.6:_ZN10Qt3DRender18QShaderGraphLoaderC1Ev
libQt63DRender.so.6:_ZN10Qt3DRender18QShaderGraphLoaderC2Ev
libQt63DRender.so.6:_ZN10Qt3DRender18QShaderNodesLoader4loadERK11QJsonObject
libQt63DRender.so.6:_ZN10Qt3DRender18QShaderNodesLoader4loadEv
libQt63DRender.so.6:_ZN10Qt3DRender18QShaderNodesLoader9setDeviceEP9QIODevice
libQt63DRender.so.6:_ZN10Qt3DRender18QShaderNodesLoaderC1Ev
libQt63DRender.so.6:_ZN10Qt3DRender18QShaderNodesLoaderC2Ev
libQt63DRender.so.6:_ZN10Qt3DRender18QTextureDataUpdate11setMipLevelEi
libQt63DRender.so.6:_ZN10Qt3DRender18QTextureDataUpdate4setXEi
libQt63DRender.so.6:_ZN10Qt3DRender18QTextureDataUpdate4setYEi
libQt63DRender.so.6:_ZN10Qt3DRender18QTextureDataUpdate4setZEi
libQt63DRender.so.6:_ZN10Qt3DRender18QTextureDataUpdate7setDataERK14QSharedPointerINS_17QTextureImageDataEE
libQt63DRender.so.6:_ZN10Qt3DRender18QTextureDataUpdate7setFaceENS_16QAbstractTexture11CubeMapFaceE
libQt63DRender.so.6:_ZN10Qt3DRender18QTextureDataUpdate8setLayerEi
libQt63DRender.so.6:_ZN10Qt3DRender18QTextureDataUpdateC1ERKS0_
libQt63DRender.so.6:_ZN10Qt3DRender18QTextureDataUpdateC1Ev
libQt63DRender.so.6:_ZN10Qt3DRender18QTextureDataUpdateC2ERKS0_
libQt63DRender.so.6:_ZN10Qt3DRender18QTextureDataUpdateC2Ev
libQt63DRender.so.6:_ZN10Qt3DRender18QTextureDataUpdateD1Ev
libQt63DRender.so.6:_ZN10Qt3DRender18QTextureDataUpdateD2Ev
libQt63DRender.so.6:_ZN10Qt3DRender18QTextureDataUpdateaSERKS0_
libQt63DRender.so.6:_ZN10Qt3DRender19QRenderCapabilities11qt_metacallEN11QMetaObject4CallEiPPv
libQt63DRender.so.6:_ZN10Qt3DRender19QRenderCapabilities11qt_metacastEPKc
libQt63DRender.so.6:_ZN10Qt3DRender19QRenderCapabilities16staticMetaObjectE
libQt63DRender.so.6:_ZN10Qt3DRender19QRenderCapabilitiesC1EP7QObject
libQt63DRender.so.6:_ZN10Qt3DRender19QRenderCapabilitiesC2EP7QObject
libQt63DRender.so.6:_ZN10Qt3DRender19QRenderCapabilitiesD0Ev
libQt63DRender.so.6:_ZN10Qt3DRender19QRenderCapabilitiesD1Ev
libQt63DRender.so.6:_ZN10Qt3DRender19QRenderCapabilitiesD2Ev
libQt63DRender.so.6:_ZN10Qt3DRender19QRenderCaptureReply11qt_metacallEN11QMetaObject4CallEiPPv
libQt63DRender.so.6:_ZN10Qt3DRender19QRenderCaptureReply11qt_metacastEPKc
libQt63DRender.so.6:_ZN10Qt3DRender19QRenderCaptureReply16staticMetaObjectE
libQt63DRender.so.6:_ZN10Qt3DRender19QRenderCaptureReply9completedEv
libQt63DRender.so.6:_ZN10Qt3DRender19QRenderCaptureReplyC1EP7QObject
libQt63DRender.so.6:_ZN10Qt3DRender19QRenderCaptureReplyC2EP7QObject
libQt63DRender.so.6:_ZN10Qt3DRender19QRenderStatePrivate3getEPKNS_12QRenderStateE
libQt63DRender.so.6:_ZN10Qt3DRender19QRenderStatePrivate3getEPNS_12QRenderStateE
libQt63DRender.so.6:_ZN10Qt3DRender19QRenderStatePrivateC1ENS_6Render9StateMaskE
libQt63DRender.so.6:_ZN10Qt3DRender19QRenderStatePrivateC2ENS_6Render9StateMaskE
libQt63DRender.so.6:_ZN10Qt3DRender19QRenderStatePrivateD0Ev
libQt63DRender.so.6:_ZN10Qt3DRender19QRenderStatePrivateD1Ev
libQt63DRender.so.6:_ZN10Qt3DRender19QRenderStatePrivateD2Ev
libQt63DRender.so.6:_ZN10Qt3DRender19QRenderTargetOutput10setTextureEPNS_16QAbstractTextureE
libQt63DRender.so.6:_ZN10Qt3DRender19QRenderTargetOutput11faceChangedENS_16QAbstractTexture11CubeMapFaceE
libQt63DRender.so.6:_ZN10Qt3DRender19QRenderTargetOutput11qt_metacallEN11QMetaObject4CallEiPPv
libQt63DRender.so.6:_ZN10Qt3DRender19QRenderTargetOutput11qt_metacastEPKc
libQt63DRender.so.6:_ZN10Qt3DRender19QRenderTargetOutput11setMipLevelEi
libQt63DRender.so.6:_ZN10Qt3DRender19QRenderTargetOutput12layerChangedEi
libQt63DRender.so.6:_ZN10Qt3DRender19QRenderTargetOutput14textureChangedEPNS_16QAbstractTextureE
libQt63DRender.so.6:_ZN10Qt3DRender19QRenderTargetOutput15mipLevelChangedEi
libQt63DRender.so.6:_ZN10Qt3DRender19QRenderTargetOutput16staticMetaObjectE
libQt63DRender.so.6:_ZN10Qt3DRender19QRenderTargetOutput18setAttachmentPointENS0_15AttachmentPointE
libQt63DRender.so.6:_ZN10Qt3DRender19QRenderTargetOutput22attachmentPointChangedENS0_15AttachmentPointE
libQt63DRender.so.6:_ZN10Qt3DRender19QRenderTargetOutput7setFaceENS_16QAbstractTexture11CubeMapFaceE
libQt63DRender.so.6:_ZN10Qt3DRender19QRenderTargetOutput8setLayerEi
libQt63DRender.so.6:_ZN10Qt3DRender19QRenderTargetOutputC1EPN8Qt3DCore5QNodeE
libQt63DRender.so.6:_ZN10Qt3DRender19QRenderTargetOutputC1ERNS_26QRenderTargetOutputPrivateEPN8Qt3DCore5QNodeE
libQt63DRender.so.6:_ZN10Qt3DRender19QRenderTargetOutputC2EPN8Qt3DCore5QNodeE
libQt63DRender.so.6:_ZN10Qt3DRender19QRenderTargetOutputC2ERNS_26QRenderTargetOutputPrivateEPN8Qt3DCore5QNodeE
libQt63DRender.so.6:_ZN10Qt3DRender19QRenderTargetOutputD0Ev
libQt63DRender.so.6:_ZN10Qt3DRender19QRenderTargetOutputD1Ev
libQt63DRender.so.6:_ZN10Qt3DRender19QRenderTargetOutputD2Ev
libQt63DRender.so.6:_ZN10Qt3DRender19QSceneExportFactory4keysEv
libQt63DRender.so.6:_ZN10Qt3DRender19QSceneExportFactory6createERK7QStringRK5QListIS1_E
libQt63DRender.so.6:_ZN10Qt3DRender19QSceneImportFactory4keysEv
libQt63DRender.so.6:_ZN10Qt3DRender19QSceneImportFactory6createERK7QStringRK5QListIS1_E
libQt63DRender.so.6:_ZN10Qt3DRender19QSceneLoaderPrivate12setSceneRootEPN8Qt3DCore7QEntityE
libQt63DRender.so.6:_ZN10Qt3DRender19QSceneLoaderPrivate17populateEntityMapEPN8Qt3DCore7QEntityE
libQt63DRender.so.6:_ZN10Qt3DRender19QSceneLoaderPrivate9setStatusENS_12QSceneLoader6StatusE
libQt63DRender.so.6:_ZN10Qt3DRender19QSceneLoaderPrivateC1Ev
libQt63DRender.so.6:_ZN10Qt3DRender19QSceneLoaderPrivateC2Ev
libQt63DRender.so.6:_ZN10Qt3DRender20QLevelOfDetailSwitch11qt_metacallEN11QMetaObject4CallEiPPv
libQt63DRender.so.6:_ZN10Qt3DRender20QLevelOfDetailSwitch11qt_metacastEPKc
libQt63DRender.so.6:_ZN10Qt3DRender20QLevelOfDetailSwitch16staticMetaObjectE
libQt63DRender.so.6:_ZN10Qt3DRender20QLevelOfDetailSwitchC1EPN8Qt3DCore5QNodeE
libQt63DRender.so.6:_ZN10Qt3DRender20QLevelOfDetailSwitchC1ERNS_21QLevelOfDetailPrivateEPN8Qt3DCore5QNodeE
libQt63DRender.so.6:_ZN10Qt3DRender20QLevelOfDetailSwitchC2EPN8Qt3DCore5QNodeE
libQt63DRender.so.6:_ZN10Qt3DRender20QLevelOfDetailSwitchC2ERNS_21QLevelOfDetailPrivateEPN8Qt3DCore5QNodeE
libQt63DRender.so.6:_ZN10Qt3DRender20QLevelOfDetailSwitchD0Ev
libQt63DRender.so.6:_ZN10Qt3DRender20QLevelOfDetailSwitchD1Ev
libQt63DRender.so.6:_ZN10Qt3DRender20QLevelOfDetailSwitchD2Ev
libQt63DRender.so.6:_ZN10Qt3DRender20QObjectPickerPrivate10movedEventEPNS_10QPickEventE
libQt63DRender.so.6:_ZN10Qt3DRender20QObjectPickerPrivate10setPressedEb
libQt63DRender.so.6:_ZN10Qt3DRender20QObjectPickerPrivate12clickedEventEPNS_10QPickEventE
libQt63DRender.so.6:_ZN10Qt3DRender20QObjectPickerPrivate12pressedEventEPNS_10QPickEventE
libQt63DRender.so.6:_ZN10Qt3DRender20QObjectPickerPrivate13releasedEventEPNS_10QPickEventE
libQt63DRender.so.6:_ZN10Qt3DRender20QObjectPickerPrivate14propagateEventEPNS_10QPickEventENS0_9EventTypeE
libQt63DRender.so.6:_ZN10Qt3DRender20QObjectPickerPrivate16setContainsMouseEb
libQt63DRender.so.6:_ZN10Qt3DRender20QPaintedTextureImage11qt_metacallEN11QMetaObject4CallEiPPv
libQt63DRender.so.6:_ZN10Qt3DRender20QPaintedTextureImage11qt_metacastEPKc
libQt63DRender.so.6:_ZN10Qt3DRender20QPaintedTextureImage11sizeChangedE5QSize
libQt63DRender.so.6:_ZN10Qt3DRender20QPaintedTextureImage12widthChangedEi
libQt63DRender.so.6:_ZN10Qt3DRender20QPaintedTextureImage13heightChangedEi
libQt63DRender.so.6:_ZN10Qt3DRender20QPaintedTextureImage16staticMetaObjectE
libQt63DRender.so.6:_ZN10Qt3DRender20QPaintedTextureImage6updateERK5QRect
libQt63DRender.so.6:_ZN10Qt3DRender20QPaintedTextureImage7setSizeE5QSize
libQt63DRender.so.6:_ZN10Qt3DRender20QPaintedTextureImage8setWidthEi
libQt63DRender.so.6:_ZN10Qt3DRender20QPaintedTextureImage9setHeightEi
libQt63DRender.so.6:_ZN10Qt3DRender20QPaintedTextureImageC2EPN8Qt3DCore5QNodeE
libQt63DRender.so.6:_ZN10Qt3DRender20QPaintedTextureImageD0Ev
libQt63DRender.so.6:_ZN10Qt3DRender20QPaintedTextureImageD1Ev
libQt63DRender.so.6:_ZN10Qt3DRender20QPaintedTextureImageD2Ev
libQt63DRender.so.6:_ZN10Qt3DRender20QPickingProxyPrivate7setViewEPN8Qt3DCore13QGeometryViewE
libQt63DRender.so.6:_ZN10Qt3DRender20QPickingProxyPrivateC1Ev
libQt63DRender.so.6:_ZN10Qt3DRender20QPickingProxyPrivateC2Ev
libQt63DRender.so.6:_ZN10Qt3DRender20QPickingProxyPrivateD0Ev
libQt63DRender.so.6:_ZN10Qt3DRender20QPickingProxyPrivateD1Ev
libQt63DRender.so.6:_ZN10Qt3DRender20QPickingProxyPrivateD2Ev
libQt63DRender.so.6:_ZN10Qt3DRender20QRenderAspectPrivate11findPrivateEPN8Qt3DCore13QAspectEngineE
libQt63DRender.so.6:_ZN10Qt3DRender20QRenderAspectPrivate11m_instancesE
libQt63DRender.so.6:_ZN10Qt3DRender20QRenderAspectPrivate12m_pluginLockE
libQt63DRender.so.6:_ZN10Qt3DRender20QRenderAspectPrivate14m_pluginConfigE
libQt63DRender.so.6:_ZN10Qt3DRender20QRenderAspectPrivate15configurePluginERK7QString
libQt63DRender.so.6:_ZN10Qt3DRender20QRenderAspectPrivate15onEngineStartupEv
libQt63DRender.so.6:_ZN10Qt3DRender20QRenderAspectPrivate15processKeyEventEP7QObjectP9QKeyEvent
libQt63DRender.so.6:_ZN10Qt3DRender20QRenderAspectPrivate16loadRenderPluginERK7QString
libQt63DRender.so.6:_ZN10Qt3DRender20QRenderAspectPrivate17processMouseEventEP7QObjectP11QMouseEvent
libQt63DRender.so.6:_ZN10Qt3DRender20QRenderAspectPrivate18createNodeManagersEv
libQt63DRender.so.6:_ZN10Qt3DRender20QRenderAspectPrivate18loadRendererPluginEv
libQt63DRender.so.6:_ZN10Qt3DRender20QRenderAspectPrivate18loadSceneImportersEv
libQt63DRender.so.6:_ZN10Qt3DRender20QRenderAspectPrivate19registerBackendTypeERK11QMetaObjectRK14QSharedPointerIN8Qt3DCore18QBackendNodeMapperEE
libQt63DRender.so.6:_ZN10Qt3DRender20QRenderAspectPrivate20registerBackendTypesEv
libQt63DRender.so.6:_ZN10Qt3DRender20QRenderAspectPrivate22unregisterBackendTypesEv
libQt63DRender.so.6:_ZN10Qt3DRender20QRenderAspectPrivate23onEngineAboutToShutdownEv
libQt63DRender.so.6:_ZN10Qt3DRender20QRenderAspectPrivate3getEPNS_13QRenderAspectE
libQt63DRender.so.6:_ZN10Qt3DRender20QRenderAspectPrivate8jobsDoneEv
libQt63DRender.so.6:_ZN10Qt3DRender20QRenderAspectPrivate9frameDoneEv
libQt63DRender.so.6:_ZN10Qt3DRender20QRenderAspectPrivateC1ENS_13QRenderAspect14SubmissionTypeE
libQt63DRender.so.6:_ZN10Qt3DRender20QRenderAspectPrivateC2ENS_13QRenderAspect14SubmissionTypeE
libQt63DRender.so.6:_ZN10Qt3DRender20QRenderAspectPrivateD0Ev
libQt63DRender.so.6:_ZN10Qt3DRender20QRenderAspectPrivateD1Ev
libQt63DRender.so.6:_ZN10Qt3DRender20QRenderAspectPrivateD2Ev
libQt63DRender.so.6:_ZN10Qt3DRender20QRenderTargetPrivateC1Ev
libQt63DRender.so.6:_ZN10Qt3DRender20QRenderTargetPrivateC2Ev
libQt63DRender.so.6:_ZN10Qt3DRender20QTextureCubeMapArray11qt_metacallEN11QMetaObject4CallEiPPv
libQt63DRender.so.6:_ZN10Qt3DRender20QTextureCubeMapArray11qt_metacastEPKc
libQt63DRender.so.6:_ZN10Qt3DRender20QTextureCubeMapArray16staticMetaObjectE
libQt63DRender.so.6:_ZN10Qt3DRender20QTextureCubeMapArrayC1EPN8Qt3DCore5QNodeE
libQt63DRender.so.6:_ZN10Qt3DRender20QTextureCubeMapArrayC2EPN8Qt3DCore5QNodeE
libQt63DRender.so.6:_ZN10Qt3DRender20QTextureCubeMapArrayD0Ev
libQt63DRender.so.6:_ZN10Qt3DRender20QTextureCubeMapArrayD1Ev
libQt63DRender.so.6:_ZN10Qt3DRender20QTextureCubeMapArrayD2Ev
libQt63DRender.so.6:_ZN10Qt3DRender20staticVulkanInstanceEv
libQt63DRender.so.6:_ZN10Qt3DRender21GraphicsApiFilterDataC1Ev
libQt63DRender.so.6:_ZN10Qt3DRender21GraphicsApiFilterDataC2Ev
libQt63DRender.so.6:_ZN10Qt3DRender21QAbstractLightPrivateC1ENS_14QAbstractLight4TypeE
libQt63DRender.so.6:_ZN10Qt3DRender21QAbstractLightPrivateC2ENS_14QAbstractLight4TypeE
libQt63DRender.so.6:_ZN10Qt3DRender21QAbstractLightPrivateD0Ev
libQt63DRender.so.6:_ZN10Qt3DRender21QAbstractLightPrivateD1Ev
libQt63DRender.so.6:_ZN10Qt3DRender21QAbstractLightPrivateD2Ev
libQt63DRender.so.6:_ZN10Qt3DRender21QAbstractTextureImage11faceChangedENS_16QAbstractTexture11CubeMapFaceE
libQt63DRender.so.6:_ZN10Qt3DRender21QAbstractTextureImage11qt_metacallEN11QMetaObject4CallEiPPv
libQt63DRender.so.6:_ZN10Qt3DRender21QAbstractTextureImage11qt_metacastEPKc
libQt63DRender.so.6:_ZN10Qt3DRender21QAbstractTextureImage11setMipLevelEi
libQt63DRender.so.6:_ZN10Qt3DRender21QAbstractTextureImage12layerChangedEi
libQt63DRender.so.6:_ZN10Qt3DRender21QAbstractTextureImage15mipLevelChangedEi
libQt63DRender.so.6:_ZN10Qt3DRender21QAbstractTextureImage16staticMetaObjectE
libQt63DRender.so.6:_ZN10Qt3DRender21QAbstractTextureImage26notifyDataGeneratorChangedEv
libQt63DRender.so.6:_ZN10Qt3DRender21QAbstractTextureImage7setFaceENS_16QAbstractTexture11CubeMapFaceE
libQt63DRender.so.6:_ZN10Qt3DRender21QAbstractTextureImage8setLayerEi
libQt63DRender.so.6:_ZN10Qt3DRender21QAbstractTextureImageC2EPN8Qt3DCore5QNodeE
libQt63DRender.so.6:_ZN10Qt3DRender21QAbstractTextureImageC2ERNS_28QAbstractTextureImagePrivateEPN8Qt3DCore5QNodeE
libQt63DRender.so.6:_ZN10Qt3DRender21QAbstractTextureImageD0Ev
libQt63DRender.so.6:_ZN10Qt3DRender21QAbstractTextureImageD1Ev
libQt63DRender.so.6:_ZN10Qt3DRender21QAbstractTextureImageD2Ev
libQt63DRender.so.6:_ZN10Qt3DRender21QLevelOfDetailPrivate15setCurrentIndexEi
libQt63DRender.so.6:_ZN10Qt3DRender21QLevelOfDetailPrivateC1Ev
libQt63DRender.so.6:_ZN10Qt3DRender21QLevelOfDetailPrivateC2Ev
libQt63DRender.so.6:_ZN10Qt3DRender21QRenderTargetSelector11qt_metacallEN11QMetaObject4CallEiPPv
libQt63DRender.so.6:_ZN10Qt3DRender21QRenderTargetSelector11qt_metacastEPKc
libQt63DRender.so.6:_ZN10Qt3DRender21QRenderTargetSelector13targetChangedEPNS_13QRenderTargetE
libQt63DRender.so.6:_ZN10Qt3DRender21QRenderTargetSelector16staticMetaObjectE
libQt63DRender.so.6:_ZN10Qt3DRender21QRenderTargetSelector9setTargetEPNS_13QRenderTargetE
libQt63DRender.so.6:_ZN10Qt3DRender21QRenderTargetSelectorC1EPN8Qt3DCore5QNodeE
libQt63DRender.so.6:_ZN10Qt3DRender21QRenderTargetSelectorC1ERNS_28QRenderTargetSelectorPrivateEPN8Qt3DCore5QNodeE
libQt63DRender.so.6:_ZN10Qt3DRender21QRenderTargetSelectorC2EPN8Qt3DCore5QNodeE
libQt63DRender.so.6:_ZN10Qt3DRender21QRenderTargetSelectorC2ERNS_28QRenderTargetSelectorPrivateEPN8Qt3DCore5QNodeE
libQt63DRender.so.6:_ZN10Qt3DRender21QRenderTargetSelectorD0Ev
libQt63DRender.so.6:_ZN10Qt3DRender21QRenderTargetSelectorD1Ev
libQt63DRender.so.6:_ZN10Qt3DRender21QRenderTargetSelectorD2Ev
libQt63DRender.so.6:_ZN10Qt3DRender21QShaderProgramBuilder11qt_metacallEN11QMetaObject4CallEiPPv
libQt63DRender.so.6:_ZN10Qt3DRender21QShaderProgramBuilder11qt_metacastEPKc
libQt63DRender.so.6:_ZN10Qt3DRender21QShaderProgramBuilder16setEnabledLayersERK5QListI7QStringE
libQt63DRender.so.6:_ZN10Qt3DRender21QShaderProgramBuilder16setShaderProgramEPNS_14QShaderProgramE
libQt63DRender.so.6:_ZN10Qt3DRender21QShaderProgramBuilder16staticMetaObjectE
libQt63DRender.so.6:_ZN10Qt3DRender21QShaderProgramBuilder20enabledLayersChangedERK5QListI7QStringE
libQt63DRender.so.6:_ZN10Qt3DRender21QShaderProgramBuilder20setVertexShaderGraphERK4QUrl
libQt63DRender.so.6:_ZN10Qt3DRender21QShaderProgramBuilder20shaderProgramChangedEPNS_14QShaderProgramE
libQt63DRender.so.6:_ZN10Qt3DRender21QShaderProgramBuilder21setComputeShaderGraphERK4QUrl
libQt63DRender.so.6:_ZN10Qt3DRender21QShaderProgramBuilder22setFragmentShaderGraphERK4QUrl
libQt63DRender.so.6:_ZN10Qt3DRender21QShaderProgramBuilder22setGeometryShaderGraphERK4QUrl
libQt63DRender.so.6:_ZN10Qt3DRender21QShaderProgramBuilder23vertexShaderCodeChangedERK10QByteArray
libQt63DRender.so.6:_ZN10Qt3DRender21QShaderProgramBuilder24computeShaderCodeChangedERK10QByteArray
libQt63DRender.so.6:_ZN10Qt3DRender21QShaderProgramBuilder24vertexShaderGraphChangedERK4QUrl
libQt63DRender.so.6:_ZN10Qt3DRender21QShaderProgramBuilder25computeShaderGraphChangedERK4QUrl
libQt63DRender.so.6:_ZN10Qt3DRender21QShaderProgramBuilder25fragmentShaderCodeChangedERK10QByteArray
libQt63DRender.so.6:_ZN10Qt3DRender21QShaderProgramBuilder25geometryShaderCodeChangedERK10QByteArray
libQt63DRender.so.6:_ZN10Qt3DRender21QShaderProgramBuilder26fragmentShaderGraphChangedERK4QUrl
libQt63DRender.so.6:_ZN10Qt3DRender21QShaderProgramBuilder26geometryShaderGraphChangedERK4QUrl
libQt63DRender.so.6:_ZN10Qt3DRender21QShaderProgramBuilder33setTessellationControlShaderGraphERK4QUrl
libQt63DRender.so.6:_ZN10Qt3DRender21QShaderProgramBuilder36setTessellationEvaluationShaderGraphERK4QUrl
libQt63DRender.so.6:_ZN10Qt3DRender21QShaderProgramBuilder36tessellationControlShaderCodeChangedERK10QByteArray
libQt63DRender.so.6:_ZN10Qt3DRender21QShaderProgramBuilder37tessellationControlShaderGraphChangedERK4QUrl
libQt63DRender.so.6:_ZN10Qt3DRender21QShaderProgramBuilder39tessellationEvaluationShaderCodeChangedERK10QByteArray
libQt63DRender.so.6:_ZN10Qt3DRender21QShaderProgramBuilder40tessellationEvaluationShaderGraphChangedERK4QUrl
libQt63DRender.so.6:_ZN10Qt3DRender21QShaderProgramBuilderC1EPN8Qt3DCore5QNodeE
libQt63DRender.so.6:_ZN10Qt3DRender21QShaderProgramBuilderC1ERNS_28QShaderProgramBuilderPrivateEPN8Qt3DCore5QNodeE
libQt63DRender.so.6:_ZN10Qt3DRender21QShaderProgramBuilderC2EPN8Qt3DCore5QNodeE
libQt63DRender.so.6:_ZN10Qt3DRender21QShaderProgramBuilderC2ERNS_28QShaderProgramBuilderPrivateEPN8Qt3DCore5QNodeE
libQt63DRender.so.6:_ZN10Qt3DRender21QShaderProgramBuilderD0Ev
libQt63DRender.so.6:_ZN10Qt3DRender21QShaderProgramBuilderD1Ev
libQt63DRender.so.6:_ZN10Qt3DRender21QShaderProgramBuilderD2Ev
libQt63DRender.so.6:_ZN10Qt3DRender21QShaderProgramPrivate11deincludifyERK10QByteArrayRK7QString
libQt63DRender.so.6:_ZN10Qt3DRender21QShaderProgramPrivate11deincludifyERK7QString
libQt63DRender.so.6:_ZN10Qt3DRender21QShaderProgramPrivate25resolveAutoBindingIndicesERK10QByteArray
libQt63DRender.so.6:_ZN10Qt3DRender21QShaderProgramPrivate25resolveAutoBindingIndicesERK10QByteArrayRiS4_S4_
libQt63DRender.so.6:_ZN10Qt3DRender21QShaderProgramPrivate6setLogERK7QString
libQt63DRender.so.6:_ZN10Qt3DRender21QShaderProgramPrivate9setStatusENS_14QShaderProgram6StatusE
libQt63DRender.so.6:_ZN10Qt3DRender21QShaderProgramPrivateC1Ev
libQt63DRender.so.6:_ZN10Qt3DRender21QShaderProgramPrivateC2Ev
libQt63DRender.so.6:_ZN10Qt3DRender21QStencilTestArguments11qt_metacallEN11QMetaObject4CallEiPPv
libQt63DRender.so.6:_ZN10Qt3DRender21QStencilTestArguments11qt_metacastEPKc
libQt63DRender.so.6:_ZN10Qt3DRender21QStencilTestArguments15faceModeChangedENS0_15StencilFaceModeE
libQt63DRender.so.6:_ZN10Qt3DRender21QStencilTestArguments16staticMetaObjectE
libQt63DRender.so.6:_ZN10Qt3DRender21QStencilTestArguments17setComparisonMaskEj
libQt63DRender.so.6:_ZN10Qt3DRender21QStencilTestArguments17setReferenceValueEi
libQt63DRender.so.6:_ZN10Qt3DRender21QStencilTestArguments18setStencilFunctionENS0_15StencilFunctionE
libQt63DRender.so.6:_ZN10Qt3DRender21QStencilTestArguments21comparisonMaskChangedEj
libQt63DRender.so.6:_ZN10Qt3DRender21QStencilTestArguments21referenceValueChangedEi
libQt63DRender.so.6:_ZN10Qt3DRender21QStencilTestArguments22stencilFunctionChangedENS0_15StencilFunctionE
libQt63DRender.so.6:_ZN10Qt3DRender21QStencilTestArgumentsC1ENS0_15StencilFaceModeEP7QObject
libQt63DRender.so.6:_ZN10Qt3DRender21QStencilTestArgumentsC2ENS0_15StencilFaceModeEP7QObject
libQt63DRender.so.6:_ZN10Qt3DRender21QStencilTestArgumentsD0Ev
libQt63DRender.so.6:_ZN10Qt3DRender21QStencilTestArgumentsD1Ev
libQt63DRender.so.6:_ZN10Qt3DRender21QStencilTestArgumentsD2Ev
libQt63DRender.so.6:_ZN10Qt3DRender21QTexture2DMultisample11qt_metacallEN11QMetaObject4CallEiPPv
libQt63DRender.so.6:_ZN10Qt3DRender21QTexture2DMultisample11qt_metacastEPKc
libQt63DRender.so.6:_ZN10Qt3DRender21QTexture2DMultisample16staticMetaObjectE
libQt63DRender.so.6:_ZN10Qt3DRender21QTexture2DMultisampleC1EPN8Qt3DCore5QNodeE
libQt63DRender.so.6:_ZN10Qt3DRender21QTexture2DMultisampleC2EPN8Qt3DCore5QNodeE
libQt63DRender.so.6:_ZN10Qt3DRender21QTexture2DMultisampleD0Ev
libQt63DRender.so.6:_ZN10Qt3DRender21QTexture2DMultisampleD1Ev
libQt63DRender.so.6:_ZN10Qt3DRender21QTexture2DMultisampleD2Ev
libQt63DRender.so.6:_ZN10Qt3DRender21QTextureLoaderPrivate15updateGeneratorEv
libQt63DRender.so.6:_ZN10Qt3DRender21QTextureLoaderPrivate8setSceneEPN8Qt3DCore6QSceneE
libQt63DRender.so.6:_ZN10Qt3DRender21QTextureLoaderPrivateC1Ev
libQt63DRender.so.6:_ZN10Qt3DRender21QTextureLoaderPrivateC2Ev
libQt63DRender.so.6:_ZN10Qt3DRender22QComputeCommandPrivate13setFrameCountEi
libQt63DRender.so.6:_ZN10Qt3DRender22QComputeCommandPrivateC1Ev
libQt63DRender.so.6:_ZN10Qt3DRender22QComputeCommandPrivateC2Ev
libQt63DRender.so.6:_ZN10Qt3DRender22QFrameGraphNodePrivateC1Ev
libQt63DRender.so.6:_ZN10Qt3DRender22QFrameGraphNodePrivateC2Ev
libQt63DRender.so.6:_ZN10Qt3DRender22QGeometryLoaderFactory11qt_metacallEN11QMetaObject4CallEiPPv
libQt63DRender.so.6:_ZN10Qt3DRender22QGeometryLoaderFactory11qt_metacastEPKc
libQt63DRender.so.6:_ZN10Qt3DRender22QGeometryLoaderFactory16staticMetaObjectE
libQt63DRender.so.6:_ZN10Qt3DRender22QGeometryLoaderFactoryC2EP7QObject
libQt63DRender.so.6:_ZN10Qt3DRender22QGeometryLoaderFactoryD0Ev
libQt63DRender.so.6:_ZN10Qt3DRender22QGeometryLoaderFactoryD1Ev
libQt63DRender.so.6:_ZN10Qt3DRender22QGeometryLoaderFactoryD2Ev
libQt63DRender.so.6:_ZN10Qt3DRender22QRenderSettingsPrivate15invalidateFrameEv
libQt63DRender.so.6:_ZN10Qt3DRender22QRenderSettingsPrivate25_q_onPickingMethodChangedENS_16QPickingSettings10PickMethodE
libQt63DRender.so.6:_ZN10Qt3DRender22QRenderSettingsPrivate26_q_onPickResultModeChangedENS_16QPickingSettings14PickResultModeE
libQt63DRender.so.6:_ZN10Qt3DRender22QRenderSettingsPrivate31_q_onWorldSpaceToleranceChangedEf
libQt63DRender.so.6:_ZN10Qt3DRender22QRenderSettingsPrivate38_q_onFaceOrientationPickingModeChangedENS_16QPickingSettings26FaceOrientationPickingModeE
libQt63DRender.so.6:_ZN10Qt3DRender22QRenderSettingsPrivate4initEv
libQt63DRender.so.6:_ZN10Qt3DRender22QRenderSettingsPrivateC1Ev
libQt63DRender.so.6:_ZN10Qt3DRender22QRenderSettingsPrivateC2Ev
libQt63DRender.so.6:_ZN10Qt3DRender22QRenderSurfaceSelector10setSurfaceEP7QObject
libQt63DRender.so.6:_ZN10Qt3DRender22QRenderSurfaceSelector11qt_metacallEN11QMetaObject4CallEiPPv
libQt63DRender.so.6:_ZN10Qt3DRender22QRenderSurfaceSelector11qt_metacastEPKc
libQt63DRender.so.6:_ZN10Qt3DRender22QRenderSurfaceSelector14surfaceChangedEP7QObject
libQt63DRender.so.6:_ZN10Qt3DRender22QRenderSurfaceSelector16staticMetaObjectE
libQt63DRender.so.6:_ZN10Qt3DRender22QRenderSurfaceSelector20setSurfacePixelRatioEf
libQt63DRender.so.6:_ZN10Qt3DRender22QRenderSurfaceSelector24surfacePixelRatioChangedEf
libQt63DRender.so.6:_ZN10Qt3DRender22QRenderSurfaceSelector27setExternalRenderTargetSizeERK5QSize
libQt63DRender.so.6:_ZN10Qt3DRender22QRenderSurfaceSelector31externalRenderTargetSizeChangedERK5QSize
libQt63DRender.so.6:_ZN10Qt3DRender22QRenderSurfaceSelectorC1EPN8Qt3DCore5QNodeE
libQt63DRender.so.6:_ZN10Qt3DRender22QRenderSurfaceSelectorC1ERNS_29QRenderSurfaceSelectorPrivateEPN8Qt3DCore5QNodeE
libQt63DRender.so.6:_ZN10Qt3DRender22QRenderSurfaceSelectorC2EPN8Qt3DCore5QNodeE
libQt63DRender.so.6:_ZN10Qt3DRender22QRenderSurfaceSelectorC2ERNS_29QRenderSurfaceSelectorPrivateEPN8Qt3DCore5QNodeE
libQt63DRender.so.6:_ZN10Qt3DRender22QRenderSurfaceSelectorD0Ev
libQt63DRender.so.6:_ZN10Qt3DRender22QRenderSurfaceSelectorD1Ev
libQt63DRender.so.6:_ZN10Qt3DRender22QRenderSurfaceSelectorD2Ev
libQt63DRender.so.6:_ZN10Qt3DRender23PropertyReaderInterfaceD0Ev
libQt63DRender.so.6:_ZN10Qt3DRender23PropertyReaderInterfaceD1Ev
libQt63DRender.so.6:_ZN10Qt3DRender23PropertyReaderInterfaceD2Ev
libQt63DRender.so.6:_ZN10Qt3DRender23QAbstractTexturePrivate13setHandleTypeENS_16QAbstractTexture10HandleTypeE
libQt63DRender.so.6:_ZN10Qt3DRender23QAbstractTexturePrivate14setDataFunctorERK14QSharedPointerINS_17QTextureGeneratorEE
libQt63DRender.so.6:_ZN10Qt3DRender23QAbstractTexturePrivate9setHandleERK8QVariant
libQt63DRender.so.6:_ZN10Qt3DRender23QAbstractTexturePrivate9setStatusENS_16QAbstractTexture6StatusE
libQt63DRender.so.6:_ZN10Qt3DRender23QAbstractTexturePrivateC1Ev
libQt63DRender.so.6:_ZN10Qt3DRender23QAbstractTexturePrivateC2Ev
libQt63DRender.so.6:_ZN10Qt3DRender23QAxisAlignedBoundingBox6updateERKSt6vectorI9QVector3DSaIS2_EE
libQt63DRender.so.6:_ZN10Qt3DRender23QBlendEquationArguments11qt_metacallEN11QMetaObject4CallEiPPv
libQt63DRender.so.6:_ZN10Qt3DRender23QBlendEquationArguments11qt_metacastEPKc
libQt63DRender.so.6:_ZN10Qt3DRender23QBlendEquationArguments12setSourceRgbENS0_8BlendingE
libQt63DRender.so.6:_ZN10Qt3DRender23QBlendEquationArguments13setSourceRgbaENS0_8BlendingE
libQt63DRender.so.6:_ZN10Qt3DRender23QBlendEquationArguments14setBufferIndexEi
libQt63DRender.so.6:_ZN10Qt3DRender23QBlendEquationArguments14setSourceAlphaENS0_8BlendingE
libQt63DRender.so.6:_ZN10Qt3DRender23QBlendEquationArguments16sourceRgbChangedENS0_8BlendingE
libQt63DRender.so.6:_ZN10Qt3DRender23QBlendEquationArguments16staticMetaObjectE
libQt63DRender.so.6:_ZN10Qt3DRender23QBlendEquationArguments17setDestinationRgbENS0_8BlendingE
libQt63DRender.so.6:_ZN10Qt3DRender23QBlendEquationArguments17sourceRgbaChangedENS0_8BlendingE
libQt63DRender.so.6:_ZN10Qt3DRender23QBlendEquationArguments18bufferIndexChangedEi
libQt63DRender.so.6:_ZN10Qt3DRender23QBlendEquationArguments18setDestinationRgbaENS0_8BlendingE
libQt63DRender.so.6:_ZN10Qt3DRender23QBlendEquationArguments18sourceAlphaChangedENS0_8BlendingE
libQt63DRender.so.6:_ZN10Qt3DRender23QBlendEquationArguments19setDestinationAlphaENS0_8BlendingE
libQt63DRender.so.6:_ZN10Qt3DRender23QBlendEquationArguments21destinationRgbChangedENS0_8BlendingE
libQt63DRender.so.6:_ZN10Qt3DRender23QBlendEquationArguments22destinationRgbaChangedENS0_8BlendingE
libQt63DRender.so.6:_ZN10Qt3DRender23QBlendEquationArguments23destinationAlphaChangedENS0_8BlendingE
libQt63DRender.so.6:_ZN10Qt3DRender23QBlendEquationArgumentsC1EPN8Qt3DCore5QNodeE
libQt63DRender.so.6:_ZN10Qt3DRender23QBlendEquationArgumentsC1ERNS_30QBlendEquationArgumentsPrivateEPN8Qt3DCore5QNodeE
libQt63DRender.so.6:_ZN10Qt3DRender23QBlendEquationArgumentsC2EPN8Qt3DCore5QNodeE
libQt63DRender.so.6:_ZN10Qt3DRender23QBlendEquationArgumentsC2ERNS_30QBlendEquationArgumentsPrivateEPN8Qt3DCore5QNodeE
libQt63DRender.so.6:_ZN10Qt3DRender23QBlendEquationArgumentsD0Ev
libQt63DRender.so.6:_ZN10Qt3DRender23QBlendEquationArgumentsD1Ev
libQt63DRender.so.6:_ZN10Qt3DRender23QBlendEquationArgumentsD2Ev
libQt63DRender.so.6:_ZN10Qt3DRender23QPickingSettingsPrivateC1Ev
libQt63DRender.so.6:_ZN10Qt3DRender23QPickingSettingsPrivateC2Ev
libQt63DRender.so.6:_ZN10Qt3DRender23QTechniqueFilterPrivateC1Ev
libQt63DRender.so.6:_ZN10Qt3DRender23QTechniqueFilterPrivateC2Ev
libQt63DRender.so.6:_ZN10Qt3DRender24QDirectionalLightPrivateC1Ev
libQt63DRender.so.6:_ZN10Qt3DRender24QDirectionalLightPrivateC2Ev
libQt63DRender.so.6:_ZN10Qt3DRender24QEnvironmentLightPrivate20_q_updateEnvMapsSizeEv
libQt63DRender.so.6:_ZN10Qt3DRender24QEnvironmentLightPrivateC1Ev
libQt63DRender.so.6:_ZN10Qt3DRender24QEnvironmentLightPrivateC2Ev
libQt63DRender.so.6:_ZN10Qt3DRender24QEnvironmentLightPrivateD0Ev
libQt63DRender.so.6:_ZN10Qt3DRender24QEnvironmentLightPrivateD1Ev
libQt63DRender.so.6:_ZN10Qt3DRender24QEnvironmentLightPrivateD2Ev
libQt63DRender.so.6:_ZN10Qt3DRender24QGeometryRendererPrivate7setViewEPN8Qt3DCore13QGeometryViewE
libQt63DRender.so.6:_ZN10Qt3DRender24QGeometryRendererPrivateC1Ev
libQt63DRender.so.6:_ZN10Qt3DRender24QGeometryRendererPrivateC2Ev
libQt63DRender.so.6:_ZN10Qt3DRender24QGeometryRendererPrivateD0Ev
libQt63DRender.so.6:_ZN10Qt3DRender24QGeometryRendererPrivateD1Ev
libQt63DRender.so.6:_ZN10Qt3DRender24QGeometryRendererPrivateD2Ev
libQt63DRender.so.6:_ZN10Qt3DRender24QMultiSampleAntiAliasing11qt_metacallEN11QMetaObject4CallEiPPv
libQt63DRender.so.6:_ZN10Qt3DRender24QMultiSampleAntiAliasing11qt_metacastEPKc
libQt63DRender.so.6:_ZN10Qt3DRender24QMultiSampleAntiAliasing16staticMetaObjectE
libQt63DRender.so.6:_ZN10Qt3DRender24QMultiSampleAntiAliasingC1EPN8Qt3DCore5QNodeE
libQt63DRender.so.6:_ZN10Qt3DRender24QMultiSampleAntiAliasingC2EPN8Qt3DCore5QNodeE
libQt63DRender.so.6:_ZN10Qt3DRender24QMultiSampleAntiAliasingD0Ev
libQt63DRender.so.6:_ZN10Qt3DRender24QMultiSampleAntiAliasingD1Ev
libQt63DRender.so.6:_ZN10Qt3DRender24QMultiSampleAntiAliasingD2Ev
libQt63DRender.so.6:_ZN10Qt3DRender24QStencilOperationPrivateD0Ev
libQt63DRender.so.6:_ZN10Qt3DRender24QStencilOperationPrivateD1Ev
libQt63DRender.so.6:_ZN10Qt3DRender24QStencilOperationPrivateD2Ev
libQt63DRender.so.6:_ZN10Qt3DRender24QTextureImageDataPrivate3getEPNS_17QTextureImageDataE
libQt63DRender.so.6:_ZN10Qt3DRender24QTextureImageDataPrivate7setDataERK10QByteArraySt8functionIFS1_S1_iiiEEb
libQt63DRender.so.6:_ZN10Qt3DRender24QTextureImageDataPrivate7setDataERK10QByteArrayib
libQt63DRender.so.6:_ZN10Qt3DRender24QTextureImageDataPrivateC1Ev
libQt63DRender.so.6:_ZN10Qt3DRender24QTextureImageDataPrivateC2Ev
libQt63DRender.so.6:_ZN10Qt3DRender25QAbstractRayCasterPrivate12dispatchHitsERK5QListINS_13QRayCasterHitEE
libQt63DRender.so.6:_ZN10Qt3DRender25QAbstractRayCasterPrivate16updateHitEntitesER5QListINS_13QRayCasterHitEEPN8Qt3DCore6QSceneE
libQt63DRender.so.6:_ZN10Qt3DRender25QAbstractRayCasterPrivate3getEPKNS_18QAbstractRayCasterE
libQt63DRender.so.6:_ZN10Qt3DRender25QAbstractRayCasterPrivate3getEPNS_18QAbstractRayCasterE
libQt63DRender.so.6:_ZN10Qt3DRender25QAbstractRayCasterPrivate4pickEv
libQt63DRender.so.6:_ZN10Qt3DRender25QAbstractRayCasterPrivateC1Ev
libQt63DRender.so.6:_ZN10Qt3DRender25QAbstractRayCasterPrivateC2Ev
libQt63DRender.so.6:_ZN10Qt3DRender25QGraphicsApiFilterPrivate3getEPKNS_18QGraphicsApiFilterE
libQt63DRender.so.6:_ZN10Qt3DRender25QGraphicsApiFilterPrivate3getEPNS_18QGraphicsApiFilterE
libQt63DRender.so.6:_ZN10Qt3DRender25QPickTriangleEventPrivate3getEPKNS_18QPickTriangleEventE
libQt63DRender.so.6:_ZN10Qt3DRender25QPickTriangleEventPrivateC1Ev
libQt63DRender.so.6:_ZN10Qt3DRender25QPickTriangleEventPrivateC2Ev
libQt63DRender.so.6:_ZN10Qt3DRender26QRenderCapabilitiesPrivate3getEPKNS_19QRenderCapabilitiesE
libQt63DRender.so.6:_ZN10Qt3DRender26QRenderCapabilitiesPrivateC1Ev
libQt63DRender.so.6:_ZN10Qt3DRender26QRenderCapabilitiesPrivateC2Ev
libQt63DRender.so.6:_ZN10Qt3DRender26QRenderTargetOutputPrivateC1Ev
libQt63DRender.so.6:_ZN10Qt3DRender26QRenderTargetOutputPrivateC2Ev
libQt63DRender.so.6:_ZN10Qt3DRender26QStencilOperationArguments11qt_metacallEN11QMetaObject4CallEiPPv
libQt63DRender.so.6:_ZN10Qt3DRender26QStencilOperationArguments11qt_metacastEPKc
libQt63DRender.so.6:_ZN10Qt3DRender26QStencilOperationArguments15faceModeChangedENS0_8FaceModeE
libQt63DRender.so.6:_ZN10Qt3DRender26QStencilOperationArguments16staticMetaObjectE
libQt63DRender.so.6:_ZN10Qt3DRender26QStencilOperationArguments24setAllTestsPassOperationENS0_9OperationE
libQt63DRender.so.6:_ZN10Qt3DRender26QStencilOperationArguments28allTestsPassOperationChangedENS0_9OperationE
libQt63DRender.so.6:_ZN10Qt3DRender26QStencilOperationArguments28setDepthTestFailureOperationENS0_9OperationE
libQt63DRender.so.6:_ZN10Qt3DRender26QStencilOperationArguments30setStencilTestFailureOperationENS0_9OperationE
libQt63DRender.so.6:_ZN10Qt3DRender26QStencilOperationArguments32depthTestFailureOperationChangedENS0_9OperationE
libQt63DRender.so.6:_ZN10Qt3DRender26QStencilOperationArguments34stencilTestFailureOperationChangedENS0_9OperationE
libQt63DRender.so.6:_ZN10Qt3DRender26QStencilOperationArgumentsC1ENS0_8FaceModeEP7QObject
libQt63DRender.so.6:_ZN10Qt3DRender26QStencilOperationArgumentsC2ENS0_8FaceModeEP7QObject
libQt63DRender.so.6:_ZN10Qt3DRender26QStencilOperationArgumentsD0Ev
libQt63DRender.so.6:_ZN10Qt3DRender26QStencilOperationArgumentsD1Ev
libQt63DRender.so.6:_ZN10Qt3DRender26QStencilOperationArgumentsD2Ev
libQt63DRender.so.6:_ZN10Qt3DRender26QTexture2DMultisampleArray11qt_metacallEN11QMetaObject4CallEiPPv
libQt63DRender.so.6:_ZN10Qt3DRender26QTexture2DMultisampleArray11qt_metacastEPKc
libQt63DRender.so.6:_ZN10Qt3DRender26QTexture2DMultisampleArray16staticMetaObjectE
libQt63DRender.so.6:_ZN10Qt3DRender26QTexture2DMultisampleArrayC1EPN8Qt3DCore5QNodeE
libQt63DRender.so.6:_ZN10Qt3DRender26QTexture2DMultisampleArrayC2EPN8Qt3DCore5QNodeE
libQt63DRender.so.6:_ZN10Qt3DRender26QTexture2DMultisampleArrayD0Ev
libQt63DRender.so.6:_ZN10Qt3DRender26QTexture2DMultisampleArrayD1Ev
libQt63DRender.so.6:_ZN10Qt3DRender26QTexture2DMultisampleArrayD2Ev
libQt63DRender.so.6:_ZN10Qt3DRender26QTextureImageDataGeneratorD0Ev
libQt63DRender.so.6:_ZN10Qt3DRender26QTextureImageDataGeneratorD1Ev
libQt63DRender.so.6:_ZN10Qt3DRender26QTextureImageDataGeneratorD2Ev
libQt63DRender.so.6:_ZN10Qt3DRender27QLevelOfDetailSwitchPrivate15setCurrentIndexEi
libQt63DRender.so.6:_ZN10Qt3DRender27QLevelOfDetailSwitchPrivateC1Ev
libQt63DRender.so.6:_ZN10Qt3DRender27QLevelOfDetailSwitchPrivateC2Ev
libQt63DRender.so.6:_ZN10Qt3DRender27QPaintedTextureImagePrivate7repaintEv
libQt63DRender.so.6:_ZN10Qt3DRender27QPaintedTextureImagePrivateC1Ev
libQt63DRender.so.6:_ZN10Qt3DRender27QPaintedTextureImagePrivateC2Ev
libQt63DRender.so.6:_ZN10Qt3DRender27QPaintedTextureImagePrivateD0Ev
libQt63DRender.so.6:_ZN10Qt3DRender27QPaintedTextureImagePrivateD1Ev
libQt63DRender.so.6:_ZN10Qt3DRender27QPaintedTextureImagePrivateD2Ev
libQt63DRender.so.6:_ZN10Qt3DRender28QAbstractTextureImagePrivateC1Ev
libQt63DRender.so.6:_ZN10Qt3DRender28QAbstractTextureImagePrivateC2Ev
libQt63DRender.so.6:_ZN10Qt3DRender28QAbstractTextureImagePrivateD0Ev
libQt63DRender.so.6:_ZN10Qt3DRender28QAbstractTextureImagePrivateD1Ev
libQt63DRender.so.6:_ZN10Qt3DRender28QAbstractTextureImagePrivateD2Ev
libQt63DRender.so.6:_ZN10Qt3DRender28QLevelOfDetailBoundingSphere16staticMetaObjectE
libQt63DRender.so.6:_ZN10Qt3DRender28QLevelOfDetailBoundingSphereC1E9QVector3Df
libQt63DRender.so.6:_ZN10Qt3DRender28QLevelOfDetailBoundingSphereC1ERKS0_
libQt63DRender.so.6:_ZN10Qt3DRender28QLevelOfDetailBoundingSphereC2E9QVector3Df
libQt63DRender.so.6:_ZN10Qt3DRender28QLevelOfDetailBoundingSphereC2ERKS0_
libQt63DRender.so.6:_ZN10Qt3DRender28QLevelOfDetailBoundingSphereD1Ev
libQt63DRender.so.6:_ZN10Qt3DRender28QLevelOfDetailBoundingSphereD2Ev
libQt63DRender.so.6:_ZN10Qt3DRender28QLevelOfDetailBoundingSphereaSERKS0_
libQt63DRender.so.6:_ZN10Qt3DRender28QShaderProgramBuilderPrivate13setShaderCodeERK10QByteArrayNS_14QShaderProgram10ShaderTypeE
libQt63DRender.so.6:_ZN10Qt3DRender28QShaderProgramBuilderPrivateC1Ev
libQt63DRender.so.6:_ZN10Qt3DRender28QShaderProgramBuilderPrivateC2Ev
libQt63DRender.so.6:_ZN10Qt3DRender29QRenderSurfaceSelectorPrivate27setExternalRenderTargetSizeERK5QSize
libQt63DRender.so.6:_ZN10Qt3DRender29QRenderSurfaceSelectorPrivate4findEP7QObject
libQt63DRender.so.6:_ZN10Qt3DRender29QRenderSurfaceSelectorPrivateC1Ev
libQt63DRender.so.6:_ZN10Qt3DRender29QRenderSurfaceSelectorPrivateC2Ev
libQt63DRender.so.6:_ZN10Qt3DRender29QRenderSurfaceSelectorPrivateD0Ev
libQt63DRender.so.6:_ZN10Qt3DRender29QRenderSurfaceSelectorPrivateD1Ev
libQt63DRender.so.6:_ZN10Qt3DRender29QRenderSurfaceSelectorPrivateD2Ev
libQt63DRender.so.6:_ZN10Qt3DRender33QStencilOperationArgumentsPrivateD0Ev
libQt63DRender.so.6:_ZN10Qt3DRender33QStencilOperationArgumentsPrivateD1Ev
libQt63DRender.so.6:_ZN10Qt3DRender33QStencilOperationArgumentsPrivateD2Ev
libQt63DRender.so.6:_ZN10Qt3DRender5QMesh11qt_metacallEN11QMetaObject4CallEiPPv
libQt63DRender.so.6:_ZN10Qt3DRender5QMesh11qt_metacastEPKc
libQt63DRender.so.6:_ZN10Qt3DRender5QMesh11setMeshNameERK7QString
libQt63DRender.so.6:_ZN10Qt3DRender5QMesh13sourceChangedERK4QUrl
libQt63DRender.so.6:_ZN10Qt3DRender5QMesh13statusChangedENS0_6StatusE
libQt63DRender.so.6:_ZN10Qt3DRender5QMesh15meshNameChangedERK7QString
libQt63DRender.so.6:_ZN10Qt3DRender5QMesh16staticMetaObjectE
libQt63DRender.so.6:_ZN10Qt3DRender5QMesh9setSourceERK4QUrl
libQt63DRender.so.6:_ZN10Qt3DRender5QMeshC1EPN8Qt3DCore5QNodeE
libQt63DRender.so.6:_ZN10Qt3DRender5QMeshC1ERNS_12QMeshPrivateEPN8Qt3DCore5QNodeE
libQt63DRender.so.6:_ZN10Qt3DRender5QMeshC2EPN8Qt3DCore5QNodeE
libQt63DRender.so.6:_ZN10Qt3DRender5QMeshC2ERNS_12QMeshPrivateEPN8Qt3DCore5QNodeE
libQt63DRender.so.6:_ZN10Qt3DRender5QMeshD0Ev
libQt63DRender.so.6:_ZN10Qt3DRender5QMeshD1Ev
libQt63DRender.so.6:_ZN10Qt3DRender5QMeshD2Ev
libQt63DRender.so.6:_ZN10Qt3DRender6QLayer11qt_metacallEN11QMetaObject4CallEiPPv
libQt63DRender.so.6:_ZN10Qt3DRender6QLayer11qt_metacastEPKc
libQt63DRender.so.6:_ZN10Qt3DRender6QLayer12setRecursiveEb
libQt63DRender.so.6:_ZN10Qt3DRender6QLayer16recursiveChangedEv
libQt63DRender.so.6:_ZN10Qt3DRender6QLayer16staticMetaObjectE
libQt63DRender.so.6:_ZN10Qt3DRender6QLayerC1EPN8Qt3DCore5QNodeE
libQt63DRender.so.6:_ZN10Qt3DRender6QLayerC1ERNS_13QLayerPrivateEPN8Qt3DCore5QNodeE
libQt63DRender.so.6:_ZN10Qt3DRender6QLayerC2EPN8Qt3DCore5QNodeE
libQt63DRender.so.6:_ZN10Qt3DRender6QLayerC2ERNS_13QLayerPrivateEPN8Qt3DCore5QNodeE
libQt63DRender.so.6:_ZN10Qt3DRender6QLayerD0Ev
libQt63DRender.so.6:_ZN10Qt3DRender6QLayerD1Ev
libQt63DRender.so.6:_ZN10Qt3DRender6QLayerD2Ev
libQt63DRender.so.6:_ZN10Qt3DRender6Render10CameraLens10viewMatrixERKN8Qt3DCore13Matrix4x4_SSEE
libQt63DRender.so.6:_ZN10Qt3DRender6Render10CameraLens11setExposureEf
libQt63DRender.so.6:_ZN10Qt3DRender6Render10CameraLens13setProjectionERKN8Qt3DCore13Matrix4x4_SSEE
libQt63DRender.so.6:_ZN10Qt3DRender6Render10CameraLens15setRenderAspectEPNS_13QRenderAspectE
libQt63DRender.so.6:_ZN10Qt3DRender6Render10CameraLens16syncFromFrontEndEPKN8Qt3DCore5QNodeEb
libQt63DRender.so.6:_ZN10Qt3DRender6Render10CameraLens19viewMatrixForCameraEPNS0_13EntityManagerEN8Qt3DCore7QNodeIdERNS4_13Matrix4x4_SSEES7_
libQt63DRender.so.6:_ZN10Qt3DRender6Render10CameraLens20processViewAllResultEPN8Qt3DCore14QAspectManagerERKNS0_6SphereENS2_7QNodeIdE
libQt63DRender.so.6:_ZN10Qt3DRender6Render10CameraLens26computeSceneBoundingVolumeEN8Qt3DCore7QNodeIdES3_S3_
libQt63DRender.so.6:_ZN10Qt3DRender6Render10CameraLens7cleanupEv
libQt63DRender.so.6:_ZN10Qt3DRender6Render10CameraLensC1Ev
libQt63DRender.so.6:_ZN10Qt3DRender6Render10CameraLensC2Ev
libQt63DRender.so.6:_ZN10Qt3DRender6Render10CameraLensD0Ev
libQt63DRender.so.6:_ZN10Qt3DRender6Render10CameraLensD1Ev
libQt63DRender.so.6:_ZN10Qt3DRender6Render10CameraLensD2Ev
libQt63DRender.so.6:_ZN10Qt3DRender6Render10DepthRange16updatePropertiesEPKNS_12QRenderStateE
libQt63DRender.so.6:_ZN10Qt3DRender6Render10RasterMode16updatePropertiesEPKNS_12QRenderStateE
libQt63DRender.so.6:_ZN10Qt3DRender6Render10RenderPass14addRenderStateEN8Qt3DCore7QNodeIdE
libQt63DRender.so.6:_ZN10Qt3DRender6Render10RenderPass15appendFilterKeyEN8Qt3DCore7QNodeIdE
libQt63DRender.so.6:_ZN10Qt3DRender6Render10RenderPass15removeFilterKeyEN8Qt3DCore7QNodeIdE
libQt63DRender.so.6:_ZN10Qt3DRender6Render10RenderPass16syncFromFrontEndEPKN8Qt3DCore5QNodeEb
libQt63DRender.so.6:_ZN10Qt3DRender6Render10RenderPass17removeRenderStateEN8Qt3DCore7QNodeIdE
libQt63DRender.so.6:_ZN10Qt3DRender6Render10RenderPass7cleanupEv
libQt63DRender.so.6:_ZN10Qt3DRender6Render10RenderPassC1Ev
libQt63DRender.so.6:_ZN10Qt3DRender6Render10RenderPassC2Ev
libQt63DRender.so.6:_ZN10Qt3DRender6Render10RenderPassD0Ev
libQt63DRender.so.6:_ZN10Qt3DRender6Render10RenderPassD1Ev
libQt63DRender.so.6:_ZN10Qt3DRender6Render10RenderPassD2Ev
libQt63DRender.so.6:_ZN10Qt3DRender6Render10ShaderData11setManagersEPNS0_12NodeManagersE
libQt63DRender.so.6:_ZN10Qt3DRender6Render10ShaderData14lookupResourceEN8Qt3DCore7QNodeIdE
libQt63DRender.so.6:_ZN10Qt3DRender6Render10ShaderData14lookupResourceEPNS0_12NodeManagersEN8Qt3DCore7QNodeIdE
libQt63DRender.so.6:_ZN10Qt3DRender6Render10ShaderData16syncFromFrontEndEPKN8Qt3DCore5QNodeEb
libQt63DRender.so.6:_ZN10Qt3DRender6Render10ShaderData20updateWorldTransformERKN8Qt3DCore13Matrix4x4_SSEE
libQt63DRender.so.6:_ZN10Qt3DRender6Render10ShaderData38generatePropertyValuesForBlockIfNeededERK7QString
libQt63DRender.so.6:_ZN10Qt3DRender6Render10ShaderDataC1Ev
libQt63DRender.so.6:_ZN10Qt3DRender6Render10ShaderDataC2Ev
libQt63DRender.so.6:_ZN10Qt3DRender6Render10ShaderDataD0Ev
libQt63DRender.so.6:_ZN10Qt3DRender6Render10ShaderDataD1Ev
libQt63DRender.so.6:_ZN10Qt3DRender6Render10ShaderDataD2Ev
libQt63DRender.so.6:_ZN10Qt3DRender6Render10SortPolicy16syncFromFrontEndEPKN8Qt3DCore5QNodeEb
libQt63DRender.so.6:_ZN10Qt3DRender6Render10SortPolicyC1Ev
libQt63DRender.so.6:_ZN10Qt3DRender6Render10SortPolicyC2Ev
libQt63DRender.so.6:_ZN10Qt3DRender6Render11BackendNode11setRendererEPNS0_16AbstractRendererE
libQt63DRender.so.6:_ZN10Qt3DRender6Render11BackendNode16syncFromFrontEndEPKN8Qt3DCore5QNodeEb
libQt63DRender.so.6:_ZN10Qt3DRender6Render11BackendNode9markDirtyE6QFlagsINS0_16AbstractRenderer20BackendNodeDirtyFlagEE
libQt63DRender.so.6:_ZN10Qt3DRender6Render11BackendNodeC1EN8Qt3DCore12QBackendNode4ModeE
libQt63DRender.so.6:_ZN10Qt3DRender6Render11BackendNodeC1ERN8Qt3DCore19QBackendNodePrivateE
libQt63DRender.so.6:_ZN10Qt3DRender6Render11BackendNodeC2EN8Qt3DCore12QBackendNode4ModeE
libQt63DRender.so.6:_ZN10Qt3DRender6Render11BackendNodeC2ERN8Qt3DCore19QBackendNodePrivateE
libQt63DRender.so.6:_ZN10Qt3DRender6Render11BackendNodeD0Ev
libQt63DRender.so.6:_ZN10Qt3DRender6Render11BackendNodeD1Ev
libQt63DRender.so.6:_ZN10Qt3DRender6Render11BackendNodeD2Ev
libQt63DRender.so.6:_ZN10Qt3DRender6Render11LightSourceC1EPKNS0_6EntityERKSt6vectorIPNS0_5LightESaIS7_EE
libQt63DRender.so.6:_ZN10Qt3DRender6Render11LightSourceC1Ev
libQt63DRender.so.6:_ZN10Qt3DRender6Render11LightSourceC2EPKNS0_6EntityERKSt6vectorIPNS0_5LightESaIS7_EE
libQt63DRender.so.6:_ZN10Qt3DRender6Render11LightSourceC2Ev
libQt63DRender.so.6:_ZN10Qt3DRender6Render11MSAAEnabled16updatePropertiesEPKNS_12QRenderStateE
libQt63DRender.so.6:_ZN10Qt3DRender6Render11NoDepthMask16updatePropertiesEPKNS_12QRenderStateE
libQt63DRender.so.6:_ZN10Qt3DRender6Render11ScissorTest16updatePropertiesEPKNS_12QRenderStateE
libQt63DRender.so.6:_ZN10Qt3DRender6Render11StencilMask16updatePropertiesEPKNS_12QRenderStateE
libQt63DRender.so.6:_ZN10Qt3DRender6Render11StencilTest16updatePropertiesEPKNS_12QRenderStateE
libQt63DRender.so.6:_ZN10Qt3DRender6Render11StringToInt12lookupStringEi
libQt63DRender.so.6:_ZN10Qt3DRender6Render11StringToInt8lookupIdE13QLatin1String
libQt63DRender.so.6:_ZN10Qt3DRender6Render11StringToInt8lookupIdERK7QString
libQt63DRender.so.6:_ZN10Qt3DRender6Render12ClearBuffers16syncFromFrontEndEPKN8Qt3DCore5QNodeEb
libQt63DRender.so.6:_ZN10Qt3DRender6Render12ClearBuffersC1Ev
libQt63DRender.so.6:_ZN10Qt3DRender6Render12ClearBuffersC2Ev
libQt63DRender.so.6:_ZN10Qt3DRender6Render12JointManager11dirtyJointsEv
libQt63DRender.so.6:_ZN10Qt3DRender6Render12JointManager13addDirtyJointEN8Qt3DCore7QNodeIdE
libQt63DRender.so.6:_ZN10Qt3DRender6Render12JointManager16removeDirtyJointEN8Qt3DCore7QNodeIdE
libQt63DRender.so.6:_ZN10Qt3DRender6Render12LoadSceneJob12tryLoadSceneERNS_12QSceneLoader6StatusERK5QListI7QStringERKSt8functionIFvPNS_14QSceneImporterEEE
libQt63DRender.so.6:_ZN10Qt3DRender6Render12LoadSceneJob3runEv
libQt63DRender.so.6:_ZN10Qt3DRender6Render12LoadSceneJob7setDataERK10QByteArray
libQt63DRender.so.6:_ZN10Qt3DRender6Render12LoadSceneJobC1ERK4QUrlN8Qt3DCore7QNodeIdE
libQt63DRender.so.6:_ZN10Qt3DRender6Render12LoadSceneJobC2ERK4QUrlN8Qt3DCore7QNodeIdE
libQt63DRender.so.6:_ZN10Qt3DRender6Render12NodeManagersC1Ev
libQt63DRender.so.6:_ZN10Qt3DRender6Render12NodeManagersC2Ev
libQt63DRender.so.6:_ZN10Qt3DRender6Render12NodeManagersD1Ev
libQt63DRender.so.6:_ZN10Qt3DRender6Render12NodeManagersD2Ev
libQt63DRender.so.6:_ZN10Qt3DRender6Render12ObjectPicker10setPressedEb
libQt63DRender.so.6:_ZN10Qt3DRender6Render12ObjectPicker11setPriorityEi
libQt63DRender.so.6:_ZN10Qt3DRender6Render12ObjectPicker16syncFromFrontEndEPKN8Qt3DCore5QNodeEb
libQt63DRender.so.6:_ZN10Qt3DRender6Render12ObjectPicker7cleanupEv
libQt63DRender.so.6:_ZN10Qt3DRender6Render12ObjectPicker9notifyJobEv
libQt63DRender.so.6:_ZN10Qt3DRender6Render12ObjectPickerC1Ev
libQt63DRender.so.6:_ZN10Qt3DRender6Render12ObjectPickerC2Ev
libQt63DRender.so.6:_ZN10Qt3DRender6Render12ObjectPickerD0Ev
libQt63DRender.so.6:_ZN10Qt3DRender6Render12ObjectPickerD1Ev
libQt63DRender.so.6:_ZN10Qt3DRender6Render12ObjectPickerD2Ev
libQt63DRender.so.6:_ZN10Qt3DRender6Render12PickingProxy10setManagerEPNS0_19PickingProxyManagerE
libQt63DRender.so.6:_ZN10Qt3DRender6Render12PickingProxy10unsetDirtyEv
libQt63DRender.so.6:_ZN10Qt3DRender6Render12PickingProxy16syncFromFrontEndEPKN8Qt3DCore5QNodeEb
libQt63DRender.so.6:_ZN10Qt3DRender6Render12PickingProxy7cleanupEv
libQt63DRender.so.6:_ZN10Qt3DRender6Render12PickingProxyC1Ev
libQt63DRender.so.6:_ZN10Qt3DRender6Render12PickingProxyC2Ev
libQt63DRender.so.6:_ZN10Qt3DRender6Render12PickingProxyD0Ev
libQt63DRender.so.6:_ZN10Qt3DRender6Render12PickingProxyD1Ev
libQt63DRender.so.6:_ZN10Qt3DRender6Render12PickingProxyD2Ev
libQt63DRender.so.6:_ZN10Qt3DRender6Render12RenderTarget10unsetDirtyEv
libQt63DRender.so.6:_ZN10Qt3DRender6Render12RenderTarget16syncFromFrontEndEPKN8Qt3DCore5QNodeEb
libQt63DRender.so.6:_ZN10Qt3DRender6Render12RenderTarget7cleanupEv
libQt63DRender.so.6:_ZN10Qt3DRender6Render12RenderTargetC1Ev
libQt63DRender.so.6:_ZN10Qt3DRender6Render12RenderTargetC2Ev
libQt63DRender.so.6:_ZN10Qt3DRender6Render12SceneManager12addSceneDataERK4QUrlN8Qt3DCore7QNodeIdERK10QByteArray
libQt63DRender.so.6:_ZN10Qt3DRender6Render12SceneManager18clearSceneDownloadEPNS0_15SceneDownloaderE
libQt63DRender.so.6:_ZN10Qt3DRender6Render12SceneManager18setDownloadServiceEPN8Qt3DCore22QDownloadHelperServiceE
libQt63DRender.so.6:_ZN10Qt3DRender6Render12SceneManager18startSceneDownloadERK4QUrlN8Qt3DCore7QNodeIdE
libQt63DRender.so.6:_ZN10Qt3DRender6Render12SceneManager26takePendingSceneLoaderJobsEv
libQt63DRender.so.6:_ZN10Qt3DRender6Render12SceneManagerC1Ev
libQt63DRender.so.6:_ZN10Qt3DRender6Render12SceneManagerC2Ev
libQt63DRender.so.6:_ZN10Qt3DRender6Render12SceneManagerD1Ev
libQt63DRender.so.6:_ZN10Qt3DRender6Render12SceneManagerD2Ev
libQt63DRender.so.6:_ZN10Qt3DRender6Render12StateSetNode14addRenderStateEN8Qt3DCore7QNodeIdE
libQt63DRender.so.6:_ZN10Qt3DRender6Render12StateSetNode16syncFromFrontEndEPKN8Qt3DCore5QNodeEb
libQt63DRender.so.6:_ZN10Qt3DRender6Render12StateSetNode17removeRenderStateEN8Qt3DCore7QNodeIdE
libQt63DRender.so.6:_ZN10Qt3DRender6Render12StateSetNodeC1Ev
libQt63DRender.so.6:_ZN10Qt3DRender6Render12StateSetNodeC2Ev
libQt63DRender.so.6:_ZN10Qt3DRender6Render12StateSetNodeD0Ev
libQt63DRender.so.6:_ZN10Qt3DRender6Render12StateSetNodeD1Ev
libQt63DRender.so.6:_ZN10Qt3DRender6Render12StateSetNodeD2Ev
libQt63DRender.so.6:_ZN10Qt3DRender6Render12StateVariant5stateEv
libQt63DRender.so.6:_ZN10Qt3DRender6Render12TextureImage10unsetDirtyEv
libQt63DRender.so.6:_ZN10Qt3DRender6Render12TextureImage16syncFromFrontEndEPKN8Qt3DCore5QNodeEb
libQt63DRender.so.6:_ZN10Qt3DRender6Render12TextureImage7cleanupEv
libQt63DRender.so.6:_ZN10Qt3DRender6Render12TextureImageC1Ev
libQt63DRender.so.6:_ZN10Qt3DRender6Render12TextureImageC2Ev
libQt63DRender.so.6:_ZN10Qt3DRender6Render12TextureImageD0Ev
libQt63DRender.so.6:_ZN10Qt3DRender6Render12TextureImageD1Ev
libQt63DRender.so.6:_ZN10Qt3DRender6Render12TextureImageD2Ev
libQt63DRender.so.6:_ZN10Qt3DRender6Render12UniformValue11fromVariantERK8QVariant
libQt63DRender.so.6:_ZN10Qt3DRender6Render12UniformValue7setDataI10QMatrix4x4EEvRK5QListIT_E
libQt63DRender.so.6:_ZN10Qt3DRender6Render12ViewportNode15computeViewportERK6QRectFPKS1_
libQt63DRender.so.6:_ZN10Qt3DRender6Render12ViewportNode16syncFromFrontEndEPKN8Qt3DCore5QNodeEb
libQt63DRender.so.6:_ZN10Qt3DRender6Render12ViewportNode7setXMaxEf
libQt63DRender.so.6:_ZN10Qt3DRender6Render12ViewportNode7setXMinEf
libQt63DRender.so.6:_ZN10Qt3DRender6Render12ViewportNode7setYMaxEf
libQt63DRender.so.6:_ZN10Qt3DRender6Render12ViewportNode7setYMinEf
libQt63DRender.so.6:_ZN10Qt3DRender6Render12ViewportNode8setGammaEf
libQt63DRender.so.6:_ZN10Qt3DRender6Render12ViewportNodeC1Ev
libQt63DRender.so.6:_ZN10Qt3DRender6Render12ViewportNodeC2Ev
libQt63DRender.so.6:_ZN10Qt3DRender6Render13BlendEquation16updatePropertiesEPKNS_12QRenderStateE
libQt63DRender.so.6:_ZN10Qt3DRender6Render13BufferCaptureC1Ev
libQt63DRender.so.6:_ZN10Qt3DRender6Render13BufferCaptureC2Ev
libQt63DRender.so.6:_ZN10Qt3DRender6Render13BufferManager14addDirtyBufferEN8Qt3DCore7QNodeIdE
libQt63DRender.so.6:_ZN10Qt3DRender6Render13BufferManager16takeDirtyBuffersEv
libQt63DRender.so.6:_ZN10Qt3DRender6Render13BufferManager18addBufferReferenceEN8Qt3DCore7QNodeIdE
libQt63DRender.so.6:_ZN10Qt3DRender6Render13BufferManager20takeBuffersToReleaseEv
libQt63DRender.so.6:_ZN10Qt3DRender6Render13BufferManager21removeBufferReferenceEN8Qt3DCore7QNodeIdE
libQt63DRender.so.6:_ZN10Qt3DRender6Render13BufferManagerC1Ev
libQt63DRender.so.6:_ZN10Qt3DRender6Render13BufferManagerC2Ev
libQt63DRender.so.6:_ZN10Qt3DRender6Render13BufferManagerD1Ev
libQt63DRender.so.6:_ZN10Qt3DRender6Render13BufferManagerD2Ev
libQt63DRender.so.6:_ZN10Qt3DRender6Render13LevelOfDetail15setCurrentIndexEi
libQt63DRender.so.6:_ZN10Qt3DRender6Render13LevelOfDetail16syncFromFrontEndEPKN8Qt3DCore5QNodeEb
libQt63DRender.so.6:_ZN10Qt3DRender6Render13LevelOfDetail7cleanupEv
libQt63DRender.so.6:_ZN10Qt3DRender6Render13LevelOfDetailC1Ev
libQt63DRender.so.6:_ZN10Qt3DRender6Render13LevelOfDetailC2Ev
libQt63DRender.so.6:_ZN10Qt3DRender6Render13LevelOfDetailD0Ev
libQt63DRender.so.6:_ZN10Qt3DRender6Render13LevelOfDetailD1Ev
libQt63DRender.so.6:_ZN10Qt3DRender6Render13LevelOfDetailD2Ev
libQt63DRender.so.6:_ZN10Qt3DRender6Render13LightGatherer3runEv
libQt63DRender.so.6:_ZN10Qt3DRender6Render13LightGathererC1Ev
libQt63DRender.so.6:_ZN10Qt3DRender6Render13LightGathererC2Ev
libQt63DRender.so.6:_ZN10Qt3DRender6Render13MemoryBarrier16syncFromFrontEndEPKN8Qt3DCore5QNodeEb
libQt63DRender.so.6:_ZN10Qt3DRender6Render13MemoryBarrierC1Ev
libQt63DRender.so.6:_ZN10Qt3DRender6Render13MemoryBarrierC2Ev
libQt63DRender.so.6:_ZN10Qt3DRender6Render13MemoryBarrierD0Ev
libQt63DRender.so.6:_ZN10Qt3DRender6Render13MemoryBarrierD1Ev
libQt63DRender.so.6:_ZN10Qt3DRender6Render13MemoryBarrierD2Ev
libQt63DRender.so.6:_ZN10Qt3DRender6Render13PolygonOffset16updatePropertiesEPKNS_12QRenderStateE
libQt63DRender.so.6:_ZN10Qt3DRender6Render13RayCastingJob12dispatchHitsEPNS0_9RayCasterERKSt6vectorINS_10RayCasting21QCollisionQueryResult3HitESaIS7_EE
libQt63DRender.so.6:_ZN10Qt3DRender6Render13RayCastingJob16markCastersDirtyEv
libQt63DRender.so.6:_ZN10Qt3DRender6Render13RayCastingJob4pickEPNS_18QAbstractRayCasterE
libQt63DRender.so.6:_ZN10Qt3DRender6Render13RayCastingJob4pickERK5QListISt4pairIPNS0_6EntityEPNS0_9RayCasterEEE
libQt63DRender.so.6:_ZN10Qt3DRender6Render13RayCastingJob9runHelperEv
libQt63DRender.so.6:_ZN10Qt3DRender6Render13RayCastingJobC1Ev
libQt63DRender.so.6:_ZN10Qt3DRender6Render13RayCastingJobC2Ev
libQt63DRender.so.6:_ZN10Qt3DRender6Render13RenderCapture14requestCaptureERKNS_21QRenderCaptureRequestE
libQt63DRender.so.6:_ZN10Qt3DRender6Render13RenderCapture16addRenderCaptureEiRK6QImage
libQt63DRender.so.6:_ZN10Qt3DRender6Render13RenderCapture16syncFromFrontEndEPKN8Qt3DCore5QNodeEb
libQt63DRender.so.6:_ZN10Qt3DRender6Render13RenderCapture18takeCaptureRequestEv
libQt63DRender.so.6:_ZN10Qt3DRender6Render13RenderCapture28syncRenderCapturesToFrontendEPN8Qt3DCore14QAspectManagerE
libQt63DRender.so.6:_ZN10Qt3DRender6Render13RenderCaptureC1Ev
libQt63DRender.so.6:_ZN10Qt3DRender6Render13RenderCaptureC2Ev
libQt63DRender.so.6:_ZN10Qt3DRender6Render13ShaderBuilder12generateCodeENS_14QShaderProgram10ShaderTypeE
libQt63DRender.so.6:_ZN10Qt3DRender6Render13ShaderBuilder14setGraphicsApiERKNS_21GraphicsApiFilterDataE
libQt63DRender.so.6:_ZN10Qt3DRender6Render13ShaderBuilder14setShaderGraphENS_14QShaderProgram10ShaderTypeERK4QUrl
libQt63DRender.so.6:_ZN10Qt3DRender6Render13ShaderBuilder16setEnabledLayersERK5QListI7QStringE
libQt63DRender.so.6:_ZN10Qt3DRender6Render13ShaderBuilder16syncFromFrontEndEPKN8Qt3DCore5QNodeEb
libQt63DRender.so.6:_ZN10Qt3DRender6Render13ShaderBuilder17getPrototypeNamesEv
libQt63DRender.so.6:_ZN10Qt3DRender6Render13ShaderBuilder17getPrototypesFileEv
libQt63DRender.so.6:_ZN10Qt3DRender6Render13ShaderBuilder17setPrototypesFileERK7QString
libQt63DRender.so.6:_ZN10Qt3DRender6Render13ShaderBuilder7cleanupEv
libQt63DRender.so.6:_ZN10Qt3DRender6Render13ShaderBuilderC1Ev
libQt63DRender.so.6:_ZN10Qt3DRender6Render13ShaderBuilderC2Ev
libQt63DRender.so.6:_ZN10Qt3DRender6Render13ShaderBuilderD0Ev
libQt63DRender.so.6:_ZN10Qt3DRender6Render13ShaderBuilderD1Ev
libQt63DRender.so.6:_ZN10Qt3DRender6Render13ShaderBuilderD2Ev
libQt63DRender.so.6:_ZN10Qt3DRender6Render13SurfaceLockerC1EP8QSurface
libQt63DRender.so.6:_ZN10Qt3DRender6Render13SurfaceLockerC2EP8QSurface
libQt63DRender.so.6:_ZN10Qt3DRender6Render13SurfaceLockerD1Ev
libQt63DRender.so.6:_ZN10Qt3DRender6Render13SurfaceLockerD2Ev
libQt63DRender.so.6:_ZN10Qt3DRender6Render13findParamInfoEP5QListINS0_13ParameterInfoEEi
libQt63DRender.so.6:_ZN10Qt3DRender6Render14AttachmentPackC1EPKNS0_12RenderTargetEPNS0_17AttachmentManagerERK5QListINS_19QRenderTargetOutput15AttachmentPointEE
libQt63DRender.so.6:_ZN10Qt3DRender6Render14AttachmentPackC1Ev
libQt63DRender.so.6:_ZN10Qt3DRender6Render14AttachmentPackC2EPKNS0_12RenderTargetEPNS0_17AttachmentManagerERK5QListINS_19QRenderTargetOutput15AttachmentPointEE
libQt63DRender.so.6:_ZN10Qt3DRender6Render14AttachmentPackC2Ev
libQt63DRender.so.6:_ZN10Qt3DRender6Render14CameraSelector16syncFromFrontEndEPKN8Qt3DCore5QNodeEb
libQt63DRender.so.6:_ZN10Qt3DRender6Render14CameraSelectorC1Ev
libQt63DRender.so.6:_ZN10Qt3DRender6Render14CameraSelectorC2Ev
libQt63DRender.so.6:_ZN10Qt3DRender6Render14ComputeCommand16syncFromFrontEndEPKN8Qt3DCore5QNodeEb
libQt63DRender.so.6:_ZN10Qt3DRender6Render14ComputeCommand16updateFrameCountEv
libQt63DRender.so.6:_ZN10Qt3DRender6Render14ComputeCommand25resetHasReachedFrameCountEv
libQt63DRender.so.6:_ZN10Qt3DRender6Render14ComputeCommand7cleanupEv
libQt63DRender.so.6:_ZN10Qt3DRender6Render14ComputeCommandC1Ev
libQt63DRender.so.6:_ZN10Qt3DRender6Render14ComputeCommandC2Ev
libQt63DRender.so.6:_ZN10Qt3DRender6Render14ComputeCommandD0Ev
libQt63DRender.so.6:_ZN10Qt3DRender6Render14ComputeCommandD1Ev
libQt63DRender.so.6:_ZN10Qt3DRender6Render14ComputeCommandD2Ev
libQt63DRender.so.6:_ZN10Qt3DRender6Render14FrameGraphNode11setParentIdEN8Qt3DCore7QNodeIdE
libQt63DRender.so.6:_ZN10Qt3DRender6Render14FrameGraphNode16syncFromFrontEndEPKN8Qt3DCore5QNodeEb
libQt63DRender.so.6:_ZN10Qt3DRender6Render14FrameGraphNode20setFrameGraphManagerEPNS0_17FrameGraphManagerE
libQt63DRender.so.6:_ZN10Qt3DRender6Render14FrameGraphNode7cleanupEv
libQt63DRender.so.6:_ZN10Qt3DRender6Render14FrameGraphNodeC1ENS1_18FrameGraphNodeTypeEN8Qt3DCore12QBackendNode4ModeE
libQt63DRender.so.6:_ZN10Qt3DRender6Render14FrameGraphNodeC1Ev
libQt63DRender.so.6:_ZN10Qt3DRender6Render14FrameGraphNodeC2ENS1_18FrameGraphNodeTypeEN8Qt3DCore12QBackendNode4ModeE
libQt63DRender.so.6:_ZN10Qt3DRender6Render14FrameGraphNodeC2Ev
libQt63DRender.so.6:_ZN10Qt3DRender6Render14FrameGraphNodeD0Ev
libQt63DRender.so.6:_ZN10Qt3DRender6Render14FrameGraphNodeD1Ev
libQt63DRender.so.6:_ZN10Qt3DRender6Render14FrameGraphNodeD2Ev
libQt63DRender.so.6:_ZN10Qt3DRender6Render14FrustumCullingC1Ev
libQt63DRender.so.6:_ZN10Qt3DRender6Render14FrustumCullingC2Ev
libQt63DRender.so.6:_ZN10Qt3DRender6Render14FrustumCullingD0Ev
libQt63DRender.so.6:_ZN10Qt3DRender6Render14FrustumCullingD1Ev
libQt63DRender.so.6:_ZN10Qt3DRender6Render14FrustumCullingD2Ev
libQt63DRender.so.6:_ZN10Qt3DRender6Render14RenderSettings16syncFromFrontEndEPKN8Qt3DCore5QNodeEb
libQt63DRender.so.6:_ZN10Qt3DRender6Render14RenderSettingsC1Ev
libQt63DRender.so.6:_ZN10Qt3DRender6Render14RenderSettingsC2Ev
libQt63DRender.so.6:_ZN10Qt3DRender6Render14RenderStateSet10changeCostEPS1_
libQt63DRender.so.6:_ZN10Qt3DRender6Render14RenderStateSet5mergeEPKS1_
libQt63DRender.so.6:_ZN10Qt3DRender6Render14RenderStateSet8addStateINS0_12StateVariantEEEvRKT_
libQt63DRender.so.6:_ZN10Qt3DRender6Render14RenderStateSetC1Ev
libQt63DRender.so.6:_ZN10Qt3DRender6Render14RenderStateSetC2Ev
libQt63DRender.so.6:_ZN10Qt3DRender6Render14RenderStateSetD1Ev
libQt63DRender.so.6:_ZN10Qt3DRender6Render14RenderStateSetD2Ev
libQt63DRender.so.6:_ZN10Qt3DRender6Render15BlitFramebuffer16syncFromFrontEndEPKN8Qt3DCore5QNodeEb
libQt63DRender.so.6:_ZN10Qt3DRender6Render15BlitFramebufferC1Ev
libQt63DRender.so.6:_ZN10Qt3DRender6Render15BlitFramebufferC2Ev
libQt63DRender.so.6:_ZN10Qt3DRender6Render15DispatchCompute16syncFromFrontEndEPKN8Qt3DCore5QNodeEb
libQt63DRender.so.6:_ZN10Qt3DRender6Render15DispatchCompute7cleanupEv
libQt63DRender.so.6:_ZN10Qt3DRender6Render15DispatchComputeC1Ev
libQt63DRender.so.6:_ZN10Qt3DRender6Render15DispatchComputeC2Ev
libQt63DRender.so.6:_ZN10Qt3DRender6Render15DispatchComputeD0Ev
libQt63DRender.so.6:_ZN10Qt3DRender6Render15DispatchComputeD1Ev
libQt63DRender.so.6:_ZN10Qt3DRender6Render15DispatchComputeD2Ev
libQt63DRender.so.6:_ZN10Qt3DRender6Render15FrameCleanupJob11setManagersEPNS0_12NodeManagersE
libQt63DRender.so.6:_ZN10Qt3DRender6Render15FrameCleanupJob26updateBoundingVolumesDebugEPNS0_6EntityE
libQt63DRender.so.6:_ZN10Qt3DRender6Render15FrameCleanupJob3runEv
libQt63DRender.so.6:_ZN10Qt3DRender6Render15FrameCleanupJob7setRootEPNS0_6EntityE
libQt63DRender.so.6:_ZN10Qt3DRender6Render15FrameCleanupJobC1Ev
libQt63DRender.so.6:_ZN10Qt3DRender6Render15FrameCleanupJobC2Ev
libQt63DRender.so.6:_ZN10Qt3DRender6Render15FrameCleanupJobD0Ev
libQt63DRender.so.6:_ZN10Qt3DRender6Render15FrameCleanupJobD1Ev
libQt63DRender.so.6:_ZN10Qt3DRender6Render15FrameCleanupJobD2Ev
libQt63DRender.so.6:_ZN10Qt3DRender6Render15LayerFilterNode11setLayerIdsERK5QListIN8Qt3DCore7QNodeIdEE
libQt63DRender.so.6:_ZN10Qt3DRender6Render15LayerFilterNode16syncFromFrontEndEPKN8Qt3DCore5QNodeEb
libQt63DRender.so.6:_ZN10Qt3DRender6Render15LayerFilterNodeC1Ev
libQt63DRender.so.6:_ZN10Qt3DRender6Render15LayerFilterNodeC2Ev
libQt63DRender.so.6:_ZN10Qt3DRender6Render15LoadGeometryJob3runEv
libQt63DRender.so.6:_ZN10Qt3DRender6Render15LoadGeometryJobC1ERKN8Qt3DCore7QHandleINS0_16GeometryRendererEEE
libQt63DRender.so.6:_ZN10Qt3DRender6Render15LoadGeometryJobC2ERKN8Qt3DCore7QHandleINS0_16GeometryRendererEEE
libQt63DRender.so.6:_ZN10Qt3DRender6Render15LoadGeometryJobD0Ev
libQt63DRender.so.6:_ZN10Qt3DRender6Render15LoadGeometryJobD1Ev
libQt63DRender.so.6:_ZN10Qt3DRender6Render15LoadGeometryJobD2Ev
libQt63DRender.so.6:_ZN10Qt3DRender6Render15PickEventFilter11eventFilterEP7QObjectP6QEvent
libQt63DRender.so.6:_ZN10Qt3DRender6Render15PickEventFilter11qt_metacallEN11QMetaObject4CallEiPPv
libQt63DRender.so.6:_ZN10Qt3DRender6Render15PickEventFilter11qt_metacastEPKc
libQt63DRender.so.6:_ZN10Qt3DRender6Render15PickEventFilter16staticMetaObjectE
libQt63DRender.so.6:_ZN10Qt3DRender6Render15PickEventFilterC1EPNS_20QRenderAspectPrivateEP7QObject
libQt63DRender.so.6:_ZN10Qt3DRender6Render15PickEventFilterC2EPNS_20QRenderAspectPrivateEP7QObject
libQt63DRender.so.6:_ZN10Qt3DRender6Render15PickEventFilterD0Ev
libQt63DRender.so.6:_ZN10Qt3DRender6Render15PickEventFilterD1Ev
libQt63DRender.so.6:_ZN10Qt3DRender6Render15PickEventFilterD2Ev
libQt63DRender.so.6:_ZN10Qt3DRender6Render15ProximityFilter16syncFromFrontEndEPKN8Qt3DCore5QNodeEb
libQt63DRender.so.6:_ZN10Qt3DRender6Render15ProximityFilterC1Ev
libQt63DRender.so.6:_ZN10Qt3DRender6Render15ProximityFilterC2Ev
libQt63DRender.so.6:_ZN10Qt3DRender6Render15QRendererPlugin11qt_metacallEN11QMetaObject4CallEiPPv
libQt63DRender.so.6:_ZN10Qt3DRender6Render15QRendererPlugin11qt_metacastEPKc
libQt63DRender.so.6:_ZN10Qt3DRender6Render15QRendererPlugin16staticMetaObjectE
libQt63DRender.so.6:_ZN10Qt3DRender6Render15QRendererPlugin6createERK7QString
libQt63DRender.so.6:_ZN10Qt3DRender6Render15QRendererPluginC1EP7QObject
libQt63DRender.so.6:_ZN10Qt3DRender6Render15QRendererPluginC2EP7QObject
libQt63DRender.so.6:_ZN10Qt3DRender6Render15QRendererPluginD0Ev
libQt63DRender.so.6:_ZN10Qt3DRender6Render15QRendererPluginD1Ev
libQt63DRender.so.6:_ZN10Qt3DRender6Render15QRendererPluginD2Ev
libQt63DRender.so.6:_ZN10Qt3DRender6Render15RenderStateImpl16updatePropertiesEPKNS_12QRenderStateE
libQt63DRender.so.6:_ZN10Qt3DRender6Render15RenderStateNode16syncFromFrontEndEPKN8Qt3DCore5QNodeEb
libQt63DRender.so.6:_ZN10Qt3DRender6Render15RenderStateNode7cleanupEv
libQt63DRender.so.6:_ZN10Qt3DRender6Render15RenderStateNodeC1Ev
libQt63DRender.so.6:_ZN10Qt3DRender6Render15RenderStateNodeC2Ev
libQt63DRender.so.6:_ZN10Qt3DRender6Render15RenderStateNodeD0Ev
libQt63DRender.so.6:_ZN10Qt3DRender6Render15RenderStateNodeD1Ev
libQt63DRender.so.6:_ZN10Qt3DRender6Render15RenderStateNodeD2Ev
libQt63DRender.so.6:_ZN10Qt3DRender6Render15SkeletonManager16addDirtySkeletonENS1_9DirtyFlagEN8Qt3DCore7QHandleINS0_8SkeletonEEE
libQt63DRender.so.6:_ZN10Qt3DRender6Render15SkeletonManager18takeDirtySkeletonsENS1_9DirtyFlagE
libQt63DRender.so.6:_ZN10Qt3DRender6Render15TechniqueFilter12appendFilterEN8Qt3DCore7QNodeIdE
libQt63DRender.so.6:_ZN10Qt3DRender6Render15TechniqueFilter12removeFilterEN8Qt3DCore7QNodeIdE
libQt63DRender.so.6:_ZN10Qt3DRender6Render15TechniqueFilter16syncFromFrontEndEPKN8Qt3DCore5QNodeEb
libQt63DRender.so.6:_ZN10Qt3DRender6Render15TechniqueFilterC1Ev
libQt63DRender.so.6:_ZN10Qt3DRender6Render15TechniqueFilterC2Ev
libQt63DRender.so.6:_ZN10Qt3DRender6Render16CoordinateReader11setGeometryEPKNS0_16GeometryRendererERK7QString
libQt63DRender.so.6:_ZN10Qt3DRender6Render16CoordinateReader13getCoordinateEj
libQt63DRender.so.6:_ZN10Qt3DRender6Render16EnvironmentLight16syncFromFrontEndEPKN8Qt3DCore5QNodeEb
libQt63DRender.so.6:_ZN10Qt3DRender6Render16GeometryRenderer10setManagerEPNS0_23GeometryRendererManagerE
libQt63DRender.so.6:_ZN10Qt3DRender6Render16GeometryRenderer10unsetDirtyEv
libQt63DRender.so.6:_ZN10Qt3DRender6Render16GeometryRenderer14executeFunctorEv
libQt63DRender.so.6:_ZN10Qt3DRender6Render16GeometryRenderer16syncFromFrontEndEPKN8Qt3DCore5QNodeEb
libQt63DRender.so.6:_ZN10Qt3DRender6Render16GeometryRenderer7cleanupEv
libQt63DRender.so.6:_ZN10Qt3DRender6Render16GeometryRendererC1Ev
libQt63DRender.so.6:_ZN10Qt3DRender6Render16GeometryRendererC2Ev
libQt63DRender.so.6:_ZN10Qt3DRender6Render16GeometryRendererD0Ev
libQt63DRender.so.6:_ZN10Qt3DRender6Render16GeometryRendererD1Ev
libQt63DRender.so.6:_ZN10Qt3DRender6Render16GeometryRendererD2Ev
libQt63DRender.so.6:_ZN10Qt3DRender6Render16RenderPassFilter12appendFilterEN8Qt3DCore7QNodeIdE
libQt63DRender.so.6:_ZN10Qt3DRender6Render16RenderPassFilter12removeFilterEN8Qt3DCore7QNodeIdE
libQt63DRender.so.6:_ZN10Qt3DRender6Render16RenderPassFilter16syncFromFrontEndEPKN8Qt3DCore5QNodeEb
libQt63DRender.so.6:_ZN10Qt3DRender6Render16RenderPassFilterC1Ev
libQt63DRender.so.6:_ZN10Qt3DRender6Render16RenderPassFilterC2Ev
libQt63DRender.so.6:_ZN10Qt3DRender6Render16ResourceAccessor14accessResourceENS0_29RenderBackendResourceAccessor12ResourceTypeEN8Qt3DCore7QNodeIdEPPvPP6QMutex
libQt63DRender.so.6:_ZN10Qt3DRender6Render16ResourceAccessorC1EPNS0_16AbstractRendererEPNS0_12NodeManagersE
libQt63DRender.so.6:_ZN10Qt3DRender6Render16ResourceAccessorC2EPNS0_16AbstractRendererEPNS0_12NodeManagersE
libQt63DRender.so.6:_ZN10Qt3DRender6Render16TechniqueManager17addDirtyTechniqueEN8Qt3DCore7QNodeIdE
libQt63DRender.so.6:_ZN10Qt3DRender6Render16TechniqueManager19takeDirtyTechniquesEv
libQt63DRender.so.6:_ZN10Qt3DRender6Render16TechniqueManagerC1Ev
libQt63DRender.so.6:_ZN10Qt3DRender6Render16TechniqueManagerC2Ev
libQt63DRender.so.6:_ZN10Qt3DRender6Render16entitiesInSubsetERKSt6vectorIPNS0_6EntityESaIS3_EES7_
libQt63DRender.so.6:_ZN10Qt3DRender6Render17EntityAccumulatorC1EPNS0_12NodeManagersE
libQt63DRender.so.6:_ZN10Qt3DRender6Render17EntityAccumulatorC1ESt8functionIFbPNS0_6EntityEEEPNS0_12NodeManagersE
libQt63DRender.so.6:_ZN10Qt3DRender6Render17EntityAccumulatorC2EPNS0_12NodeManagersE
libQt63DRender.so.6:_ZN10Qt3DRender6Render17EntityAccumulatorC2ESt8functionIFbPNS0_6EntityEEEPNS0_12NodeManagersE
libQt63DRender.so.6:_ZN10Qt3DRender6Render17FrameGraphManager10appendNodeEN8Qt3DCore7QNodeIdEPNS0_14FrameGraphNodeE
libQt63DRender.so.6:_ZN10Qt3DRender6Render17FrameGraphManager11releaseNodeEN8Qt3DCore7QNodeIdE
libQt63DRender.so.6:_ZN10Qt3DRender6Render17FrameGraphManagerD1Ev
libQt63DRender.so.6:_ZN10Qt3DRender6Render17FrameGraphManagerD2Ev
libQt63DRender.so.6:_ZN10Qt3DRender6Render17FrameGraphVisitor21takeEnablersToDisableEv
libQt63DRender.so.6:_ZN10Qt3DRender6Render17FrameGraphVisitor5visitEPNS0_14FrameGraphNodeE
libQt63DRender.so.6:_ZN10Qt3DRender6Render17FrameGraphVisitor8traverseEPNS0_14FrameGraphNodeE
libQt63DRender.so.6:_ZN10Qt3DRender6Render17FrameGraphVisitorC1EPKNS0_17FrameGraphManagerE
libQt63DRender.so.6:_ZN10Qt3DRender6Render17FrameGraphVisitorC2EPKNS0_17FrameGraphManagerE
libQt63DRender.so.6:_ZN10Qt3DRender6Render17FrustumCullingJob10isRequiredEv
libQt63DRender.so.6:_ZN10Qt3DRender6Render17FrustumCullingJob3runEv
libQt63DRender.so.6:_ZN10Qt3DRender6Render17FrustumCullingJob9cullSceneEPNS0_6EntityEPKNS1_5PlaneE
libQt63DRender.so.6:_ZN10Qt3DRender6Render17FrustumCullingJobC1Ev
libQt63DRender.so.6:_ZN10Qt3DRender6Render17FrustumCullingJobC2Ev
libQt63DRender.so.6:_ZN10Qt3DRender6Render17FrustumCullingJobD0Ev
libQt63DRender.so.6:_ZN10Qt3DRender6Render17FrustumCullingJobD1Ev
libQt63DRender.so.6:_ZN10Qt3DRender6Render17FrustumCullingJobD2Ev
libQt63DRender.so.6:_ZN10Qt3DRender6Render18AbstractPickingJob11setManagersEPNS0_12NodeManagersE
libQt63DRender.so.6:_ZN10Qt3DRender6Render18AbstractPickingJob15intersectionRayERK6QPointRKN8Qt3DCore13Matrix4x4_SSEES8_RK5QRect
libQt63DRender.so.6:_ZN10Qt3DRender6Render18AbstractPickingJob17setFrameGraphRootEPNS0_14FrameGraphNodeE
libQt63DRender.so.6:_ZN10Qt3DRender6Render18AbstractPickingJob17setRenderSettingsEPNS0_14RenderSettingsE
libQt63DRender.so.6:_ZN10Qt3DRender6Render18AbstractPickingJob3runEv
libQt63DRender.so.6:_ZN10Qt3DRender6Render18AbstractPickingJob7setRootEPNS0_6EntityE
libQt63DRender.so.6:_ZN10Qt3DRender6Render18AbstractPickingJobC2ERN8Qt3DCore17QAspectJobPrivateE
libQt63DRender.so.6:_ZN10Qt3DRender6Render18AbstractPickingJobC2Ev
libQt63DRender.so.6:_ZN10Qt3DRender6Render18RenderTargetOutput10attachmentEv
libQt63DRender.so.6:_ZN10Qt3DRender6Render18RenderTargetOutput16syncFromFrontEndEPKN8Qt3DCore5QNodeEb
libQt63DRender.so.6:_ZN10Qt3DRender6Render18RenderTargetOutputC1Ev
libQt63DRender.so.6:_ZN10Qt3DRender6Render18RenderTargetOutputC2Ev
libQt63DRender.so.6:_ZN10Qt3DRender6Render19addParametersForIdsEP5QListINS0_13ParameterInfoEEPNS0_16ParameterManagerERKS1_IN8Qt3DCore7QNodeIdEE
libQt63DRender.so.6:_ZN10Qt3DRender6Render20FilterLayerEntityJob17selectAllEntitiesEv
libQt63DRender.so.6:_ZN10Qt3DRender6Render20FilterLayerEntityJob20filterLayerAndEntityEv
libQt63DRender.so.6:_ZN10Qt3DRender6Render20FilterLayerEntityJob25filterEntityAgainstLayersEPNS0_6EntityERK5QListIN8Qt3DCore7QNodeIdEENS_12QLayerFilter10FilterModeE
libQt63DRender.so.6:_ZN10Qt3DRender6Render20FilterLayerEntityJob29filterAcceptAllMatchingLayersEPNS0_6EntityERK5QListIN8Qt3DCore7QNodeIdEE
libQt63DRender.so.6:_ZN10Qt3DRender6Render20FilterLayerEntityJob29filterAcceptAnyMatchingLayersEPNS0_6EntityERK5QListIN8Qt3DCore7QNodeIdEE
libQt63DRender.so.6:_ZN10Qt3DRender6Render20FilterLayerEntityJob30filterDiscardAllMatchingLayersEPNS0_6EntityERK5QListIN8Qt3DCore7QNodeIdEE
libQt63DRender.so.6:_ZN10Qt3DRender6Render20FilterLayerEntityJob30filterDiscardAnyMatchingLayersEPNS0_6EntityERK5QListIN8Qt3DCore7QNodeIdEE
libQt63DRender.so.6:_ZN10Qt3DRender6Render20FilterLayerEntityJob3runEv
libQt63DRender.so.6:_ZN10Qt3DRender6Render20FilterLayerEntityJobC1Ev
libQt63DRender.so.6:_ZN10Qt3DRender6Render20FilterLayerEntityJobC2Ev
libQt63DRender.so.6:_ZN10Qt3DRender6Render20QRenderPluginFactory4keysEv
libQt63DRender.so.6:_ZN10Qt3DRender6Render20QRenderPluginFactory6createERK7QStringRK5QListIS2_E
libQt63DRender.so.6:_ZN10Qt3DRender6Render20RenderTargetSelector16syncFromFrontEndEPKN8Qt3DCore5QNodeEb
libQt63DRender.so.6:_ZN10Qt3DRender6Render20RenderTargetSelectorC1Ev
libQt63DRender.so.6:_ZN10Qt3DRender6Render20RenderTargetSelectorC2Ev
libQt63DRender.so.6:_ZN10Qt3DRender6Render20SendBufferCaptureJob10addRequestESt4pairIN8Qt3DCore7QNodeIdE10QByteArrayE
libQt63DRender.so.6:_ZN10Qt3DRender6Render20SendBufferCaptureJob3runEv
libQt63DRender.so.6:_ZN10Qt3DRender6Render20SendBufferCaptureJobC1Ev
libQt63DRender.so.6:_ZN10Qt3DRender6Render20SendBufferCaptureJobC2Ev
libQt63DRender.so.6:_ZN10Qt3DRender6Render20SendBufferCaptureJobD0Ev
libQt63DRender.so.6:_ZN10Qt3DRender6Render20SendBufferCaptureJobD1Ev
libQt63DRender.so.6:_ZN10Qt3DRender6Render20SendBufferCaptureJobD2Ev
libQt63DRender.so.6:_ZN10Qt3DRender6Render20UpdateTreeEnabledJob11setManagersEPNS0_12NodeManagersE
libQt63DRender.so.6:_ZN10Qt3DRender6Render20UpdateTreeEnabledJob3runEv
libQt63DRender.so.6:_ZN10Qt3DRender6Render20UpdateTreeEnabledJob7setRootEPNS0_6EntityE
libQt63DRender.so.6:_ZN10Qt3DRender6Render20UpdateTreeEnabledJobC1Ev
libQt63DRender.so.6:_ZN10Qt3DRender6Render20UpdateTreeEnabledJobC2Ev
libQt63DRender.so.6:_ZN10Qt3DRender6Render21PickBoundingVolumeJob16markPickersDirtyEv
libQt63DRender.so.6:_ZN10Qt3DRender6Render21PickBoundingVolumeJob16processPickEventERKNS0_12PickingUtils17PickConfigurationEP7QObjectPK11QMouseEvent
libQt63DRender.so.6:_ZN10Qt3DRender6Render21PickBoundingVolumeJob17processMouseEventEP7QObjectP11QMouseEvent
libQt63DRender.so.6:_ZN10Qt3DRender6Render21PickBoundingVolumeJob18dispatchPickEventsEPK11QMouseEventRKSt6vectorINS_10RayCasting21QCollisionQueryResult3HitESaIS8_EENS_10QPickEvent7ButtonsEiibN8Qt3DCore7QNodeIdE
libQt63DRender.so.6:_ZN10Qt3DRender6Render21PickBoundingVolumeJob29clearPreviouslyHoveredPickersEv
libQt63DRender.so.6:_ZN10Qt3DRender6Render21PickBoundingVolumeJob7setRootEPNS0_6EntityE
libQt63DRender.so.6:_ZN10Qt3DRender6Render21PickBoundingVolumeJob9runHelperEv
libQt63DRender.so.6:_ZN10Qt3DRender6Render21PickBoundingVolumeJobC1Ev
libQt63DRender.so.6:_ZN10Qt3DRender6Render21PickBoundingVolumeJobC2Ev
libQt63DRender.so.6:_ZN10Qt3DRender6Render21PlatformSurfaceFilter11eventFilterEP7QObjectP6QEvent
libQt63DRender.so.6:_ZN10Qt3DRender6Render21PlatformSurfaceFilter11lockSurfaceEv
libQt63DRender.so.6:_ZN10Qt3DRender6Render21PlatformSurfaceFilter11qt_metacallEN11QMetaObject4CallEiPPv
libQt63DRender.so.6:_ZN10Qt3DRender6Render21PlatformSurfaceFilter11qt_metacastEPKc
libQt63DRender.so.6:_ZN10Qt3DRender6Render21PlatformSurfaceFilter14isSurfaceValidEP8QSurface
libQt63DRender.so.6:_ZN10Qt3DRender6Render21PlatformSurfaceFilter14releaseSurfaceEv
libQt63DRender.so.6:_ZN10Qt3DRender6Render21PlatformSurfaceFilter15m_surfacesMutexE
libQt63DRender.so.6:_ZN10Qt3DRender6Render21PlatformSurfaceFilter16staticMetaObjectE
libQt63DRender.so.6:_ZN10Qt3DRender6Render21PlatformSurfaceFilter18m_surfacesValidityE
libQt63DRender.so.6:_ZN10Qt3DRender6Render21PlatformSurfaceFilter18markSurfaceAsValidEv
libQt63DRender.so.6:_ZN10Qt3DRender6Render21PlatformSurfaceFilterC1EP7QObject
libQt63DRender.so.6:_ZN10Qt3DRender6Render21PlatformSurfaceFilterC2EP7QObject
libQt63DRender.so.6:_ZN10Qt3DRender6Render21PlatformSurfaceFilterD0Ev
libQt63DRender.so.6:_ZN10Qt3DRender6Render21PlatformSurfaceFilterD1Ev
libQt63DRender.so.6:_ZN10Qt3DRender6Render21PlatformSurfaceFilterD2Ev
libQt63DRender.so.6:_ZN10Qt3DRender6Render21RenderSurfaceSelector16syncFromFrontEndEPKN8Qt3DCore5QNodeEb
libQt63DRender.so.6:_ZN10Qt3DRender6Render21RenderSurfaceSelectorC1Ev
libQt63DRender.so.6:_ZN10Qt3DRender6Render21RenderSurfaceSelectorC2Ev
libQt63DRender.so.6:_ZN10Qt3DRender6Render21UpdateEntityLayersJob3runEv
libQt63DRender.so.6:_ZN10Qt3DRender6Render21UpdateEntityLayersJobC1Ev
libQt63DRender.so.6:_ZN10Qt3DRender6Render21UpdateEntityLayersJobC2Ev
libQt63DRender.so.6:_ZN10Qt3DRender6Render22BlendEquationArguments16updatePropertiesEPKNS_12QRenderStateE
libQt63DRender.so.6:_ZN10Qt3DRender6Render22OffscreenSurfaceHelper11qt_metacallEN11QMetaObject4CallEiPPv
libQt63DRender.so.6:_ZN10Qt3DRender6Render22OffscreenSurfaceHelper11qt_metacastEPKc
libQt63DRender.so.6:_ZN10Qt3DRender6Render22OffscreenSurfaceHelper16staticMetaObjectE
libQt63DRender.so.6:_ZN10Qt3DRender6Render22OffscreenSurfaceHelper22createOffscreenSurfaceEv
libQt63DRender.so.6:_ZN10Qt3DRender6Render22OffscreenSurfaceHelperC1EPNS0_16AbstractRendererEP7QObject
libQt63DRender.so.6:_ZN10Qt3DRender6Render22OffscreenSurfaceHelperC2EPNS0_16AbstractRendererEP7QObject
libQt63DRender.so.6:_ZN10Qt3DRender6Render22QRenderPluginFactoryIf11qt_metacallEN11QMetaObject4CallEiPPv
libQt63DRender.so.6:_ZN10Qt3DRender6Render22QRenderPluginFactoryIf11qt_metacastEPKc
libQt63DRender.so.6:_ZN10Qt3DRender6Render22QRenderPluginFactoryIf16staticMetaObjectE
libQt63DRender.so.6:_ZN10Qt3DRender6Render22QRenderPluginFactoryIf6createERK7QStringRK5QListIS2_E
libQt63DRender.so.6:_ZN10Qt3DRender6Render22QRenderPluginFactoryIfC1EP7QObject
libQt63DRender.so.6:_ZN10Qt3DRender6Render22QRenderPluginFactoryIfC2EP7QObject
libQt63DRender.so.6:_ZN10Qt3DRender6Render22QRenderPluginFactoryIfD0Ev
libQt63DRender.so.6:_ZN10Qt3DRender6Render22QRenderPluginFactoryIfD1Ev
libQt63DRender.so.6:_ZN10Qt3DRender6Render22QRenderPluginFactoryIfD2Ev
libQt63DRender.so.6:_ZN10Qt3DRender6Render22QRendererPluginFactory4keysEv
libQt63DRender.so.6:_ZN10Qt3DRender6Render22QRendererPluginFactory6createERK7QString
libQt63DRender.so.6:_ZN10Qt3DRender6Render22UpdateLevelOfDetailJob11setManagersEPNS0_12NodeManagersE
libQt63DRender.so.6:_ZN10Qt3DRender6Render22UpdateLevelOfDetailJob17setFrameGraphRootEPNS0_14FrameGraphNodeE
libQt63DRender.so.6:_ZN10Qt3DRender6Render22UpdateLevelOfDetailJob3runEv
libQt63DRender.so.6:_ZN10Qt3DRender6Render22UpdateLevelOfDetailJob7setRootEPNS0_6EntityE
libQt63DRender.so.6:_ZN10Qt3DRender6Render22UpdateLevelOfDetailJobC1Ev
libQt63DRender.so.6:_ZN10Qt3DRender6Render22UpdateLevelOfDetailJobC2Ev
libQt63DRender.so.6:_ZN10Qt3DRender6Render22UpdateLevelOfDetailJobD0Ev
libQt63DRender.so.6:_ZN10Qt3DRender6Render22UpdateLevelOfDetailJobD1Ev
libQt63DRender.so.6:_ZN10Qt3DRender6Render22UpdateLevelOfDetailJobD2Ev
libQt63DRender.so.6:_ZN10Qt3DRender6Render22findTechniqueForEffectEPNS0_12NodeManagersEPKNS0_15TechniqueFilterEPNS0_6EffectE
libQt63DRender.so.6:_ZN10Qt3DRender6Render23ExpandBoundingVolumeJob11setManagersEPNS0_12NodeManagersE
libQt63DRender.so.6:_ZN10Qt3DRender6Render23ExpandBoundingVolumeJob3runEv
libQt63DRender.so.6:_ZN10Qt3DRender6Render23ExpandBoundingVolumeJob7setRootEPNS0_6EntityE
libQt63DRender.so.6:_ZN10Qt3DRender6Render23ExpandBoundingVolumeJobC1Ev
libQt63DRender.so.6:_ZN10Qt3DRender6Render23ExpandBoundingVolumeJobC2Ev
libQt63DRender.so.6:_ZN10Qt3DRender6Render23GeometryRendererManager22dirtyGeometryRenderersEv
libQt63DRender.so.6:_ZN10Qt3DRender6Render23GeometryRendererManager24addDirtyGeometryRendererEN8Qt3DCore7QNodeIdE
libQt63DRender.so.6:_ZN10Qt3DRender6Render23GeometryRendererManagerC1Ev
libQt63DRender.so.6:_ZN10Qt3DRender6Render23GeometryRendererManagerC2Ev
libQt63DRender.so.6:_ZN10Qt3DRender6Render23GeometryRendererManagerD1Ev
libQt63DRender.so.6:_ZN10Qt3DRender6Render23GeometryRendererManagerD2Ev
libQt63DRender.so.6:_ZN10Qt3DRender6Render23UpdateWorldTransformJob11setManagersEPNS0_12NodeManagersE
libQt63DRender.so.6:_ZN10Qt3DRender6Render23UpdateWorldTransformJob3runEv
libQt63DRender.so.6:_ZN10Qt3DRender6Render23UpdateWorldTransformJob7setRootEPNS0_6EntityE
libQt63DRender.so.6:_ZN10Qt3DRender6Render23UpdateWorldTransformJobC1Ev
libQt63DRender.so.6:_ZN10Qt3DRender6Render23UpdateWorldTransformJobC2Ev
libQt63DRender.so.6:_ZN10Qt3DRender6Render24UniformBlockValueBuilder36buildActiveUniformNameValueMapHelperEPKNS0_10ShaderDataERK7QStringiiPKNS2_13PropertyValueE
libQt63DRender.so.6:_ZN10Qt3DRender6Render24UniformBlockValueBuilder42buildActiveUniformNameValueMapStructHelperEPNS0_10ShaderDataERK7QStringS6_
libQt63DRender.so.6:_ZN10Qt3DRender6Render24UniformBlockValueBuilderC1ERKSt6vectorIiSaIiEEPNS0_17ShaderDataManagerEPNS0_14TextureManagerERKN8Qt3DCore13Matrix4x4_SSEE
libQt63DRender.so.6:_ZN10Qt3DRender6Render24UniformBlockValueBuilderC2ERKSt6vectorIiSaIiEEPNS0_17ShaderDataManagerEPNS0_14TextureManagerERKN8Qt3DCore13Matrix4x4_SSEE
libQt63DRender.so.6:_ZN10Qt3DRender6Render24UpdateSkinningPaletteJob3runEv
libQt63DRender.so.6:_ZN10Qt3DRender6Render24UpdateSkinningPaletteJobC1Ev
libQt63DRender.so.6:_ZN10Qt3DRender6Render24UpdateSkinningPaletteJobC2Ev
libQt63DRender.so.6:_ZN10Qt3DRender6Render24UpdateSkinningPaletteJobD0Ev
libQt63DRender.so.6:_ZN10Qt3DRender6Render24UpdateSkinningPaletteJobD1Ev
libQt63DRender.so.6:_ZN10Qt3DRender6Render24UpdateSkinningPaletteJobD2Ev
libQt63DRender.so.6:_ZN10Qt3DRender6Render24VSyncFrameAdvanceService16waitForNextFrameEv
libQt63DRender.so.6:_ZN10Qt3DRender6Render24VSyncFrameAdvanceService18proceedToNextFrameEv
libQt63DRender.so.6:_ZN10Qt3DRender6Render24VSyncFrameAdvanceService4stopEv
libQt63DRender.so.6:_ZN10Qt3DRender6Render24VSyncFrameAdvanceService5startEv
libQt63DRender.so.6:_ZN10Qt3DRender6Render24VSyncFrameAdvanceServiceC1Eb
libQt63DRender.so.6:_ZN10Qt3DRender6Render24VSyncFrameAdvanceServiceC2Eb
libQt63DRender.so.6:_ZN10Qt3DRender6Render24VSyncFrameAdvanceServiceD0Ev
libQt63DRender.so.6:_ZN10Qt3DRender6Render24VSyncFrameAdvanceServiceD1Ev
libQt63DRender.so.6:_ZN10Qt3DRender6Render24VSyncFrameAdvanceServiceD2Ev
libQt63DRender.so.6:_ZN10Qt3DRender6Render24findIdealNumberOfWorkersEiii
libQt63DRender.so.6:_ZN10Qt3DRender6Render25addStatesToRenderStateSetEPNS0_14RenderStateSetE5QListIN8Qt3DCore7QNodeIdEEPNS0_18RenderStateManagerE
libQt63DRender.so.6:_ZN10Qt3DRender6Render26CalculateBoundingVolumeJob11setManagersEPNS0_12NodeManagersE
libQt63DRender.so.6:_ZN10Qt3DRender6Render26CalculateBoundingVolumeJob22setFrontEndNodeManagerEPN8Qt3DCore28QAbstractFrontEndNodeManagerE
libQt63DRender.so.6:_ZN10Qt3DRender6Render26CalculateBoundingVolumeJob3runEv
libQt63DRender.so.6:_ZN10Qt3DRender6Render26CalculateBoundingVolumeJob7processERKN8Qt3DCore27BoundingVolumeComputeResultEb
libQt63DRender.so.6:_ZN10Qt3DRender6Render26CalculateBoundingVolumeJob7setRootEPNS0_6EntityE
libQt63DRender.so.6:_ZN10Qt3DRender6Render26CalculateBoundingVolumeJob9postFrameEPN8Qt3DCore13QAspectEngineE
libQt63DRender.so.6:_ZN10Qt3DRender6Render26CalculateBoundingVolumeJobC1Ev
libQt63DRender.so.6:_ZN10Qt3DRender6Render26CalculateBoundingVolumeJobC2Ev
libQt63DRender.so.6:_ZN10Qt3DRender6Render26FilterProximityDistanceJob10isRequiredEv
libQt63DRender.so.6:_ZN10Qt3DRender6Render26FilterProximityDistanceJob14filterEntitiesERKSt6vectorIPNS0_6EntityESaIS4_EE
libQt63DRender.so.6:_ZN10Qt3DRender6Render26FilterProximityDistanceJob17selectAllEntitiesEv
libQt63DRender.so.6:_ZN10Qt3DRender6Render26FilterProximityDistanceJob3runEv
libQt63DRender.so.6:_ZN10Qt3DRender6Render26FilterProximityDistanceJobC1Ev
libQt63DRender.so.6:_ZN10Qt3DRender6Render26FilterProximityDistanceJobC2Ev
libQt63DRender.so.6:_ZN10Qt3DRender6Render26FilterProximityDistanceJobD0Ev
libQt63DRender.so.6:_ZN10Qt3DRender6Render26FilterProximityDistanceJobD1Ev
libQt63DRender.so.6:_ZN10Qt3DRender6Render26FilterProximityDistanceJobD2Ev
libQt63DRender.so.6:_ZN10Qt3DRender6Render28FilterCompatibleTechniqueJob10setManagerEPNS0_16TechniqueManagerE
libQt63DRender.so.6:_ZN10Qt3DRender6Render28FilterCompatibleTechniqueJob11setRendererEPNS0_16AbstractRendererE
libQt63DRender.so.6:_ZN10Qt3DRender6Render28FilterCompatibleTechniqueJob3runEv
libQt63DRender.so.6:_ZN10Qt3DRender6Render28FilterCompatibleTechniqueJobC1Ev
libQt63DRender.so.6:_ZN10Qt3DRender6Render28FilterCompatibleTechniqueJobC2Ev
libQt63DRender.so.6:_ZN10Qt3DRender6Render28MaterialParameterGathererJob3runEv
libQt63DRender.so.6:_ZN10Qt3DRender6Render28MaterialParameterGathererJobC1Ev
libQt63DRender.so.6:_ZN10Qt3DRender6Render28MaterialParameterGathererJobC2Ev
libQt63DRender.so.6:_ZN10Qt3DRender6Render28UpdateShaderDataTransformJob11setManagersEPNS0_12NodeManagersE
libQt63DRender.so.6:_ZN10Qt3DRender6Render28UpdateShaderDataTransformJob3runEv
libQt63DRender.so.6:_ZN10Qt3DRender6Render28UpdateShaderDataTransformJobC1Ev
libQt63DRender.so.6:_ZN10Qt3DRender6Render28UpdateShaderDataTransformJobC2Ev
libQt63DRender.so.6:_ZN10Qt3DRender6Render28UpdateShaderDataTransformJobD0Ev
libQt63DRender.so.6:_ZN10Qt3DRender6Render28UpdateShaderDataTransformJobD1Ev
libQt63DRender.so.6:_ZN10Qt3DRender6Render28UpdateShaderDataTransformJobD2Ev
libQt63DRender.so.6:_ZN10Qt3DRender6Render28UpdateWorldBoundingVolumeJob3runEv
libQt63DRender.so.6:_ZN10Qt3DRender6Render28UpdateWorldBoundingVolumeJobC1Ev
libQt63DRender.so.6:_ZN10Qt3DRender6Render28UpdateWorldBoundingVolumeJobC2Ev
libQt63DRender.so.6:_ZN10Qt3DRender6Render28findRenderPassesForTechniqueEPNS0_12NodeManagersEPKNS0_16RenderPassFilterEPNS0_9TechniqueE
libQt63DRender.so.6:_ZN10Qt3DRender6Render29RenderBackendResourceAccessorD0Ev
libQt63DRender.so.6:_ZN10Qt3DRender6Render29RenderBackendResourceAccessorD1Ev
libQt63DRender.so.6:_ZN10Qt3DRender6Render29RenderBackendResourceAccessorD2Ev
libQt63DRender.so.6:_ZN10Qt3DRender6Render30UpdateWorldTransformJobPrivate9postFrameEPN8Qt3DCore14QAspectManagerE
libQt63DRender.so.6:_ZN10Qt3DRender6Render32ComputeFilteredBoundingVolumeJob11setManagersEPNS0_12NodeManagersE
libQt63DRender.so.6:_ZN10Qt3DRender6Render32ComputeFilteredBoundingVolumeJob13ignoreSubTreeEPNS0_6EntityE
libQt63DRender.so.6:_ZN10Qt3DRender6Render32ComputeFilteredBoundingVolumeJob3runEv
libQt63DRender.so.6:_ZN10Qt3DRender6Render32ComputeFilteredBoundingVolumeJob7setRootEPNS0_6EntityE
libQt63DRender.so.6:_ZN10Qt3DRender6Render32ComputeFilteredBoundingVolumeJob8finishedEPN8Qt3DCore14QAspectManagerERKNS0_6SphereE
libQt63DRender.so.6:_ZN10Qt3DRender6Render32ComputeFilteredBoundingVolumeJobC1Ev
libQt63DRender.so.6:_ZN10Qt3DRender6Render32ComputeFilteredBoundingVolumeJobC2Ev
libQt63DRender.so.6:_ZN10Qt3DRender6Render37parametersFromMaterialEffectTechniqueEP5QListINS0_13ParameterInfoEEPNS0_16ParameterManagerEPNS0_8MaterialEPNS0_6EffectEPNS0_9TechniqueE
libQt63DRender.so.6:_ZN10Qt3DRender6Render5Joint16syncFromFrontEndEPKN8Qt3DCore5QNodeEb
libQt63DRender.so.6:_ZN10Qt3DRender6Render5Joint7cleanupEv
libQt63DRender.so.6:_ZN10Qt3DRender6Render5JointC1Ev
libQt63DRender.so.6:_ZN10Qt3DRender6Render5JointC2Ev
libQt63DRender.so.6:_ZN10Qt3DRender6Render5Light16syncFromFrontEndEPKN8Qt3DCore5QNodeEb
libQt63DRender.so.6:_ZN10Qt3DRender6Render5Scene15setSceneManagerEPNS0_12SceneManagerE
libQt63DRender.so.6:_ZN10Qt3DRender6Render5Scene16syncFromFrontEndEPKN8Qt3DCore5QNodeEb
libQt63DRender.so.6:_ZN10Qt3DRender6Render5Scene7cleanupEv
libQt63DRender.so.6:_ZN10Qt3DRender6Render5SceneC1Ev
libQt63DRender.so.6:_ZN10Qt3DRender6Render5SceneC2Ev
libQt63DRender.so.6:_ZN10Qt3DRender6Render6Buffer10setManagerEPNS0_13BufferManagerE
libQt63DRender.so.6:_ZN10Qt3DRender6Render6Buffer10unsetDirtyEv
libQt63DRender.so.6:_ZN10Qt3DRender6Render6Buffer15forceDataUploadEv
libQt63DRender.so.6:_ZN10Qt3DRender6Render6Buffer16syncFromFrontEndEPKN8Qt3DCore5QNodeEb
libQt63DRender.so.6:_ZN10Qt3DRender6Render6Buffer22updateDataFromGPUToCPUE10QByteArray
libQt63DRender.so.6:_ZN10Qt3DRender6Render6Buffer7cleanupEv
libQt63DRender.so.6:_ZN10Qt3DRender6Render6BufferC1Ev
libQt63DRender.so.6:_ZN10Qt3DRender6Render6BufferC2Ev
libQt63DRender.so.6:_ZN10Qt3DRender6Render6BufferD0Ev
libQt63DRender.so.6:_ZN10Qt3DRender6Render6BufferD1Ev
libQt63DRender.so.6:_ZN10Qt3DRender6Render6BufferD2Ev
libQt63DRender.so.6:_ZN10Qt3DRender6Render6Effect16syncFromFrontEndEPKN8Qt3DCore5QNodeEb
libQt63DRender.so.6:_ZN10Qt3DRender6Render6Effect21appendRenderTechniqueEN8Qt3DCore7QNodeIdE
libQt63DRender.so.6:_ZN10Qt3DRender6Render6Effect7cleanupEv
libQt63DRender.so.6:_ZN10Qt3DRender6Render6EffectC1Ev
libQt63DRender.so.6:_ZN10Qt3DRender6Render6EffectC2Ev
libQt63DRender.so.6:_ZN10Qt3DRender6Render6EffectD0Ev
libQt63DRender.so.6:_ZN10Qt3DRender6Render6EffectD1Ev
libQt63DRender.so.6:_ZN10Qt3DRender6Render6EffectD2Ev
libQt63DRender.so.6:_ZN10Qt3DRender6Render6Entity12addComponentEN8Qt3DCore15QNodeIdTypePairE
libQt63DRender.so.6:_ZN10Qt3DRender6Render6Entity14worldTransformEv
libQt63DRender.so.6:_ZN10Qt3DRender6Render6Entity15removeComponentEN8Qt3DCore7QNodeIdE
libQt63DRender.so.6:_ZN10Qt3DRender6Render6Entity15setNodeManagersEPNS0_12NodeManagersE
libQt63DRender.so.6:_ZN10Qt3DRender6Render6Entity15setParentHandleEN8Qt3DCore7QHandleIS1_EE
libQt63DRender.so.6:_ZN10Qt3DRender6Render6Entity16syncFromFrontEndEPKN8Qt3DCore5QNodeEb
libQt63DRender.so.6:_ZN10Qt3DRender6Render6Entity19addRecursiveLayerIdEN8Qt3DCore7QNodeIdE
libQt63DRender.so.6:_ZN10Qt3DRender6Render6Entity22removeRecursiveLayerIdEN8Qt3DCore7QNodeIdE
libQt63DRender.so.6:_ZN10Qt3DRender6Render6Entity24unsetBoundingVolumeDirtyEv
libQt63DRender.so.6:_ZN10Qt3DRender6Render6Entity28removeFromParentChildHandlesEv
libQt63DRender.so.6:_ZN10Qt3DRender6Render6Entity7cleanupEv
libQt63DRender.so.6:_ZN10Qt3DRender6Render6Entity8traverseERKSt8functionIFvPS1_EE
libQt63DRender.so.6:_ZN10Qt3DRender6Render6Entity9setHandleEN8Qt3DCore7QHandleIS1_EE
libQt63DRender.so.6:_ZN10Qt3DRender6Render6EntityC1Ev
libQt63DRender.so.6:_ZN10Qt3DRender6Render6EntityC2Ev
libQt63DRender.so.6:_ZN10Qt3DRender6Render6EntityD0Ev
libQt63DRender.so.6:_ZN10Qt3DRender6Render6EntityD1Ev
libQt63DRender.so.6:_ZN10Qt3DRender6Render6EntityD2Ev
libQt63DRender.so.6:_ZN10Qt3DRender6Render6NoDrawC1Ev
libQt63DRender.so.6:_ZN10Qt3DRender6Render6NoDrawC2Ev
libQt63DRender.so.6:_ZN10Qt3DRender6Render6NoDrawD0Ev
libQt63DRender.so.6:_ZN10Qt3DRender6Render6NoDrawD1Ev
libQt63DRender.so.6:_ZN10Qt3DRender6Render6NoDrawD2Ev
libQt63DRender.so.6:_ZN10Qt3DRender6Render6Shader10timeNameIdE
libQt63DRender.so.6:_ZN10Qt3DRender6Render6Shader10yUpInFBOIdE
libQt63DRender.so.6:_ZN10Qt3DRender6Render6Shader10yUpInNDCIdE
libQt63DRender.so.6:_ZN10Qt3DRender6Render6Shader11gammaNameIdE
libQt63DRender.so.6:_ZN10Qt3DRender6Render6Shader13setShaderCodeENS_14QShaderProgram10ShaderTypeERK10QByteArray
libQt63DRender.so.6:_ZN10Qt3DRender6Render6Shader14exposureNameIdE
libQt63DRender.so.6:_ZN10Qt3DRender6Render6Shader16syncFromFrontEndEPKN8Qt3DCore5QNodeEb
libQt63DRender.so.6:_ZN10Qt3DRender6Render6Shader16viewMatrixNameIdE
libQt63DRender.so.6:_ZN10Qt3DRender6Render6Shader17aspectRatioNameIdE
libQt63DRender.so.6:_ZN10Qt3DRender6Render6Shader17eyePositionNameIdE
libQt63DRender.so.6:_ZN10Qt3DRender6Render6Shader17modelMatrixNameIdE
libQt63DRender.so.6:_ZN10Qt3DRender6Render6Shader19requestCacheRebuildEv
libQt63DRender.so.6:_ZN10Qt3DRender6Render6Shader20viewportMatrixNameIdE
libQt63DRender.so.6:_ZN10Qt3DRender6Render6Shader21modelViewMatrixNameIdE
libQt63DRender.so.6:_ZN10Qt3DRender6Render6Shader21modelViewNormalNameIdE
libQt63DRender.so.6:_ZN10Qt3DRender6Render6Shader21skinningPaletteNameIdE
libQt63DRender.so.6:_ZN10Qt3DRender6Render6Shader22inverseModelViewNameIdE
libQt63DRender.so.6:_ZN10Qt3DRender6Render6Shader22projectionMatrixNameIdE
libQt63DRender.so.6:_ZN10Qt3DRender6Render6Shader23initializeFromReferenceERKS1_
libQt63DRender.so.6:_ZN10Qt3DRender6Render6Shader23inverseViewMatrixNameIdE
libQt63DRender.so.6:_ZN10Qt3DRender6Render6Shader23modelNormalMatrixNameIdE
libQt63DRender.so.6:_ZN10Qt3DRender6Render6Shader24inverseModelMatrixNameIdE
