kcompletion5widgets.so:qt_plugin_instance
kcompletion5widgets.so:qt_plugin_query_metadata
libKF5Completion.so.5:_ZN11KCompletion10allMatchesERK7QString
libKF5Completion.so.5:_ZN11KCompletion10allMatchesEv
libKF5Completion.so.5:_ZN11KCompletion10removeItemERK7QString
libKF5Completion.so.5:_ZN11KCompletion11insertItemsERK11QStringList
libKF5Completion.so.5:_ZN11KCompletion11qt_metacallEN11QMetaObject4CallEiPPv
libKF5Completion.so.5:_ZN11KCompletion11qt_metacastEPKc
libKF5Completion.so.5:_ZN11KCompletion13previousMatchEv
libKF5Completion.so.5:_ZN11KCompletion13setIgnoreCaseEb
libKF5Completion.so.5:_ZN11KCompletion14makeCompletionERK7QString
libKF5Completion.so.5:_ZN11KCompletion15multipleMatchesEv
libKF5Completion.so.5:_ZN11KCompletion16setSoundsEnabledEb
libKF5Completion.so.5:_ZN11KCompletion16staticMetaObjectE
libKF5Completion.so.5:_ZN11KCompletion17setCompletionModeENS_14CompletionModeE
libKF5Completion.so.5:_ZN11KCompletion18allWeightedMatchesERK7QString
libKF5Completion.so.5:_ZN11KCompletion18allWeightedMatchesEv
libKF5Completion.so.5:_ZN11KCompletion20setShouldAutoSuggestEb
libKF5Completion.so.5:_ZN11KCompletion5clearEv
libKF5Completion.so.5:_ZN11KCompletion5matchERK7QString
libKF5Completion.so.5:_ZN11KCompletion7addItemERK7QString
libKF5Completion.so.5:_ZN11KCompletion7addItemERK7QStringj
libKF5Completion.so.5:_ZN11KCompletion7matchesERK11QStringList
libKF5Completion.so.5:_ZN11KCompletion8setItemsERK11QStringList
libKF5Completion.so.5:_ZN11KCompletion8setOrderENS_9CompOrderE
libKF5Completion.so.5:_ZN11KCompletion9nextMatchEv
libKF5Completion.so.5:_ZN11KCompletionC1Ev
libKF5Completion.so.5:_ZN11KCompletionC2Ev
libKF5Completion.so.5:_ZN11KCompletionD0Ev
libKF5Completion.so.5:_ZN11KCompletionD1Ev
libKF5Completion.so.5:_ZN11KCompletionD2Ev
libKF5Completion.so.5:_ZN13KCompTreeNode6insertERK5QCharb
libKF5Completion.so.5:_ZN13KCompTreeNode6removeERK7QString
libKF5Completion.so.5:_ZN13KCompTreeNode7m_allocE
libKF5Completion.so.5:_ZN13KCompTreeNodeD1Ev
libKF5Completion.so.5:_ZN13KCompTreeNodeD2Ev
libKF5Completion.so.5:_ZN14KCompletionBox10setVisibleEb
libKF5Completion.so.5:_ZN14KCompletionBox11eventFilterEP7QObjectP6QEvent
libKF5Completion.so.5:_ZN14KCompletionBox11insertItemsERK11QStringListi
libKF5Completion.so.5:_ZN14KCompletionBox11qt_metacallEN11QMetaObject4CallEiPPv
libKF5Completion.so.5:_ZN14KCompletionBox11qt_metacastEPKc
libKF5Completion.so.5:_ZN14KCompletionBox13slotActivatedEP15QListWidgetItem
libKF5Completion.so.5:_ZN14KCompletionBox13textActivatedERK7QString
libKF5Completion.so.5:_ZN14KCompletionBox13userCancelledERK7QString
libKF5Completion.so.5:_ZN14KCompletionBox14setTabHandlingEb
libKF5Completion.so.5:_ZN14KCompletionBox16setCancelledTextERK7QString
libKF5Completion.so.5:_ZN14KCompletionBox16staticMetaObjectE
libKF5Completion.so.5:_ZN14KCompletionBox19resizeAndRepositionEv
libKF5Completion.so.5:_ZN14KCompletionBox19setActivateOnSelectEb
libKF5Completion.so.5:_ZN14KCompletionBox2upEv
libKF5Completion.so.5:_ZN14KCompletionBox3endEv
libKF5Completion.so.5:_ZN14KCompletionBox4downEv
libKF5Completion.so.5:_ZN14KCompletionBox4homeEv
libKF5Completion.so.5:_ZN14KCompletionBox5popupEv
libKF5Completion.so.5:_ZN14KCompletionBox6pageUpEv
libKF5Completion.so.5:_ZN14KCompletionBox8pageDownEv
libKF5Completion.so.5:_ZN14KCompletionBox8setItemsERK11QStringList
libKF5Completion.so.5:_ZN14KCompletionBox9activatedERK7QString
libKF5Completion.so.5:_ZN14KCompletionBoxC1EP7QWidget
libKF5Completion.so.5:_ZN14KCompletionBoxC2EP7QWidget
libKF5Completion.so.5:_ZN14KCompletionBoxD0Ev
libKF5Completion.so.5:_ZN14KCompletionBoxD1Ev
libKF5Completion.so.5:_ZN14KCompletionBoxD2Ev
libKF5Completion.so.5:_ZN15KCompletionBase11setDelegateEPS_
libKF5Completion.so.5:_ZN15KCompletionBase12virtual_hookEiPv
libKF5Completion.so.5:_ZN15KCompletionBase13setKeyBindingENS_14KeyBindingTypeERK5QListI12QKeySequenceE
libKF5Completion.so.5:_ZN15KCompletionBase14setEmitSignalsEb
libKF5Completion.so.5:_ZN15KCompletionBase16completionObjectEb
libKF5Completion.so.5:_ZN15KCompletionBase16setEnableSignalsEb
libKF5Completion.so.5:_ZN15KCompletionBase16setHandleSignalsEb
libKF5Completion.so.5:_ZN15KCompletionBase16setKeyBindingMapE4QMapINS_14KeyBindingTypeE5QListI12QKeySequenceEE
libKF5Completion.so.5:_ZN15KCompletionBase17setCompletionModeEN11KCompletion14CompletionModeE
libKF5Completion.so.5:_ZN15KCompletionBase19setCompletionObjectEP11KCompletionb
libKF5Completion.so.5:_ZN15KCompletionBase20useGlobalKeyBindingsEv
libKF5Completion.so.5:_ZN15KCompletionBase29setAutoDeleteCompletionObjectEb
libKF5Completion.so.5:_ZN15KCompletionBaseC1Ev
libKF5Completion.so.5:_ZN15KCompletionBaseC2Ev
libKF5Completion.so.5:_ZN15KCompletionBaseD0Ev
libKF5Completion.so.5:_ZN15KCompletionBaseD1Ev
libKF5Completion.so.5:_ZN15KCompletionBaseD2Ev
libKF5Completion.so.5:_ZN15KPixmapProvider12virtual_hookEiPv
libKF5Completion.so.5:_ZN15KPixmapProviderD0Ev
libKF5Completion.so.5:_ZN15KPixmapProviderD1Ev
libKF5Completion.so.5:_ZN15KPixmapProviderD2Ev
libKF5Completion.so.5:_ZN16KHistoryComboBox10wheelEventEP11QWheelEvent
libKF5Completion.so.5:_ZN16KHistoryComboBox11insertItemsERK11QStringList
libKF5Completion.so.5:_ZN16KHistoryComboBox11qt_metacallEN11QMetaObject4CallEiPPv
libKF5Completion.so.5:_ZN16KHistoryComboBox11qt_metacastEPKc
libKF5Completion.so.5:_ZN16KHistoryComboBox12addToHistoryERK7QString
libKF5Completion.so.5:_ZN16KHistoryComboBox12clearHistoryEv
libKF5Completion.so.5:_ZN16KHistoryComboBox13keyPressEventEP9QKeyEvent
libKF5Completion.so.5:_ZN16KHistoryComboBox15setHistoryItemsERK11QStringList
libKF5Completion.so.5:_ZN16KHistoryComboBox15setHistoryItemsERK11QStringListb
libKF5Completion.so.5:_ZN16KHistoryComboBox15setIconProviderESt8functionIF5QIconRK7QStringEE
libKF5Completion.so.5:_ZN16KHistoryComboBox16staticMetaObjectE
libKF5Completion.so.5:_ZN16KHistoryComboBox17removeFromHistoryERK7QString
libKF5Completion.so.5:_ZN16KHistoryComboBox17setPixmapProviderEP15KPixmapProvider
libKF5Completion.so.5:_ZN16KHistoryComboBox5resetEv
libKF5Completion.so.5:_ZN16KHistoryComboBox7clearedEv
libKF5Completion.so.5:_ZN16KHistoryComboBoxC1EP7QWidget
libKF5Completion.so.5:_ZN16KHistoryComboBoxC1EbP7QWidget
libKF5Completion.so.5:_ZN16KHistoryComboBoxC2EP7QWidget
libKF5Completion.so.5:_ZN16KHistoryComboBoxC2EbP7QWidget
libKF5Completion.so.5:_ZN16KHistoryComboBoxD0Ev
libKF5Completion.so.5:_ZN16KHistoryComboBoxD1Ev
libKF5Completion.so.5:_ZN16KHistoryComboBoxD2Ev
libKF5Completion.so.5:_ZN17KCompTreeNodeList6appendEP13KCompTreeNode
libKF5Completion.so.5:_ZN17KCompTreeNodeList6insertEP13KCompTreeNodeS1_
libKF5Completion.so.5:_ZN17KCompTreeNodeList6removeEP13KCompTreeNode
libKF5Completion.so.5:_ZN17KCompTreeNodeList7prependEP13KCompTreeNode
libKF5Completion.so.5:_ZN18KCompletionMatches16removeDuplicatesEv
libKF5Completion.so.5:_ZN18KCompletionMatchesC1ERK25KCompletionMatchesWrapper
libKF5Completion.so.5:_ZN18KCompletionMatchesC1ERKS_
libKF5Completion.so.5:_ZN18KCompletionMatchesC1Eb
libKF5Completion.so.5:_ZN18KCompletionMatchesC2ERK25KCompletionMatchesWrapper
libKF5Completion.so.5:_ZN18KCompletionMatchesC2ERKS_
libKF5Completion.so.5:_ZN18KCompletionMatchesC2Eb
libKF5Completion.so.5:_ZN18KCompletionMatchesD1Ev
libKF5Completion.so.5:_ZN18KCompletionMatchesD2Ev
libKF5Completion.so.5:_ZN18KCompletionMatchesaSERKS_
libKF5Completion.so.5:_ZN25KCompletionMatchesWrapper18findAllCompletionsEPK13KCompTreeNodeRK7QStringbRb
libKF5Completion.so.5:_ZN25KCompletionMatchesWrapper22extractStringsFromNodeEPK13KCompTreeNodeRK7QStringb
libKF5Completion.so.5:_ZN25KCompletionMatchesWrapper24extractStringsFromNodeCIEPK13KCompTreeNodeRK7QStringS5_
libKF5Completion.so.5:_ZN9KComboBox10completionERK7QString
libKF5Completion.so.5:_ZN9KComboBox10rotateTextEN15KCompletionBase14KeyBindingTypeE
libKF5Completion.so.5:_ZN9KComboBox10setEditUrlERK4QUrl
libKF5Completion.so.5:_ZN9KComboBox11qt_metacallEN11QMetaObject4CallEiPPv
libKF5Completion.so.5:_ZN9KComboBox11qt_metacastEPKc
libKF5Completion.so.5:_ZN9KComboBox11setEditableEb
libKF5Completion.so.5:_ZN9KComboBox11setLineEditEP9QLineEdit
libKF5Completion.so.5:_ZN9KComboBox12textRotationEN15KCompletionBase14KeyBindingTypeE
libKF5Completion.so.5:_ZN9KComboBox13completionBoxEb
libKF5Completion.so.5:_ZN9KComboBox13returnPressedERK7QString
libKF5Completion.so.5:_ZN9KComboBox13returnPressedEv
libKF5Completion.so.5:_ZN9KComboBox14makeCompletionERK7QString
libKF5Completion.so.5:_ZN9KComboBox14setCurrentItemERK7QStringbi
libKF5Completion.so.5:_ZN9KComboBox16setCompletedTextERK7QString
libKF5Completion.so.5:_ZN9KComboBox16setCompletedTextERK7QStringb
libKF5Completion.so.5:_ZN9KComboBox16setTrapReturnKeyEb
libKF5Completion.so.5:_ZN9KComboBox16staticMetaObjectE
libKF5Completion.so.5:_ZN9KComboBox17setAutoCompletionEb
libKF5Completion.so.5:_ZN9KComboBox17setCompletedItemsERK11QStringListb
libKF5Completion.so.5:_ZN9KComboBox18setUrlDropsEnabledEb
libKF5Completion.so.5:_ZN9KComboBox19substringCompletionERK7QString
libKF5Completion.so.5:_ZN9KComboBox21completionModeChangedEN11KCompletion14CompletionModeE
libKF5Completion.so.5:_ZN9KComboBox21setContextMenuEnabledEb
libKF5Completion.so.5:_ZN9KComboBox22aboutToShowContextMenuEP5QMenu
libKF5Completion.so.5:_ZN9KComboBox6addUrlERK4QUrl
libKF5Completion.so.5:_ZN9KComboBox6addUrlERK5QIconRK4QUrl
libKF5Completion.so.5:_ZN9KComboBox9changeUrlEiRK4QUrl
libKF5Completion.so.5:_ZN9KComboBox9changeUrlEiRK5QIconRK4QUrl
libKF5Completion.so.5:_ZN9KComboBox9insertUrlEiRK4QUrl
libKF5Completion.so.5:_ZN9KComboBox9insertUrlEiRK5QIconRK4QUrl
libKF5Completion.so.5:_ZN9KComboBoxC1EP7QWidget
libKF5Completion.so.5:_ZN9KComboBoxC1ER16KComboBoxPrivateP7QWidget
libKF5Completion.so.5:_ZN9KComboBoxC1EbP7QWidget
libKF5Completion.so.5:_ZN9KComboBoxC2EP7QWidget
libKF5Completion.so.5:_ZN9KComboBoxC2ER16KComboBoxPrivateP7QWidget
libKF5Completion.so.5:_ZN9KComboBoxC2EbP7QWidget
libKF5Completion.so.5:_ZN9KComboBoxD0Ev
libKF5Completion.so.5:_ZN9KComboBoxD1Ev
libKF5Completion.so.5:_ZN9KComboBoxD2Ev
libKF5Completion.so.5:_ZN9KLineEdit10completionERK7QString
libKF5Completion.so.5:_ZN9KLineEdit10paintEventEP11QPaintEvent
libKF5Completion.so.5:_ZN9KLineEdit10rotateTextEN15KCompletionBase14KeyBindingTypeE
libKF5Completion.so.5:_ZN9KLineEdit11qt_metacallEN11QMetaObject4CallEiPPv
libKF5Completion.so.5:_ZN9KLineEdit11qt_metacastEPKc
libKF5Completion.so.5:_ZN9KLineEdit11resizeEventEP12QResizeEvent
libKF5Completion.so.5:_ZN9KLineEdit11setReadOnlyEb
libKF5Completion.so.5:_ZN9KLineEdit12doCompletionERK7QString
libKF5Completion.so.5:_ZN9KLineEdit12textRotationEN15KCompletionBase14KeyBindingTypeE
libKF5Completion.so.5:_ZN9KLineEdit13completionBoxEb
libKF5Completion.so.5:_ZN9KLineEdit13keyPressEventEP9QKeyEvent
libKF5Completion.so.5:_ZN9KLineEdit13returnPressedERK7QString
libKF5Completion.so.5:_ZN9KLineEdit13userCancelledERK7QString
libKF5Completion.so.5:_ZN9KLineEdit14makeCompletionERK7QString
libKF5Completion.so.5:_ZN9KLineEdit15mousePressEventEP11QMouseEvent
libKF5Completion.so.5:_ZN9KLineEdit15setClickMessageERK7QString
libKF5Completion.so.5:_ZN9KLineEdit15setPasswordModeEb
libKF5Completion.so.5:_ZN9KLineEdit15setSqueezedTextERK7QString
libKF5Completion.so.5:_ZN9KLineEdit15userTextChangedERK7QString
libKF5Completion.so.5:_ZN9KLineEdit16contextMenuEventEP17QContextMenuEvent
libKF5Completion.so.5:_ZN9KLineEdit16returnKeyPressedERK7QString
libKF5Completion.so.5:_ZN9KLineEdit16setCompletedTextERK7QString
libKF5Completion.so.5:_ZN9KLineEdit16setCompletedTextERK7QStringb
libKF5Completion.so.5:_ZN9KLineEdit16setCompletionBoxEP14KCompletionBox
libKF5Completion.so.5:_ZN9KLineEdit16setTrapReturnKeyEb
libKF5Completion.so.5:_ZN9KLineEdit16setUserSelectionEb
libKF5Completion.so.5:_ZN9KLineEdit16staticMetaObjectE
libKF5Completion.so.5:_ZN9KLineEdit17mouseReleaseEventEP11QMouseEvent
libKF5Completion.so.5:_ZN9KLineEdit17setCompletedItemsERK11QStringListb
libKF5Completion.so.5:_ZN9KLineEdit17setCompletionModeEN11KCompletion14CompletionModeE
libKF5Completion.so.5:_ZN9KLineEdit18clearButtonClickedEv
libKF5Completion.so.5:_ZN9KLineEdit18setUrlDropsEnabledEb
libKF5Completion.so.5:_ZN9KLineEdit19setClearButtonShownEb
libKF5Completion.so.5:_ZN9KLineEdit19setCompletionObjectEP11KCompletionb
libKF5Completion.so.5:_ZN9KLineEdit19substringCompletionERK7QString
libKF5Completion.so.5:_ZN9KLineEdit21completionModeChangedEN11KCompletion14CompletionModeE
libKF5Completion.so.5:_ZN9KLineEdit21mouseDoubleClickEventEP11QMouseEvent
libKF5Completion.so.5:_ZN9KLineEdit21setContextMenuEnabledEb
libKF5Completion.so.5:_ZN9KLineEdit22aboutToShowContextMenuEP5QMenu
libKF5Completion.so.5:_ZN9KLineEdit22completionBoxActivatedERK7QString
libKF5Completion.so.5:_ZN9KLineEdit22setSqueezedTextEnabledEb
libKF5Completion.so.5:_ZN9KLineEdit25createStandardContextMenuEv
libKF5Completion.so.5:_ZN9KLineEdit25setCompletionModeDisabledEN11KCompletion14CompletionModeEb
libKF5Completion.so.5:_ZN9KLineEdit5eventEP6QEvent
libKF5Completion.so.5:_ZN9KLineEdit6setUrlERK4QUrl
libKF5Completion.so.5:_ZN9KLineEdit7setTextERK7QString
libKF5Completion.so.5:_ZN9KLineEditC1EP7QWidget
libKF5Completion.so.5:_ZN9KLineEditC1ERK7QStringP7QWidget
libKF5Completion.so.5:_ZN9KLineEditC2EP7QWidget
libKF5Completion.so.5:_ZN9KLineEditC2ERK7QStringP7QWidget
libKF5Completion.so.5:_ZN9KLineEditD0Ev
libKF5Completion.so.5:_ZN9KLineEditD1Ev
libKF5Completion.so.5:_ZN9KLineEditD2Ev
libKF5Completion.so.5:_ZNK11KCompletion10ignoreCaseEv
libKF5Completion.so.5:_ZNK11KCompletion10metaObjectEv
libKF5Completion.so.5:_ZNK11KCompletion13soundsEnabledEv
libKF5Completion.so.5:_ZNK11KCompletion14completionModeEv
libKF5Completion.so.5:_ZNK11KCompletion16postProcessMatchEP7QString
libKF5Completion.so.5:_ZNK11KCompletion17shouldAutoSuggestEv
libKF5Completion.so.5:_ZNK11KCompletion18hasMultipleMatchesEv
libKF5Completion.so.5:_ZNK11KCompletion18postProcessMatchesEP11QStringList
libKF5Completion.so.5:_ZNK11KCompletion18postProcessMatchesEP18KCompletionMatches
libKF5Completion.so.5:_ZNK11KCompletion19substringCompletionERK7QString
libKF5Completion.so.5:_ZNK11KCompletion5itemsEv
libKF5Completion.so.5:_ZNK11KCompletion5orderEv
libKF5Completion.so.5:_ZNK11KCompletion7isEmptyEv
libKF5Completion.so.5:_ZNK11KCompletion9lastMatchEv
libKF5Completion.so.5:_ZNK14KCompletionBox10metaObjectEv
libKF5Completion.so.5:_ZNK14KCompletionBox13cancelledTextEv
libKF5Completion.so.5:_ZNK14KCompletionBox13isTabHandlingEv
libKF5Completion.so.5:_ZNK14KCompletionBox16activateOnSelectEv
libKF5Completion.so.5:_ZNK14KCompletionBox17calculateGeometryEv
libKF5Completion.so.5:_ZNK14KCompletionBox18globalPositionHintEv
libKF5Completion.so.5:_ZNK14KCompletionBox5itemsEv
libKF5Completion.so.5:_ZNK14KCompletionBox8sizeHintEv
libKF5Completion.so.5:_ZNK15KCompletionBase10keyBindingENS_14KeyBindingTypeE
libKF5Completion.so.5:_ZNK15KCompletionBase11emitSignalsEv
libKF5Completion.so.5:_ZNK15KCompletionBase13handleSignalsEv
libKF5Completion.so.5:_ZNK15KCompletionBase13keyBindingMapEv
libKF5Completion.so.5:_ZNK15KCompletionBase14completionModeEv
libKF5Completion.so.5:_ZNK15KCompletionBase29isCompletionObjectAutoDeletedEv
libKF5Completion.so.5:_ZNK15KCompletionBase7compObjEv
libKF5Completion.so.5:_ZNK15KCompletionBase8delegateEv
libKF5Completion.so.5:_ZNK16KHistoryComboBox10metaObjectEv
libKF5Completion.so.5:_ZNK16KHistoryComboBox12historyItemsEv
libKF5Completion.so.5:_ZNK16KHistoryComboBox13useCompletionEv
libKF5Completion.so.5:_ZNK16KHistoryComboBox14pixmapProviderEv
libKF5Completion.so.5:_ZNK17KCompTreeNodeList2atEj
libKF5Completion.so.5:_ZNK18KCompletionMatches4listEb
libKF5Completion.so.5:_ZNK18KCompletionMatches7sortingEv
libKF5Completion.so.5:_ZNK25KCompletionMatchesWrapper4listEv
libKF5Completion.so.5:_ZNK9KComboBox10metaObjectEv
libKF5Completion.so.5:_ZNK9KComboBox11contextMenuEv
libKF5Completion.so.5:_ZNK9KComboBox13trapReturnKeyEv
libKF5Completion.so.5:_ZNK9KComboBox14autoCompletionEv
libKF5Completion.so.5:_ZNK9KComboBox14cursorPositionEv
libKF5Completion.so.5:_ZNK9KComboBox15minimumSizeHintEv
libKF5Completion.so.5:_ZNK9KComboBox15urlDropsEnabledEv
libKF5Completion.so.5:_ZNK9KComboBox8containsERK7QString
libKF5Completion.so.5:_ZNK9KLineEdit10metaObjectEv
libKF5Completion.so.5:_ZNK9KLineEdit11autoSuggestEv
libKF5Completion.so.5:_ZNK9KLineEdit12clickMessageEv
libKF5Completion.so.5:_ZNK9KLineEdit12originalTextEv
libKF5Completion.so.5:_ZNK9KLineEdit12passwordModeEv
libKF5Completion.so.5:_ZNK9KLineEdit13trapReturnKeyEv
libKF5Completion.so.5:_ZNK9KLineEdit15urlDropsEnabledEv
libKF5Completion.so.5:_ZNK9KLineEdit18isClearButtonShownEv
libKF5Completion.so.5:_ZNK9KLineEdit19clearButtonUsedSizeEv
libKF5Completion.so.5:_ZNK9KLineEdit20isContextMenuEnabledEv
libKF5Completion.so.5:_ZNK9KLineEdit21isSqueezedTextEnabledEv
libKF5Completion.so.5:_ZNK9KLineEdit4copyEv
libKF5Completion.so.5:_ZNK9KLineEdit8userTextEv
libKF5Completion.so.5:_ZTI11KCompletion
libKF5Completion.so.5:_ZTI14KCompletionBox
libKF5Completion.so.5:_ZTI15KCompletionBase
libKF5Completion.so.5:_ZTI15KPixmapProvider
libKF5Completion.so.5:_ZTI16KHistoryComboBox
libKF5Completion.so.5:_ZTI9KComboBox
libKF5Completion.so.5:_ZTI9KLineEdit
libKF5Completion.so.5:_ZTISt14_Function_base
libKF5Completion.so.5:_ZTISt14unary_functionIRK7QString5QIconE
libKF5Completion.so.5:_ZTISt31_Maybe_unary_or_binary_functionI5QIconJRK7QStringEE
libKF5Completion.so.5:_ZTISt8functionIF5QIconRK7QStringEE
libKF5Completion.so.5:_ZTS11KCompletion
libKF5Completion.so.5:_ZTS14KCompletionBox
libKF5Completion.so.5:_ZTS15KCompletionBase
libKF5Completion.so.5:_ZTS15KPixmapProvider
libKF5Completion.so.5:_ZTS16KHistoryComboBox
libKF5Completion.so.5:_ZTS9KComboBox
libKF5Completion.so.5:_ZTS9KLineEdit
libKF5Completion.so.5:_ZTSSt14_Function_base
libKF5Completion.so.5:_ZTSSt14unary_functionIRK7QString5QIconE
libKF5Completion.so.5:_ZTSSt31_Maybe_unary_or_binary_functionI5QIconJRK7QStringEE
libKF5Completion.so.5:_ZTSSt8functionIF5QIconRK7QStringEE
libKF5Completion.so.5:_ZTV11KCompletion
libKF5Completion.so.5:_ZTV14KCompletionBox
libKF5Completion.so.5:_ZTV15KCompletionBase
libKF5Completion.so.5:_ZTV15KPixmapProvider
libKF5Completion.so.5:_ZTV16KHistoryComboBox
libKF5Completion.so.5:_ZTV9KComboBox
libKF5Completion.so.5:_ZTV9KLineEdit
libKF5Completion.so.5:_ZThn16_N14KCompletionBoxD0Ev
libKF5Completion.so.5:_ZThn16_N14KCompletionBoxD1Ev
libKF5Completion.so.5:_ZThn16_N16KHistoryComboBoxD0Ev
libKF5Completion.so.5:_ZThn16_N16KHistoryComboBoxD1Ev
libKF5Completion.so.5:_ZThn16_N9KComboBoxD0Ev
libKF5Completion.so.5:_ZThn16_N9KComboBoxD1Ev
libKF5Completion.so.5:_ZThn16_N9KLineEditD0Ev
libKF5Completion.so.5:_ZThn16_N9KLineEditD1Ev
libKF5Completion.so.5:_ZThn48_N16KHistoryComboBoxD0Ev
libKF5Completion.so.5:_ZThn48_N16KHistoryComboBoxD1Ev
libKF5Completion.so.5:_ZThn48_N9KComboBox16setCompletedTextERK7QString
libKF5Completion.so.5:_ZThn48_N9KComboBox17setCompletedItemsERK11QStringListb
libKF5Completion.so.5:_ZThn48_N9KComboBoxD0Ev
libKF5Completion.so.5:_ZThn48_N9KComboBoxD1Ev
libKF5Completion.so.5:_ZThn48_N9KLineEdit16setCompletedTextERK7QString
libKF5Completion.so.5:_ZThn48_N9KLineEdit17setCompletedItemsERK11QStringListb
libKF5Completion.so.5:_ZThn48_N9KLineEdit17setCompletionModeEN11KCompletion14CompletionModeE
libKF5Completion.so.5:_ZThn48_N9KLineEdit19setCompletionObjectEP11KCompletionb
libKF5Completion.so.5:_ZThn48_N9KLineEditD0Ev
libKF5Completion.so.5:_ZThn48_N9KLineEditD1Ev
