libKDevClangPrivate.so.27:_Z10KDEV_CLANGv
libKDevClangPrivate.so.27:_ZN10ClangIndex21translationUnitForUrlERKN8KDevelop13IndexedStringE
libKDevClangPrivate.so.27:_ZN10ClangIndex24pinTranslationUnitForUrlERKN8KDevelop13IndexedStringES3_
libKDevClangPrivate.so.27:_ZN10ClangIndex26unpinTranslationUnitForUrlERKN8KDevelop13IndexedStringE
libKDevClangPrivate.so.27:_ZN10ClangIndex3pchERK23ClangParsingEnvironment
libKDevClangPrivate.so.27:_ZN10ClangIndexC1Ev
libKDevClangPrivate.so.27:_ZN10ClangIndexC2Ev
libKDevClangPrivate.so.27:_ZN10ClangIndexD1Ev
libKDevClangPrivate.so.27:_ZN10ClangIndexD2Ev
libKDevClangPrivate.so.27:_ZN10ClangRangeC1E13CXSourceRange
libKDevClangPrivate.so.27:_ZN10ClangRangeC2E13CXSourceRange
libKDevClangPrivate.so.27:_ZN10ClangRangeD1Ev
libKDevClangPrivate.so.27:_ZN10ClangRangeD2Ev
libKDevClangPrivate.so.27:_ZN10ClangUtils14getRawContentsEP21CXTranslationUnitImpl13CXSourceRange
libKDevClangPrivate.so.27:_ZN10ClangUtils21templateArgumentTypesE8CXCursor
libKDevClangPrivate.so.27:_ZN10ClangUtils23rangeForIncludePathSpecERK7QStringRKN11KTextEditor5RangeE
libKDevClangPrivate.so.27:_ZN10ClangUtils8getScopeE8CXCursorS0_
libKDevClangPrivate.so.27:_ZN11ClangTokensC1EP21CXTranslationUnitImpl13CXSourceRange
libKDevClangPrivate.so.27:_ZN11ClangTokensC2EP21CXTranslationUnitImpl13CXSourceRange
libKDevClangPrivate.so.27:_ZN11ClangTokensD1Ev
libKDevClangPrivate.so.27:_ZN11ClangTokensD2Ev
libKDevClangPrivate.so.27:_ZN11UnsavedFile13convertToUtf8Ev
libKDevClangPrivate.so.27:_ZN11UnsavedFileC1ERK7QStringRK11QStringList
libKDevClangPrivate.so.27:_ZN11UnsavedFileC2ERK7QStringRK11QStringList
libKDevClangPrivate.so.27:_ZN12ClangHelpers12buildDUChainEPvRK10QMultiHashIS0_6ImportERK12ParseSessionN8KDevelop12TopDUContext8FeaturesER5QHashIS0_NS9_22ReferencedTopDUContextEEP10ClangIndexRKSt8functionIFbvEE
libKDevClangPrivate.so.27:_ZN12ClangHelpers8isHeaderERK7QString
libKDevClangPrivate.so.27:_ZN12ClangHelpers8isSourceERK7QString
libKDevClangPrivate.so.27:_ZN12ClangHelpers9tuImportsEP21CXTranslationUnitImpl
libKDevClangPrivate.so.27:_ZN12ClangProblem9setFixitsERK7QVectorI10ClangFixitE
libKDevClangPrivate.so.27:_ZN12ClangProblemC1EPvP21CXTranslationUnitImpl
libKDevClangPrivate.so.27:_ZN12ClangProblemC2EPvP21CXTranslationUnitImpl
libKDevClangPrivate.so.27:_ZN12DebugVisitor5visitEP21CXTranslationUnitImplPv
libKDevClangPrivate.so.27:_ZN12DebugVisitorC1EP12ParseSession
libKDevClangPrivate.so.27:_ZN12DebugVisitorC2EP12ParseSession
libKDevClangPrivate.so.27:_ZN12ParseSession14languageStringEv
libKDevClangPrivate.so.27:_ZN12ParseSession7reparseERK7QVectorI11UnsavedFileERK23ClangParsingEnvironment
libKDevClangPrivate.so.27:_ZN12ParseSession7setDataERK28QExplicitlySharedDataPointerI16ParseSessionDataE
libKDevClangPrivate.so.27:_ZN12ParseSessionC1ERK28QExplicitlySharedDataPointerI16ParseSessionDataE
libKDevClangPrivate.so.27:_ZN12ParseSessionC2ERK28QExplicitlySharedDataPointerI16ParseSessionDataE
libKDevClangPrivate.so.27:_ZN12ParseSessionD1Ev
libKDevClangPrivate.so.27:_ZN12ParseSessionD2Ev
libKDevClangPrivate.so.27:_ZN13SessionConfig4selfEv
libKDevClangPrivate.so.27:_ZN13SessionConfigC1Ev
libKDevClangPrivate.so.27:_ZN13SessionConfigC2Ev
libKDevClangPrivate.so.27:_ZN13SessionConfigD0Ev
libKDevClangPrivate.so.27:_ZN13SessionConfigD1Ev
libKDevClangPrivate.so.27:_ZN13SessionConfigD2Ev
libKDevClangPrivate.so.27:_ZN13TodoExtractor12extractTodosEv
libKDevClangPrivate.so.27:_ZN13TodoExtractorC1EP21CXTranslationUnitImplPv
libKDevClangPrivate.so.27:_ZN13TodoExtractorC2EP21CXTranslationUnitImplPv
libKDevClangPrivate.so.27:_ZN15MacroDefinition12addParameterERKN8KDevelop13IndexedStringE
libKDevClangPrivate.so.27:_ZN15MacroDefinition13setDefinitionERKN8KDevelop13IndexedStringE
libKDevClangPrivate.so.27:_ZN15MacroDefinition15clearParametersEv
libKDevClangPrivate.so.27:_ZN15MacroDefinition15setFunctionLikeEb
libKDevClangPrivate.so.27:_ZN15MacroDefinitionC1ER19MacroDefinitionData
libKDevClangPrivate.so.27:_ZN15MacroDefinitionC1ERKN8KDevelop15RangeInRevisionEPNS0_9DUContextE
libKDevClangPrivate.so.27:_ZN15MacroDefinitionC1ERKS_
libKDevClangPrivate.so.27:_ZN15MacroDefinitionC2ER19MacroDefinitionData
libKDevClangPrivate.so.27:_ZN15MacroDefinitionC2ERKN8KDevelop15RangeInRevisionEPNS0_9DUContextE
libKDevClangPrivate.so.27:_ZN15MacroDefinitionC2ERKS_
libKDevClangPrivate.so.27:_ZN15MacroDefinitionD0Ev
libKDevClangPrivate.so.27:_ZN15MacroDefinitionD1Ev
libKDevClangPrivate.so.27:_ZN15MacroDefinitionD2Ev
libKDevClangPrivate.so.27:_ZN15SessionSettings11qt_metacallEN11QMetaObject4CallEiPPv
libKDevClangPrivate.so.27:_ZN15SessionSettings11qt_metacastEPKc
libKDevClangPrivate.so.27:_ZN15SessionSettings5applyEv
libKDevClangPrivate.so.27:_ZN15SessionSettings5resetEv
libKDevClangPrivate.so.27:_ZN15SessionSettingsC1EP7QWidget
libKDevClangPrivate.so.27:_ZN15SessionSettingsC2EP7QWidget
libKDevClangPrivate.so.27:_ZN15SessionSettingsD0Ev
libKDevClangPrivate.so.27:_ZN15SessionSettingsD1Ev
libKDevClangPrivate.so.27:_ZN15SessionSettingsD2Ev
libKDevClangPrivate.so.27:_ZN16ClangClassHelper15createGeneratorERK4QUrl
libKDevClangPrivate.so.27:_ZN16ClangClassHelperC1Ev
libKDevClangPrivate.so.27:_ZN16ClangClassHelperC2Ev
libKDevClangPrivate.so.27:_ZN16ClangClassHelperD0Ev
libKDevClangPrivate.so.27:_ZN16ClangClassHelperD1Ev
libKDevClangPrivate.so.27:_ZN16ClangClassHelperD2Ev
libKDevClangPrivate.so.27:_ZN16ClangFixitAction11qt_metacallEN11QMetaObject4CallEiPPv
libKDevClangPrivate.so.27:_ZN16ClangFixitAction11qt_metacastEPKc
libKDevClangPrivate.so.27:_ZN16ClangFixitAction7executeEv
libKDevClangPrivate.so.27:_ZN16ClangFixitActionC1ERK10ClangFixit
libKDevClangPrivate.so.27:_ZN16ClangFixitActionC2ERK10ClangFixit
libKDevClangPrivate.so.27:_ZN16ClangIntegration12DUChainUtils20findParseSessionDataERKN8KDevelop13IndexedStringES4_
libKDevClangPrivate.so.27:_ZN16ClangIntegration12DUChainUtils20registerDUChainItemsEv
libKDevClangPrivate.so.27:_ZN16ClangIntegration12DUChainUtils22functionSignatureRangeEPKN8KDevelop11DeclarationE
libKDevClangPrivate.so.27:_ZN16ClangIntegration12DUChainUtils22unregisterDUChainItemsEv
libKDevClangPrivate.so.27:_ZN16ClangRefactoring11qt_metacallEN11QMetaObject4CallEiPPv
libKDevClangPrivate.so.27:_ZN16ClangRefactoring11qt_metacastEPKc
libKDevClangPrivate.so.27:_ZN16ClangRefactoring14moveIntoSourceERKN8KDevelop18IndexedDeclarationE
libKDevClangPrivate.so.27:_ZN16ClangRefactoring15fillContextMenuERN8KDevelop20ContextMenuExtensionEPNS0_7ContextE
libKDevClangPrivate.so.27:_ZN16ClangRefactoring26applyChangesToDeclarationsERK7QStringS2_RN8KDevelop17DocumentChangeSetERK5QListINS3_18IndexedDeclarationEE
libKDevClangPrivate.so.27:_ZN16ClangRefactoring27executeMoveIntoSourceActionEv
libKDevClangPrivate.so.27:_ZN16ClangRefactoring30validCandidateToMoveIntoSourceEPN8KDevelop11DeclarationE
libKDevClangPrivate.so.27:_ZN16ClangRefactoringC1EP7QObject
libKDevClangPrivate.so.27:_ZN16ClangRefactoringC2EP7QObject
libKDevClangPrivate.so.27:_ZN16ParseSessionData16writeDefinesFileERK4QMapI7QStringS1_E
libKDevClangPrivate.so.27:_ZN16ParseSessionData7setUnitEP21CXTranslationUnitImpl
libKDevClangPrivate.so.27:_ZN16ParseSessionDataC1ERK7QVectorI11UnsavedFileEP10ClangIndexRK23ClangParsingEnvironment6QFlagsINS_6OptionEE
libKDevClangPrivate.so.27:_ZN16ParseSessionDataC2ERK7QVectorI11UnsavedFileEP10ClangIndexRK23ClangParsingEnvironment6QFlagsINS_6OptionEE
libKDevClangPrivate.so.27:_ZN16ParseSessionDataD0Ev
libKDevClangPrivate.so.27:_ZN16ParseSessionDataD1Ev
libKDevClangPrivate.so.27:_ZN16ParseSessionDataD2Ev
libKDevClangPrivate.so.27:_ZN19ClangFixitAssistant11qt_metacallEN11QMetaObject4CallEiPPv
libKDevClangPrivate.so.27:_ZN19ClangFixitAssistant11qt_metacastEPKc
libKDevClangPrivate.so.27:_ZN19ClangFixitAssistant13createActionsEv
libKDevClangPrivate.so.27:_ZN19ClangFixitAssistantC1ERK7QStringRK7QVectorI10ClangFixitE
libKDevClangPrivate.so.27:_ZN19ClangFixitAssistantC1ERK7QVectorI10ClangFixitE
libKDevClangPrivate.so.27:_ZN19ClangFixitAssistantC2ERK7QStringRK7QVectorI10ClangFixitE
libKDevClangPrivate.so.27:_ZN19ClangFixitAssistantC2ERK7QVectorI10ClangFixitE
libKDevClangPrivate.so.27:_ZN20ClangSettingsManager4selfEv
libKDevClangPrivate.so.27:_ZN20ClangSettingsManagerC1Ev
libKDevClangPrivate.so.27:_ZN20ClangSettingsManagerC2Ev
libKDevClangPrivate.so.27:_ZN21ClangNavigationWidget16shortDescriptionERKN8KDevelop11IncludeItemE
libKDevClangPrivate.so.27:_ZN21ClangNavigationWidgetC1ERKN8KDevelop11IncludeItemENS0_14DUChainPointerINS0_12TopDUContextEEERK7QStringS9_6QFlagsINS0_24AbstractNavigationWidget11DisplayHintEE
libKDevClangPrivate.so.27:_ZN21ClangNavigationWidgetC1ERKN8KDevelop14DUChainPointerI15MacroDefinitionEERKNS0_14DocumentCursorE6QFlagsINS0_24AbstractNavigationWidget11DisplayHintEE
libKDevClangPrivate.so.27:_ZN21ClangNavigationWidgetC1ERKN8KDevelop14DUChainPointerINS0_11DeclarationEEE6QFlagsINS0_24AbstractNavigationWidget11DisplayHintEE
libKDevClangPrivate.so.27:_ZN21ClangNavigationWidgetC2ERKN8KDevelop11IncludeItemENS0_14DUChainPointerINS0_12TopDUContextEEERK7QStringS9_6QFlagsINS0_24AbstractNavigationWidget11DisplayHintEE
libKDevClangPrivate.so.27:_ZN21ClangNavigationWidgetC2ERKN8KDevelop14DUChainPointerI15MacroDefinitionEERKNS0_14DocumentCursorE6QFlagsINS0_24AbstractNavigationWidget11DisplayHintEE
libKDevClangPrivate.so.27:_ZN21ClangNavigationWidgetC2ERKN8KDevelop14DUChainPointerINS0_11DeclarationEEE6QFlagsINS0_24AbstractNavigationWidget11DisplayHintEE
libKDevClangPrivate.so.27:_ZN21DocumentFinderHelpers10areBuddiesERK4QUrlS2_
libKDevClangPrivate.so.27:_ZN21DocumentFinderHelpers10buddyOrderERK4QUrlS2_
libKDevClangPrivate.so.27:_ZN21DocumentFinderHelpers13mimeTypesListEv
libKDevClangPrivate.so.27:_ZN21DocumentFinderHelpers15sourceForHeaderERK7QString
libKDevClangPrivate.so.27:_ZN21DocumentFinderHelpers19getPotentialBuddiesERK4QUrlb
libKDevClangPrivate.so.27:_ZN22MacroNavigationContext4htmlEb
libKDevClangPrivate.so.27:_ZN22MacroNavigationContextC1ERKN8KDevelop14DUChainPointerI15MacroDefinitionEERKNS0_14DocumentCursorE
libKDevClangPrivate.so.27:_ZN22MacroNavigationContextC2ERKN8KDevelop14DUChainPointerI15MacroDefinitionEERKNS0_14DocumentCursorE
libKDevClangPrivate.so.27:_ZN22MacroNavigationContextD0Ev
libKDevClangPrivate.so.27:_ZN22MacroNavigationContextD1Ev
libKDevClangPrivate.so.27:_ZN22MacroNavigationContextD2Ev
libKDevClangPrivate.so.27:_ZN23AdaptSignatureAssistant11qt_metacallEN11QMetaObject4CallEiPPv
libKDevClangPrivate.so.27:_ZN23AdaptSignatureAssistant11qt_metacastEPKc
libKDevClangPrivate.so.27:_ZN23AdaptSignatureAssistant11textChangedEPN11KTextEditor8DocumentERKNS0_5RangeERK7QString
libKDevClangPrivate.so.27:_ZN23AdaptSignatureAssistant11updateReadyERKN8KDevelop13IndexedStringERKNS0_22ReferencedTopDUContextE
libKDevClangPrivate.so.27:_ZN23AdaptSignatureAssistant5resetEv
libKDevClangPrivate.so.27:_ZN23AdaptSignatureAssistantC1EPN8KDevelop16ILanguageSupportE
libKDevClangPrivate.so.27:_ZN23AdaptSignatureAssistantC2EPN8KDevelop16ILanguageSupportE
libKDevClangPrivate.so.27:_ZN23ClangParsingEnvironment10addDefinesERK5QHashI7QStringS1_E
libKDevClangPrivate.so.27:_ZN23ClangParsingEnvironment10setQualityENS_7QualityE
libKDevClangPrivate.so.27:_ZN23ClangParsingEnvironment11addIncludesERK7QVectorIN8KDevelop4PathEE
libKDevClangPrivate.so.27:_ZN23ClangParsingEnvironment13setPchIncludeERKN8KDevelop4PathE
libKDevClangPrivate.so.27:_ZN23ClangParsingEnvironment15setProjectPathsERK7QVectorIN8KDevelop4PathEE
libKDevClangPrivate.so.27:_ZN23ClangParsingEnvironment17setParserSettingsERK14ParserSettings
libKDevClangPrivate.so.27:_ZN23ClangParsingEnvironment21setTranslationUnitUrlERKN8KDevelop13IndexedStringE
libKDevClangPrivate.so.27:_ZN23ClangParsingEnvironment23addFrameworkDirectoriesERK7QVectorIN8KDevelop4PathEE
libKDevClangPrivate.so.27:_ZN24ClangCodeCompletionModel11qt_metacallEN11QMetaObject4CallEiPPv
libKDevClangPrivate.so.27:_ZN24ClangCodeCompletionModel11qt_metacastEPKc
libKDevClangPrivate.so.27:_ZN24ClangCodeCompletionModel17requestCompletionERK4QUrlRKN11KTextEditor6CursorERK7QStringS9_
libKDevClangPrivate.so.27:_ZN24ClangCodeCompletionModel21shouldStartCompletionEPN11KTextEditor4ViewERK7QStringbRKNS0_6CursorE
libKDevClangPrivate.so.27:_ZN24ClangCodeCompletionModel22createCompletionWorkerEv
libKDevClangPrivate.so.27:_ZN24ClangCodeCompletionModel25completionInvokedInternalEPN11KTextEditor4ViewERKNS0_5RangeENS0_19CodeCompletionModel14InvocationTypeERK4QUrl
libKDevClangPrivate.so.27:_ZN24ClangCodeCompletionModelC1EP10ClangIndexP7QObject
libKDevClangPrivate.so.27:_ZN24ClangCodeCompletionModelC2EP10ClangIndexP7QObject
libKDevClangPrivate.so.27:_ZN24ClangCodeCompletionModelD0Ev
libKDevClangPrivate.so.27:_ZN24ClangCodeCompletionModelD1Ev
libKDevClangPrivate.so.27:_ZN24ClangCodeCompletionModelD2Ev
libKDevClangPrivate.so.27:_ZN24ClangDiagnosticEvaluator13createProblemEPvP21CXTranslationUnitImpl
libKDevClangPrivate.so.27:_ZN24ClangDiagnosticEvaluator14diagnosticTypeEPv
libKDevClangPrivate.so.27:_ZN25UnknownDeclarationProblem24findMatchingIncludeFilesERK7QVectorIPN8KDevelop11DeclarationEE
libKDevClangPrivate.so.27:_ZN25UnknownDeclarationProblem9setSymbolERKN8KDevelop19QualifiedIdentifierE
libKDevClangPrivate.so.27:_ZN25UnknownDeclarationProblemC1EPvP21CXTranslationUnitImpl
libKDevClangPrivate.so.27:_ZN25UnknownDeclarationProblemC2EPvP21CXTranslationUnitImpl
libKDevClangPrivate.so.27:_ZN26ClangCodeCompletionContext10setFiltersERK6QFlagsINS_13ContextFilterEE
libKDevClangPrivate.so.27:_ZN26ClangCodeCompletionContext15completionItemsERbb
libKDevClangPrivate.so.27:_ZN26ClangCodeCompletionContext17ungroupedElementsEv
libKDevClangPrivate.so.27:_ZN26ClangCodeCompletionContext18eventuallyAddGroupERK7QStringiRK5QListI28QExplicitlySharedDataPointerIN8KDevelop18CompletionTreeItemEEE
libKDevClangPrivate.so.27:_ZN26ClangCodeCompletionContext20addOverwritableItemsEv
libKDevClangPrivate.so.27:_ZN26ClangCodeCompletionContext28addImplementationHelperItemsEv
libKDevClangPrivate.so.27:_ZN26ClangCodeCompletionContextC1ERKN8KDevelop14DUChainPointerINS0_9DUContextEEERK28QExplicitlySharedDataPointerI16ParseSessionDataERK4QUrlRKN11KTextEditor6CursorERK7QStringSK_
libKDevClangPrivate.so.27:_ZN26ClangCodeCompletionContextC2ERKN8KDevelop14DUChainPointerINS0_9DUContextEEERK28QExplicitlySharedDataPointerI16ParseSessionDataERK4QUrlRKN11KTextEditor6CursorERK7QStringSK_
libKDevClangPrivate.so.27:_ZN26ClangCodeCompletionContextD0Ev
libKDevClangPrivate.so.27:_ZN26ClangCodeCompletionContextD1Ev
libKDevClangPrivate.so.27:_ZN26ClangCodeCompletionContextD2Ev
libKDevClangPrivate.so.27:_ZN27ClangParsingEnvironmentFile14setEnvironmentERK23ClangParsingEnvironment
libKDevClangPrivate.so.27:_ZN27ClangParsingEnvironmentFileC1ER31ClangParsingEnvironmentFileData
libKDevClangPrivate.so.27:_ZN27ClangParsingEnvironmentFileC1ERKN8KDevelop13IndexedStringERK23ClangParsingEnvironment
libKDevClangPrivate.so.27:_ZN27ClangParsingEnvironmentFileC2ER31ClangParsingEnvironmentFileData
libKDevClangPrivate.so.27:_ZN27ClangParsingEnvironmentFileC2ERKN8KDevelop13IndexedStringERK23ClangParsingEnvironment
libKDevClangPrivate.so.27:_ZN27ClangParsingEnvironmentFileD0Ev
libKDevClangPrivate.so.27:_ZN27ClangParsingEnvironmentFileD1Ev
libKDevClangPrivate.so.27:_ZN27ClangParsingEnvironmentFileD2Ev
libKDevClangPrivate.so.27:_ZN28IncludePathCompletionContext15completionItemsERbb
libKDevClangPrivate.so.27:_ZN28IncludePathCompletionContextC1ERKN8KDevelop14DUChainPointerINS0_9DUContextEEERK28QExplicitlySharedDataPointerI16ParseSessionDataERK4QUrlRKN11KTextEditor6CursorERK7QString
libKDevClangPrivate.so.27:_ZN28IncludePathCompletionContextC2ERKN8KDevelop14DUChainPointerINS0_9DUContextEEERK28QExplicitlySharedDataPointerI16ParseSessionDataERK4QUrlRKN11KTextEditor6CursorERK7QString
libKDevClangPrivate.so.27:_ZN7Builder5visitEP21CXTranslationUnitImplPvRK5QHashIS2_N8KDevelop22ReferencedTopDUContextEEb
libKDevClangPrivate.so.27:_ZN8ClangPCHC1ERK23ClangParsingEnvironmentP10ClangIndex
libKDevClangPrivate.so.27:_ZN8ClangPCHC2ERK23ClangParsingEnvironmentP10ClangIndex
libKDevClangPrivate.so.27:_ZNK10ClangIndex5indexEv
libKDevClangPrivate.so.27:_ZNK10ClangRange15toDocumentRangeEv
libKDevClangPrivate.so.27:_ZNK10ClangRange17toRangeInRevisionEv
libKDevClangPrivate.so.27:_ZNK10ClangRange3endEv
libKDevClangPrivate.so.27:_ZNK10ClangRange5rangeEv
libKDevClangPrivate.so.27:_ZNK10ClangRange5startEv
libKDevClangPrivate.so.27:_ZNK10ClangRange7toRangeEv
libKDevClangPrivate.so.27:_ZNK11ClangTokens2atEj
libKDevClangPrivate.so.27:_ZNK11ClangTokens3endEv
libKDevClangPrivate.so.27:_ZNK11ClangTokens4rendEv
libKDevClangPrivate.so.27:_ZNK11ClangTokens4sizeEv
libKDevClangPrivate.so.27:_ZNK11ClangTokens4unitEv
libKDevClangPrivate.so.27:_ZNK11ClangTokens5beginEv
libKDevClangPrivate.so.27:_ZNK11ClangTokens6rbeginEv
libKDevClangPrivate.so.27:_ZNK11UnsavedFile10toClangApiEv
libKDevClangPrivate.so.27:_ZNK12ClangProblem17solutionAssistantEv
libKDevClangPrivate.so.27:_ZNK12ClangProblem6fixitsEv
libKDevClangPrivate.so.27:_ZNK12ClangProblem9allFixitsEv
libKDevClangPrivate.so.27:_ZNK12ParseSession11environmentEv
libKDevClangPrivate.so.27:_ZNK12ParseSession15problemsForFileEPv
libKDevClangPrivate.so.27:_ZNK12ParseSession4dataEv
libKDevClangPrivate.so.27:_ZNK12ParseSession4fileERK10QByteArray
libKDevClangPrivate.so.27:_ZNK12ParseSession4unitEv
libKDevClangPrivate.so.27:_ZNK12ParseSession8mainFileEv
libKDevClangPrivate.so.27:_ZNK13TodoExtractor8problemsEv
libKDevClangPrivate.so.27:_ZNK15MacroDefinition10definitionEv
libKDevClangPrivate.so.27:_ZNK15MacroDefinition10parametersEv
libKDevClangPrivate.so.27:_ZNK15MacroDefinition14isFunctionLikeEv
libKDevClangPrivate.so.27:_ZNK15MacroDefinition14parametersSizeEv
libKDevClangPrivate.so.27:_ZNK15MacroDefinition8toStringEv
libKDevClangPrivate.so.27:_ZNK15SessionSettings10metaObjectEv
libKDevClangPrivate.so.27:_ZNK15SessionSettings14configPageTypeEv
libKDevClangPrivate.so.27:_ZNK15SessionSettings4iconEv
libKDevClangPrivate.so.27:_ZNK15SessionSettings4nameEv
libKDevClangPrivate.so.27:_ZNK15SessionSettings8fullNameEv
libKDevClangPrivate.so.27:_ZNK16ClangClassHelper14defaultMethodsERK7QString
libKDevClangPrivate.so.27:_ZNK16ClangFixitAction10metaObjectEv
libKDevClangPrivate.so.27:_ZNK16ClangFixitAction11descriptionEv
libKDevClangPrivate.so.27:_ZNK16ClangRefactoring10metaObjectEv
libKDevClangPrivate.so.27:_ZNK16ParseSessionData11environmentEv
libKDevClangPrivate.so.27:_ZNK19ClangFixitAssistant10metaObjectEv
libKDevClangPrivate.so.27:_ZNK19ClangFixitAssistant5titleEv
libKDevClangPrivate.so.27:_ZNK19ClangFixitAssistant6fixitsEv
libKDevClangPrivate.so.27:_ZNK20ClangSettingsManager14parserSettingsEPN8KDevelop15ProjectBaseItemE
libKDevClangPrivate.so.27:_ZNK20ClangSettingsManager14parserSettingsERK7QString
libKDevClangPrivate.so.27:_ZNK20ClangSettingsManager18assistantsSettingsEv
libKDevClangPrivate.so.27:_ZNK20ClangSettingsManager22codeCompletionSettingsEv
libKDevClangPrivate.so.27:_ZNK22MacroNavigationContext24retrievePreprocessedBodyERKN8KDevelop14DocumentCursorE
libKDevClangPrivate.so.27:_ZNK22MacroNavigationContext4nameEv
libKDevClangPrivate.so.27:_ZNK23AdaptSignatureAssistant10metaObjectEv
libKDevClangPrivate.so.27:_ZNK23AdaptSignatureAssistant12displayRangeEv
libKDevClangPrivate.so.27:_ZNK23AdaptSignatureAssistant16getRenameActionsERK9SignatureRK5QListIiE
libKDevClangPrivate.so.27:_ZNK23AdaptSignatureAssistant16setDefaultParamsER9SignatureRK5QListIiE
libKDevClangPrivate.so.27:_ZNK23AdaptSignatureAssistant19getSignatureChangesERK9SignatureR5QListIiE
libKDevClangPrivate.so.27:_ZNK23AdaptSignatureAssistant5titleEv
libKDevClangPrivate.so.27:_ZNK23AdaptSignatureAssistant8isUsefulEv
libKDevClangPrivate.so.27:_ZNK23ClangParsingEnvironment10pchIncludeEv
libKDevClangPrivate.so.27:_ZNK23ClangParsingEnvironment12projectPathsEv
libKDevClangPrivate.so.27:_ZNK23ClangParsingEnvironment14parserSettingsEv
libKDevClangPrivate.so.27:_ZNK23ClangParsingEnvironment18translationUnitUrlEv
libKDevClangPrivate.so.27:_ZNK23ClangParsingEnvironment20frameworkDirectoriesEv
libKDevClangPrivate.so.27:_ZNK23ClangParsingEnvironment4hashEv
libKDevClangPrivate.so.27:_ZNK23ClangParsingEnvironment4typeEv
libKDevClangPrivate.so.27:_ZNK23ClangParsingEnvironment7definesEv
libKDevClangPrivate.so.27:_ZNK23ClangParsingEnvironment7qualityEv
libKDevClangPrivate.so.27:_ZNK23ClangParsingEnvironment8includesEv
libKDevClangPrivate.so.27:_ZNK23ClangParsingEnvironmenteqERKS_
libKDevClangPrivate.so.27:_ZNK24ClangCodeCompletionModel10metaObjectEv
libKDevClangPrivate.so.27:_ZNK25UnknownDeclarationProblem17solutionAssistantEv
libKDevClangPrivate.so.27:_ZNK26ClangCodeCompletionContext15isValidPositionEP21CXTranslationUnitImplPv
libKDevClangPrivate.so.27:_ZNK26ClangCodeCompletionContext7filtersEv
libKDevClangPrivate.so.27:_ZNK27ClangParsingEnvironmentFile11needsUpdateEPKN8KDevelop18ParsingEnvironmentE
libKDevClangPrivate.so.27:_ZNK27ClangParsingEnvironmentFile15environmentHashEv
libKDevClangPrivate.so.27:_ZNK27ClangParsingEnvironmentFile16matchEnvironmentEPKN8KDevelop18ParsingEnvironmentE
libKDevClangPrivate.so.27:_ZNK27ClangParsingEnvironmentFile18environmentQualityEv
libKDevClangPrivate.so.27:_ZNK27ClangParsingEnvironmentFile4typeEv
libKDevClangPrivate.so.27:_ZNK8ClangPCH11mapIncludesEP21CXTranslationUnitImpl
libKDevClangPrivate.so.27:_ZNK8ClangPCH7contextEv
libKDevClangPrivate.so.27:_ZNK8ClangPCH7mapFileEP21CXTranslationUnitImpl
libKDevClangPrivate.so.27:_ZThn16_N15SessionSettingsD0Ev
libKDevClangPrivate.so.27:_ZThn16_N15SessionSettingsD1Ev
libKDevClangPrivate.so.27:_ZThn24_N24ClangCodeCompletionModel21shouldStartCompletionEPN11KTextEditor4ViewERK7QStringbRKNS0_6CursorE
libKDevClangPrivate.so.27:_ZThn24_N24ClangCodeCompletionModelD0Ev
libKDevClangPrivate.so.27:_ZThn24_N24ClangCodeCompletionModelD1Ev
libKDevClangPrivate.so.27:_ZThn24_NK12ClangProblem17solutionAssistantEv
libKDevClangPrivate.so.27:_ZThn24_NK25UnknownDeclarationProblem17solutionAssistantEv
libKDevClangPrivate.so.27:_Zls6QDebug10CXTypeKind
libKDevClangPrivate.so.27:_Zls6QDebug12CXCursorKind
libKDevClangPrivate.so.27:_Zls6QDebug13CXSourceRange
libKDevClangPrivate.so.27:_Zls6QDebug16CXSourceLocation
libKDevClangPrivate.so.27:_Zls6QDebug6CXType
libKDevClangPrivate.so.27:_Zls6QDebug8CXCursor
libKDevClangPrivate.so.27:_Zls6QDebug8CXString
libKDevClangPrivate.so.27:_Zls6QDebugRK10ClangFixit
libkdevcmakecommon.so:_ZN10TargetTypeC1ERN8KDevelop16AbstractTypeDataE
libkdevcmakecommon.so:_ZN10TargetTypeC1ERS_
libkdevcmakecommon.so:_ZN10TargetTypeC1Ev
libkdevcmakecommon.so:_ZN10TargetTypeC2ERN8KDevelop16AbstractTypeDataE
libkdevcmakecommon.so:_ZN10TargetTypeC2ERS_
libkdevcmakecommon.so:_ZN10TargetTypeC2Ev
libkdevcmakecommon.so:_ZN16CMakeListsParser13readCMakeFileERK7QString
libkdevcmakecommon.so:_ZN17CMakeFunctionDesc12addArgumentsERK11QStringListb
libkdevcmakecommon.so:_ZN17CMakeFunctionDescC1ERK7QStringRK11QStringList
libkdevcmakecommon.so:_ZN17CMakeFunctionDescC1Ev
libkdevcmakecommon.so:_ZN17CMakeFunctionDescC2ERK7QStringRK11QStringList
libkdevcmakecommon.so:_ZN17CMakeFunctionDescC2Ev
libkdevcmakecommon.so:_ZN20CMakeBuildDirChooser11qt_metacallEN11QMetaObject4CallEiPPv
libkdevcmakecommon.so:_ZN20CMakeBuildDirChooser11qt_metacastEPKc
libkdevcmakecommon.so:_ZN20CMakeBuildDirChooser12setBuildTypeERK7QString
libkdevcmakecommon.so:_ZN20CMakeBuildDirChooser14setAlreadyUsedERK11QStringList
libkdevcmakecommon.so:_ZN20CMakeBuildDirChooser14setBuildFolderERKN8KDevelop4PathE
libkdevcmakecommon.so:_ZN20CMakeBuildDirChooser14setCMakeBinaryERKN8KDevelop4PathE
libkdevcmakecommon.so:_ZN20CMakeBuildDirChooser15setSourceFolderERKN8KDevelop4PathE
libkdevcmakecommon.so:_ZN20CMakeBuildDirChooser16buildDirSettingsERKN8KDevelop4PathER7QStringS5_S5_
libkdevcmakecommon.so:_ZN20CMakeBuildDirChooser16setInstallPrefixERKN8KDevelop4PathE
libkdevcmakecommon.so:_ZN20CMakeBuildDirChooser17setExtraArgumentsERK7QString
libkdevcmakecommon.so:_ZN20CMakeBuildDirChooser7updatedEv
libkdevcmakecommon.so:_ZN20CMakeBuildDirChooser9setStatusERK7QStringb
libkdevcmakecommon.so:_ZN20CMakeBuildDirChooserC1EP7QWidget
libkdevcmakecommon.so:_ZN20CMakeBuildDirChooserC2EP7QWidget
libkdevcmakecommon.so:_ZN20CMakeBuildDirChooserD0Ev
libkdevcmakecommon.so:_ZN20CMakeBuildDirChooserD1Ev
libkdevcmakecommon.so:_ZN20CMakeBuildDirChooserD2Ev
libkdevcmakecommon.so:_ZN26CMakeExtraArgumentsHistoryC1EP9KComboBox
libkdevcmakecommon.so:_ZN26CMakeExtraArgumentsHistoryC2EP9KComboBox
libkdevcmakecommon.so:_ZN26CMakeExtraArgumentsHistoryD1Ev
libkdevcmakecommon.so:_ZN26CMakeExtraArgumentsHistoryD2Ev
libkdevcmakecommon.so:_ZN5CMake11projectRootEPN8KDevelop8IProjectE
libkdevcmakecommon.so:_ZN5CMake12allBuildDirsEPN8KDevelop8IProjectE
libkdevcmakecommon.so:_ZN5CMake12commandsFileEPN8KDevelop8IProjectE
libkdevcmakecommon.so:_ZN5CMake12updateConfigEPN8KDevelop8IProjectEi
libkdevcmakecommon.so:_ZN5CMake13buildDirCountEPN8KDevelop8IProjectE
libkdevcmakecommon.so:_ZN5CMake14attemptMigrateEPN8KDevelop8IProjectE
libkdevcmakecommon.so:_ZN5CMake14executeProcessERK7QStringRK11QStringList
libkdevcmakecommon.so:_ZN5CMake14findExecutableEv
libkdevcmakecommon.so:_ZN5CMake15currentBuildDirEPN8KDevelop8IProjectE
libkdevcmakecommon.so:_ZN5CMake16currentBuildTypeEPN8KDevelop8IProjectE
libkdevcmakecommon.so:_ZN5CMake16enumerateTargetsERKN8KDevelop4PathERK7QStringS3_
libkdevcmakecommon.so:_ZN5CMake16setBuildDirCountEPN8KDevelop8IProjectEi
libkdevcmakecommon.so:_ZN5CMake17currentInstallDirEPN8KDevelop8IProjectE
libkdevcmakecommon.so:_ZN5CMake17resolveSystemDirsEPN8KDevelop8IProjectERK11QStringList
libkdevcmakecommon.so:_ZN5CMake18cmakeDocumentationEv
libkdevcmakecommon.so:_ZN5CMake18currentCMakeBinaryEPN8KDevelop8IProjectE
libkdevcmakecommon.so:_ZN5CMake18currentEnvironmentEPN8KDevelop8IProjectE
libkdevcmakecommon.so:_ZN5CMake18setCurrentBuildDirEPN8KDevelop8IProjectERKNS0_4PathE
libkdevcmakecommon.so:_ZN5CMake19projectRootRelativeEPN8KDevelop8IProjectE
libkdevcmakecommon.so:_ZN5CMake19setCurrentBuildTypeEPN8KDevelop8IProjectERK7QString
libkdevcmakecommon.so:_ZN5CMake20currentBuildDirIndexEPN8KDevelop8IProjectE
libkdevcmakecommon.so:_ZN5CMake20removeBuildDirConfigEPN8KDevelop8IProjectE
libkdevcmakecommon.so:_ZN5CMake20setCurrentInstallDirEPN8KDevelop8IProjectERKNS0_4PathE
libkdevcmakecommon.so:_ZN5CMake21currentExtraArgumentsEPN8KDevelop8IProjectE
libkdevcmakecommon.so:_ZN5CMake21setCurrentCMakeBinaryEPN8KDevelop8IProjectERKNS0_4PathE
libkdevcmakecommon.so:_ZN5CMake21setCurrentEnvironmentEPN8KDevelop8IProjectERK7QString
libkdevcmakecommon.so:_ZN5CMake21targetDirectoriesFileEPN8KDevelop8IProjectE
libkdevcmakecommon.so:_ZN5CMake22hasProjectRootRelativeEPN8KDevelop8IProjectE
libkdevcmakecommon.so:_ZN5CMake22setProjectRootRelativeEPN8KDevelop8IProjectERK7QString
libkdevcmakecommon.so:_ZN5CMake23setCurrentBuildDirIndexEPN8KDevelop8IProjectEi
libkdevcmakecommon.so:_ZN5CMake24checkForNeedingConfigureEPN8KDevelop8IProjectE
libkdevcmakecommon.so:_ZN5CMake24setCurrentExtraArgumentsEPN8KDevelop8IProjectERK7QString
libkdevcmakecommon.so:_ZN5CMake24setOverrideBuildDirIndexEPN8KDevelop8IProjectEi
libkdevcmakecommon.so:_ZN5CMake27removeOverrideBuildDirIndexEPN8KDevelop8IProjectEb
libkdevcmakecommon.so:_ZN9CacheLine8readLineERK7QString
libkdevcmakecommon.so:_ZNK10TargetType5cloneEv
libkdevcmakecommon.so:_ZNK10TargetType6equalsEPKN8KDevelop12AbstractTypeE
libkdevcmakecommon.so:_ZNK10TargetType7accept0EPN8KDevelop11TypeVisitorE
libkdevcmakecommon.so:_ZNK17CMakeFunctionDesc9writeBackEv
libkdevcmakecommon.so:_ZNK17CMakeFunctionDesceqERKS_
libkdevcmakecommon.so:_ZNK20CMakeBuildDirChooser10metaObjectEv
libkdevcmakecommon.so:_ZNK20CMakeBuildDirChooser11buildFolderEv
libkdevcmakecommon.so:_ZNK20CMakeBuildDirChooser11cmakeBinaryEv
libkdevcmakecommon.so:_ZNK20CMakeBuildDirChooser13installPrefixEv
libkdevcmakecommon.so:_ZNK20CMakeBuildDirChooser14extraArgumentsEv
libkdevcmakecommon.so:_ZNK20CMakeBuildDirChooser9buildTypeEv
libkdevcmakecommon.so:_ZNK26CMakeExtraArgumentsHistory4listEv
libkdevcmakecommon.so:_ZNK9CacheLine4flagEv
libkdevcmakecommon.so:_ZNK9CacheLine4nameEv
libkdevcmakecommon.so:_ZNK9CacheLine4typeEv
libkdevcmakecommon.so:_ZNK9CacheLine5valueEv
libkdevcmakecommon.so:_ZThn16_N20CMakeBuildDirChooserD0Ev
libkdevcmakecommon.so:_ZThn16_N20CMakeBuildDirChooserD1Ev
