liblastfm5.so.1:_ZN6lastfm10RadioTuner10queueTrackERNS_5TrackE
liblastfm5.so.1:_ZN6lastfm10RadioTuner11qt_metacallEN11QMetaObject4CallEiPPv
liblastfm5.so.1:_ZN6lastfm10RadioTuner11qt_metacastEPKc
liblastfm5.so.1:_ZN6lastfm10RadioTuner12onTuneReturnEv
liblastfm5.so.1:_ZN6lastfm10RadioTuner13onXspfExpiredEv
liblastfm5.so.1:_ZN6lastfm10RadioTuner13supportsDiscoEb
liblastfm5.so.1:_ZN6lastfm10RadioTuner13takeNextTrackEv
liblastfm5.so.1:_ZN6lastfm10RadioTuner14trackAvailableEv
liblastfm5.so.1:_ZN6lastfm10RadioTuner19onGetPlaylistReturnEv
liblastfm5.so.1:_ZN6lastfm10RadioTuner5errorENS_2ws5ErrorERK7QString
liblastfm5.so.1:_ZN6lastfm10RadioTuner5titleERK7QString
liblastfm5.so.1:_ZN6lastfm10RadioTuner6retuneERKNS_12RadioStationE
liblastfm5.so.1:_ZN6lastfm10RadioTunerC1ERKNS_12RadioStationE
liblastfm5.so.1:_ZN6lastfm10RadioTunerC2ERKNS_12RadioStationE
liblastfm5.so.1:_ZN6lastfm10RadioTunerD0Ev
liblastfm5.so.1:_ZN6lastfm10RadioTunerD1Ev
liblastfm5.so.1:_ZN6lastfm10RadioTunerD2Ev
liblastfm5.so.1:_ZN6lastfm10UrlBuilder4hostERK7QLocale
liblastfm5.so.1:_ZN6lastfm10UrlBuilder5slashERK7QString
liblastfm5.so.1:_ZN6lastfm10UrlBuilder6encodeE7QString
liblastfm5.so.1:_ZN6lastfm10UrlBuilder6isHostERK4QUrl
liblastfm5.so.1:_ZN6lastfm10UrlBuilder8localizeE4QUrl
liblastfm5.so.1:_ZN6lastfm10UrlBuilder8mobilizeE4QUrl
liblastfm5.so.1:_ZN6lastfm10UrlBuilderC1ERK7QString
liblastfm5.so.1:_ZN6lastfm10UrlBuilderC1ERKS0_
liblastfm5.so.1:_ZN6lastfm10UrlBuilderC2ERK7QString
liblastfm5.so.1:_ZN6lastfm10UrlBuilderC2ERKS0_
liblastfm5.so.1:_ZN6lastfm10UrlBuilderD1Ev
liblastfm5.so.1:_ZN6lastfm10UrlBuilderD2Ev
liblastfm5.so.1:_ZN6lastfm10UrlBuilderaSERKS0_
liblastfm5.so.1:_ZN6lastfm11Tasteometer7compareERKNS_4UserES3_
liblastfm5.so.1:_ZN6lastfm11TasteometerC1Ev
liblastfm5.so.1:_ZN6lastfm11TasteometerC2Ev
liblastfm5.so.1:_ZN6lastfm11TasteometerD1Ev
liblastfm5.so.1:_ZN6lastfm11TasteometerD2Ev
liblastfm5.so.1:_ZN6lastfm12MutableTrack10setContextENS_12TrackContextE
liblastfm5.so.1:_ZN6lastfm12MutableTrack10setFromLfmERKNS_8XmlQueryE
liblastfm5.so.1:_ZN6lastfm12MutableTrack10setPodcastEb
liblastfm5.so.1:_ZN6lastfm12MutableTrack11removeExtraE7QString
liblastfm5.so.1:_ZN6lastfm12MutableTrack11setDurationEj
liblastfm5.so.1:_ZN6lastfm12MutableTrack11setImageUrlENS_12AbstractType9ImageSizeERK7QString
liblastfm5.so.1:_ZN6lastfm12MutableTrack12setTimeStampERK9QDateTime
liblastfm5.so.1:_ZN6lastfm12MutableTrack14setAlbumArtistE7QString
liblastfm5.so.1:_ZN6lastfm12MutableTrack14setCorrectionsE7QStringS1_S1_S1_
liblastfm5.so.1:_ZN6lastfm12MutableTrack14setTrackNumberEj
liblastfm5.so.1:_ZN6lastfm12MutableTrack16setFingerprintIdEj
liblastfm5.so.1:_ZN6lastfm12MutableTrack16setScrobbleErrorENS_5Track13ScrobbleErrorE
liblastfm5.so.1:_ZN6lastfm12MutableTrack17setScrobbleStatusENS_5Track14ScrobbleStatusE
liblastfm5.so.1:_ZN6lastfm12MutableTrack20setScrobbleErrorTextERK7QString
liblastfm5.so.1:_ZN6lastfm12MutableTrack3banEv
liblastfm5.so.1:_ZN6lastfm12MutableTrack4loveEv
liblastfm5.so.1:_ZN6lastfm12MutableTrack5stampEv
liblastfm5.so.1:_ZN6lastfm12MutableTrack6setUrlE4QUrl
liblastfm5.so.1:_ZN6lastfm12MutableTrack6unloveEv
liblastfm5.so.1:_ZN6lastfm12MutableTrack7setMbidENS_4MbidE
liblastfm5.so.1:_ZN6lastfm12MutableTrack8setAlbumE7QString
liblastfm5.so.1:_ZN6lastfm12MutableTrack8setExtraERK7QStringS3_
liblastfm5.so.1:_ZN6lastfm12MutableTrack8setLovedEb
liblastfm5.so.1:_ZN6lastfm12MutableTrack8setTitleE7QString
liblastfm5.so.1:_ZN6lastfm12MutableTrack8setVideoEb
liblastfm5.so.1:_ZN6lastfm12MutableTrack9setArtistE7QString
liblastfm5.so.1:_ZN6lastfm12MutableTrack9setSourceENS_5Track6SourceE
liblastfm5.so.1:_ZN6lastfm12MutableTrackC1ERKNS_5TrackE
liblastfm5.so.1:_ZN6lastfm12MutableTrackC1Ev
liblastfm5.so.1:_ZN6lastfm12MutableTrackC2ERKNS_5TrackE
liblastfm5.so.1:_ZN6lastfm12MutableTrackC2Ev
liblastfm5.so.1:_ZN6lastfm12RadioStation10setMainstrEf
liblastfm5.so.1:_ZN6lastfm12RadioStation12setTagFilterERK7QString
liblastfm5.so.1:_ZN6lastfm12RadioStation13neighbourhoodERKNS_4UserE
liblastfm5.so.1:_ZN6lastfm12RadioStation15recommendationsERKNS_4UserE
liblastfm5.so.1:_ZN6lastfm12RadioStation3mixERKNS_4UserE
liblastfm5.so.1:_ZN6lastfm12RadioStation3tagER5QListINS_3TagEE
liblastfm5.so.1:_ZN6lastfm12RadioStation3tagERKNS_3TagE
liblastfm5.so.1:_ZN6lastfm12RadioStation4listEP13QNetworkReply
liblastfm5.so.1:_ZN6lastfm12RadioStation6setRepEf
liblastfm5.so.1:_ZN6lastfm12RadioStation6setUrlERK7QString
liblastfm5.so.1:_ZN6lastfm12RadioStation7friendsERKNS_4UserE
liblastfm5.so.1:_ZN6lastfm12RadioStation7libraryER5QListINS_4UserEE
liblastfm5.so.1:_ZN6lastfm12RadioStation7libraryERKNS_4UserE
liblastfm5.so.1:_ZN6lastfm12RadioStation7similarER5QListINS_6ArtistEE
liblastfm5.so.1:_ZN6lastfm12RadioStation7similarERKNS_6ArtistE
liblastfm5.so.1:_ZN6lastfm12RadioStation8setDiscoEb
liblastfm5.so.1:_ZN6lastfm12RadioStation8setTitleERK7QString
liblastfm5.so.1:_ZN6lastfm12RadioStationC1ERK7QString
liblastfm5.so.1:_ZN6lastfm12RadioStationC1ERKS0_
liblastfm5.so.1:_ZN6lastfm12RadioStationC1Ev
liblastfm5.so.1:_ZN6lastfm12RadioStationC2ERK7QString
liblastfm5.so.1:_ZN6lastfm12RadioStationC2ERKS0_
liblastfm5.so.1:_ZN6lastfm12RadioStationC2Ev
liblastfm5.so.1:_ZN6lastfm12RadioStationD1Ev
liblastfm5.so.1:_ZN6lastfm12RadioStationD2Ev
liblastfm5.so.1:_ZN6lastfm12RadioStationaSERKS0_
liblastfm5.so.1:_ZN6lastfm12TrackContextC1ERK7QStringRK5QListIS1_E
liblastfm5.so.1:_ZN6lastfm12TrackContextC1ERKS0_
liblastfm5.so.1:_ZN6lastfm12TrackContextC1Ev
liblastfm5.so.1:_ZN6lastfm12TrackContextC2ERK7QStringRK5QListIS1_E
liblastfm5.so.1:_ZN6lastfm12TrackContextC2ERKS0_
liblastfm5.so.1:_ZN6lastfm12TrackContextC2Ev
liblastfm5.so.1:_ZN6lastfm12TrackContextD1Ev
liblastfm5.so.1:_ZN6lastfm12TrackContextD2Ev
liblastfm5.so.1:_ZN6lastfm12TrackContextaSERKS0_
liblastfm5.so.1:_ZN6lastfm13FingerprintId14getSuggestionsEP13QNetworkReply
liblastfm5.so.1:_ZN6lastfm13FingerprintIdC1ERKS0_
liblastfm5.so.1:_ZN6lastfm13FingerprintIdC1Ej
liblastfm5.so.1:_ZN6lastfm13FingerprintIdC1Ev
liblastfm5.so.1:_ZN6lastfm13FingerprintIdC2ERKS0_
liblastfm5.so.1:_ZN6lastfm13FingerprintIdC2Ej
liblastfm5.so.1:_ZN6lastfm13FingerprintIdC2Ev
liblastfm5.so.1:_ZN6lastfm13FingerprintIdD1Ev
liblastfm5.so.1:_ZN6lastfm13FingerprintIdD2Ev
liblastfm5.so.1:_ZN6lastfm13FingerprintIdaSERKS0_
liblastfm5.so.1:_ZN6lastfm13ScrobbleCache3addERK5QListINS_5TrackEE
liblastfm5.so.1:_ZN6lastfm13ScrobbleCache6removeERK5QListINS_5TrackEE
liblastfm5.so.1:_ZN6lastfm13ScrobbleCache7isValidERKNS_5TrackEPNS0_10InvalidityE
liblastfm5.so.1:_ZN6lastfm13ScrobbleCacheC1ERK7QString
liblastfm5.so.1:_ZN6lastfm13ScrobbleCacheC1ERKS0_
liblastfm5.so.1:_ZN6lastfm13ScrobbleCacheC2ERK7QString
liblastfm5.so.1:_ZN6lastfm13ScrobbleCacheC2ERKS0_
liblastfm5.so.1:_ZN6lastfm13ScrobbleCacheD1Ev
liblastfm5.so.1:_ZN6lastfm13ScrobbleCacheD2Ev
liblastfm5.so.1:_ZN6lastfm13ScrobbleCacheaSERKS0_
liblastfm5.so.1:_ZN6lastfm13ScrobblePoint15scrobbleTimeMaxEv
liblastfm5.so.1:_ZN6lastfm13ScrobblePoint15scrobbleTimeMinEv
liblastfm5.so.1:_ZN6lastfm13ScrobblePoint18scrobblePercentMaxEv
liblastfm5.so.1:_ZN6lastfm13ScrobblePoint18scrobblePercentMinEv
liblastfm5.so.1:_ZN6lastfm13ScrobblePoint22defaultScrobblePercentEv
liblastfm5.so.1:_ZN6lastfm13ScrobblePoint25setEnforceScrobbleTimeMaxEb
liblastfm5.so.1:_ZN6lastfm13ScrobblePointC1ERKS0_
liblastfm5.so.1:_ZN6lastfm13ScrobblePointC1Ej
liblastfm5.so.1:_ZN6lastfm13ScrobblePointC1Ev
liblastfm5.so.1:_ZN6lastfm13ScrobblePointC2ERKS0_
liblastfm5.so.1:_ZN6lastfm13ScrobblePointC2Ej
liblastfm5.so.1:_ZN6lastfm13ScrobblePointC2Ev
liblastfm5.so.1:_ZN6lastfm13ScrobblePointD1Ev
liblastfm5.so.1:_ZN6lastfm13ScrobblePointD2Ev
liblastfm5.so.1:_ZN6lastfm13ScrobblePointaSERKS0_
liblastfm5.so.1:_ZN6lastfm14Audioscrobbler10cacheBatchERK5QListINS_5TrackEE
liblastfm5.so.1:_ZN6lastfm14Audioscrobbler10cacheBatchERK5QListINS_5TrackEERK7QString
liblastfm5.so.1:_ZN6lastfm14Audioscrobbler10nowPlayingERKNS_5TrackE
liblastfm5.so.1:_ZN6lastfm14Audioscrobbler11qt_metacallEN11QMetaObject4CallEiPPv
liblastfm5.so.1:_ZN6lastfm14Audioscrobbler11qt_metacastEPKc
liblastfm5.so.1:_ZN6lastfm14Audioscrobbler15nowPlayingErrorEi7QString
liblastfm5.so.1:_ZN6lastfm14Audioscrobbler15scrobblesCachedERK5QListINS_5TrackEE
liblastfm5.so.1:_ZN6lastfm14Audioscrobbler18onNowPlayingReturnEv
liblastfm5.so.1:_ZN6lastfm14Audioscrobbler18scrobblesSubmittedERK5QListINS_5TrackEE
liblastfm5.so.1:_ZN6lastfm14Audioscrobbler21onTrackScrobbleReturnEv
liblastfm5.so.1:_ZN6lastfm14Audioscrobbler5cacheERKNS_5TrackE
liblastfm5.so.1:_ZN6lastfm14Audioscrobbler6submitEv
liblastfm5.so.1:_ZN6lastfm14AudioscrobblerC1ERK7QString
liblastfm5.so.1:_ZN6lastfm14AudioscrobblerC2ERK7QString
liblastfm5.so.1:_ZN6lastfm14AudioscrobblerD0Ev
liblastfm5.so.1:_ZN6lastfm14AudioscrobblerD1Ev
liblastfm5.so.1:_ZN6lastfm14AudioscrobblerD2Ev
liblastfm5.so.1:_ZN6lastfm20NetworkAccessManager11qt_metacallEN11QMetaObject4CallEiPPv
liblastfm5.so.1:_ZN6lastfm20NetworkAccessManager11qt_metacastEPKc
liblastfm5.so.1:_ZN6lastfm20NetworkAccessManager12setUserProxyERK13QNetworkProxy
liblastfm5.so.1:_ZN6lastfm20NetworkAccessManager13createRequestEN21QNetworkAccessManager9OperationERK15QNetworkRequestP9QIODevice
liblastfm5.so.1:_ZN6lastfm20NetworkAccessManager21onConnectivityChangedEb
liblastfm5.so.1:_ZN6lastfm20NetworkAccessManager5proxyERK15QNetworkRequest
liblastfm5.so.1:_ZN6lastfm20NetworkAccessManagerC1EP7QObject
liblastfm5.so.1:_ZN6lastfm20NetworkAccessManagerC2EP7QObject
liblastfm5.so.1:_ZN6lastfm20NetworkAccessManagerD0Ev
liblastfm5.so.1:_ZN6lastfm20NetworkAccessManagerD1Ev
liblastfm5.so.1:_ZN6lastfm20NetworkAccessManagerD2Ev
liblastfm5.so.1:_ZN6lastfm23setNetworkAccessManagerEP21QNetworkAccessManager
liblastfm5.so.1:_ZN6lastfm24NetworkConnectionMonitor11networkDownEv
liblastfm5.so.1:_ZN6lastfm24NetworkConnectionMonitor11qt_metacallEN11QMetaObject4CallEiPPv
liblastfm5.so.1:_ZN6lastfm24NetworkConnectionMonitor11qt_metacastEPKc
liblastfm5.so.1:_ZN6lastfm24NetworkConnectionMonitor12setConnectedEb
liblastfm5.so.1:_ZN6lastfm24NetworkConnectionMonitor9networkUpEv
liblastfm5.so.1:_ZN6lastfm24NetworkConnectionMonitorC1EP7QObject
liblastfm5.so.1:_ZN6lastfm24NetworkConnectionMonitorC2EP7QObject
liblastfm5.so.1:_ZN6lastfm24NetworkConnectionMonitorD0Ev
liblastfm5.so.1:_ZN6lastfm24NetworkConnectionMonitorD1Ev
liblastfm5.so.1:_ZN6lastfm24NetworkConnectionMonitorD2Ev
liblastfm5.so.1:_ZN6lastfm25InternetConnectionMonitor10onFinishedEP13QNetworkReply
liblastfm5.so.1:_ZN6lastfm25InternetConnectionMonitor11onNetworkUpEv
liblastfm5.so.1:_ZN6lastfm25InternetConnectionMonitor11qt_metacallEN11QMetaObject4CallEiPPv
liblastfm5.so.1:_ZN6lastfm25InternetConnectionMonitor11qt_metacastEPKc
liblastfm5.so.1:_ZN6lastfm25InternetConnectionMonitor13onNetworkDownEv
liblastfm5.so.1:_ZN6lastfm25InternetConnectionMonitor19connectivityChangedEb
liblastfm5.so.1:_ZN6lastfm25InternetConnectionMonitor2upERK7QString
liblastfm5.so.1:_ZN6lastfm25InternetConnectionMonitor30createNetworkConnectionMonitorEv
liblastfm5.so.1:_ZN6lastfm25InternetConnectionMonitor4downERK7QString
liblastfm5.so.1:_ZN6lastfm25InternetConnectionMonitorC1EP7QObject
liblastfm5.so.1:_ZN6lastfm25InternetConnectionMonitorC2EP7QObject
liblastfm5.so.1:_ZN6lastfm25InternetConnectionMonitorD0Ev
liblastfm5.so.1:_ZN6lastfm25InternetConnectionMonitorD1Ev
liblastfm5.so.1:_ZN6lastfm25InternetConnectionMonitorD2Ev
liblastfm5.so.1:_ZN6lastfm2ws10ParseErrorC1ENS0_5ErrorE7QString
liblastfm5.so.1:_ZN6lastfm2ws10ParseErrorC1ERKS1_
liblastfm5.so.1:_ZN6lastfm2ws10ParseErrorC2ENS0_5ErrorE7QString
liblastfm5.so.1:_ZN6lastfm2ws10ParseErrorC2ERKS1_
liblastfm5.so.1:_ZN6lastfm2ws10ParseErrorD1Ev
liblastfm5.so.1:_ZN6lastfm2ws10ParseErrorD2Ev
liblastfm5.so.1:_ZN6lastfm2ws10ParseErroraSERKS1_
liblastfm5.so.1:_ZN6lastfm2ws3getE4QMapI7QStringS2_E
liblastfm5.so.1:_ZN6lastfm2ws3urlE4QMapI7QStringS2_Eb
liblastfm5.so.1:_ZN6lastfm2ws4hostEv
liblastfm5.so.1:_ZN6lastfm2ws4postE4QMapI7QStringS2_Eb
liblastfm5.so.1:_ZN6lastfm2ws4signER4QMapI7QStringS2_Eb
liblastfm5.so.1:_ZN6lastfm2ws6schemeEv
liblastfm5.so.1:_ZN6lastfm2ws7expiresEP13QNetworkReply
liblastfm5.so.1:_ZN6lastfm2ws9setSchemeENS0_6SchemeE
liblastfm5.so.1:_ZN6lastfm3Tag10getTopTagsEv
liblastfm5.so.1:_ZN6lastfm3Tag4listEP13QNetworkReply
liblastfm5.so.1:_ZN6lastfm3TagC1ERK7QString
liblastfm5.so.1:_ZN6lastfm3TagC1ERKS0_
liblastfm5.so.1:_ZN6lastfm3TagC2ERK7QString
liblastfm5.so.1:_ZN6lastfm3TagC2ERKS0_
liblastfm5.so.1:_ZN6lastfm3TagD1Ev
liblastfm5.so.1:_ZN6lastfm3TagD2Ev
liblastfm5.so.1:_ZN6lastfm3Url12addQueryItemERK7QStringS3_
liblastfm5.so.1:_ZN6lastfm3UrlC1ERK4QUrl
liblastfm5.so.1:_ZN6lastfm3UrlC2ERK4QUrl
liblastfm5.so.1:_ZN6lastfm3UrlD1Ev
liblastfm5.so.1:_ZN6lastfm3UrlD2Ev
liblastfm5.so.1:_ZN6lastfm3UrlaSERKS0_
liblastfm5.so.1:_ZN6lastfm3UrlclEv
liblastfm5.so.1:_ZN6lastfm3dir11runtimeDataEv
liblastfm5.so.1:_ZN6lastfm3dir4logsEv
liblastfm5.so.1:_ZN6lastfm3dir5cacheEv
liblastfm5.so.1:_ZN6lastfm3md5ERK10QByteArray
liblastfm5.so.1:_ZN6lastfm3namEv
liblastfm5.so.1:_ZN6lastfm4Auth14getSessionInfoEv
liblastfm5.so.1:_ZN6lastfm4Auth16getMobileSessionERK7QStringS3_
liblastfm5.so.1:_ZN6lastfm4AuthC1Ev
liblastfm5.so.1:_ZN6lastfm4AuthC2Ev
liblastfm5.so.1:_ZN6lastfm4Mbid13fromLocalFileERK7QString
liblastfm5.so.1:_ZN6lastfm4MbidC1ERK7QString
liblastfm5.so.1:_ZN6lastfm4MbidC1ERKS0_
liblastfm5.so.1:_ZN6lastfm4MbidC2ERK7QString
liblastfm5.so.1:_ZN6lastfm4MbidC2ERKS0_
liblastfm5.so.1:_ZN6lastfm4MbidD1Ev
liblastfm5.so.1:_ZN6lastfm4MbidD2Ev
liblastfm5.so.1:_ZN6lastfm4MbidaSERKS0_
liblastfm5.so.1:_ZN6lastfm4User10setCountryERK7QString
liblastfm5.so.1:_ZN6lastfm4User11setRealNameERK7QString
liblastfm5.so.1:_ZN6lastfm4User15setCanBootstrapEb
liblastfm5.so.1:_ZN6lastfm4User15setIsSubscriberEb
liblastfm5.so.1:_ZN6lastfm4User16setScrobbleCountEj
liblastfm5.so.1:_ZN6lastfm4User17setDateRegisteredERK9QDateTime
liblastfm5.so.1:_ZN6lastfm4User4listEP13QNetworkReply
liblastfm5.so.1:_ZN6lastfm4User6setAgeEt
liblastfm5.so.1:_ZN6lastfm4User7getInfoERK7QString
liblastfm5.so.1:_ZN6lastfm4User7setNameERK7QString
liblastfm5.so.1:_ZN6lastfm4User7setTypeENS0_4TypeE
liblastfm5.so.1:_ZN6lastfm4User9setGenderERK7QString
liblastfm5.so.1:_ZN6lastfm4User9setImagesERK5QListI4QUrlE
liblastfm5.so.1:_ZN6lastfm4UserC1ERK7QString
liblastfm5.so.1:_ZN6lastfm4UserC1ERKNS_8XmlQueryE
liblastfm5.so.1:_ZN6lastfm4UserC1ERKS0_
liblastfm5.so.1:_ZN6lastfm4UserC1Ev
liblastfm5.so.1:_ZN6lastfm4UserC2ERK7QString
liblastfm5.so.1:_ZN6lastfm4UserC2ERKNS_8XmlQueryE
liblastfm5.so.1:_ZN6lastfm4UserC2ERKS0_
liblastfm5.so.1:_ZN6lastfm4UserC2Ev
liblastfm5.so.1:_ZN6lastfm4UserD0Ev
liblastfm5.so.1:_ZN6lastfm4UserD1Ev
liblastfm5.so.1:_ZN6lastfm4UserD2Ev
liblastfm5.so.1:_ZN6lastfm4UseraSERKS0_
liblastfm5.so.1:_ZN6lastfm4Xspf11qt_metacallEN11QMetaObject4CallEiPPv
liblastfm5.so.1:_ZN6lastfm4Xspf11qt_metacastEPKc
liblastfm5.so.1:_ZN6lastfm4Xspf7expiredEv
liblastfm5.so.1:_ZN6lastfm4Xspf9onExpiredEv
liblastfm5.so.1:_ZN6lastfm4Xspf9takeFirstEv
liblastfm5.so.1:_ZN6lastfm4XspfC1ERK11QDomElementP7QObject
liblastfm5.so.1:_ZN6lastfm4XspfC2ERK11QDomElementP7QObject
liblastfm5.so.1:_ZN6lastfm4XspfD0Ev
liblastfm5.so.1:_ZN6lastfm4XspfD1Ev
liblastfm5.so.1:_ZN6lastfm4XspfD2Ev
liblastfm5.so.1:_ZN6lastfm5Album11setImageUrlENS_12AbstractType9ImageSizeERK7QString
liblastfm5.so.1:_ZN6lastfm5Album9setArtistERK7QString
liblastfm5.so.1:_ZN6lastfm5AlbumC1ENS_4MbidE
liblastfm5.so.1:_ZN6lastfm5AlbumC1ENS_6ArtistE7QString
liblastfm5.so.1:_ZN6lastfm5AlbumC1ERKS0_
liblastfm5.so.1:_ZN6lastfm5AlbumC1Ev
liblastfm5.so.1:_ZN6lastfm5AlbumC2ENS_4MbidE
liblastfm5.so.1:_ZN6lastfm5AlbumC2ENS_6ArtistE7QString
liblastfm5.so.1:_ZN6lastfm5AlbumC2ERKS0_
liblastfm5.so.1:_ZN6lastfm5AlbumC2Ev
liblastfm5.so.1:_ZN6lastfm5AlbumD0Ev
liblastfm5.so.1:_ZN6lastfm5AlbumD1Ev
liblastfm5.so.1:_ZN6lastfm5AlbumD2Ev
liblastfm5.so.1:_ZN6lastfm5AlbumaSERKS0_
liblastfm5.so.1:_ZN6lastfm5Chart10getTopTagsEii
liblastfm5.so.1:_ZN6lastfm5Chart12getTopTracksEii
liblastfm5.so.1:_ZN6lastfm5Chart13getTopArtistsEii
liblastfm5.so.1:_ZN6lastfm5Chart14getHypedTracksEii
liblastfm5.so.1:_ZN6lastfm5Chart14getLovedTracksEii
liblastfm5.so.1:_ZN6lastfm5Chart15getHypedArtistsEii
liblastfm5.so.1:_ZN6lastfm5Chart15getTopDownloadsEii
liblastfm5.so.1:_ZN6lastfm5ChartC1Ev
liblastfm5.so.1:_ZN6lastfm5ChartC2Ev
liblastfm5.so.1:_ZN6lastfm5Track10getSimilarEP13QNetworkReply
liblastfm5.so.1:_ZN6lastfm5Track10sameObjectERKS0_
liblastfm5.so.1:_ZN6lastfm5Track14durationStringEi
liblastfm5.so.1:_ZN6lastfm5Track8scrobbleERK5QListIS0_E
liblastfm5.so.1:_ZN6lastfm5Track9playlinksERK5QListIS0_E
liblastfm5.so.1:_ZN6lastfm5TrackC1ERK11QDomElement
liblastfm5.so.1:_ZN6lastfm5TrackC1ERKS0_
liblastfm5.so.1:_ZN6lastfm5TrackC1Ev
liblastfm5.so.1:_ZN6lastfm5TrackC2ERK11QDomElement
liblastfm5.so.1:_ZN6lastfm5TrackC2ERKS0_
liblastfm5.so.1:_ZN6lastfm5TrackC2Ev
liblastfm5.so.1:_ZN6lastfm5TrackD0Ev
liblastfm5.so.1:_ZN6lastfm5TrackD1Ev
liblastfm5.so.1:_ZN6lastfm5TrackD2Ev
liblastfm5.so.1:_ZN6lastfm5TrackaSERKS0_
liblastfm5.so.1:_ZN6lastfm6Artist10getSimilarEP13QNetworkReply
liblastfm5.so.1:_ZN6lastfm6Artist11setImageUrlENS_12AbstractType9ImageSizeERK7QString
liblastfm5.so.1:_ZN6lastfm6Artist12getTopTracksEP13QNetworkReply
liblastfm5.so.1:_ZN6lastfm6Artist4listEP13QNetworkReply
liblastfm5.so.1:_ZN6lastfm6Artist7getInfoEP13QNetworkReply
liblastfm5.so.1:_ZN6lastfm6Artist7setNameERK7QString
liblastfm5.so.1:_ZN6lastfm6ArtistC1ERK7QString
liblastfm5.so.1:_ZN6lastfm6ArtistC1ERKNS_8XmlQueryE
liblastfm5.so.1:_ZN6lastfm6ArtistC1ERKS0_
liblastfm5.so.1:_ZN6lastfm6ArtistC1Ev
liblastfm5.so.1:_ZN6lastfm6ArtistC2ERK7QString
liblastfm5.so.1:_ZN6lastfm6ArtistC2ERKNS_8XmlQueryE
liblastfm5.so.1:_ZN6lastfm6ArtistC2ERKS0_
liblastfm5.so.1:_ZN6lastfm6ArtistC2Ev
liblastfm5.so.1:_ZN6lastfm6ArtistD0Ev
liblastfm5.so.1:_ZN6lastfm6ArtistD1Ev
liblastfm5.so.1:_ZN6lastfm6ArtistD2Ev
liblastfm5.so.1:_ZN6lastfm6ArtistaSERKS0_
liblastfm5.so.1:_ZN6lastfm6GenderC1ERK7QString
liblastfm5.so.1:_ZN6lastfm6GenderC1ERKS0_
liblastfm5.so.1:_ZN6lastfm6GenderC1Ev
liblastfm5.so.1:_ZN6lastfm6GenderC2ERK7QString
liblastfm5.so.1:_ZN6lastfm6GenderC2ERKS0_
liblastfm5.so.1:_ZN6lastfm6GenderC2Ev
liblastfm5.so.1:_ZN6lastfm6GenderD1Ev
liblastfm5.so.1:_ZN6lastfm6GenderD2Ev
liblastfm5.so.1:_ZN6lastfm6GenderaSERKS0_
liblastfm5.so.1:_ZN6lastfm7Library10getArtistsERK7QStringii
liblastfm5.so.1:_ZN6lastfm7Library11removeAlbumERKNS_5AlbumE
liblastfm5.so.1:_ZN6lastfm7Library11removeTrackERKNS_5TrackE
liblastfm5.so.1:_ZN6lastfm7Library12removeArtistERKNS_6ArtistE
liblastfm5.so.1:_ZN6lastfm7Library14removeScrobbleERKNS_5TrackE
liblastfm5.so.1:_ZN6lastfm7Library8addAlbumERK5QListINS_5AlbumEE
liblastfm5.so.1:_ZN6lastfm7Library8addTrackERKNS_5TrackE
liblastfm5.so.1:_ZN6lastfm7Library9addArtistERK5QListINS_6ArtistEE
liblastfm5.so.1:_ZN6lastfm7Library9getAlbumsERK7QStringRKNS_6ArtistEii
liblastfm5.so.1:_ZN6lastfm7Library9getTracksERK7QStringRKNS_5AlbumEii
liblastfm5.so.1:_ZN6lastfm7Library9getTracksERK7QStringRKNS_6ArtistEii
liblastfm5.so.1:_ZN6lastfm7LibraryC1Ev
liblastfm5.so.1:_ZN6lastfm7LibraryC2Ev
liblastfm5.so.1:_ZN6lastfm8Playlist5fetchERK4QUrl
liblastfm5.so.1:_ZN6lastfm8Playlist6createERK7QStringS3_
liblastfm5.so.1:_ZN6lastfm8PlaylistC1ERKS0_
liblastfm5.so.1:_ZN6lastfm8PlaylistC1Ei
liblastfm5.so.1:_ZN6lastfm8PlaylistC1Ev
liblastfm5.so.1:_ZN6lastfm8PlaylistC2ERKS0_
liblastfm5.so.1:_ZN6lastfm8PlaylistC2Ei
liblastfm5.so.1:_ZN6lastfm8PlaylistC2Ev
liblastfm5.so.1:_ZN6lastfm8PlaylistD1Ev
liblastfm5.so.1:_ZN6lastfm8PlaylistD2Ev
liblastfm5.so.1:_ZN6lastfm8PlaylistaSERKS0_
liblastfm5.so.1:_ZN6lastfm8UserList10totalPagesEv
liblastfm5.so.1:_ZN6lastfm8UserList10totalUsersEv
liblastfm5.so.1:_ZN6lastfm8UserList11currentPageEv
liblastfm5.so.1:_ZN6lastfm8UserList12usersPerPageEv
liblastfm5.so.1:_ZN6lastfm8UserList5usersEv
liblastfm5.so.1:_ZN6lastfm8UserListC1ERKNS_8XmlQueryE
liblastfm5.so.1:_ZN6lastfm8UserListC1ERKS0_
liblastfm5.so.1:_ZN6lastfm8UserListC1Ev
liblastfm5.so.1:_ZN6lastfm8UserListC2ERKNS_8XmlQueryE
liblastfm5.so.1:_ZN6lastfm8UserListC2ERKS0_
liblastfm5.so.1:_ZN6lastfm8UserListC2Ev
liblastfm5.so.1:_ZN6lastfm8UserListD1Ev
liblastfm5.so.1:_ZN6lastfm8UserListD2Ev
liblastfm5.so.1:_ZN6lastfm8UserListaSERKS0_
liblastfm5.so.1:_ZN6lastfm8XmlQuery5parseEP13QNetworkReply
liblastfm5.so.1:_ZN6lastfm8XmlQuery5parseERK10QByteArray
liblastfm5.so.1:_ZN6lastfm8XmlQueryC1ERK11QDomElementPKc
liblastfm5.so.1:_ZN6lastfm8XmlQueryC1ERKS0_
liblastfm5.so.1:_ZN6lastfm8XmlQueryC1Ev
liblastfm5.so.1:_ZN6lastfm8XmlQueryC2ERK11QDomElementPKc
liblastfm5.so.1:_ZN6lastfm8XmlQueryC2ERKS0_
liblastfm5.so.1:_ZN6lastfm8XmlQueryC2Ev
liblastfm5.so.1:_ZN6lastfm8XmlQueryD1Ev
liblastfm5.so.1:_ZN6lastfm8XmlQueryD2Ev
liblastfm5.so.1:_ZN6lastfm8XmlQueryaSERKS0_
liblastfm5.so.1:_ZN6lastfm8platformEv
liblastfm5.so.1:_ZNK6lastfm10RadioTuner10metaObjectEv
liblastfm5.so.1:_ZNK6lastfm10UrlBuilder3urlEv
liblastfm5.so.1:_ZNK6lastfm12RadioStation16getSampleArtistsEi
liblastfm5.so.1:_ZNK6lastfm12RadioStation16isLegacyPlaylistEv
liblastfm5.so.1:_ZNK6lastfm12RadioStation17getTagSuggestionsEi
liblastfm5.so.1:_ZNK6lastfm12RadioStation3repEv
liblastfm5.so.1:_ZNK6lastfm12RadioStation3urlEv
liblastfm5.so.1:_ZNK6lastfm12RadioStation5discoEv
liblastfm5.so.1:_ZNK6lastfm12RadioStation5titleEv
liblastfm5.so.1:_ZNK6lastfm12RadioStation7mainstrEv
liblastfm5.so.1:_ZNK6lastfm12RadioStationeqERKS0_
liblastfm5.so.1:_ZNK6lastfm12TrackContext4typeEv
liblastfm5.so.1:_ZNK6lastfm12TrackContext6valuesEv
liblastfm5.so.1:_ZNK6lastfm13FingerprintId14getSuggestionsEv
liblastfm5.so.1:_ZNK6lastfm13FingerprintId6isNullEv
liblastfm5.so.1:_ZNK6lastfm13FingerprintIdcv7QStringEv
liblastfm5.so.1:_ZNK6lastfm13FingerprintIdcviEv
liblastfm5.so.1:_ZNK6lastfm13ScrobbleCache4pathEv
liblastfm5.so.1:_ZNK6lastfm13ScrobbleCache6tracksEv
liblastfm5.so.1:_ZNK6lastfm13ScrobbleCache8usernameEv
liblastfm5.so.1:_ZNK6lastfm13ScrobblePointcvjEv
liblastfm5.so.1:_ZNK6lastfm14Audioscrobbler10metaObjectEv
liblastfm5.so.1:_ZNK6lastfm20NetworkAccessManager10metaObjectEv
liblastfm5.so.1:_ZNK6lastfm24NetworkConnectionMonitor10metaObjectEv
liblastfm5.so.1:_ZNK6lastfm24NetworkConnectionMonitor11isConnectedEv
liblastfm5.so.1:_ZNK6lastfm25InternetConnectionMonitor10metaObjectEv
liblastfm5.so.1:_ZNK6lastfm25InternetConnectionMonitor4isUpEv
liblastfm5.so.1:_ZNK6lastfm25InternetConnectionMonitor6isDownEv
liblastfm5.so.1:_ZNK6lastfm2ws10ParseError7messageEv
liblastfm5.so.1:_ZNK6lastfm2ws10ParseError9enumValueEv
liblastfm5.so.1:_ZNK6lastfm3Tag3wwwERKNS_4UserE
liblastfm5.so.1:_ZNK6lastfm3Tag3wwwEv
liblastfm5.so.1:_ZNK6lastfm3Tag4nameEv
liblastfm5.so.1:_ZNK6lastfm3Tag6searchEv
liblastfm5.so.1:_ZNK6lastfm3TagaSERKS0_
liblastfm5.so.1:_ZNK6lastfm3Tagcv7QStringEv
liblastfm5.so.1:_ZNK6lastfm3TagltERKS0_
liblastfm5.so.1:_ZNK6lastfm3Url3urlEv
liblastfm5.so.1:_ZNK6lastfm4Mbid6isNullEv
liblastfm5.so.1:_ZNK6lastfm4Mbidcv7QStringEv
liblastfm5.so.1:_ZNK6lastfm4User10getFriendsEbii
liblastfm5.so.1:_ZNK6lastfm4User10getTopTagsEv
liblastfm5.so.1:_ZNK6lastfm4User12canBootstrapEv
liblastfm5.so.1:_ZNK6lastfm4User12getPlaylistsEv
liblastfm5.so.1:_ZNK6lastfm4User12isSubscriberEv
liblastfm5.so.1:_ZNK6lastfm4User12toDomElementER12QDomDocument
liblastfm5.so.1:_ZNK6lastfm4User13getInfoStringEv
liblastfm5.so.1:_ZNK6lastfm4User13getNeighboursEii
liblastfm5.so.1:_ZNK6lastfm4User13getTopArtistsE7QStringii
liblastfm5.so.1:_ZNK6lastfm4User13scrobbleCountEv
liblastfm5.so.1:_ZNK6lastfm4User14dateRegisteredEv
liblastfm5.so.1:_ZNK6lastfm4User14getLovedTracksEii
liblastfm5.so.1:_ZNK6lastfm4User15getRecentTracksEii
liblastfm5.so.1:_ZNK6lastfm4User16getRecentArtistsEv
liblastfm5.so.1:_ZNK6lastfm4User17getRecentStationsEii
liblastfm5.so.1:_ZNK6lastfm4User21getRecommendedArtistsEii
liblastfm5.so.1:_ZNK6lastfm4User22getFriendsListeningNowEii
liblastfm5.so.1:_ZNK6lastfm4User22getFriendsThatListenToERKNS_6ArtistEii
liblastfm5.so.1:_ZNK6lastfm4User3ageEv
liblastfm5.so.1:_ZNK6lastfm4User3wwwEv
liblastfm5.so.1:_ZNK6lastfm4User4nameEv
liblastfm5.so.1:_ZNK6lastfm4User4typeEv
liblastfm5.so.1:_ZNK6lastfm4User5matchEv
liblastfm5.so.1:_ZNK6lastfm4User6genderEv
liblastfm5.so.1:_ZNK6lastfm4User6paramsERK7QString
liblastfm5.so.1:_ZNK6lastfm4User7countryEv
liblastfm5.so.1:_ZNK6lastfm4User8imageUrlENS_12AbstractType9ImageSizeEb
liblastfm5.so.1:_ZNK6lastfm4User8realNameEv
liblastfm5.so.1:_ZNK6lastfm4User8toStringEv
liblastfm5.so.1:_ZNK6lastfm4Usercv7QStringEv
liblastfm5.so.1:_ZNK6lastfm4UsereqERKS0_
liblastfm5.so.1:_ZNK6lastfm4UserltERKS0_
liblastfm5.so.1:_ZNK6lastfm4Xspf10metaObjectEv
liblastfm5.so.1:_ZNK6lastfm4Xspf5titleEv
liblastfm5.so.1:_ZNK6lastfm4Xspf6tracksEv
liblastfm5.so.1:_ZNK6lastfm4Xspf7isEmptyEv
liblastfm5.so.1:_ZNK6lastfm5Album12toDomElementER12QDomDocument
liblastfm5.so.1:_ZNK6lastfm5Album3wwwEv
liblastfm5.so.1:_ZNK6lastfm5Album4mbidEv
liblastfm5.so.1:_ZNK6lastfm5Album5shareERK11QStringListRK7QStringb
liblastfm5.so.1:_ZNK6lastfm5Album5titleEv
liblastfm5.so.1:_ZNK6lastfm5Album6artistEv
liblastfm5.so.1:_ZNK6lastfm5Album6isNullEv
liblastfm5.so.1:_ZNK6lastfm5Album7addTagsERK11QStringList
liblastfm5.so.1:_ZNK6lastfm5Album7getInfoERK7QString
liblastfm5.so.1:_ZNK6lastfm5Album7getTagsEv
liblastfm5.so.1:_ZNK6lastfm5Album8imageUrlENS_12AbstractType9ImageSizeEb
liblastfm5.so.1:_ZNK6lastfm5Album8toStringEv
liblastfm5.so.1:_ZNK6lastfm5Albumcv7QStringEv
liblastfm5.so.1:_ZNK6lastfm5AlbumeqERKS0_
liblastfm5.so.1:_ZNK6lastfm5AlbumneERKS0_
liblastfm5.so.1:_ZNK6lastfm5Track10getSimilarEi
liblastfm5.so.1:_ZNK6lastfm5Track10getTopFansEv
liblastfm5.so.1:_ZNK6lastfm5Track10getTopTagsEv
liblastfm5.so.1:_ZNK6lastfm5Track10loveStatusEv
liblastfm5.so.1:_ZNK6lastfm5Track11albumArtistENS0_11CorrectionsE
liblastfm5.so.1:_ZNK6lastfm5Track11getBuyLinksERK7QString
liblastfm5.so.1:_ZNK6lastfm5Track11signalProxyEv
liblastfm5.so.1:_ZNK6lastfm5Track11trackNumberEv
liblastfm5.so.1:_ZNK6lastfm5Track12toDomElementER12QDomDocument
liblastfm5.so.1:_ZNK6lastfm5Track13fingerprintIdEv
liblastfm5.so.1:_ZNK6lastfm5Track13scrobbleErrorEv
liblastfm5.so.1:_ZNK6lastfm5Track14durationStringEv
liblastfm5.so.1:_ZNK6lastfm5Track14scrobbleStatusEv
liblastfm5.so.1:_ZNK6lastfm5Track16removeNowPlayingEv
liblastfm5.so.1:_ZNK6lastfm5Track16updateNowPlayingEi
liblastfm5.so.1:_ZNK6lastfm5Track16updateNowPlayingEv
liblastfm5.so.1:_ZNK6lastfm5Track17scrobbleErrorTextEv
liblastfm5.so.1:_ZNK6lastfm5Track3urlEv
liblastfm5.so.1:_ZNK6lastfm5Track3wwwEv
liblastfm5.so.1:_ZNK6lastfm5Track4mbidEv
liblastfm5.so.1:_ZNK6lastfm5Track5albumENS0_11CorrectionsE
liblastfm5.so.1:_ZNK6lastfm5Track5cloneEv
liblastfm5.so.1:_ZNK6lastfm5Track5extraERK7QString
liblastfm5.so.1:_ZNK6lastfm5Track5isMp3Ev
liblastfm5.so.1:_ZNK6lastfm5Track5shareERK11QStringListRK7QStringb
liblastfm5.so.1:_ZNK6lastfm5Track5titleENS0_11CorrectionsE
liblastfm5.so.1:_ZNK6lastfm5Track6artistENS0_11CorrectionsE
liblastfm5.so.1:_ZNK6lastfm5Track6isNullEv
liblastfm5.so.1:_ZNK6lastfm5Track6paramsERK7QStringb
liblastfm5.so.1:_ZNK6lastfm5Track6sourceEv
liblastfm5.so.1:_ZNK6lastfm5Track7addTagsERK11QStringList
liblastfm5.so.1:_ZNK6lastfm5Track7contextEv
liblastfm5.so.1:_ZNK6lastfm5Track7getInfoEP7QObjectPKcRK7QString
liblastfm5.so.1:_ZNK6lastfm5Track7getTagsEv
liblastfm5.so.1:_ZNK6lastfm5Track7isLovedEv
liblastfm5.so.1:_ZNK6lastfm5Track7isVideoEv
liblastfm5.so.1:_ZNK6lastfm5Track8durationEv
liblastfm5.so.1:_ZNK6lastfm5Track8imageUrlENS_12AbstractType9ImageSizeEb
liblastfm5.so.1:_ZNK6lastfm5Track8scrobbleEv
liblastfm5.so.1:_ZNK6lastfm5Track8toStringENS0_11CorrectionsE
liblastfm5.so.1:_ZNK6lastfm5Track8toStringERK5QCharNS0_11CorrectionsE
liblastfm5.so.1:_ZNK6lastfm5Track8toStringEv
liblastfm5.so.1:_ZNK6lastfm5Track9correctedEv
liblastfm5.so.1:_ZNK6lastfm5Track9isPodcastEv
liblastfm5.so.1:_ZNK6lastfm5Track9removeTagERK7QString
liblastfm5.so.1:_ZNK6lastfm5Track9timestampEv
liblastfm5.so.1:_ZNK6lastfm5Trackcv8QVariantEv
liblastfm5.so.1:_ZNK6lastfm5TrackeqERKS0_
liblastfm5.so.1:_ZNK6lastfm5TrackltERKS0_
liblastfm5.so.1:_ZNK6lastfm5TrackneERKS0_
liblastfm5.so.1:_ZNK6lastfm6Artist10getSimilarEi
liblastfm5.so.1:_ZNK6lastfm6Artist10getTopTagsEv
liblastfm5.so.1:_ZNK6lastfm6Artist12getTopTracksEv
liblastfm5.so.1:_ZNK6lastfm6Artist12toDomElementER12QDomDocument
liblastfm5.so.1:_ZNK6lastfm6Artist16biographySummaryEv
liblastfm5.so.1:_ZNK6lastfm6Artist3wwwEv
liblastfm5.so.1:_ZNK6lastfm6Artist4nameEv
liblastfm5.so.1:_ZNK6lastfm6Artist5shareERK11QStringListRK7QStringb
liblastfm5.so.1:_ZNK6lastfm6Artist6isNullEv
liblastfm5.so.1:_ZNK6lastfm6Artist6paramsERK7QString
liblastfm5.so.1:_ZNK6lastfm6Artist6searchEi
liblastfm5.so.1:_ZNK6lastfm6Artist7addTagsERK11QStringList
liblastfm5.so.1:_ZNK6lastfm6Artist7getInfoERK7QString
liblastfm5.so.1:_ZNK6lastfm6Artist7getTagsEv
liblastfm5.so.1:_ZNK6lastfm6Artist8imageUrlENS_12AbstractType9ImageSizeEb
liblastfm5.so.1:_ZNK6lastfm6Artist8toStringEv
liblastfm5.so.1:_ZNK6lastfm6Artist9biographyEv
liblastfm5.so.1:_ZNK6lastfm6Artist9getEventsEi
liblastfm5.so.1:_ZNK6lastfm6Artistcv7QStringEv
liblastfm5.so.1:_ZNK6lastfm6ArtisteqERKS0_
liblastfm5.so.1:_ZNK6lastfm6ArtistltERKS0_
liblastfm5.so.1:_ZNK6lastfm6ArtistneERKS0_
liblastfm5.so.1:_ZNK6lastfm6Gender4maleEv
liblastfm5.so.1:_ZNK6lastfm6Gender5knownEv
liblastfm5.so.1:_ZNK6lastfm6Gender6femaleEv
liblastfm5.so.1:_ZNK6lastfm6Gender8toStringEv
liblastfm5.so.1:_ZNK6lastfm8Playlist2idEv
liblastfm5.so.1:_ZNK6lastfm8Playlist5fetchEv
liblastfm5.so.1:_ZNK6lastfm8Playlist8addTrackERKNS_5TrackE
liblastfm5.so.1:_ZNK6lastfm8XmlQuery10parseErrorEv
liblastfm5.so.1:_ZNK6lastfm8XmlQuery4textEv
liblastfm5.so.1:_ZNK6lastfm8XmlQuery8childrenERK7QString
liblastfm5.so.1:_ZNK6lastfm8XmlQuery9attributeERK7QString
liblastfm5.so.1:_ZNK6lastfm8XmlQuerycv11QDomElementEv
liblastfm5.so.1:_ZNK6lastfm8XmlQueryixERK7QString
liblastfm5.so.1:_Zls6QDebugN13QNetworkReply12NetworkErrorE
liblastfm5.so.1:_Zls6QDebugN6lastfm13FingerprintIdE
liblastfm5.so.1:_Zls6QDebugRKN6lastfm12RadioStationE
liblastfm5.so.1:_Zls6QDebugRKN6lastfm5TrackE
liblastfm5.so.1:_Zls6QDebugRKN6lastfm8XmlQueryE
liblastfm_fingerprint5.so.1:_ZN6lastfm11Fingerprint6decodeEP13QNetworkReplyPb
liblastfm_fingerprint5.so.1:_ZN6lastfm11Fingerprint8generateEPNS_21FingerprintableSourceE
liblastfm_fingerprint5.so.1:_ZN6lastfm11FingerprintC1ERKNS_5TrackE
liblastfm_fingerprint5.so.1:_ZN6lastfm11FingerprintC2ERKNS_5TrackE
liblastfm_fingerprint5.so.1:_ZN6lastfm11FingerprintD1Ev
liblastfm_fingerprint5.so.1:_ZN6lastfm11FingerprintD2Ev
liblastfm_fingerprint5.so.1:_ZN6lastfm19CompleteFingerprintC1ERKNS_5TrackE
liblastfm_fingerprint5.so.1:_ZN6lastfm19CompleteFingerprintC2ERKNS_5TrackE
liblastfm_fingerprint5.so.1:_ZN6lastfm19CompleteFingerprintD1Ev
liblastfm_fingerprint5.so.1:_ZN6lastfm19CompleteFingerprintD2Ev
liblastfm_fingerprint5.so.1:_ZNK6lastfm11Fingerprint2idEv
liblastfm_fingerprint5.so.1:_ZNK6lastfm11Fingerprint4dataEv
liblastfm_fingerprint5.so.1:_ZNK6lastfm11Fingerprint6submitEv
liblastfm_fingerprint5.so.1:_Zls6QDebugN6lastfm11Fingerprint5ErrorE
