libdate-tz.so.3:_ZN4date11leap_secondC1ERKNSt7__cxx1112basic_stringIcSt11char_traitsIcESaIcEEENS_6detail12undocumentedE
libdate-tz.so.3:_ZN4date11leap_secondC2ERKNSt7__cxx1112basic_stringIcSt11char_traitsIcESaIcEEENS_6detail12undocumentedE
libdate-tz.so.3:_ZN4date11locate_zoneESt17basic_string_viewIcSt11char_traitsIcEE
libdate-tz.so.3:_ZN4date11reload_tzdbEv
libdate-tz.so.3:_ZN4date11set_installERKNSt7__cxx1112basic_stringIcSt11char_traitsIcESaIcEEE
libdate-tz.so.3:_ZN4date12current_zoneEv
libdate-tz.so.3:_ZN4date13get_tzdb_listEv
libdate-tz.so.3:_ZN4date14remote_installERKNSt7__cxx1112basic_stringIcSt11char_traitsIcESaIcEEE
libdate-tz.so.3:_ZN4date14remote_versionB5cxx11Ev
libdate-tz.so.3:_ZN4date14time_zone_linkC1ERKNSt7__cxx1112basic_stringIcSt11char_traitsIcESaIcEEE
libdate-tz.so.3:_ZN4date14time_zone_linkC2ERKNSt7__cxx1112basic_stringIcSt11char_traitsIcESaIcEEE
libdate-tz.so.3:_ZN4date15remote_downloadERKNSt7__cxx1112basic_stringIcSt11char_traitsIcESaIcEEEPc
libdate-tz.so.3:_ZN4date6detail12MonthDayTime12canonicalizeENS_4yearE
libdate-tz.so.3:_ZN4date6detail12MonthDayTime1UaSERKNS1_4pairE
libdate-tz.so.3:_ZN4date6detail12MonthDayTime1UaSERKNS_18month_weekday_lastE
libdate-tz.so.3:_ZN4date6detail12MonthDayTime1UaSERKNS_9month_dayE
libdate-tz.so.3:_ZN4date6detail12MonthDayTimeC1ENSt6chrono10time_pointINS_7local_tENS2_8durationIlSt5ratioILl1ELl1EEEEEENS0_2tzE
libdate-tz.so.3:_ZN4date6detail12MonthDayTimeC1ERKNS_9month_dayENS0_2tzE
libdate-tz.so.3:_ZN4date6detail12MonthDayTimeC2ENSt6chrono10time_pointINS_7local_tENS2_8durationIlSt5ratioILl1ELl1EEEEEENS0_2tzE
libdate-tz.so.3:_ZN4date6detail12MonthDayTimeC2ERKNS_9month_dayENS0_2tzE
libdate-tz.so.3:_ZN4date6detail4Rule14split_overlapsERSt6vectorIS1_SaIS1_EE
libdate-tz.so.3:_ZN4date6detail4Rule14split_overlapsERSt6vectorIS1_SaIS1_EEmRm
libdate-tz.so.3:_ZN4date6detail4Rule5splitERSt6vectorIS1_SaIS1_EEmmRm
libdate-tz.so.3:_ZN4date6detail4Rule8overlapsERKS1_S3_
libdate-tz.so.3:_ZN4date6detail4RuleC1ERKNSt7__cxx1112basic_stringIcSt11char_traitsIcESaIcEEE
libdate-tz.so.3:_ZN4date6detail4RuleC1ERKS1_NS_4yearES4_
libdate-tz.so.3:_ZN4date6detail4RuleC2ERKNSt7__cxx1112basic_stringIcSt11char_traitsIcESaIcEEE
libdate-tz.so.3:_ZN4date6detail4RuleC2ERKS1_NS_4yearES4_
libdate-tz.so.3:_ZN4date6detail7zoneletC1ERKS1_
libdate-tz.so.3:_ZN4date6detail7zoneletC1Ev
libdate-tz.so.3:_ZN4date6detail7zoneletC2ERKS1_
libdate-tz.so.3:_ZN4date6detail7zoneletC2Ev
libdate-tz.so.3:_ZN4date6detail7zoneletD1Ev
libdate-tz.so.3:_ZN4date6detail7zoneletD2Ev
libdate-tz.so.3:_ZN4date6detaileqERKNS0_4RuleERKNS_4yearE
libdate-tz.so.3:_ZN4date6detaileqERKNS0_4RuleERKNSt7__cxx1112basic_stringIcSt11char_traitsIcESaIcEEE
libdate-tz.so.3:_ZN4date6detaileqERKNS0_4RuleES3_
libdate-tz.so.3:_ZN4date6detaileqERKNS_4yearERKNS0_4RuleE
libdate-tz.so.3:_ZN4date6detaileqERKNSt7__cxx1112basic_stringIcSt11char_traitsIcESaIcEEERKNS0_4RuleE
libdate-tz.so.3:_ZN4date6detaillsERSoRKNS0_12MonthDayTimeE
libdate-tz.so.3:_ZN4date6detaillsERSoRKNS0_4RuleE
libdate-tz.so.3:_ZN4date6detailltERKNS0_4RuleERKNS_4yearE
libdate-tz.so.3:_ZN4date6detailltERKNS0_4RuleERKNSt7__cxx1112basic_stringIcSt11char_traitsIcESaIcEEE
libdate-tz.so.3:_ZN4date6detailltERKNS0_4RuleES3_
libdate-tz.so.3:_ZN4date6detailltERKNS_4yearERKNS0_4RuleE
libdate-tz.so.3:_ZN4date6detailltERKNSt7__cxx1112basic_stringIcSt11char_traitsIcESaIcEEERKNS0_4RuleE
libdate-tz.so.3:_ZN4date6detailrsERSiRNS0_12MonthDayTimeE
libdate-tz.so.3:_ZN4date8get_tzdbEv
libdate-tz.so.3:_ZN4date9time_zone10parse_infoERSi
libdate-tz.so.3:_ZN4date9time_zone12adjust_infosERKSt6vectorINS_6detail4RuleESaIS3_EE
libdate-tz.so.3:_ZN4date9time_zone3addERKNSt7__cxx1112basic_stringIcSt11char_traitsIcESaIcEEE
libdate-tz.so.3:_ZN4date9time_zoneC1ERKNSt7__cxx1112basic_stringIcSt11char_traitsIcESaIcEEENS_6detail12undocumentedE
libdate-tz.so.3:_ZN4date9time_zoneC2ERKNSt7__cxx1112basic_stringIcSt11char_traitsIcESaIcEEENS_6detail12undocumentedE
libdate-tz.so.3:_ZN4date9tzdb_list10push_frontEPNS_4tzdbE
libdate-tz.so.3:_ZN4date9tzdb_list11erase_afterENS0_14const_iteratorE
libdate-tz.so.3:_ZN4date9tzdb_listC1EOS0_
libdate-tz.so.3:_ZN4date9tzdb_listC2EOS0_
libdate-tz.so.3:_ZN4date9tzdb_listD1Ev
libdate-tz.so.3:_ZN4date9tzdb_listD2Ev
libdate-tz.so.3:_ZN4datelsERSoRKNS_11leap_secondE
libdate-tz.so.3:_ZN4datelsERSoRKNS_14time_zone_linkE
libdate-tz.so.3:_ZN4datelsERSoRKNS_4tzdbE
libdate-tz.so.3:_ZN4datelsERSoRKNS_9time_zoneE
libdate-tz.so.3:_ZNK4date4tzdb11locate_zoneESt17basic_string_viewIcSt11char_traitsIcEE
libdate-tz.so.3:_ZNK4date4tzdb12current_zoneEv
libdate-tz.so.3:_ZNK4date6detail12MonthDayTime11to_sys_daysENS_4yearE
libdate-tz.so.3:_ZNK4date6detail12MonthDayTime13to_time_pointENS_4yearE
libdate-tz.so.3:_ZNK4date6detail12MonthDayTime3dayEv
libdate-tz.so.3:_ZNK4date6detail12MonthDayTime5monthEv
libdate-tz.so.3:_ZNK4date6detail12MonthDayTime6to_sysENS_4yearENSt6chrono8durationIlSt5ratioILl1ELl1EEEES7_
libdate-tz.so.3:_ZNK4date6detail12MonthDayTime7compareENS_4yearERKS1_S2_NSt6chrono8durationIlSt5ratioILl1ELl1EEEENS6_IlS7_ILl60ELl1EEEE
libdate-tz.so.3:_ZNK4date6detail4Rule3dayEv
libdate-tz.so.3:_ZNK4date6detail4Rule5monthEv
libdate-tz.so.3:_ZNK4date9time_zone13get_info_implENSt6chrono10time_pointINS1_3_V212system_clockENS1_8durationIlSt5ratioILl1ELl1EEEEEE
libdate-tz.so.3:_ZNK4date9time_zone13get_info_implENSt6chrono10time_pointINS1_3_V212system_clockENS1_8durationIlSt5ratioILl1ELl1EEEEEEi
libdate-tz.so.3:_ZNK4date9time_zone13get_info_implENSt6chrono10time_pointINS_7local_tENS1_8durationIlSt5ratioILl1ELl1EEEEEE
