libmuparser.so.2:_ZN2mu10ParserBase10ClearConstEv
libmuparser.so.2:_ZN2mu10ParserBase10DefineOprtERKNSt7__cxx1112basic_stringIcSt11char_traitsIcESaIcEEEPFdddEjNS_18EOprtAssociativityEb
libmuparser.so.2:_ZN2mu10ParserBase11AddCallbackERKNSt7__cxx1112basic_stringIcSt11char_traitsIcESaIcEEERKNS_14ParserCallbackERSt3mapIS6_S9_St4lessIS6_ESaISt4pairIS7_S9_EEEPKc
libmuparser.so.2:_ZN2mu10ParserBase11AddValIdentEPFiPKcPiPdE
libmuparser.so.2:_ZN2mu10ParserBase11DefineConstERKNSt7__cxx1112basic_stringIcSt11char_traitsIcESaIcEEEd
libmuparser.so.2:_ZN2mu10ParserBase11OnDetectVarEPNSt7__cxx1112basic_stringIcSt11char_traitsIcESaIcEEERiS8_
libmuparser.so.2:_ZN2mu10ParserBase11ResetLocaleEv
libmuparser.so.2:_ZN2mu10ParserBase13SetVarFactoryEPFPdPKcPvES4_
libmuparser.so.2:_ZN2mu10ParserBase13c_DefaultOprtE
libmuparser.so.2:_ZN2mu10ParserBase14ClearInfixOprtEv
libmuparser.so.2:_ZN2mu10ParserBase14DefineStrConstERKNSt7__cxx1112basic_stringIcSt11char_traitsIcESaIcEEES8_
libmuparser.so.2:_ZN2mu10ParserBase14g_DbgDumpStackE
libmuparser.so.2:_ZN2mu10ParserBase15DefineInfixOprtERKNSt7__cxx1112basic_stringIcSt11char_traitsIcESaIcEEEPFddEib
libmuparser.so.2:_ZN2mu10ParserBase15DefineNameCharsEPKc
libmuparser.so.2:_ZN2mu10ParserBase15DefineOprtCharsEPKc
libmuparser.so.2:_ZN2mu10ParserBase15EnableDebugDumpEbb
libmuparser.so.2:_ZN2mu10ParserBase15EnableOptimizerEb
libmuparser.so.2:_ZN2mu10ParserBase15InitTokenReaderEv
libmuparser.so.2:_ZN2mu10ParserBase15SetThousandsSepEc
libmuparser.so.2:_ZN2mu10ParserBase16ClearPostfixOprtEv
libmuparser.so.2:_ZN2mu10ParserBase16g_DbgDumpCmdCodeE
libmuparser.so.2:_ZN2mu10ParserBase17DefinePostfixOprtERKNSt7__cxx1112basic_stringIcSt11char_traitsIcESaIcEEEPFddEb
libmuparser.so.2:_ZN2mu10ParserBase17EnableBuiltInOprtEb
libmuparser.so.2:_ZN2mu10ParserBase20DefineInfixOprtCharsEPKc
libmuparser.so.2:_ZN2mu10ParserBase21s_MaxNumOpenMPThreadsE
libmuparser.so.2:_ZN2mu10ParserBase4EvalEPdi
libmuparser.so.2:_ZN2mu10ParserBase4InitEv
libmuparser.so.2:_ZN2mu10ParserBase6AssignERKS0_
libmuparser.so.2:_ZN2mu10ParserBase7SetExprERKNSt7__cxx1112basic_stringIcSt11char_traitsIcESaIcEEE
libmuparser.so.2:_ZN2mu10ParserBase8ClearFunEv
libmuparser.so.2:_ZN2mu10ParserBase8ClearVarEv
libmuparser.so.2:_ZN2mu10ParserBase8s_localeE
libmuparser.so.2:_ZN2mu10ParserBase9ClearOprtEv
libmuparser.so.2:_ZN2mu10ParserBase9DefineVarERKNSt7__cxx1112basic_stringIcSt11char_traitsIcESaIcEEEPd
libmuparser.so.2:_ZN2mu10ParserBase9RemoveVarERKNSt7__cxx1112basic_stringIcSt11char_traitsIcESaIcEEE
libmuparser.so.2:_ZN2mu10ParserBase9SetArgSepEc
libmuparser.so.2:_ZN2mu10ParserBase9SetDecSepEc
libmuparser.so.2:_ZN2mu10ParserBaseC1ERKS0_
libmuparser.so.2:_ZN2mu10ParserBaseC1Ev
libmuparser.so.2:_ZN2mu10ParserBaseC2ERKS0_
libmuparser.so.2:_ZN2mu10ParserBaseC2Ev
libmuparser.so.2:_ZN2mu10ParserBaseD0Ev
libmuparser.so.2:_ZN2mu10ParserBaseD1Ev
libmuparser.so.2:_ZN2mu10ParserBaseD2Ev
libmuparser.so.2:_ZN2mu10ParserBaseaSERKS0_
libmuparser.so.2:_ZN2mu11ParserError10SetFormulaERKNSt7__cxx1112basic_stringIcSt11char_traitsIcESaIcEEE
libmuparser.so.2:_ZN2mu11ParserError16ReplaceSubStringERNSt7__cxx1112basic_stringIcSt11char_traitsIcESaIcEEERKS6_S9_
libmuparser.so.2:_ZN2mu11ParserError5ResetEv
libmuparser.so.2:_ZN2mu11ParserErrorC1ENS_11EErrorCodesE
libmuparser.so.2:_ZN2mu11ParserErrorC1ENS_11EErrorCodesERKNSt7__cxx1112basic_stringIcSt11char_traitsIcESaIcEEES9_i
libmuparser.so.2:_ZN2mu11ParserErrorC1ENS_11EErrorCodesEiRKNSt7__cxx1112basic_stringIcSt11char_traitsIcESaIcEEE
libmuparser.so.2:_ZN2mu11ParserErrorC1EPKciRKNSt7__cxx1112basic_stringIcSt11char_traitsIcESaIcEEE
libmuparser.so.2:_ZN2mu11ParserErrorC1ERKNSt7__cxx1112basic_stringIcSt11char_traitsIcESaIcEEE
libmuparser.so.2:_ZN2mu11ParserErrorC1ERKS0_
libmuparser.so.2:_ZN2mu11ParserErrorC1Ev
libmuparser.so.2:_ZN2mu11ParserErrorC2ENS_11EErrorCodesE
libmuparser.so.2:_ZN2mu11ParserErrorC2ENS_11EErrorCodesERKNSt7__cxx1112basic_stringIcSt11char_traitsIcESaIcEEES9_i
libmuparser.so.2:_ZN2mu11ParserErrorC2ENS_11EErrorCodesEiRKNSt7__cxx1112basic_stringIcSt11char_traitsIcESaIcEEE
libmuparser.so.2:_ZN2mu11ParserErrorC2EPKciRKNSt7__cxx1112basic_stringIcSt11char_traitsIcESaIcEEE
libmuparser.so.2:_ZN2mu11ParserErrorC2ERKNSt7__cxx1112basic_stringIcSt11char_traitsIcESaIcEEE
libmuparser.so.2:_ZN2mu11ParserErrorC2ERKS0_
libmuparser.so.2:_ZN2mu11ParserErrorC2Ev
libmuparser.so.2:_ZN2mu11ParserErrorD1Ev
libmuparser.so.2:_ZN2mu11ParserErrorD2Ev
libmuparser.so.2:_ZN2mu11ParserErroraSERKS0_
libmuparser.so.2:_ZN2mu14ParserByteCode10AddBulkFunENS_21generic_callable_typeEi
libmuparser.so.2:_ZN2mu14ParserByteCode11AddAssignOpEPd
libmuparser.so.2:_ZN2mu14ParserByteCode15ConstantFoldingENS_8ECmdCodeE
libmuparser.so.2:_ZN2mu14ParserByteCode15EnableOptimizerEb
libmuparser.so.2:_ZN2mu14ParserByteCode5AddOpENS_8ECmdCodeE
libmuparser.so.2:_ZN2mu14ParserByteCode5clearEv
libmuparser.so.2:_ZN2mu14ParserByteCode6AddFunENS_21generic_callable_typeEib
libmuparser.so.2:_ZN2mu14ParserByteCode6AddValEd
libmuparser.so.2:_ZN2mu14ParserByteCode6AddVarEPd
libmuparser.so.2:_ZN2mu14ParserByteCode6AssignERKS0_
libmuparser.so.2:_ZN2mu14ParserByteCode8FinalizeEv
libmuparser.so.2:_ZN2mu14ParserByteCode9AddIfElseENS_8ECmdCodeE
libmuparser.so.2:_ZN2mu14ParserByteCode9AddStrFunENS_21generic_callable_typeEii
libmuparser.so.2:_ZN2mu14ParserByteCode9AsciiDumpEv
libmuparser.so.2:_ZN2mu14ParserByteCodeC1ERKS0_
libmuparser.so.2:_ZN2mu14ParserByteCodeC1Ev
libmuparser.so.2:_ZN2mu14ParserByteCodeC2ERKS0_
libmuparser.so.2:_ZN2mu14ParserByteCodeC2Ev
libmuparser.so.2:_ZN2mu14ParserByteCodeaSERKS0_
libmuparser.so.2:_ZN2mu14ParserCallback6AssignERKS0_
libmuparser.so.2:_ZN2mu14ParserCallbackC1EPFdPKcEb
libmuparser.so.2:_ZN2mu14ParserCallbackC1EPFdPKcdEb
libmuparser.so.2:_ZN2mu14ParserCallbackC1EPFdPKcddEb
libmuparser.so.2:_ZN2mu14ParserCallbackC1EPFdPKcdddEb
libmuparser.so.2:_ZN2mu14ParserCallbackC1EPFdPKcddddEb
libmuparser.so.2:_ZN2mu14ParserCallbackC1EPFdPKcdddddEb
libmuparser.so.2:_ZN2mu14ParserCallbackC1EPFdPKdiEb
libmuparser.so.2:_ZN2mu14ParserCallbackC1EPFdPvES1_b
libmuparser.so.2:_ZN2mu14ParserCallbackC1EPFdPvPKcES1_b
libmuparser.so.2:_ZN2mu14ParserCallbackC1EPFdPvPKcdES1_b
libmuparser.so.2:_ZN2mu14ParserCallbackC1EPFdPvPKcddES1_b
libmuparser.so.2:_ZN2mu14ParserCallbackC1EPFdPvPKcdddES1_b
libmuparser.so.2:_ZN2mu14ParserCallbackC1EPFdPvPKcddddES1_b
libmuparser.so.2:_ZN2mu14ParserCallbackC1EPFdPvPKcdddddES1_b
libmuparser.so.2:_ZN2mu14ParserCallbackC1EPFdPvPKdiES1_b
libmuparser.so.2:_ZN2mu14ParserCallbackC1EPFdPvdES1_b
libmuparser.so.2:_ZN2mu14ParserCallbackC1EPFdPvddES1_b
libmuparser.so.2:_ZN2mu14ParserCallbackC1EPFdPvdddES1_b
libmuparser.so.2:_ZN2mu14ParserCallbackC1EPFdPvddddES1_b
libmuparser.so.2:_ZN2mu14ParserCallbackC1EPFdPvdddddES1_b
libmuparser.so.2:_ZN2mu14ParserCallbackC1EPFdPvddddddES1_b
libmuparser.so.2:_ZN2mu14ParserCallbackC1EPFdPvdddddddES1_b
libmuparser.so.2:_ZN2mu14ParserCallbackC1EPFdPvddddddddES1_b
libmuparser.so.2:_ZN2mu14ParserCallbackC1EPFdPvdddddddddES1_b
libmuparser.so.2:_ZN2mu14ParserCallbackC1EPFdPvddddddddddES1_b
libmuparser.so.2:_ZN2mu14ParserCallbackC1EPFdPviiES1_b
libmuparser.so.2:_ZN2mu14ParserCallbackC1EPFdPviidES1_b
libmuparser.so.2:_ZN2mu14ParserCallbackC1EPFdPviiddES1_b
libmuparser.so.2:_ZN2mu14ParserCallbackC1EPFdPviidddES1_b
libmuparser.so.2:_ZN2mu14ParserCallbackC1EPFdPviiddddES1_b
libmuparser.so.2:_ZN2mu14ParserCallbackC1EPFdPviidddddES1_b
libmuparser.so.2:_ZN2mu14ParserCallbackC1EPFdPviiddddddES1_b
libmuparser.so.2:_ZN2mu14ParserCallbackC1EPFdPviidddddddES1_b
libmuparser.so.2:_ZN2mu14ParserCallbackC1EPFdPviiddddddddES1_b
libmuparser.so.2:_ZN2mu14ParserCallbackC1EPFdPviidddddddddES1_b
libmuparser.so.2:_ZN2mu14ParserCallbackC1EPFdPviiddddddddddES1_b
libmuparser.so.2:_ZN2mu14ParserCallbackC1EPFddEb
libmuparser.so.2:_ZN2mu14ParserCallbackC1EPFddEbiNS_8ECmdCodeE
libmuparser.so.2:_ZN2mu14ParserCallbackC1EPFdddEb
libmuparser.so.2:_ZN2mu14ParserCallbackC1EPFdddEbiNS_18EOprtAssociativityE
libmuparser.so.2:_ZN2mu14ParserCallbackC1EPFddddEb
libmuparser.so.2:_ZN2mu14ParserCallbackC1EPFdddddEb
libmuparser.so.2:_ZN2mu14ParserCallbackC1EPFddddddEb
libmuparser.so.2:_ZN2mu14ParserCallbackC1EPFdddddddEb
libmuparser.so.2:_ZN2mu14ParserCallbackC1EPFddddddddEb
libmuparser.so.2:_ZN2mu14ParserCallbackC1EPFdddddddddEb
libmuparser.so.2:_ZN2mu14ParserCallbackC1EPFddddddddddEb
libmuparser.so.2:_ZN2mu14ParserCallbackC1EPFdddddddddddEb
libmuparser.so.2:_ZN2mu14ParserCallbackC1EPFdiiEb
libmuparser.so.2:_ZN2mu14ParserCallbackC1EPFdiidEb
libmuparser.so.2:_ZN2mu14ParserCallbackC1EPFdiiddEb
libmuparser.so.2:_ZN2mu14ParserCallbackC1EPFdiidddEb
libmuparser.so.2:_ZN2mu14ParserCallbackC1EPFdiiddddEb
libmuparser.so.2:_ZN2mu14ParserCallbackC1EPFdiidddddEb
libmuparser.so.2:_ZN2mu14ParserCallbackC1EPFdiiddddddEb
libmuparser.so.2:_ZN2mu14ParserCallbackC1EPFdiidddddddEb
libmuparser.so.2:_ZN2mu14ParserCallbackC1EPFdiiddddddddEb
libmuparser.so.2:_ZN2mu14ParserCallbackC1EPFdiidddddddddEb
libmuparser.so.2:_ZN2mu14ParserCallbackC1EPFdiiddddddddddEb
libmuparser.so.2:_ZN2mu14ParserCallbackC1EPFdvEb
libmuparser.so.2:_ZN2mu14ParserCallbackC1ERKS0_
libmuparser.so.2:_ZN2mu14ParserCallbackC1Ev
libmuparser.so.2:_ZN2mu14ParserCallbackC2EPFdPKcEb
libmuparser.so.2:_ZN2mu14ParserCallbackC2EPFdPKcdEb
libmuparser.so.2:_ZN2mu14ParserCallbackC2EPFdPKcddEb
libmuparser.so.2:_ZN2mu14ParserCallbackC2EPFdPKcdddEb
libmuparser.so.2:_ZN2mu14ParserCallbackC2EPFdPKcddddEb
libmuparser.so.2:_ZN2mu14ParserCallbackC2EPFdPKcdddddEb
libmuparser.so.2:_ZN2mu14ParserCallbackC2EPFdPKdiEb
libmuparser.so.2:_ZN2mu14ParserCallbackC2EPFdPvES1_b
libmuparser.so.2:_ZN2mu14ParserCallbackC2EPFdPvPKcES1_b
libmuparser.so.2:_ZN2mu14ParserCallbackC2EPFdPvPKcdES1_b
libmuparser.so.2:_ZN2mu14ParserCallbackC2EPFdPvPKcddES1_b
libmuparser.so.2:_ZN2mu14ParserCallbackC2EPFdPvPKcdddES1_b
libmuparser.so.2:_ZN2mu14ParserCallbackC2EPFdPvPKcddddES1_b
libmuparser.so.2:_ZN2mu14ParserCallbackC2EPFdPvPKcdddddES1_b
libmuparser.so.2:_ZN2mu14ParserCallbackC2EPFdPvPKdiES1_b
libmuparser.so.2:_ZN2mu14ParserCallbackC2EPFdPvdES1_b
libmuparser.so.2:_ZN2mu14ParserCallbackC2EPFdPvddES1_b
libmuparser.so.2:_ZN2mu14ParserCallbackC2EPFdPvdddES1_b
libmuparser.so.2:_ZN2mu14ParserCallbackC2EPFdPvddddES1_b
libmuparser.so.2:_ZN2mu14ParserCallbackC2EPFdPvdddddES1_b
libmuparser.so.2:_ZN2mu14ParserCallbackC2EPFdPvddddddES1_b
libmuparser.so.2:_ZN2mu14ParserCallbackC2EPFdPvdddddddES1_b
libmuparser.so.2:_ZN2mu14ParserCallbackC2EPFdPvddddddddES1_b
libmuparser.so.2:_ZN2mu14ParserCallbackC2EPFdPvdddddddddES1_b
libmuparser.so.2:_ZN2mu14ParserCallbackC2EPFdPvddddddddddES1_b
libmuparser.so.2:_ZN2mu14ParserCallbackC2EPFdPviiES1_b
libmuparser.so.2:_ZN2mu14ParserCallbackC2EPFdPviidES1_b
libmuparser.so.2:_ZN2mu14ParserCallbackC2EPFdPviiddES1_b
libmuparser.so.2:_ZN2mu14ParserCallbackC2EPFdPviidddES1_b
libmuparser.so.2:_ZN2mu14ParserCallbackC2EPFdPviiddddES1_b
libmuparser.so.2:_ZN2mu14ParserCallbackC2EPFdPviidddddES1_b
libmuparser.so.2:_ZN2mu14ParserCallbackC2EPFdPviiddddddES1_b
libmuparser.so.2:_ZN2mu14ParserCallbackC2EPFdPviidddddddES1_b
libmuparser.so.2:_ZN2mu14ParserCallbackC2EPFdPviiddddddddES1_b
libmuparser.so.2:_ZN2mu14ParserCallbackC2EPFdPviidddddddddES1_b
libmuparser.so.2:_ZN2mu14ParserCallbackC2EPFdPviiddddddddddES1_b
libmuparser.so.2:_ZN2mu14ParserCallbackC2EPFddEb
libmuparser.so.2:_ZN2mu14ParserCallbackC2EPFddEbiNS_8ECmdCodeE
libmuparser.so.2:_ZN2mu14ParserCallbackC2EPFdddEb
libmuparser.so.2:_ZN2mu14ParserCallbackC2EPFdddEbiNS_18EOprtAssociativityE
libmuparser.so.2:_ZN2mu14ParserCallbackC2EPFddddEb
libmuparser.so.2:_ZN2mu14ParserCallbackC2EPFdddddEb
libmuparser.so.2:_ZN2mu14ParserCallbackC2EPFddddddEb
libmuparser.so.2:_ZN2mu14ParserCallbackC2EPFdddddddEb
libmuparser.so.2:_ZN2mu14ParserCallbackC2EPFddddddddEb
libmuparser.so.2:_ZN2mu14ParserCallbackC2EPFdddddddddEb
libmuparser.so.2:_ZN2mu14ParserCallbackC2EPFddddddddddEb
libmuparser.so.2:_ZN2mu14ParserCallbackC2EPFdddddddddddEb
libmuparser.so.2:_ZN2mu14ParserCallbackC2EPFdiiEb
libmuparser.so.2:_ZN2mu14ParserCallbackC2EPFdiidEb
libmuparser.so.2:_ZN2mu14ParserCallbackC2EPFdiiddEb
libmuparser.so.2:_ZN2mu14ParserCallbackC2EPFdiidddEb
libmuparser.so.2:_ZN2mu14ParserCallbackC2EPFdiiddddEb
libmuparser.so.2:_ZN2mu14ParserCallbackC2EPFdiidddddEb
libmuparser.so.2:_ZN2mu14ParserCallbackC2EPFdiiddddddEb
libmuparser.so.2:_ZN2mu14ParserCallbackC2EPFdiidddddddEb
libmuparser.so.2:_ZN2mu14ParserCallbackC2EPFdiiddddddddEb
libmuparser.so.2:_ZN2mu14ParserCallbackC2EPFdiidddddddddEb
libmuparser.so.2:_ZN2mu14ParserCallbackC2EPFdiiddddddddddEb
libmuparser.so.2:_ZN2mu14ParserCallbackC2EPFdvEb
libmuparser.so.2:_ZN2mu14ParserCallbackC2ERKS0_
libmuparser.so.2:_ZN2mu14ParserCallbackC2Ev
libmuparser.so.2:_ZN2mu14ParserCallbackD1Ev
libmuparser.so.2:_ZN2mu14ParserCallbackD2Ev
libmuparser.so.2:_ZN2mu14ParserCallbackaSERKS0_
libmuparser.so.2:_ZN2mu14ParserErrorMsg8InstanceEv
libmuparser.so.2:_ZN2mu14ParserErrorMsgC1Ev
libmuparser.so.2:_ZN2mu14ParserErrorMsgC2Ev
libmuparser.so.2:_ZN2mu17ParserTokenReader10GetUsedVarB5cxx11Ev
libmuparser.so.2:_ZN2mu17ParserTokenReader10SetFormulaERKNSt7__cxx1112basic_stringIcSt11char_traitsIcESaIcEEE
libmuparser.so.2:_ZN2mu17ParserTokenReader11AddValIdentEPFiPKcPiPdE
libmuparser.so.2:_ZN2mu17ParserTokenReader11IsPostOpTokERNS_11ParserTokenIdNSt7__cxx1112basic_stringIcSt11char_traitsIcESaIcEEEEE
libmuparser.so.2:_ZN2mu17ParserTokenReader11IsStrVarTokERNS_11ParserTokenIdNSt7__cxx1112basic_stringIcSt11char_traitsIcESaIcEEEEE
libmuparser.so.2:_ZN2mu17ParserTokenReader12IsInfixOpTokERNS_11ParserTokenIdNSt7__cxx1112basic_stringIcSt11char_traitsIcESaIcEEEEE
libmuparser.so.2:_ZN2mu17ParserTokenReader13IsUndefVarTokERNS_11ParserTokenIdNSt7__cxx1112basic_stringIcSt11char_traitsIcESaIcEEEEE
libmuparser.so.2:_ZN2mu17ParserTokenReader13ReadNextTokenB5cxx11Ev
libmuparser.so.2:_ZN2mu17ParserTokenReader13SetVarCreatorEPFPdPKcPvES4_
libmuparser.so.2:_ZN2mu17ParserTokenReader14IgnoreUndefVarEb
libmuparser.so.2:_ZN2mu17ParserTokenReader16SaveBeforeReturnERKNS_11ParserTokenIdNSt7__cxx1112basic_stringIcSt11char_traitsIcESaIcEEEEE
libmuparser.so.2:_ZN2mu17ParserTokenReader5IsEOFERNS_11ParserTokenIdNSt7__cxx1112basic_stringIcSt11char_traitsIcESaIcEEEEE
libmuparser.so.2:_ZN2mu17ParserTokenReader6AssignERKS0_
libmuparser.so.2:_ZN2mu17ParserTokenReader6IsOprtERNS_11ParserTokenIdNSt7__cxx1112basic_stringIcSt11char_traitsIcESaIcEEEEE
libmuparser.so.2:_ZN2mu17ParserTokenReader6ReInitEv
libmuparser.so.2:_ZN2mu17ParserTokenReader8IsArgSepERNS_11ParserTokenIdNSt7__cxx1112basic_stringIcSt11char_traitsIcESaIcEEEEE
libmuparser.so.2:_ZN2mu17ParserTokenReader8IsFunTokERNS_11ParserTokenIdNSt7__cxx1112basic_stringIcSt11char_traitsIcESaIcEEEEE
libmuparser.so.2:_ZN2mu17ParserTokenReader8IsStringERNS_11ParserTokenIdNSt7__cxx1112basic_stringIcSt11char_traitsIcESaIcEEEEE
libmuparser.so.2:_ZN2mu17ParserTokenReader8IsValTokERNS_11ParserTokenIdNSt7__cxx1112basic_stringIcSt11char_traitsIcESaIcEEEEE
libmuparser.so.2:_ZN2mu17ParserTokenReader8IsVarTokERNS_11ParserTokenIdNSt7__cxx1112basic_stringIcSt11char_traitsIcESaIcEEEEE
libmuparser.so.2:_ZN2mu17ParserTokenReader9IsBuiltInERNS_11ParserTokenIdNSt7__cxx1112basic_stringIcSt11char_traitsIcESaIcEEEEE
libmuparser.so.2:_ZN2mu17ParserTokenReader9SetArgSepEc
libmuparser.so.2:_ZN2mu17ParserTokenReader9SetParentEPNS_10ParserBaseE
libmuparser.so.2:_ZN2mu17ParserTokenReaderC1EPNS_10ParserBaseE
libmuparser.so.2:_ZN2mu17ParserTokenReaderC1ERKS0_
libmuparser.so.2:_ZN2mu17ParserTokenReaderC2EPNS_10ParserBaseE
libmuparser.so.2:_ZN2mu17ParserTokenReaderC2ERKS0_
libmuparser.so.2:_ZN2mu17ParserTokenReaderaSERKS0_
libmuparser.so.2:_ZN2mu4Test12ParserTester10EqnTestIntERKNSt7__cxx1112basic_stringIcSt11char_traitsIcESaIcEEEdb
libmuparser.so.2:_ZN2mu4Test12ParserTester10TestStrArgEv
libmuparser.so.2:_ZN2mu4Test12ParserTester10TestSyntaxEv
libmuparser.so.2:_ZN2mu4Test12ParserTester11EqnTestBulkERKNSt7__cxx1112basic_stringIcSt11char_traitsIcESaIcEEEPdb
libmuparser.so.2:_ZN2mu4Test12ParserTester11TestBinOprtEv
libmuparser.so.2:_ZN2mu4Test12ParserTester11TestPostFixEv
libmuparser.so.2:_ZN2mu4Test12ParserTester12TestBulkModeEv
libmuparser.so.2:_ZN2mu4Test12ParserTester12TestMultiArgEv
libmuparser.so.2:_ZN2mu4Test12ParserTester12TestVarConstEv
libmuparser.so.2:_ZN2mu4Test12ParserTester13TestExceptionEv
libmuparser.so.2:_ZN2mu4Test12ParserTester13TestInfixOprtEv
libmuparser.so.2:_ZN2mu4Test12ParserTester13TestInterfaceEv
libmuparser.so.2:_ZN2mu4Test12ParserTester13TestOptimizerEv
libmuparser.so.2:_ZN2mu4Test12ParserTester14TestExpressionEv
libmuparser.so.2:_ZN2mu4Test12ParserTester14TestIfThenElseEv
libmuparser.so.2:_ZN2mu4Test12ParserTester20EqnTestWithVarChangeERKNSt7__cxx1112basic_stringIcSt11char_traitsIcESaIcEEEdddd
libmuparser.so.2:_ZN2mu4Test12ParserTester3RunEv
libmuparser.so.2:_ZN2mu4Test12ParserTester7AddTestEMS1_FivE
libmuparser.so.2:_ZN2mu4Test12ParserTester7EqnTestERKNSt7__cxx1112basic_stringIcSt11char_traitsIcESaIcEEEdb
libmuparser.so.2:_ZN2mu4Test12ParserTester8IsHexValEPKcPiPd
libmuparser.so.2:_ZN2mu4Test12ParserTester8c_iCountE
libmuparser.so.2:_ZN2mu4Test12ParserTester9TestNamesEv
libmuparser.so.2:_ZN2mu4Test12ParserTester9ThrowTestERKNSt7__cxx1112basic_stringIcSt11char_traitsIcESaIcEEEib
libmuparser.so.2:_ZN2mu4Test12ParserTesterC1Ev
libmuparser.so.2:_ZN2mu4Test12ParserTesterC2Ev
libmuparser.so.2:_ZN2mu6Parser11OnDetectVarEPNSt7__cxx1112basic_stringIcSt11char_traitsIcESaIcEEERiS8_
libmuparser.so.2:_ZN2mu6Parser12InitCharSetsEv
libmuparser.so.2:_ZN2mu6Parser5IsValEPKcPiPd
libmuparser.so.2:_ZN2mu6Parser7InitFunEv
libmuparser.so.2:_ZN2mu6Parser8InitOprtEv
libmuparser.so.2:_ZN2mu6Parser9InitConstEv
libmuparser.so.2:_ZN2mu6ParserC1Ev
libmuparser.so.2:_ZN2mu6ParserC2Ev
libmuparser.so.2:_ZN2mu9ParserInt10UnaryMinusEd
libmuparser.so.2:_ZN2mu9ParserInt12InitCharSetsEv
libmuparser.so.2:_ZN2mu9ParserInt2OrEdd
libmuparser.so.2:_ZN2mu9ParserInt3AbsEd
libmuparser.so.2:_ZN2mu9ParserInt3AddEdd
libmuparser.so.2:_ZN2mu9ParserInt3AndEdd
libmuparser.so.2:_ZN2mu9ParserInt3DivEdd
libmuparser.so.2:_ZN2mu9ParserInt3IteEddd
libmuparser.so.2:_ZN2mu9ParserInt3MaxEPKdi
libmuparser.so.2:_ZN2mu9ParserInt3MinEPKdi
libmuparser.so.2:_ZN2mu9ParserInt3ModEdd
libmuparser.so.2:_ZN2mu9ParserInt3MulEdd
libmuparser.so.2:_ZN2mu9ParserInt3NotEd
libmuparser.so.2:_ZN2mu9ParserInt3PowEdd
libmuparser.so.2:_ZN2mu9ParserInt3ShlEdd
libmuparser.so.2:_ZN2mu9ParserInt3ShrEdd
libmuparser.so.2:_ZN2mu9ParserInt3SubEdd
libmuparser.so.2:_ZN2mu9ParserInt3SumEPKdi
libmuparser.so.2:_ZN2mu9ParserInt4LessEdd
libmuparser.so.2:_ZN2mu9ParserInt4SignEd
libmuparser.so.2:_ZN2mu9ParserInt5EqualEdd
libmuparser.so.2:_ZN2mu9ParserInt5IsValEPKcPiPd
libmuparser.so.2:_ZN2mu9ParserInt5LogOrEdd
libmuparser.so.2:_ZN2mu9ParserInt6LessEqEdd
libmuparser.so.2:_ZN2mu9ParserInt6LogAndEdd
libmuparser.so.2:_ZN2mu9ParserInt7GreaterEdd
libmuparser.so.2:_ZN2mu9ParserInt7InitFunEv
libmuparser.so.2:_ZN2mu9ParserInt8InitOprtEv
libmuparser.so.2:_ZN2mu9ParserInt8IsBinValEPKcPiPd
libmuparser.so.2:_ZN2mu9ParserInt8IsHexValEPKcPiPd
libmuparser.so.2:_ZN2mu9ParserInt8NotEqualEdd
libmuparser.so.2:_ZN2mu9ParserInt9GreaterEqEdd
libmuparser.so.2:_ZN2mu9ParserInt9InitConstEv
libmuparser.so.2:_ZN2mu9ParserIntC1Ev
libmuparser.so.2:_ZN2mu9ParserIntC2Ev
libmuparser.so.2:_ZNK2mu10ParserBase10GetOprtDefEv
libmuparser.so.2:_ZNK2mu10ParserBase10GetUsedVarB5cxx11Ev
libmuparser.so.2:_ZNK2mu10ParserBase10GetVersionB5cxx11ENS_18EParserVersionInfoE
libmuparser.so.2:_ZNK2mu10ParserBase11ApplyIfElseERSt5stackINS_11ParserTokenIdNSt7__cxx1112basic_stringIcSt11char_traitsIcESaIcEEEEESt5dequeIS9_SaIS9_EEESE_
libmuparser.so.2:_ZNK2mu10ParserBase11GetByteCodeEv
libmuparser.so.2:_ZNK2mu10ParserBase11ParseStringEv
libmuparser.so.2:_ZNK2mu10ParserBase12ApplyBinOprtERSt5stackINS_11ParserTokenIdNSt7__cxx1112basic_stringIcSt11char_traitsIcESaIcEEEEESt5dequeIS9_SaIS9_EEESE_
libmuparser.so.2:_ZNK2mu10ParserBase12ApplyStrFuncERKNS_11ParserTokenIdNSt7__cxx1112basic_stringIcSt11char_traitsIcESaIcEEEEERKSt6vectorIS8_SaIS8_EE
libmuparser.so.2:_ZNK2mu10ParserBase12ParseCmdCodeEv
libmuparser.so.2:_ZNK2mu10ParserBase13GetNumResultsEv
libmuparser.so.2:_ZNK2mu10ParserBase14HasBuiltInOprtEv
libmuparser.so.2:_ZNK2mu10ParserBase14ValidNameCharsEv
libmuparser.so.2:_ZNK2mu10ParserBase14ValidOprtCharsEv
libmuparser.so.2:_ZNK2mu10ParserBase16ParseCmdCodeBulkEii
libmuparser.so.2:_ZNK2mu10ParserBase17GetOprtPrecedenceERKNS_11ParserTokenIdNSt7__cxx1112basic_stringIcSt11char_traitsIcESaIcEEEEE
libmuparser.so.2:_ZNK2mu10ParserBase17ParseCmdCodeShortEv
libmuparser.so.2:_ZNK2mu10ParserBase18ApplyRemainingOprtERSt5stackINS_11ParserTokenIdNSt7__cxx1112basic_stringIcSt11char_traitsIcESaIcEEEEESt5dequeIS9_SaIS9_EEESE_
libmuparser.so.2:_ZNK2mu10ParserBase19ValidInfixOprtCharsEv
libmuparser.so.2:_ZNK2mu10ParserBase20GetOprtAssociativityERKNS_11ParserTokenIdNSt7__cxx1112basic_stringIcSt11char_traitsIcESaIcEEEEE
libmuparser.so.2:_ZNK2mu10ParserBase4EvalERi
libmuparser.so.2:_ZNK2mu10ParserBase4EvalEv
libmuparser.so.2:_ZNK2mu10ParserBase5ErrorENS_11EErrorCodesEiRKNSt7__cxx1112basic_stringIcSt11char_traitsIcESaIcEEE
libmuparser.so.2:_ZNK2mu10ParserBase6GetVarB5cxx11Ev
libmuparser.so.2:_ZNK2mu10ParserBase6ReInitEv
libmuparser.so.2:_ZNK2mu10ParserBase7GetExprB5cxx11Ev
libmuparser.so.2:_ZNK2mu10ParserBase8GetConstB5cxx11Ev
libmuparser.so.2:_ZNK2mu10ParserBase9ApplyFuncERSt5stackINS_11ParserTokenIdNSt7__cxx1112basic_stringIcSt11char_traitsIcESaIcEEEEESt5dequeIS9_SaIS9_EEESE_i
libmuparser.so.2:_ZNK2mu10ParserBase9CheckNameERKNSt7__cxx1112basic_stringIcSt11char_traitsIcESaIcEEES8_
libmuparser.so.2:_ZNK2mu10ParserBase9CheckOprtERKNSt7__cxx1112basic_stringIcSt11char_traitsIcESaIcEEERKNS_14ParserCallbackES8_
libmuparser.so.2:_ZNK2mu10ParserBase9CreateRPNEv
libmuparser.so.2:_ZNK2mu10ParserBase9GetArgSepEv
libmuparser.so.2:_ZNK2mu10ParserBase9GetFunDefB5cxx11Ev
libmuparser.so.2:_ZNK2mu10ParserBase9StackDumpERKSt5stackINS_11ParserTokenIdNSt7__cxx1112basic_stringIcSt11char_traitsIcESaIcEEEEESt5dequeIS9_SaIS9_EEESF_
libmuparser.so.2:_ZNK2mu11ParserError6GetMsgB5cxx11Ev
libmuparser.so.2:_ZNK2mu11ParserError6GetPosEv
libmuparser.so.2:_ZNK2mu11ParserError7GetCodeEv
libmuparser.so.2:_ZNK2mu11ParserError7GetExprB5cxx11Ev
libmuparser.so.2:_ZNK2mu11ParserError8GetTokenB5cxx11Ev
libmuparser.so.2:_ZNK2mu14ParserByteCode15GetMaxStackSizeEv
libmuparser.so.2:_ZNK2mu14ParserCallback11GetUserDataEv
libmuparser.so.2:_ZNK2mu14ParserCallback13IsOptimizableEv
libmuparser.so.2:_ZNK2mu14ParserCallback16GetAssociativityEv
libmuparser.so.2:_ZNK2mu14ParserCallback5CloneEv
libmuparser.so.2:_ZNK2mu14ParserCallback6GetPriEv
libmuparser.so.2:_ZNK2mu14ParserCallback7GetAddrEv
libmuparser.so.2:_ZNK2mu14ParserCallback7GetArgcEv
libmuparser.so.2:_ZNK2mu14ParserCallback7GetCodeEv
libmuparser.so.2:_ZNK2mu14ParserCallback7GetTypeEv
libmuparser.so.2:_ZNK2mu14ParserCallback7IsValidEv
libmuparser.so.2:_ZNK2mu14ParserErrorMsgixB5cxx11Ej
libmuparser.so.2:_ZNK2mu17ParserTokenReader12ExtractTokenEPKcRNSt7__cxx1112basic_stringIcSt11char_traitsIcESaIcEEEm
libmuparser.so.2:_ZNK2mu17ParserTokenReader20ExtractOperatorTokenERNSt7__cxx1112basic_stringIcSt11char_traitsIcESaIcEEEm
libmuparser.so.2:_ZNK2mu17ParserTokenReader5CloneEPNS_10ParserBaseE
libmuparser.so.2:_ZNK2mu17ParserTokenReader5ErrorENS_11EErrorCodesEiRKNSt7__cxx1112basic_stringIcSt11char_traitsIcESaIcEEE
libmuparser.so.2:_ZNK2mu17ParserTokenReader6GetPosEv
libmuparser.so.2:_ZNK2mu17ParserTokenReader7GetExprB5cxx11Ev
libmuparser.so.2:_ZNK2mu17ParserTokenReader9GetArgSepEv
libmuparser.so.2:_ZNK2mu4Test12ParserTester5AbortEv
libmuparser.so.2:_ZNK2mu6Parser4DiffEPddd
libmuparser.so.2:g_nBulkSize
libmuparser.so.2:mupAddValIdent
libmuparser.so.2:mupClearConst
libmuparser.so.2:mupClearFun
libmuparser.so.2:mupClearOprt
libmuparser.so.2:mupClearVar
libmuparser.so.2:mupCreate
libmuparser.so.2:mupCreateVar
libmuparser.so.2:mupDefineBulkFun0
libmuparser.so.2:mupDefineBulkFun1
libmuparser.so.2:mupDefineBulkFun10
libmuparser.so.2:mupDefineBulkFun2
libmuparser.so.2:mupDefineBulkFun3
libmuparser.so.2:mupDefineBulkFun4
libmuparser.so.2:mupDefineBulkFun5
libmuparser.so.2:mupDefineBulkFun6
libmuparser.so.2:mupDefineBulkFun7
libmuparser.so.2:mupDefineBulkFun8
libmuparser.so.2:mupDefineBulkFun9
libmuparser.so.2:mupDefineBulkFunUserData0
libmuparser.so.2:mupDefineBulkFunUserData1
libmuparser.so.2:mupDefineBulkFunUserData10
libmuparser.so.2:mupDefineBulkFunUserData2
libmuparser.so.2:mupDefineBulkFunUserData3
libmuparser.so.2:mupDefineBulkFunUserData4
libmuparser.so.2:mupDefineBulkFunUserData5
libmuparser.so.2:mupDefineBulkFunUserData6
libmuparser.so.2:mupDefineBulkFunUserData7
libmuparser.so.2:mupDefineBulkFunUserData8
libmuparser.so.2:mupDefineBulkFunUserData9
libmuparser.so.2:mupDefineBulkVar
libmuparser.so.2:mupDefineConst
libmuparser.so.2:mupDefineFun0
libmuparser.so.2:mupDefineFun1
libmuparser.so.2:mupDefineFun10
libmuparser.so.2:mupDefineFun2
libmuparser.so.2:mupDefineFun3
libmuparser.so.2:mupDefineFun4
libmuparser.so.2:mupDefineFun5
libmuparser.so.2:mupDefineFun6
libmuparser.so.2:mupDefineFun7
libmuparser.so.2:mupDefineFun8
libmuparser.so.2:mupDefineFun9
libmuparser.so.2:mupDefineFunUserData0
libmuparser.so.2:mupDefineFunUserData1
libmuparser.so.2:mupDefineFunUserData10
libmuparser.so.2:mupDefineFunUserData2
libmuparser.so.2:mupDefineFunUserData3
libmuparser.so.2:mupDefineFunUserData4
libmuparser.so.2:mupDefineFunUserData5
libmuparser.so.2:mupDefineFunUserData6
libmuparser.so.2:mupDefineFunUserData7
libmuparser.so.2:mupDefineFunUserData8
libmuparser.so.2:mupDefineFunUserData9
libmuparser.so.2:mupDefineInfixOprt
libmuparser.so.2:mupDefineInfixOprtChars
libmuparser.so.2:mupDefineMultFun
libmuparser.so.2:mupDefineMultFunUserData
libmuparser.so.2:mupDefineNameChars
libmuparser.so.2:mupDefineOprt
libmuparser.so.2:mupDefineOprtChars
libmuparser.so.2:mupDefinePostfixOprt
libmuparser.so.2:mupDefineStrConst
libmuparser.so.2:mupDefineStrFun1
libmuparser.so.2:mupDefineStrFun2
libmuparser.so.2:mupDefineStrFun3
libmuparser.so.2:mupDefineStrFun4
libmuparser.so.2:mupDefineStrFun5
libmuparser.so.2:mupDefineStrFunUserData1
libmuparser.so.2:mupDefineStrFunUserData2
libmuparser.so.2:mupDefineStrFunUserData3
libmuparser.so.2:mupDefineStrFunUserData4
libmuparser.so.2:mupDefineStrFunUserData5
libmuparser.so.2:mupDefineVar
libmuparser.so.2:mupError
libmuparser.so.2:mupErrorReset
libmuparser.so.2:mupEval
libmuparser.so.2:mupEvalBulk
libmuparser.so.2:mupEvalMulti
libmuparser.so.2:mupGetConst
libmuparser.so.2:mupGetConstNum
libmuparser.so.2:mupGetErrorCode
libmuparser.so.2:mupGetErrorMsg
libmuparser.so.2:mupGetErrorPos
libmuparser.so.2:mupGetErrorToken
libmuparser.so.2:mupGetExpr
libmuparser.so.2:mupGetExprVar
libmuparser.so.2:mupGetExprVarNum
libmuparser.so.2:mupGetVar
libmuparser.so.2:mupGetVarNum
libmuparser.so.2:mupGetVersion
libmuparser.so.2:mupRelease
libmuparser.so.2:mupReleaseVar
libmuparser.so.2:mupRemoveVar
libmuparser.so.2:mupResetLocale
libmuparser.so.2:mupSetArgSep
libmuparser.so.2:mupSetDecSep
libmuparser.so.2:mupSetErrorHandler
libmuparser.so.2:mupSetExpr
libmuparser.so.2:mupSetThousandsSep
libmuparser.so.2:mupSetVarFactory
