UNKNOWN:_ZN5boost7archive18text_iarchive_implINS0_13text_iarchiveEE13load_overrideERNS0_15class_name_typeE
UNKNOWN:_ZN5boost7archive18text_iarchive_implINS0_13text_iarchiveEE4initEv
UNKNOWN:_ZN5boost7archive18text_iarchive_implINS0_13text_iarchiveEE4loadERNSt7__cxx1112basic_stringIcSt11char_traitsIcESaIcEEE
UNKNOWN:_ZN5boost7archive18text_iarchive_implINS0_13text_iarchiveEEC2ERSij
UNKNOWN:_ZN5boost7archive18text_oarchive_implINS0_13text_oarchiveEE4saveERKNSt7__cxx1112basic_stringIcSt11char_traitsIcESaIcEEE
UNKNOWN:_ZN5boost7archive18text_oarchive_implINS0_13text_oarchiveEEC2ERSoj
UNKNOWN:_ZN5boost7archive19basic_text_oarchiveINS0_13text_oarchiveEE4initEv
UNKNOWN:_ZN5boost7archive19basic_text_oarchiveINS0_13text_oarchiveEE8newtokenEv
UNKNOWN:_ZN5boost7archive21basic_text_iprimitiveISiED2Ev
UNKNOWN:_ZN5boost7archive21basic_text_oprimitiveISoED2Ev
UNKNOWN:_ZN5boost7archive6detail22archive_serializer_mapINS0_13text_iarchiveEE4findERKNS_13serialization18extended_type_infoE
UNKNOWN:_ZN5boost7archive6detail22archive_serializer_mapINS0_13text_iarchiveEE5eraseEPKNS1_16basic_serializerE
UNKNOWN:_ZN5boost7archive6detail22archive_serializer_mapINS0_13text_iarchiveEE6insertEPKNS1_16basic_serializerE
UNKNOWN:_ZN5boost7archive6detail22archive_serializer_mapINS0_13text_oarchiveEE4findERKNS_13serialization18extended_type_infoE
UNKNOWN:_ZN5boost7archive6detail22archive_serializer_mapINS0_13text_oarchiveEE5eraseEPKNS1_16basic_serializerE
UNKNOWN:_ZN5boost7archive6detail22archive_serializer_mapINS0_13text_oarchiveEE6insertEPKNS1_16basic_serializerE
UNKNOWN:_ZN6spdlog5sinks15basic_file_sinkISt5mutexEC1ERKNSt7__cxx1112basic_stringIcSt11char_traitsIcESaIcEEEbRKNS_19file_event_handlersE
UNKNOWN:_ZN6spdlog5sinks21ansicolor_stdout_sinkINS_7details13console_mutexEEC1ENS_10color_modeE
UNKNOWN:_ZN6spdlog5sinks9base_sinkINS_7details10null_mutexEE11set_patternERKNSt7__cxx1112basic_stringIcSt11char_traitsIcESaIcEEE
UNKNOWN:_ZN6spdlog5sinks9base_sinkINS_7details10null_mutexEE12set_pattern_ERKNSt7__cxx1112basic_stringIcSt11char_traitsIcESaIcEEE
UNKNOWN:_ZN6spdlog5sinks9base_sinkINS_7details10null_mutexEE13set_formatterESt10unique_ptrINS_9formatterESt14default_deleteIS6_EE
UNKNOWN:_ZN6spdlog5sinks9base_sinkINS_7details10null_mutexEE14set_formatter_ESt10unique_ptrINS_9formatterESt14default_deleteIS6_EE
UNKNOWN:_ZN6spdlog5sinks9base_sinkINS_7details10null_mutexEE3logERKNS2_7log_msgE
UNKNOWN:_ZN6spdlog5sinks9base_sinkINS_7details10null_mutexEE5flushEv
UNKNOWN:_ZN6spdlog5sinks9base_sinkINS_7details10null_mutexEEC2Ev
UNKNOWN:_ZN6spdlog5sinks9base_sinkISt5mutexE11set_patternERKNSt7__cxx1112basic_stringIcSt11char_traitsIcESaIcEEE
UNKNOWN:_ZN6spdlog5sinks9base_sinkISt5mutexE12set_pattern_ERKNSt7__cxx1112basic_stringIcSt11char_traitsIcESaIcEEE
UNKNOWN:_ZN6spdlog5sinks9base_sinkISt5mutexE13set_formatterESt10unique_ptrINS_9formatterESt14default_deleteIS5_EE
UNKNOWN:_ZN6spdlog5sinks9base_sinkISt5mutexE14set_formatter_ESt10unique_ptrINS_9formatterESt14default_deleteIS5_EE
UNKNOWN:_ZN6spdlog5sinks9base_sinkISt5mutexE3logERKNS_7details7log_msgE
UNKNOWN:_ZN6spdlog5sinks9base_sinkISt5mutexE5flushEv
UNKNOWN:_ZN6spdlog5sinks9base_sinkISt5mutexEC2Ev
UNKNOWN:_ZTIN4YAML11InvalidNodeE
UNKNOWN:_ZTIN4YAML12BadSubscriptE
UNKNOWN:_ZTIN4YAML13BadConversionE
UNKNOWN:_ZTIN4YAML9ExceptionE
UNKNOWN:_ZTIN5boost13serialization13typeid_system27extended_type_info_typeid_0E
UNKNOWN:_ZTIN5boost6detail16thread_data_baseE
UNKNOWN:_ZTIN5boost7archive17archive_exceptionE
UNKNOWN:_ZTIN5boost7archive6detail14basic_iarchiveE
UNKNOWN:_ZTIN5boost7archive6detail14basic_oarchiveE
UNKNOWN:_ZTIN5boost7archive6detail17basic_iserializerE
UNKNOWN:_ZTIN5boost7archive6detail17basic_oserializerE
UNKNOWN:_ZTIN5boost7archive6detail25basic_pointer_iserializerE
UNKNOWN:_ZTIN5boost7archive6detail25basic_pointer_oserializerE
UNKNOWN:_ZTVN4YAML11InvalidNodeE
UNKNOWN:_ZTVN4YAML12BadSubscriptE
UNKNOWN:_ZTVN4YAML23RepresentationExceptionE
UNKNOWN:_ZTVN4YAML9ExceptionE
UNKNOWN:_ZTVN5boost6detail16thread_data_baseE
ld-linux-x86-64.so.2:__tls_get_addr
libOpenSTA.so:_ZN3sta10ClkNetwork12idealClkSlewEPKNS_3PinEPKNS_8RiseFallEPKNS_6MinMaxE
libOpenSTA.so:_ZN3sta10ClkNetwork6clocksEPKNS_3PinE
libOpenSTA.so:_ZN3sta10Properties11getPropertyEPKNS_11LibertyCellENSt7__cxx1112basic_stringIcSt11char_traitsIcESaIcEEE
libOpenSTA.so:_ZN3sta10Properties11getPropertyEPKNS_11LibertyPortENSt7__cxx1112basic_stringIcSt11char_traitsIcESaIcEEE
libOpenSTA.so:_ZN3sta10Properties11getPropertyEPKNS_14LibertyLibraryENSt7__cxx1112basic_stringIcSt11char_traitsIcESaIcEEE
libOpenSTA.so:_ZN3sta10Properties11getPropertyEPKNS_3NetENSt7__cxx1112basic_stringIcSt11char_traitsIcESaIcEEE
libOpenSTA.so:_ZN3sta10Properties11getPropertyEPKNS_3PinENSt7__cxx1112basic_stringIcSt11char_traitsIcESaIcEEE
libOpenSTA.so:_ZN3sta10Properties11getPropertyEPKNS_4CellENSt7__cxx1112basic_stringIcSt11char_traitsIcESaIcEEE
libOpenSTA.so:_ZN3sta10Properties11getPropertyEPKNS_4PortENSt7__cxx1112basic_stringIcSt11char_traitsIcESaIcEEE
libOpenSTA.so:_ZN3sta10Properties11getPropertyEPKNS_5ClockENSt7__cxx1112basic_stringIcSt11char_traitsIcESaIcEEE
libOpenSTA.so:_ZN3sta10Properties11getPropertyEPKNS_7LibraryENSt7__cxx1112basic_stringIcSt11char_traitsIcESaIcEEE
libOpenSTA.so:_ZN3sta10Properties11getPropertyEPKNS_8InstanceENSt7__cxx1112basic_stringIcSt11char_traitsIcESaIcEEE
libOpenSTA.so:_ZN3sta10Properties11getPropertyEPNS_12TimingArcSetENSt7__cxx1112basic_stringIcSt11char_traitsIcESaIcEEE
libOpenSTA.so:_ZN3sta10Properties11getPropertyEPNS_4EdgeENSt7__cxx1112basic_stringIcSt11char_traitsIcESaIcEEE
libOpenSTA.so:_ZN3sta10Properties11getPropertyEPNS_4PathENSt7__cxx1112basic_stringIcSt11char_traitsIcESaIcEEE
libOpenSTA.so:_ZN3sta10Properties11getPropertyEPNS_7PathEndENSt7__cxx1112basic_stringIcSt11char_traitsIcESaIcEEE
libOpenSTA.so:_ZN3sta10SdcNetwork12makeInstanceEPNS_11LibertyCellEPKcPNS_8InstanceE
libOpenSTA.so:_ZN3sta10SdcNetwork7makeNetEPKcPNS_8InstanceE
libOpenSTA.so:_ZN3sta10SdcNetworkC2EPNS_7NetworkE
libOpenSTA.so:_ZN3sta10TimingRole10latch_d_q_E
libOpenSTA.so:_ZN3sta10TimingRole10reg_clk_q_E
libOpenSTA.so:_ZN3sta10TimingRole14combinational_E
libOpenSTA.so:_ZN3sta10TimingRole16tristate_enable_E
libOpenSTA.so:_ZN3sta10TimingRole17tristate_disable_E
libOpenSTA.so:_ZN3sta10TimingRole20clock_tree_path_max_E
libOpenSTA.so:_ZN3sta10TimingRole20clock_tree_path_min_E
libOpenSTA.so:_ZN3sta10TimingRole4findEPKc
libOpenSTA.so:_ZN3sta10equivCellsEPKNS_11LibertyCellES2_
libOpenSTA.so:_ZN3sta10fuzzyEqualEff
libOpenSTA.so:_ZN3sta10searchThruEPKNS_4EdgeEPKNS_9TimingArcEPKNS_5GraphE
libOpenSTA.so:_ZN3sta11BfsIterator23enqueueAdjacentVerticesEPNS_6VertexE
libOpenSTA.so:_ZN3sta11BfsIterator4nextEv
libOpenSTA.so:_ZN3sta11BfsIterator7enqueueEPNS_6VertexE
libOpenSTA.so:_ZN3sta11BfsIterator7hasNextEv
libOpenSTA.so:_ZN3sta11InstanceSetC1EPKNS_7NetworkE
libOpenSTA.so:_ZN3sta11InstanceSetC1Ev
libOpenSTA.so:_ZN3sta11LibertyCell10cornerCellEi
libOpenSTA.so:_ZN3sta11LibertyCell10setDontUseEb
libOpenSTA.so:_ZN3sta11LibertyCell22ensureVoltageWaveformsERKNS_6VectorIPNS_15DcalcAnalysisPtEEE
libOpenSTA.so:_ZN3sta11LibertyPort10cornerPortEPKNS_6CornerEPKNS_6MinMaxE
libOpenSTA.so:_ZN3sta11LibertyPort10cornerPortEi
libOpenSTA.so:_ZN3sta11LibertyPort12setDirectionEPNS_13PortDirectionE
libOpenSTA.so:_ZN3sta11LibertyPort5equivEPKS0_S2_
libOpenSTA.so:_ZN3sta11NetworkEdit10connectPinEPNS_3PinEPNS_3NetE
libOpenSTA.so:_ZN3sta11PowerResultC1Ev
libOpenSTA.so:_ZN3sta11ReportField13setPropertiesEPKcib
libOpenSTA.so:_ZN3sta11ReportField8setWidthEi
libOpenSTA.so:_ZN3sta11SearchPred010searchFromEPKNS_6VertexE
libOpenSTA.so:_ZN3sta11SearchPred08searchToEPKNS_6VertexE
libOpenSTA.so:_ZN3sta11escapeCharsB5cxx11EPKcccc
libOpenSTA.so:_ZN3sta11memoryUsageEv
libOpenSTA.so:_ZN3sta11tclArgErrorEP10Tcl_InterpiPKcS3_
libOpenSTA.so:_ZN3sta11userRunTimeEv
libOpenSTA.so:_ZN3sta12ConcreteCell10setExtCellEPv
libOpenSTA.so:_ZN3sta12ConcreteCell14setLibertyCellEPNS_11LibertyCellE
libOpenSTA.so:_ZN3sta12ConcretePort10setExtPortEPv
libOpenSTA.so:_ZN3sta12ConcretePort14setLibertyPortEPNS_11LibertyPortE
libOpenSTA.so:_ZN3sta12PathExpandedC1EPKNS_4PathEPKNS_8StaStateE
libOpenSTA.so:_ZN3sta12PatternMatchC1EPKc
libOpenSTA.so:_ZN3sta12PatternMatchC1EPKcPKS0_
libOpenSTA.so:_ZN3sta12PatternMatchC1EPKcbbP10Tcl_Interp
libOpenSTA.so:_ZN3sta12RiseFallBoth10rise_fall_E
libOpenSTA.so:_ZN3sta12RiseFallBoth4findEPKc
libOpenSTA.so:_ZN3sta12VertexIdLessC1ERPNS_5GraphE
libOpenSTA.so:_ZN3sta12fuzzyGreaterEff
libOpenSTA.so:_ZN3sta12parseBusNameEPKccccRbRNSt7__cxx1112basic_stringIcSt11char_traitsIcESaIcEEERi
libOpenSTA.so:_ZN3sta12patternMatchEPKcS1_
libOpenSTA.so:_ZN3sta12writeLibertyEPNS_14LibertyLibraryEPKcPNS_8StaStateE
libOpenSTA.so:_ZN3sta12writeVerilogEPKcbPNS_6VectorIPNS_4CellEEEPNS_7NetworkE
libOpenSTA.so:_ZN3sta13PortDirection4findEPKc
libOpenSTA.so:_ZN3sta13PortDirection6input_E
libOpenSTA.so:_ZN3sta13PortDirection6power_E
libOpenSTA.so:_ZN3sta13PortDirection7ground_E
libOpenSTA.so:_ZN3sta13PortDirection7output_E
libOpenSTA.so:_ZN3sta13PortDirection8unknown_E
libOpenSTA.so:_ZN3sta13PortDirection9bidirect_E
libOpenSTA.so:_ZN3sta13PortDirection9internal_E
libOpenSTA.so:_ZN3sta13PortDirection9tristate_E
libOpenSTA.so:_ZN3sta13PropertyValueC1ERKS0_
libOpenSTA.so:_ZN3sta13PropertyValueC1Ev
libOpenSTA.so:_ZN3sta13PropertyValueD1Ev
libOpenSTA.so:_ZN3sta13PropertyValueaSEOS0_
libOpenSTA.so:_ZN3sta13VerilogReader11linkNetworkEPKcbb
libOpenSTA.so:_ZN3sta13VerilogReader4readEPKc
libOpenSTA.so:_ZN3sta13VerilogReaderC1EPNS_13NetworkReaderE
libOpenSTA.so:_ZN3sta13VerilogReaderD1Ev
libOpenSTA.so:_ZN3sta13VisitPathEnds13visitPathEndsEPNS_6VertexEPKNS_6CornerEPKNS_9MinMaxAllEbPNS_14PathEndVisitorE
libOpenSTA.so:_ZN3sta13VisitPathEndsC1EPKNS_8StaStateE
libOpenSTA.so:_ZN3sta13delayAsStringERKfPKNS_8StaStateE
libOpenSTA.so:_ZN3sta13delayAsStringERKfPKNS_8StaStateEi
libOpenSTA.so:_ZN3sta13makeTmpStringEm
libOpenSTA.so:_ZN3sta13sourceTclFileEPKcbbP10Tcl_Interp
libOpenSTA.so:_ZN3sta14BfsFwdIteratorC1ENS_8BfsIndexEPNS_10SearchPredEPNS_8StaStateE
libOpenSTA.so:_ZN3sta14BfsFwdIteratorD1Ev
libOpenSTA.so:_ZN3sta14GraphDelayCalc12edgeFromSlewEPKNS_6VertexEPKNS_8RiseFallEPKNS_4EdgeEPKNS_15DcalcAnalysisPtE
libOpenSTA.so:_ZN3sta14LibertyLibrary23findOperatingConditionsEPKc
libOpenSTA.so:_ZN3sta14LibertyLibrary24findLibertyCellsMatchingEPNS_12PatternMatchE
libOpenSTA.so:_ZN3sta14LibertyLibrary7buffersEv
libOpenSTA.so:_ZN3sta14LibertyLibrary9invertersEv
libOpenSTA.so:_ZN3sta14PrimaDelayCalc19setPrimaReduceOrderEm
libOpenSTA.so:_ZN3sta14VertexIterator4nextEv
libOpenSTA.so:_ZN3sta14VertexIteratorC1EPNS_5GraphE
libOpenSTA.so:_ZN3sta14delayCalcNamesEv
libOpenSTA.so:_ZN3sta14elapsedRunTimeEv
libOpenSTA.so:_ZN3sta14equivCellPortsEPKNS_11LibertyCellES2_
libOpenSTA.so:_ZN3sta14equivCellsArcsEPKNS_11LibertyCellES2_
libOpenSTA.so:_ZN3sta14findCmdLineKeyERiPPcPKc
libOpenSTA.so:_ZN3sta14fuzzyLessEqualEff
libOpenSTA.so:_ZN3sta14objectListNextEPKcS1_RbRS1_
libOpenSTA.so:_ZN3sta14processorCountEv
libOpenSTA.so:_ZN3sta14stringPrintTmpEPKcz
libOpenSTA.so:_ZN3sta15BfsBkwdIteratorC1ENS_8BfsIndexEPNS_10SearchPredEPNS_8StaStateE
libOpenSTA.so:_ZN3sta15BfsBkwdIteratorD1Ev
libOpenSTA.so:_ZN3sta15ConcreteNetwork10deleteCellEPNS_4CellE
libOpenSTA.so:_ZN3sta15ConcreteNetwork10mergedIntoEPNS_3NetE
libOpenSTA.so:_ZN3sta15ConcreteNetwork11findAnyCellEPKc
libOpenSTA.so:_ZN3sta15ConcreteNetwork11findLibertyEPKc
libOpenSTA.so:_ZN3sta15ConcreteNetwork11findLibraryEPKc
libOpenSTA.so:_ZN3sta15ConcreteNetwork11linkNetworkEPKcbPNS_6ReportE
libOpenSTA.so:_ZN3sta15ConcreteNetwork11makeBusPortEPNS_4CellEPKcii
libOpenSTA.so:_ZN3sta15ConcreteNetwork11makeLibraryEPKcS2_
libOpenSTA.so:_ZN3sta15ConcreteNetwork11replaceCellEPNS_8InstanceEPNS_4CellE
libOpenSTA.so:_ZN3sta15ConcreteNetwork11setLinkFuncESt8functionIFPNS_8InstanceEPKcbEE
libOpenSTA.so:_ZN3sta15ConcreteNetwork11setVertexIdEPNS_3PinEj
libOpenSTA.so:_ZN3sta15ConcreteNetwork12makeInstanceEPNS_11LibertyCellEPKcPNS_8InstanceE
libOpenSTA.so:_ZN3sta15ConcreteNetwork12makeInstanceEPNS_4CellEPKcPNS_8InstanceE
libOpenSTA.so:_ZN3sta15ConcreteNetwork12setAttributeEPNS_4CellERKNSt7__cxx1112basic_stringIcSt11char_traitsIcESaIcEEESA_
libOpenSTA.so:_ZN3sta15ConcreteNetwork12setAttributeEPNS_8InstanceERKNSt7__cxx1112basic_stringIcSt11char_traitsIcESaIcEEESA_
libOpenSTA.so:_ZN3sta15ConcreteNetwork12setDirectionEPNS_4PortEPNS_13PortDirectionE
libOpenSTA.so:_ZN3sta15ConcreteNetwork13deleteLibraryEPNS_7LibraryE
libOpenSTA.so:_ZN3sta15ConcreteNetwork13disconnectPinEPNS_3PinE
libOpenSTA.so:_ZN3sta15ConcreteNetwork13groupBusPortsEPNS_4CellESt8functionIFbPKcEE
libOpenSTA.so:_ZN3sta15ConcreteNetwork14addConstantNetEPNS_3NetENS_10LogicValueE
libOpenSTA.so:_ZN3sta15ConcreteNetwork14deleteInstanceEPNS_8InstanceE
libOpenSTA.so:_ZN3sta15ConcreteNetwork14makeBundlePortEPNS_4CellEPKcPNS_6VectorIPKNS_4PortEEE
libOpenSTA.so:_ZN3sta15ConcreteNetwork14setTopInstanceEPNS_8InstanceE
libOpenSTA.so:_ZN3sta15ConcreteNetwork15cellNetworkViewEPNS_4CellE
libOpenSTA.so:_ZN3sta15ConcreteNetwork17clearConstantNetsEv
libOpenSTA.so:_ZN3sta15ConcreteNetwork17deleteTopInstanceEv
libOpenSTA.so:_ZN3sta15ConcreteNetwork17readNetlistBeforeEv
libOpenSTA.so:_ZN3sta15ConcreteNetwork18makeLibertyLibraryEPKcS2_
libOpenSTA.so:_ZN3sta15ConcreteNetwork18setCellNetworkViewEPNS_4CellEPNS_8InstanceE
libOpenSTA.so:_ZN3sta15ConcreteNetwork19constantPinIteratorEv
libOpenSTA.so:_ZN3sta15ConcreteNetwork22deleteCellNetworkViewsEv
libOpenSTA.so:_ZN3sta15ConcreteNetwork5clearEv
libOpenSTA.so:_ZN3sta15ConcreteNetwork7connectEPNS_8InstanceEPNS_11LibertyPortEPNS_3NetE
libOpenSTA.so:_ZN3sta15ConcreteNetwork7connectEPNS_8InstanceEPNS_4PortEPNS_3NetE
libOpenSTA.so:_ZN3sta15ConcreteNetwork7makeNetEPKcPNS_8InstanceE
libOpenSTA.so:_ZN3sta15ConcreteNetwork7makePinEPNS_8InstanceEPNS_4PortEPNS_3NetE
libOpenSTA.so:_ZN3sta15ConcreteNetwork7setNameEPNS_4CellEPKc
libOpenSTA.so:_ZN3sta15ConcreteNetwork8filenameEPKNS_4CellE
libOpenSTA.so:_ZN3sta15ConcreteNetwork8makeCellEPNS_7LibraryEPKcbS4_
libOpenSTA.so:_ZN3sta15ConcreteNetwork8makePinsEPNS_8InstanceE
libOpenSTA.so:_ZN3sta15ConcreteNetwork8makePortEPNS_4CellEPKc
libOpenSTA.so:_ZN3sta15ConcreteNetwork8makeTermEPNS_3PinEPNS_3NetE
libOpenSTA.so:_ZN3sta15ConcreteNetwork9deleteNetEPNS_3NetE
libOpenSTA.so:_ZN3sta15ConcreteNetwork9deletePinEPNS_3PinE
libOpenSTA.so:_ZN3sta15ConcreteNetwork9mergeIntoEPNS_3NetES2_
libOpenSTA.so:_ZN3sta15ConcreteNetwork9setIsLeafEPNS_4CellEb
libOpenSTA.so:_ZN3sta15ConcreteNetworkC2Ev
libOpenSTA.so:_ZN3sta15ConcreteNetworkD2Ev
libOpenSTA.so:_ZN3sta15NetPathNameLessC1EPKNS_7NetworkE
libOpenSTA.so:_ZN3sta15OutputWaveforms11timeCurrentEfff
libOpenSTA.so:_ZN3sta15OutputWaveforms11timeVoltageEfff
libOpenSTA.so:_ZN3sta15OutputWaveforms11voltageTimeEfff
libOpenSTA.so:_ZN3sta15OutputWaveforms14voltageCurrentEfff
libOpenSTA.so:_ZN3sta15OutputWaveforms15currentWaveformEff
libOpenSTA.so:_ZN3sta15OutputWaveforms15finalResistanceEv
libOpenSTA.so:_ZN3sta15OutputWaveforms15voltageWaveformEff
libOpenSTA.so:_ZN3sta15OutputWaveforms18currentWaveformRawEff
libOpenSTA.so:_ZN3sta15OutputWaveforms18voltageWaveformRawEff
libOpenSTA.so:_ZN3sta15OutputWaveforms22voltageCurrentWaveformEff
libOpenSTA.so:_ZN3sta15PinPathNameLessC1EPKNS_7NetworkE
libOpenSTA.so:_ZN3sta15deleteAllMemoryEv
libOpenSTA.so:_ZN3sta15findCmdLineFlagERiPPcPKc
libOpenSTA.so:_ZN3sta15isDelayCalcNameEPKc
libOpenSTA.so:_ZN3sta16FindNetDrvrLoadsC1EPKNS_3PinERNS_6PinSetERNS_6VectorIS3_EES8_PKNS_7NetworkE
libOpenSTA.so:_ZN3sta16logicValueStringENS_10LogicValueE
libOpenSTA.so:_ZN3sta17SearchPredNonReg210searchThruEPNS_4EdgeE
libOpenSTA.so:_ZN3sta17SearchPredNonReg2C1EPKNS_8StaStateE
libOpenSTA.so:_ZN3sta17SearchPredNonReg2C2EPKNS_8StaStateE
libOpenSTA.so:_ZN3sta17fuzzyGreaterEqualEff
libOpenSTA.so:_ZN3sta17readVcdActivitiesEPKcS1_PNS_3StaE
libOpenSTA.so:_ZN3sta18NetworkNameAdapter10mergedIntoEPNS_3NetE
libOpenSTA.so:_ZN3sta18NetworkNameAdapter11findLibertyEPKc
libOpenSTA.so:_ZN3sta18NetworkNameAdapter11findLibraryEPKc
libOpenSTA.so:_ZN3sta18NetworkNameAdapter11linkNetworkEPKcbPNS_6ReportE
libOpenSTA.so:_ZN3sta18NetworkNameAdapter11replaceCellEPNS_8InstanceEPNS_4CellE
libOpenSTA.so:_ZN3sta18NetworkNameAdapter11setVertexIdEPNS_3PinEj
libOpenSTA.so:_ZN3sta18NetworkNameAdapter13disconnectPinEPNS_3PinE
libOpenSTA.so:_ZN3sta18NetworkNameAdapter13setPathEscapeEc
libOpenSTA.so:_ZN3sta18NetworkNameAdapter14deleteInstanceEPNS_8InstanceE
libOpenSTA.so:_ZN3sta18NetworkNameAdapter14setPathDividerEc
libOpenSTA.so:_ZN3sta18NetworkNameAdapter18makeLibertyLibraryEPKcS2_
libOpenSTA.so:_ZN3sta18NetworkNameAdapter19constantPinIteratorEv
libOpenSTA.so:_ZN3sta18NetworkNameAdapter19findLibertyFilenameEPKc
libOpenSTA.so:_ZN3sta18NetworkNameAdapter7connectEPNS_8InstanceEPNS_11LibertyPortEPNS_3NetE
libOpenSTA.so:_ZN3sta18NetworkNameAdapter7connectEPNS_8InstanceEPNS_4PortEPNS_3NetE
libOpenSTA.so:_ZN3sta18NetworkNameAdapter8filenameEPKNS_4CellE
libOpenSTA.so:_ZN3sta18NetworkNameAdapter8makePinsEPNS_8InstanceE
libOpenSTA.so:_ZN3sta18NetworkNameAdapter9deleteNetEPNS_3NetE
libOpenSTA.so:_ZN3sta18NetworkNameAdapter9deletePinEPNS_3PinE
libOpenSTA.so:_ZN3sta18NetworkNameAdapter9mergeIntoEPNS_3NetES2_
libOpenSTA.so:_ZN3sta18VertexPathIterator4nextEv
libOpenSTA.so:_ZN3sta18VertexPathIterator7hasNextEv
libOpenSTA.so:_ZN3sta18VertexPathIteratorC1EPNS_6VertexEPKNS_8StaStateE
libOpenSTA.so:_ZN3sta18VertexPathIteratorD1Ev
libOpenSTA.so:_ZN3sta18scanSignalTypeNameENS_14ScanSignalTypeE
libOpenSTA.so:_ZN3sta18stringWireloadModeEPKc
libOpenSTA.so:_ZN3sta19LibertyCellIterator4nextEv
libOpenSTA.so:_ZN3sta19LibertyCellIterator7hasNextEv
libOpenSTA.so:_ZN3sta19LibertyCellIteratorC1EPKNS_14LibertyLibraryE
libOpenSTA.so:_ZN3sta19SearchPredNonLatch210searchThruEPNS_4EdgeE
libOpenSTA.so:_ZN3sta19SearchPredNonLatch2C1EPKNS_8StaStateE
libOpenSTA.so:_ZN3sta19makeConcreteNetworkEv
libOpenSTA.so:_ZN3sta19tclListSeqConstCharEP7Tcl_ObjP10Tcl_Interp
libOpenSTA.so:_ZN3sta19tclListSetConstCharEP7Tcl_ObjP10Tcl_Interp
libOpenSTA.so:_ZN3sta20ClkArrivalSearchPredC1EPKNS_8StaStateE
libOpenSTA.so:_ZN3sta20FuncExprPortIteratorC1EPKNS_8FuncExprE
libOpenSTA.so:_ZN3sta20VertexInEdgeIterator4nextEv
libOpenSTA.so:_ZN3sta20VertexInEdgeIteratorC1EPNS_6VertexEPKNS_5GraphE
libOpenSTA.so:_ZN3sta20reportAnnotatedCheckEbbbbbbbbibbbPNS_8StaStateE
libOpenSTA.so:_ZN3sta20reportAnnotatedDelayEbbbbibbbPNS_8StaStateE
libOpenSTA.so:_ZN3sta21VertexOutEdgeIterator4nextEv
libOpenSTA.so:_ZN3sta21VertexOutEdgeIteratorC1EPNS_6VertexEPKNS_5GraphE
libOpenSTA.so:_ZN3sta22equivCellTimingArcSetsEPKNS_11LibertyCellES2_
libOpenSTA.so:_ZN3sta23LibertyCellPortIterator4nextEv
libOpenSTA.so:_ZN3sta23LibertyCellPortIterator7hasNextEv
libOpenSTA.so:_ZN3sta23LibertyCellPortIteratorC1EPKNS_11LibertyCellE
libOpenSTA.so:_ZN3sta25LibertyPortMemberIterator4nextEv
libOpenSTA.so:_ZN3sta25LibertyPortMemberIterator7hasNextEv
libOpenSTA.so:_ZN3sta25LibertyPortMemberIteratorC1EPKNS_11LibertyPortE
libOpenSTA.so:_ZN3sta25LibertyPortMemberIteratorD1Ev
libOpenSTA.so:_ZN3sta26LibertyCellPortBitIterator4nextEv
libOpenSTA.so:_ZN3sta26LibertyCellPortBitIterator7hasNextEv
libOpenSTA.so:_ZN3sta26LibertyCellPortBitIteratorC1EPKNS_11LibertyCellE
libOpenSTA.so:_ZN3sta26LibertyCellPortBitIteratorD1Ev
libOpenSTA.so:_ZN3sta3INFE
libOpenSTA.so:_ZN3sta3PvtC1Efff
libOpenSTA.so:_ZN3sta3Sdc10allOutputsEv
libOpenSTA.so:_ZN3sta3Sdc10logicValueEPKNS_3PinERNS_10LogicValueERb
libOpenSTA.so:_ZN3sta3Sdc11fanoutLimitEPNS_4CellEPKNS_6MinMaxERfRb
libOpenSTA.so:_ZN3sta3Sdc11fanoutLimitEPNS_4PortEPKNS_6MinMaxERfRb
libOpenSTA.so:_ZN3sta3Sdc13portExtFanoutEPNS_4PortEPKNS_6CornerEPKNS_6MinMaxE
libOpenSTA.so:_ZN3sta3Sdc14caseLogicValueEPKNS_3PinERNS_10LogicValueERb
libOpenSTA.so:_ZN3sta3Sdc14findInputDriveEPNS_4PortE
libOpenSTA.so:_ZN3sta3Sdc16capacitanceLimitEPNS_4CellEPKNS_6MinMaxERfRb
libOpenSTA.so:_ZN3sta3Sdc16makeCornersAfterEPNS_7CornersE
libOpenSTA.so:_ZN3sta3Sdc22sameClockGroupExplicitEPKNS_5ClockES3_
libOpenSTA.so:_ZN3sta3Sdc7voltageEPKNS_3NetEPKNS_6MinMaxERfRb
libOpenSTA.so:_ZN3sta3Sdc7voltageEPKNS_6MinMaxERfRb
libOpenSTA.so:_ZN3sta3Sdc9allInputsEb
libOpenSTA.so:_ZN3sta3Sta10equivCellsEPNS_11LibertyCellE
libOpenSTA.so:_ZN3sta3Sta10findCornerEPKc
libOpenSTA.so:_ZN3sta3Sta10findDelaysEPNS_6VertexE
libOpenSTA.so:_ZN3sta3Sta10findDelaysEi
libOpenSTA.so:_ZN3sta3Sta10findDelaysEv
libOpenSTA.so:_ZN3sta3Sta10graphLoopsEv
libOpenSTA.so:_ZN3sta3Sta10linkDesignEPKcb
libOpenSTA.so:_ZN3sta3Sta10makeSearchEv
libOpenSTA.so:_ZN3sta3Sta10pinArrivalEPKNS_3PinEPKNS_8RiseFallEPKNS_6MinMaxE
libOpenSTA.so:_ZN3sta3Sta10reportPathEPKNS_4PathE
libOpenSTA.so:_ZN3sta3Sta10setMaxAreaEf
libOpenSTA.so:_ZN3sta3Sta10setVoltageEPKNS_3NetEPKNS_6MinMaxEf
libOpenSTA.so:_ZN3sta3Sta10setVoltageEPKNS_6MinMaxEf
libOpenSTA.so:_ZN3sta3Sta10vertexSlewEPNS_6VertexEPKNS_6MinMaxE
libOpenSTA.so:_ZN3sta3Sta10vertexSlewEPNS_6VertexEPKNS_8RiseFallEPKNS_15DcalcAnalysisPtE
libOpenSTA.so:_ZN3sta3Sta10vertexSlewEPNS_6VertexEPKNS_8RiseFallEPKNS_6CornerEPKNS_6MinMaxE
libOpenSTA.so:_ZN3sta3Sta10vertexSlewEPNS_6VertexEPKNS_8RiseFallEPKNS_6MinMaxE
libOpenSTA.so:_ZN3sta3Sta10worstSlackEPKNS_6CornerEPKNS_6MinMaxERfRPNS_6VertexE
libOpenSTA.so:_ZN3sta3Sta10worstSlackEPKNS_6MinMaxE
libOpenSTA.so:_ZN3sta3Sta10worstSlackEPKNS_6MinMaxERfRPNS_6VertexE
libOpenSTA.so:_ZN3sta3Sta11capacitanceEPKNS_11LibertyPortEPNS_6CornerEPKNS_6MinMaxE
libOpenSTA.so:_ZN3sta3Sta11checkFanoutEPKNS_3PinEPKNS_6MinMaxERfS7_S7_
libOpenSTA.so:_ZN3sta3Sta11checkTimingEbbbbbbb
libOpenSTA.so:_ZN3sta3Sta11ensureGraphEv
libOpenSTA.so:_ZN3sta3Sta11makeCornersEPNS_3SetIPKcNS_11CharPtrLessEEE
libOpenSTA.so:_ZN3sta3Sta11makeCornersEv
libOpenSTA.so:_ZN3sta3Sta11makeLatchesEv
libOpenSTA.so:_ZN3sta3Sta11makePortPinEPKcPNS_13PortDirectionE
libOpenSTA.so:_ZN3sta3Sta11multiCornerEv
libOpenSTA.so:_ZN3sta3Sta11portExtCapsEPKNS_4PortEPKNS_6CornerEPKNS_6MinMaxERfSA_Ri
libOpenSTA.so:_ZN3sta3Sta11readLibertyEPKcPNS_6CornerEPKNS_9MinMaxAllEb
libOpenSTA.so:_ZN3sta3Sta11removeClockEPNS_5ClockE
libOpenSTA.so:_ZN3sta3Sta11replaceCellEPNS_8InstanceEPNS_11LibertyCellE
libOpenSTA.so:_ZN3sta3Sta11replaceCellEPNS_8InstanceEPNS_4CellE
libOpenSTA.so:_ZN3sta3Sta11reportCheckEPNS_12MaxSkewCheckEb
libOpenSTA.so:_ZN3sta3Sta11reportCheckEPNS_14MinPeriodCheckEb
libOpenSTA.so:_ZN3sta3Sta11setArcDelayEPNS_4EdgeEPNS_9TimingArcEPKNS_6CornerEPKNS_9MinMaxAllEf
libOpenSTA.so:_ZN3sta3Sta11setCrprModeENS_8CrprModeE
libOpenSTA.so:_ZN3sta3Sta11setWireloadEPNS_8WireloadEPKNS_9MinMaxAllE
libOpenSTA.so:_ZN3sta3Sta11slowDriversEi
libOpenSTA.so:_ZN3sta3Sta11vertexLevelEPNS_6VertexE
libOpenSTA.so:_ZN3sta3Sta11vertexSlackEPNS_6VertexEPKNS_6MinMaxE
libOpenSTA.so:_ZN3sta3Sta11vertexSlackEPNS_6VertexEPKNS_8RiseFallEPKNS_14PathAnalysisPtE
libOpenSTA.so:_ZN3sta3Sta11vertexSlackEPNS_6VertexEPKNS_8RiseFallEPKNS_6MinMaxE
libOpenSTA.so:_ZN3sta3Sta11vertexSlackEPNS_6VertexEPKNS_8RiseFallEPKNS_9ClockEdgeEPKNS_14PathAnalysisPtE
libOpenSTA.so:_ZN3sta3Sta12endpointPinsEv
libOpenSTA.so:_ZN3sta3Sta12ensureLinkedEv
libOpenSTA.so:_ZN3sta3Sta12findPathEndsEPNS_13ExceptionFromEPNS_6VectorIPNS_13ExceptionThruEEEPNS_11ExceptionToEbPKNS_6CornerEPKNS_9MinMaxAllEiibbffbPNS_3SetIPKcNS_11CharPtrLessEEEbbbbbb
libOpenSTA.so:_ZN3sta3Sta12makeClkSkewsEv
libOpenSTA.so:_ZN3sta3Sta12makeInstanceEPKcPNS_11LibertyCellEPNS_8InstanceE
libOpenSTA.so:_ZN3sta3Sta12makeLevelizeEv
libOpenSTA.so:_ZN3sta3Sta12makePiElmoreEPNS_3PinEPKNS_8RiseFallEPKNS_9MinMaxAllEfff
libOpenSTA.so:_ZN3sta3Sta12maxSkewSlackEv
libOpenSTA.so:_ZN3sta3Sta12maxSlewCheckERPKNS_3PinERfS5_S5_
libOpenSTA.so:_ZN3sta3Sta12reportChecksEPNS_6VectorIPNS_12MaxSkewCheckEEEb
libOpenSTA.so:_ZN3sta3Sta12reportChecksEPNS_6VectorIPNS_14MinPeriodCheckEEEb
libOpenSTA.so:_ZN3sta3Sta12setClockSlewEPNS_5ClockEPKNS_12RiseFallBothEPKNS_9MinMaxAllEf
libOpenSTA.so:_ZN3sta3Sta12setCmdCornerEPNS_6CornerE
libOpenSTA.so:_ZN3sta3Sta12setDataCheckEPNS_3PinEPKNS_12RiseFallBothES2_S5_PNS_5ClockEPKNS_9MinMaxAllEf
libOpenSTA.so:_ZN3sta3Sta12setDriveCellEPKNS_14LibertyLibraryEPKNS_11LibertyCellEPKNS_4PortEPKNS_11LibertyPortEPfSC_PKNS_12RiseFallBothEPKNS_9MinMaxAllE
libOpenSTA.so:_ZN3sta3Sta12setInputSlewEPKNS_4PortEPKNS_12RiseFallBothEPKNS_9MinMaxAllEf
libOpenSTA.so:_ZN3sta3Sta12setSlewLimitEPNS_4CellEPKNS_6MinMaxEf
libOpenSTA.so:_ZN3sta3Sta12setSlewLimitEPNS_4PortEPKNS_6MinMaxEf
libOpenSTA.so:_ZN3sta3Sta12setSlewLimitEPNS_5ClockEPKNS_12RiseFallBothENS_13PathClkOrDataEPKNS_6MinMaxEf
libOpenSTA.so:_ZN3sta3Sta12setTclInterpEP10Tcl_Interp
libOpenSTA.so:_ZN3sta3Sta12updateTimingEb
libOpenSTA.so:_ZN3sta3Sta12vertexSlacksEPNS_6VertexERA2_A2_f
libOpenSTA.so:_ZN3sta3Sta13endpointSlackEPKNS_3PinERKNSt7__cxx1112basic_stringIcSt11char_traitsIcESaIcEEEPKNS_6MinMaxE
libOpenSTA.so:_ZN3sta3Sta13findFaninPinsEPNS_6VectorIPKNS_3PinEEEbbiibb
libOpenSTA.so:_ZN3sta3Sta13findRequiredsEv
libOpenSTA.so:_ZN3sta3Sta13findSlewLimitEPKNS_11LibertyPortEPKNS_6CornerEPKNS_6MinMaxERfRb
libOpenSTA.so:_ZN3sta3Sta13makeFalsePathEPNS_13ExceptionFromEPNS_6VectorIPNS_13ExceptionThruEEEPNS_11ExceptionToEPKNS_9MinMaxAllEPKc
libOpenSTA.so:_ZN3sta3Sta13makeGroupPathEPKcbPNS_13ExceptionFromEPNS_6VectorIPNS_13ExceptionThruEEEPNS_11ExceptionToES2_
libOpenSTA.so:_ZN3sta3Sta13makeObserversEv
libOpenSTA.so:_ZN3sta3Sta13makePathDelayEPNS_13ExceptionFromEPNS_6VectorIPNS_13ExceptionThruEEEPNS_11ExceptionToEPKNS_6MinMaxEbbfPKc
libOpenSTA.so:_ZN3sta3Sta13makeVariablesEv
libOpenSTA.so:_ZN3sta3Sta13removeDisableEPNS_11LibertyCellEPNS_11LibertyPortES4_
libOpenSTA.so:_ZN3sta3Sta13removeDisableEPNS_11LibertyPortE
libOpenSTA.so:_ZN3sta3Sta13removeDisableEPNS_12TimingArcSetE
libOpenSTA.so:_ZN3sta3Sta13removeDisableEPNS_3PinE
libOpenSTA.so:_ZN3sta3Sta13removeDisableEPNS_4EdgeE
libOpenSTA.so:_ZN3sta3Sta13removeDisableEPNS_4PortE
libOpenSTA.so:_ZN3sta3Sta13removeDisableEPNS_8InstanceEPNS_11LibertyPortES4_
libOpenSTA.so:_ZN3sta3Sta13reportClkSkewERSt6vectorIPKNS_5ClockESaIS4_EEPKNS_6CornerEPKNS_6MinMaxEbi
libOpenSTA.so:_ZN3sta3Sta13reportPathEndEPNS_7PathEndE
libOpenSTA.so:_ZN3sta3Sta13reportPathEndEPNS_7PathEndES2_b
libOpenSTA.so:_ZN3sta3Sta13setClockSenseEPNS_6PinSetEPNS_3SetIPNS_5ClockENS_14ClockIndexLessEEENS_10ClockSenseE
libOpenSTA.so:_ZN3sta3Sta13setDebugLevelEPKci
libOpenSTA.so:_ZN3sta3Sta13setInputDelayEPKNS_3PinEPKNS_12RiseFallBothEPKNS_5ClockEPKNS_8RiseFallES3_bbPKNS_9MinMaxAllEbf
libOpenSTA.so:_ZN3sta3Sta13setLogicValueEPNS_3PinENS_10LogicValueE
libOpenSTA.so:_ZN3sta3Sta13setNetWireCapEPKNS_3NetEbPKNS_6CornerEPKNS_9MinMaxAllEf
libOpenSTA.so:_ZN3sta3Sta13setResistanceEPKNS_3NetEPKNS_9MinMaxAllEf
libOpenSTA.so:_ZN3sta3Sta13simLogicValueEPKNS_3PinE
libOpenSTA.so:_ZN3sta3Sta13vertexArrivalEPNS_6VertexEPKNS_6MinMaxE
libOpenSTA.so:_ZN3sta3Sta13vertexArrivalEPNS_6VertexEPKNS_8RiseFallEPKNS_14PathAnalysisPtE
libOpenSTA.so:_ZN3sta3Sta13vertexArrivalEPNS_6VertexEPKNS_8RiseFallEPKNS_9ClockEdgeEPKNS_14PathAnalysisPtEPKNS_6MinMaxE
libOpenSTA.so:_ZN3sta3Sta14findFanoutPinsEPNS_6VectorIPKNS_3PinEEEbbiibb
libOpenSTA.so:_ZN3sta3Sta14makeClkNetworkEv
libOpenSTA.so:_ZN3sta3Sta14makeClockGroupEPNS_11ClockGroupsEPNS_3SetIPNS_5ClockENS_14ClockIndexLessEEE
libOpenSTA.so:_ZN3sta3Sta14makeComponentsEv
libOpenSTA.so:_ZN3sta3Sta14makeEquivCellsEPNS_6VectorIPNS_14LibertyLibraryEEES5_
libOpenSTA.so:_ZN3sta3Sta14makeParasiticsEv
libOpenSTA.so:_ZN3sta3Sta14makeReportPathEv
libOpenSTA.so:_ZN3sta3Sta14maxFanoutCheckERPKNS_3PinERfS5_S5_
libOpenSTA.so:_ZN3sta3Sta14minPeriodSlackEv
libOpenSTA.so:_ZN3sta3Sta14networkChangedEv
libOpenSTA.so:_ZN3sta3Sta14networkCmdEditEv
libOpenSTA.so:_ZN3sta3Sta14reportMpwCheckEPNS_18MinPulseWidthCheckEb
libOpenSTA.so:_ZN3sta3Sta14reportPathEndsEPNS_6VectorIPNS_7PathEndEEE
libOpenSTA.so:_ZN3sta3Sta14searchPreambleEv
libOpenSTA.so:_ZN3sta3Sta14setCrprEnabledEb
libOpenSTA.so:_ZN3sta3Sta14setFanoutLimitEPNS_4CellEPKNS_6MinMaxEf
libOpenSTA.so:_ZN3sta3Sta14setFanoutLimitEPNS_4PortEPKNS_6MinMaxEf
libOpenSTA.so:_ZN3sta3Sta14setOutputDelayEPKNS_3PinEPKNS_12RiseFallBothEPKNS_5ClockEPKNS_8RiseFallES3_bbPKNS_9MinMaxAllEbf
libOpenSTA.so:_ZN3sta3Sta14setPocvEnabledEb
libOpenSTA.so:_ZN3sta3Sta14setSigmaFactorEf
libOpenSTA.so:_ZN3sta3Sta14setThreadCountEi
libOpenSTA.so:_ZN3sta3Sta14simTimingSenseEPNS_4EdgeE
libOpenSTA.so:_ZN3sta3Sta14startpointPinsEv
libOpenSTA.so:_ZN3sta3Sta14vertexRequiredEPNS_6VertexEPKNS_6MinMaxE
libOpenSTA.so:_ZN3sta3Sta14vertexRequiredEPNS_6VertexEPKNS_8RiseFallEPKNS_14PathAnalysisPtE
libOpenSTA.so:_ZN3sta3Sta14vertexRequiredEPNS_6VertexEPKNS_8RiseFallEPKNS_6MinMaxE
libOpenSTA.so:_ZN3sta3Sta14vertexRequiredEPNS_6VertexEPKNS_8RiseFallEPKNS_9ClockEdgeEPKNS_14PathAnalysisPtE
libOpenSTA.so:_ZN3sta3Sta14writePathSpiceEPNS_4PathEPKcS4_S4_S4_S4_S4_NS_10CircuitSimE
libOpenSTA.so:_ZN3sta3Sta15arrivalsInvalidEv
libOpenSTA.so:_ZN3sta3Sta15checkSlewLimitsEPNS_3NetEbPKNS_6CornerEPKNS_6MinMaxE
libOpenSTA.so:_ZN3sta3Sta15connectPinAfterEPKNS_3PinE
libOpenSTA.so:_ZN3sta3Sta15deleteNetBeforeEPKNS_3NetE
libOpenSTA.so:_ZN3sta3Sta15deletePinBeforeEPKNS_3PinE
libOpenSTA.so:_ZN3sta3Sta15ensureLevelizedEv
libOpenSTA.so:_ZN3sta3Sta15ensureLibLinkedEv
libOpenSTA.so:_ZN3sta3Sta15isGroupPathNameEPKc
libOpenSTA.so:_ZN3sta3Sta15makeCheckTimingEv
libOpenSTA.so:_ZN3sta3Sta15makeClockGroupsEPKcbbbbS2_
libOpenSTA.so:_ZN3sta3Sta15makeExceptionToEPNS_6PinSetEPNS_3SetIPNS_5ClockENS_14ClockIndexLessEEEPNS_11InstanceSetEPKNS_12RiseFallBothESD_
libOpenSTA.so:_ZN3sta3Sta15readLibertyFileEPKcb
libOpenSTA.so:_ZN3sta3Sta15removeClockSlewEPNS_5ClockE
libOpenSTA.so:_ZN3sta3Sta15removeDataCheckEPNS_3PinEPKNS_12RiseFallBothES2_S5_PNS_5ClockEPKNS_9MinMaxAllE
libOpenSTA.so:_ZN3sta3Sta15reportDelayCalcB5cxx11EPNS_4EdgeEPNS_9TimingArcEPKNS_6CornerEPKNS_6MinMaxEi
libOpenSTA.so:_ZN3sta3Sta15reportMpwChecksEPNS_6VectorIPNS_18MinPulseWidthCheckEEEb
libOpenSTA.so:_ZN3sta3Sta15setAnalysisTypeENS_12AnalysisTypeE
libOpenSTA.so:_ZN3sta3Sta15setArcDelayCalcEPKc
libOpenSTA.so:_ZN3sta3Sta15setCaseAnalysisEPNS_3PinENS_10LogicValueE
libOpenSTA.so:_ZN3sta3Sta15setClockLatencyEPNS_5ClockEPNS_3PinEPKNS_12RiseFallBothEPKNS_9MinMaxAllEf
libOpenSTA.so:_ZN3sta3Sta15setCmdNamespaceENS_12CmdNamespaceE
libOpenSTA.so:_ZN3sta3Sta15setTimingDerateENS_16TimingDerateTypeENS_13PathClkOrDataEPKNS_12RiseFallBothEPKNS_6MinMaxEf
libOpenSTA.so:_ZN3sta3Sta15setTimingDerateEPKNS_11LibertyCellENS_20TimingDerateCellTypeENS_13PathClkOrDataEPKNS_12RiseFallBothEPKNS_6MinMaxEf
libOpenSTA.so:_ZN3sta3Sta15setTimingDerateEPKNS_3NetENS_13PathClkOrDataEPKNS_12RiseFallBothEPKNS_6MinMaxEf
libOpenSTA.so:_ZN3sta3Sta15setTimingDerateEPKNS_8InstanceENS_20TimingDerateCellTypeENS_13PathClkOrDataEPKNS_12RiseFallBothEPKNS_6MinMaxEf
libOpenSTA.so:_ZN3sta3Sta15setWireloadModeENS_12WireloadModeE
libOpenSTA.so:_ZN3sta3Sta16checkCapacitanceEPKNS_3PinEPKNS_6CornerEPKNS_6MinMaxERS6_RPKNS_8RiseFallERfSF_SF_
libOpenSTA.so:_ZN3sta3Sta16deleteParasiticsEv
libOpenSTA.so:_ZN3sta3Sta16ensureClkNetworkEv
libOpenSTA.so:_ZN3sta3Sta16findClkMinPeriodEPKNS_5ClockEb
libOpenSTA.so:_ZN3sta3Sta16findWorstClkSkewEPKNS_6MinMaxEb
libOpenSTA.so:_ZN3sta3Sta16makeArcDelayCalcEv
libOpenSTA.so:_ZN3sta3Sta16makePortPinAfterEPNS_3PinE
libOpenSTA.so:_ZN3sta3Sta16removeInputDelayEPKNS_3PinEPKNS_12RiseFallBothEPKNS_5ClockEPKNS_8RiseFallEPKNS_9MinMaxAllE
libOpenSTA.so:_ZN3sta3Sta16replaceCellAfterEPKNS_8InstanceE
libOpenSTA.so:_ZN3sta3Sta16reportClkLatencyERSt6vectorIPKNS_5ClockESaIS4_EEPKNS_6CornerEbi
libOpenSTA.so:_ZN3sta3Sta16setAnnotatedSlewEPNS_6VertexEPKNS_6CornerEPKNS_9MinMaxAllEPKNS_12RiseFallBothEf
libOpenSTA.so:_ZN3sta3Sta16setMinPulseWidthEPKNS_12RiseFallBothEf
libOpenSTA.so:_ZN3sta3Sta16setMinPulseWidthEPKNS_3PinEPKNS_12RiseFallBothEf
libOpenSTA.so:_ZN3sta3Sta16setMinPulseWidthEPKNS_5ClockEPKNS_12RiseFallBothEf
libOpenSTA.so:_ZN3sta3Sta16setMinPulseWidthEPKNS_8InstanceEPKNS_12RiseFallBothEf
libOpenSTA.so:_ZN3sta3Sta16setPortExtFanoutEPKNS_4PortEiPKNS_6CornerEPKNS_9MinMaxAllE
libOpenSTA.so:_ZN3sta3Sta16setPortExtPinCapEPKNS_4PortEPKNS_12RiseFallBothEPKNS_6CornerEPKNS_9MinMaxAllEf
libOpenSTA.so:_ZN3sta3Sta16writeTimingModelEPKcS2_S2_PKNS_6CornerE
libOpenSTA.so:_ZN3sta3Sta17arcDelayAnnotatedEPNS_4EdgeEPNS_9TimingArcEPNS_15DcalcAnalysisPtE
libOpenSTA.so:_ZN3sta3Sta17checkFanoutLimitsEPNS_3NetEbPKNS_6MinMaxE
libOpenSTA.so:_ZN3sta3Sta17deleteExceptionToEPNS_11ExceptionToE
libOpenSTA.so:_ZN3sta3Sta17ensureClkArrivalsEv
libOpenSTA.so:_ZN3sta3Sta17makeCheckMaxSkewsEv
libOpenSTA.so:_ZN3sta3Sta17makeExceptionFromEPNS_6PinSetEPNS_3SetIPNS_5ClockENS_14ClockIndexLessEEEPNS_11InstanceSetEPKNS_12RiseFallBothE
libOpenSTA.so:_ZN3sta3Sta17makeExceptionThruEPNS_6PinSetEPNS_6NetSetEPNS_11InstanceSetEPKNS_12RiseFallBothE
libOpenSTA.so:_ZN3sta3Sta17makeInstanceAfterEPKNS_8InstanceE
libOpenSTA.so:_ZN3sta3Sta17maxSkewViolationsEv
libOpenSTA.so:_ZN3sta3Sta17removeConstraintsEv
libOpenSTA.so:_ZN3sta3Sta17removeOutputDelayEPKNS_3PinEPKNS_12RiseFallBothEPKNS_5ClockEPKNS_8RiseFallEPKNS_9MinMaxAllE
libOpenSTA.so:_ZN3sta3Sta17replaceCellBeforeEPKNS_8InstanceEPKNS_11LibertyCellE
libOpenSTA.so:_ZN3sta3Sta17setClockInsertionEPKNS_5ClockEPKNS_3PinEPKNS_12RiseFallBothEPKNS_9MinMaxAllESC_f
libOpenSTA.so:_ZN3sta3Sta17setPortExtWireCapEPKNS_4PortEbPKNS_12RiseFallBothEPKNS_6CornerEPKNS_9MinMaxAllEf
libOpenSTA.so:_ZN3sta3Sta17unsetTimingDerateEv
libOpenSTA.so:_ZN3sta3Sta18constraintsChangedEv
libOpenSTA.so:_ZN3sta3Sta18findFaninInstancesEPNS_6VectorIPKNS_3PinEEEbbiibb
libOpenSTA.so:_ZN3sta3Sta18findLogicConstantsEv
libOpenSTA.so:_ZN3sta3Sta18isDisabledConstantEPNS_4EdgeE
libOpenSTA.so:_ZN3sta3Sta18makeGeneratedClockEPKcPNS_6PinSetEbPNS_3PinEPNS_5ClockEiifbbPNS_6VectorIiEEPNS9_IfEEPc
libOpenSTA.so:_ZN3sta3Sta18makeGraphDelayCalcEv
libOpenSTA.so:_ZN3sta3Sta18makeMulticyclePathEPNS_13ExceptionFromEPNS_6VectorIPNS_13ExceptionThruEEEPNS_11ExceptionToEPKNS_9MinMaxAllEbiPKc
libOpenSTA.so:_ZN3sta3Sta18minPulseWidthSlackEPKNS_6CornerE
libOpenSTA.so:_ZN3sta3Sta18removeCaseAnalysisEPNS_3PinE
libOpenSTA.so:_ZN3sta3Sta18removeClockLatencyEPKNS_5ClockEPKNS_3PinE
libOpenSTA.so:_ZN3sta3Sta18setCurrentInstanceEPNS_8InstanceE
libOpenSTA.so:_ZN3sta3Sta18setDriveResistanceEPKNS_4PortEPKNS_12RiseFallBothEPKNS_9MinMaxAllEf
libOpenSTA.so:_ZN3sta3Sta18setPropagatedClockEPNS_3PinE
libOpenSTA.so:_ZN3sta3Sta18setPropagatedClockEPNS_5ClockE
libOpenSTA.so:_ZN3sta3Sta18totalNegativeSlackEPKNS_6CornerEPKNS_6MinMaxE
libOpenSTA.so:_ZN3sta3Sta18totalNegativeSlackEPKNS_6MinMaxE
libOpenSTA.so:_ZN3sta3Sta18vertexPathIteratorEPNS_6VertexEPKNS_8RiseFallEPKNS_6MinMaxE
libOpenSTA.so:_ZN3sta3Sta19clearLogicConstantsEv
libOpenSTA.so:_ZN3sta3Sta19deleteExceptionFromEPNS_13ExceptionFromE
libOpenSTA.so:_ZN3sta3Sta19deleteExceptionThruEPNS_13ExceptionThruE
libOpenSTA.so:_ZN3sta3Sta19disabledEdgesSortedEv
libOpenSTA.so:_ZN3sta3Sta19disconnectPinBeforeEPKNS_3PinE
libOpenSTA.so:_ZN3sta3Sta19findFanoutInstancesEPNS_6VectorIPKNS_3PinEEEbbiibb
libOpenSTA.so:_ZN3sta3Sta19findRegisterClkPinsEPNS_3SetIPNS_5ClockENS_14ClockIndexLessEEEPKNS_12RiseFallBothEbb
libOpenSTA.so:_ZN3sta3Sta19findReportPathFieldEPKc
libOpenSTA.so:_ZN3sta3Sta19makeCheckMinPeriodsEv
libOpenSTA.so:_ZN3sta3Sta19makeCheckSlewLimitsEv
libOpenSTA.so:_ZN3sta3Sta19maxCapacitanceCheckERPKNS_3PinERfS5_S5_
libOpenSTA.so:_ZN3sta3Sta19minPeriodViolationsEv
libOpenSTA.so:_ZN3sta3Sta19minPulseWidthChecksEPKNS_6CornerE
libOpenSTA.so:_ZN3sta3Sta19minPulseWidthChecksEPNS_6VectorIPKNS_3PinEEEPKNS_6CornerE
libOpenSTA.so:_ZN3sta3Sta19reportPathEndFooterEv
libOpenSTA.so:_ZN3sta3Sta19reportPathEndHeaderEv
libOpenSTA.so:_ZN3sta3Sta19setCapacitanceLimitEPNS_3PinEPKNS_6MinMaxEf
libOpenSTA.so:_ZN3sta3Sta19setCapacitanceLimitEPNS_4CellEPKNS_6MinMaxEf
libOpenSTA.so:_ZN3sta3Sta19setCapacitanceLimitEPNS_4PortEPKNS_6MinMaxEf
libOpenSTA.so:_ZN3sta3Sta19setClockGatingCheckEPKNS_12RiseFallBothEPKNS_6MinMaxEf
libOpenSTA.so:_ZN3sta3Sta19setClockGatingCheckEPNS_3PinEPKNS_12RiseFallBothEPKNS_6MinMaxEfNS_10LogicValueE
libOpenSTA.so:_ZN3sta3Sta19setClockGatingCheckEPNS_5ClockEPKNS_12RiseFallBothEPKNS_6MinMaxEf
libOpenSTA.so:_ZN3sta3Sta19setClockGatingCheckEPNS_8InstanceEPKNS_12RiseFallBothEPKNS_6MinMaxEfNS_10LogicValueE
libOpenSTA.so:_ZN3sta3Sta19setClockUncertaintyEPNS_3PinEPKNS_9MinMaxAllEf
libOpenSTA.so:_ZN3sta3Sta19setClockUncertaintyEPNS_5ClockEPKNS_12RiseFallBothES2_S5_PKNS_9MinMaxAllEf
libOpenSTA.so:_ZN3sta3Sta19setClockUncertaintyEPNS_5ClockEPKNS_9MinMaxAllEf
libOpenSTA.so:_ZN3sta3Sta19setLatchBorrowLimitEPKNS_3PinEf
libOpenSTA.so:_ZN3sta3Sta19setLatchBorrowLimitEPKNS_5ClockEf
libOpenSTA.so:_ZN3sta3Sta19setLatchBorrowLimitEPKNS_8InstanceEf
libOpenSTA.so:_ZN3sta3Sta19setReportPathDigitsEi
libOpenSTA.so:_ZN3sta3Sta19setReportPathFieldsEbbbbbbb
libOpenSTA.so:_ZN3sta3Sta19setReportPathFormatENS_16ReportPathFormatE
libOpenSTA.so:_ZN3sta3Sta19setReportPathSigmasEb
libOpenSTA.so:_ZN3sta3Sta19updateGeneratedClksEv
libOpenSTA.so:_ZN3sta3Sta20deleteInstanceBeforeEPKNS_8InstanceE
libOpenSTA.so:_ZN3sta3Sta20disabledConstantPinsEPNS_4EdgeE
libOpenSTA.so:_ZN3sta3Sta20findRegisterDataPinsEPNS_3SetIPNS_5ClockENS_14ClockIndexLessEEEPKNS_12RiseFallBothEbb
libOpenSTA.so:_ZN3sta3Sta20isDisabledConstraintEPNS_4EdgeE
libOpenSTA.so:_ZN3sta3Sta20makeParasiticNetworkEPKNS_3NetEbPKNS_19ParasiticAnalysisPtE
libOpenSTA.so:_ZN3sta3Sta20removeClockInsertionEPKNS_5ClockEPKNS_3PinE
libOpenSTA.so:_ZN3sta3Sta20reportSlewLimitShortEPNS_3PinEPKNS_6CornerEPKNS_6MinMaxE
libOpenSTA.so:_ZN3sta3Sta20setReportPathNoSplitEb
libOpenSTA.so:_ZN3sta3Sta20setWireloadSelectionEPNS_17WireloadSelectionEPKNS_9MinMaxAllE
libOpenSTA.so:_ZN3sta3Sta20vertexWorstSlackPathEPNS_6VertexEPKNS_6MinMaxE
libOpenSTA.so:_ZN3sta3Sta21findRegisterAsyncPinsEPNS_3SetIPNS_5ClockENS_14ClockIndexLessEEEPKNS_12RiseFallBothEbb
libOpenSTA.so:_ZN3sta3Sta21findRegisterInstancesEPNS_3SetIPNS_5ClockENS_14ClockIndexLessEEEPKNS_12RiseFallBothEbb
libOpenSTA.so:_ZN3sta3Sta21makeCheckFanoutLimitsEv
libOpenSTA.so:_ZN3sta3Sta21removePropagatedClockEPNS_3PinE
libOpenSTA.so:_ZN3sta3Sta21removePropagatedClockEPNS_5ClockE
libOpenSTA.so:_ZN3sta3Sta21replaceEquivCellAfterEPKNS_8InstanceE
libOpenSTA.so:_ZN3sta3Sta21setPropagateAllClocksEb
libOpenSTA.so:_ZN3sta3Sta21updateComponentsStateEv
libOpenSTA.so:_ZN3sta3Sta22checkCapacitanceLimitsEPNS_3NetEbPKNS_6CornerEPKNS_6MinMaxE
libOpenSTA.so:_ZN3sta3Sta22checkSlewLimitPreambleEv
libOpenSTA.so:_ZN3sta3Sta22delaysInvalidFromFaninEPKNS_3NetE
libOpenSTA.so:_ZN3sta3Sta22endpointViolationCountEPKNS_6MinMaxE
libOpenSTA.so:_ZN3sta3Sta22findRegisterOutputPinsEPNS_3SetIPNS_5ClockENS_14ClockIndexLessEEEPKNS_12RiseFallBothEbb
libOpenSTA.so:_ZN3sta3Sta22removeClockUncertaintyEPNS_3PinEPKNS_9MinMaxAllE
libOpenSTA.so:_ZN3sta3Sta22removeClockUncertaintyEPNS_5ClockEPKNS_12RiseFallBothES2_S5_PKNS_9MinMaxAllE
libOpenSTA.so:_ZN3sta3Sta22removeClockUncertaintyEPNS_5ClockEPKNS_9MinMaxAllE
libOpenSTA.so:_ZN3sta3Sta22replaceEquivCellBeforeEPKNS_8InstanceEPKNS_11LibertyCellE
libOpenSTA.so:_ZN3sta3Sta22reportFanoutLimitShortEPNS_3PinEPKNS_6MinMaxE
libOpenSTA.so:_ZN3sta3Sta22reportSlewLimitVerboseEPNS_3PinEPKNS_6CornerEPKNS_6MinMaxE
libOpenSTA.so:_ZN3sta3Sta22setDynamicLoopBreakingEb
libOpenSTA.so:_ZN3sta3Sta22setOperatingConditionsEPNS_19OperatingConditionsEPKNS_9MinMaxAllE
libOpenSTA.so:_ZN3sta3Sta22vertexWorstArrivalPathEPNS_6VertexEPKNS_6MinMaxE
libOpenSTA.so:_ZN3sta3Sta22vertexWorstArrivalPathEPNS_6VertexEPKNS_8RiseFallEPKNS_6MinMaxE
libOpenSTA.so:_ZN3sta3Sta23disableClockGatingCheckEPNS_3PinE
libOpenSTA.so:_ZN3sta3Sta23disableClockGatingCheckEPNS_8InstanceE
libOpenSTA.so:_ZN3sta3Sta23makeCheckMinPulseWidthsEv
libOpenSTA.so:_ZN3sta3Sta23minPulseWidthViolationsEPKNS_6CornerE
libOpenSTA.so:_ZN3sta3Sta23setParasiticAnalysisPtsEb
libOpenSTA.so:_ZN3sta3Sta23setPresetClrArcsEnabledEb
libOpenSTA.so:_ZN3sta3Sta23setReportPathFieldOrderEPNS_6VectorIPKcEE
libOpenSTA.so:_ZN3sta3Sta24checkFanoutLimitPreambleEv
libOpenSTA.so:_ZN3sta3Sta24deleteLeafInstanceBeforeEPKNS_8InstanceE
libOpenSTA.so:_ZN3sta3Sta24reportFanoutLimitVerboseEPNS_3PinEPKNS_6MinMaxE
libOpenSTA.so:_ZN3sta3Sta24setGatedClkChecksEnabledEb
libOpenSTA.so:_ZN3sta3Sta25reportParasiticAnnotationEbPKNS_6CornerE
libOpenSTA.so:_ZN3sta3Sta25setClkThruTristateEnabledEb
libOpenSTA.so:_ZN3sta3Sta25setCondDefaultArcsEnabledEb
libOpenSTA.so:_ZN3sta3Sta25setUseDefaultArrivalClockEb
libOpenSTA.so:_ZN3sta3Sta26makeCheckCapacitanceLimitsEv
libOpenSTA.so:_ZN3sta3Sta26removeDelaySlewAnnotationsEv
libOpenSTA.so:_ZN3sta3Sta26reportSlewLimitShortHeaderEv
libOpenSTA.so:_ZN3sta3Sta26setBidirectNetPathsEnabledEb
libOpenSTA.so:_ZN3sta3Sta27reportCapacitanceLimitShortEPNS_3PinEPKNS_6CornerEPKNS_6MinMaxE
libOpenSTA.so:_ZN3sta3Sta27setBidirectInstPathsEnabledEb
libOpenSTA.so:_ZN3sta3Sta28reportFanoutLimitShortHeaderEv
libOpenSTA.so:_ZN3sta3Sta28setIncrementalDelayToleranceEf
libOpenSTA.so:_ZN3sta3Sta28setPropagateGatedClockEnableEb
libOpenSTA.so:_ZN3sta3Sta29checkCapacitanceLimitPreambleEv
libOpenSTA.so:_ZN3sta3Sta29removeClockGroupsAsynchronousEPKc
libOpenSTA.so:_ZN3sta3Sta29removeDisableClockGatingCheckEPNS_3PinE
libOpenSTA.so:_ZN3sta3Sta29removeDisableClockGatingCheckEPNS_8InstanceE
libOpenSTA.so:_ZN3sta3Sta29reportCapacitanceLimitVerboseEPNS_3PinEPKNS_6CornerEPKNS_6MinMaxE
libOpenSTA.so:_ZN3sta3Sta31setRecoveryRemovalChecksEnabledEb
libOpenSTA.so:_ZN3sta3Sta33reportCapacitanceLimitShortHeaderEv
libOpenSTA.so:_ZN3sta3Sta35removeClockGroupsLogicallyExclusiveEPKc
libOpenSTA.so:_ZN3sta3Sta36removeClockGroupsPhysicallyExclusiveEPKc
libOpenSTA.so:_ZN3sta3Sta3staEv
libOpenSTA.so:_ZN3sta3Sta4pinsEPKNS_5ClockE
libOpenSTA.so:_ZN3sta3Sta4sta_E
libOpenSTA.so:_ZN3sta3Sta5clearEv
libOpenSTA.so:_ZN3sta3Sta5powerEPKNS_6CornerERNS_11PowerResultES5_S5_S5_S5_S5_
libOpenSTA.so:_ZN3sta3Sta5powerEPKNS_8InstanceEPKNS_6CornerE
libOpenSTA.so:_ZN3sta3Sta6clocksEPKNS_3PinE
libOpenSTA.so:_ZN3sta3Sta6setPvtEPKNS_8InstanceEPKNS_9MinMaxAllERKNS_3PvtE
libOpenSTA.so:_ZN3sta3Sta6setStaEPS0_
libOpenSTA.so:_ZN3sta3Sta7disableEPNS_11LibertyCellEPNS_11LibertyPortES4_
libOpenSTA.so:_ZN3sta3Sta7disableEPNS_11LibertyPortE
libOpenSTA.so:_ZN3sta3Sta7disableEPNS_12TimingArcSetE
libOpenSTA.so:_ZN3sta3Sta7disableEPNS_3PinE
libOpenSTA.so:_ZN3sta3Sta7disableEPNS_4EdgeE
libOpenSTA.so:_ZN3sta3Sta7disableEPNS_4PortE
libOpenSTA.so:_ZN3sta3Sta7disableEPNS_8InstanceEPNS_11LibertyPortES4_
libOpenSTA.so:_ZN3sta3Sta7makeNetEPKcPNS_8InstanceE
libOpenSTA.so:_ZN3sta3Sta7makeSdcEv
libOpenSTA.so:_ZN3sta3Sta7makeSimEv
libOpenSTA.so:_ZN3sta3Sta8activityEPKNS_3PinE
libOpenSTA.so:_ZN3sta3Sta8arcDelayEPNS_4EdgeEPNS_9TimingArcEPKNS_15DcalcAnalysisPtE
libOpenSTA.so:_ZN3sta3Sta8netSlackEPKNS_3NetEPKNS_6MinMaxE
libOpenSTA.so:_ZN3sta3Sta8pinSlackEPKNS_3PinEPKNS_6MinMaxE
libOpenSTA.so:_ZN3sta3Sta8pinSlackEPKNS_3PinEPKNS_8RiseFallEPKNS_6MinMaxE
libOpenSTA.so:_ZN3sta3Sta8readSpefEPKcPNS_8InstanceEPKNS_6CornerEPKNS_9MinMaxAllEbbfb
libOpenSTA.so:_ZN3sta3Sta8writeSdcEPKcbbibb
libOpenSTA.so:_ZN3sta3Sta8writeSdfEPKcPKNS_6CornerEcbibbb
libOpenSTA.so:_ZN3sta3Sta9checkSlewEPKNS_3PinEPKNS_6CornerEPKNS_6MinMaxEbRS6_RPKNS_8RiseFallERfSF_SF_
libOpenSTA.so:_ZN3sta3Sta9endpointsEv
libOpenSTA.so:_ZN3sta3Sta9makeClockEPKcPNS_6PinSetEbfPNS_6VectorIfEEPc
libOpenSTA.so:_ZN3sta3Sta9makeDebugEv
libOpenSTA.so:_ZN3sta3Sta9makeGraphEv
libOpenSTA.so:_ZN3sta3Sta9makePowerEv
libOpenSTA.so:_ZN3sta3Sta9makeUnitsEv
libOpenSTA.so:_ZN3sta3Sta9resetPathEPNS_13ExceptionFromEPNS_6VectorIPNS_13ExceptionThruEEEPNS_11ExceptionToEPKNS_9MinMaxAllE
libOpenSTA.so:_ZN3sta3Sta9setElmoreEPNS_3PinES2_PKNS_8RiseFallEPKNS_9MinMaxAllEf
libOpenSTA.so:_ZN3sta3Sta9tclInterpEv
libOpenSTA.so:_ZN3sta3StaC1Ev
libOpenSTA.so:_ZN3sta3StaC2Ev
libOpenSTA.so:_ZN3sta3StaD2Ev
libOpenSTA.so:_ZN3sta4Unit8setScaleEf
libOpenSTA.so:_ZN3sta4Unit9setDigitsEi
libOpenSTA.so:_ZN3sta4Unit9setSuffixEPKc
libOpenSTA.so:_ZN3sta4Unit9staToUserEd
libOpenSTA.so:_ZN3sta4Unit9userToStaEd
libOpenSTA.so:_ZN3sta5Graph4slewEPKNS_6VertexEPKNS_8RiseFallEi
libOpenSTA.so:_ZN3sta5Power14clockMinPeriodEv
libOpenSTA.so:_ZN3sta5Power15setUserActivityEPKNS_3PinEffNS_17PwrActivityOriginE
libOpenSTA.so:_ZN3sta5Power16setInputActivityEff
libOpenSTA.so:_ZN3sta5Power17setGlobalActivityEff
libOpenSTA.so:_ZN3sta5Power17unsetUserActivityEPKNS_3PinE
libOpenSTA.so:_ZN3sta5Power18unsetInputActivityEv
libOpenSTA.so:_ZN3sta5Power19unsetGlobalActivityEv
libOpenSTA.so:_ZN3sta5Power20setInputPortActivityEPKNS_4PortEff
libOpenSTA.so:_ZN3sta5Power21highestPowerInstancesEmPKNS_6CornerE
libOpenSTA.so:_ZN3sta5Power22unsetInputPortActivityEPKNS_4PortE
libOpenSTA.so:_ZN3sta5Power24reportActivityAnnotationEbb
libOpenSTA.so:_ZN3sta5Units4findEPKc
libOpenSTA.so:_ZN3sta6MinMax4findEPKc
libOpenSTA.so:_ZN3sta6MinMax4max_E
libOpenSTA.so:_ZN3sta6MinMax4min_E
libOpenSTA.so:_ZN3sta6MinMax6range_E
libOpenSTA.so:_ZN3sta6NetSetC1EPKNS_7NetworkE
libOpenSTA.so:_ZN3sta6PinSetC1EPKNS_7NetworkE
libOpenSTA.so:_ZN3sta6PinSetC1Ev
libOpenSTA.so:_ZN3sta6Report10reportLineEPKcz
libOpenSTA.so:_ZN3sta6Report12fileCriticalEiPKciS2_z
libOpenSTA.so:_ZN3sta6Report12isSuppressedEi
libOpenSTA.so:_ZN3sta6Report13printToBufferEPKcP13__va_list_tag
libOpenSTA.so:_ZN3sta6Report13printToBufferEPKcz
libOpenSTA.so:_ZN3sta6Report13suppressMsgIdEi
libOpenSTA.so:_ZN3sta6Report15reportBlankLineEv
libOpenSTA.so:_ZN3sta6Report15unsuppressMsgIdEi
libOpenSTA.so:_ZN3sta6Report16reportLineStringEPKc
libOpenSTA.so:_ZN3sta6Report16reportLineStringERKNSt7__cxx1112basic_stringIcSt11char_traitsIcESaIcEEE
libOpenSTA.so:_ZN3sta6Report19printToBufferAppendEPKcP13__va_list_tag
libOpenSTA.so:_ZN3sta6Report5vwarnEiPKcP13__va_list_tag
libOpenSTA.so:_ZN3sta6Report6verrorEiPKcP13__va_list_tag
libOpenSTA.so:_ZN3sta6Search12findArrivalsEi
libOpenSTA.so:_ZN3sta6Search12findPathEndsEPNS_13ExceptionFromEPNS_6VectorIPNS_13ExceptionThruEEEPNS_11ExceptionToEbPKNS_6CornerEPKNS_9MinMaxAllEmmbbffbPNS_3SetIPKcNS_11CharPtrLessEEEbbbbbb
libOpenSTA.so:_ZN3sta6Search13findRequiredsEi
libOpenSTA.so:_ZN3sta6Search14makePathGroupsEiibbffPNS_3SetIPKcNS_11CharPtrLessEEEbbbbbb
libOpenSTA.so:_ZN3sta6Search15arrivalsInvalidEv
libOpenSTA.so:_ZN3sta6Search15findAllArrivalsEv
libOpenSTA.so:_ZN3sta6Search16endpointsInvalidEv
libOpenSTA.so:_ZN3sta6Search9endpointsEv
libOpenSTA.so:_ZN3sta6Table1C1Ev
libOpenSTA.so:_ZN3sta6Table1D1Ev
libOpenSTA.so:_ZN3sta6Table1aSEOS0_
libOpenSTA.so:_ZN3sta6Vertex16setSlewAnnotatedEbPKNS_8RiseFallEi
libOpenSTA.so:_ZN3sta7Corners10findCornerEi
libOpenSTA.so:_ZN3sta7Corners15pathAnalysisPtsEv
libOpenSTA.so:_ZN3sta7Corners16dcalcAnalysisPtsEv
libOpenSTA.so:_ZN3sta7Corners4copyEPS0_
libOpenSTA.so:_ZN3sta7Network12leafPinCountEv
libOpenSTA.so:_ZN3sta7Network13instanceCountEv
libOpenSTA.so:_ZN3sta7Network13leafInstancesEv
libOpenSTA.so:_ZN3sta7Network13setPathEscapeEc
libOpenSTA.so:_ZN3sta7Network14setPathDividerEc
libOpenSTA.so:_ZN3sta7Network16readLibertyAfterEPNS_14LibertyLibraryE
libOpenSTA.so:_ZN3sta7Network17leafInstanceCountEv
libOpenSTA.so:_ZN3sta7Network19checkLibertyCornersEv
libOpenSTA.so:_ZN3sta7Network19findLibertyFilenameEPKc
libOpenSTA.so:_ZN3sta7Network24setDefaultLibertyLibraryEPNS_14LibertyLibraryE
libOpenSTA.so:_ZN3sta7Network5clearEv
libOpenSTA.so:_ZN3sta7Network7driversEPKNS_3NetE
libOpenSTA.so:_ZN3sta7Network7driversEPKNS_3PinE
libOpenSTA.so:_ZN3sta7Network8netCountEv
libOpenSTA.so:_ZN3sta7Network8pinCountEv
libOpenSTA.so:_ZN3sta7NetworkD2Ev
libOpenSTA.so:_ZN3sta7initStaEv
libOpenSTA.so:_ZN3sta7readSdfEPKcS1_PNS_6CornerEbbPNS_9MinMaxAllEPNS_8StaStateE
libOpenSTA.so:_ZN3sta8FuncExpr5equivEPKS0_S2_
libOpenSTA.so:_ZN3sta8Levelize8levelizeEv
libOpenSTA.so:_ZN3sta8RiseFall12range_index_E
libOpenSTA.so:_ZN3sta8RiseFall4findEPKc
libOpenSTA.so:_ZN3sta8RiseFall5fall_E
libOpenSTA.so:_ZN3sta8RiseFall5rise_E
libOpenSTA.so:_ZN3sta8RiseFall6range_E
libOpenSTA.so:_ZN3sta8StaState9copyStateEPKS0_
libOpenSTA.so:_ZN3sta8StaState9copyUnitsEPKNS_5UnitsE
libOpenSTA.so:_ZN3sta8StaStateC2Ev
libOpenSTA.so:_ZN3sta8delayInfERKf
libOpenSTA.so:_ZN3sta8fuzzyInfEf
libOpenSTA.so:_ZN3sta8readSaifEPKcS1_PNS_3StaE
libOpenSTA.so:_ZN3sta9ExceptionC2Ev
libOpenSTA.so:_ZN3sta9MinMaxAll4all_E
libOpenSTA.so:_ZN3sta9MinMaxAll4findEPKc
libOpenSTA.so:_ZN3sta9MinMaxAll4max_E
libOpenSTA.so:_ZN3sta9MinMaxAll4min_E
libOpenSTA.so:_ZN3sta9PathGroup20group_path_count_maxE
libOpenSTA.so:_ZN3sta9PinIdLessC1EPKNS_7NetworkE
libOpenSTA.so:_ZN3sta9ReportTcl12printConsoleEPKcm
libOpenSTA.so:_ZN3sta9ReportTcl12setTclInterpEP10Tcl_Interp
libOpenSTA.so:_ZN3sta9ReportTcl5flushEv
libOpenSTA.so:_ZN3sta9ReportTcl6logEndEv
libOpenSTA.so:_ZN3sta9ReportTcl8logBeginEPKc
libOpenSTA.so:_ZN3sta9ReportTclC2Ev
libOpenSTA.so:_ZN3sta9ReportTclD2Ev
libOpenSTA.so:_ZN3sta9VertexSetC1ERPNS_5GraphE
libOpenSTA.so:_ZN3sta9fuzzyLessEff
libOpenSTA.so:_ZN3sta9isBusNameEPKcccc
libOpenSTA.so:_ZN3sta9to_stringENS_11TimingSenseE
libOpenSTA.so:_ZNK3sta10ClkNetwork12isIdealClockEPKNS_3PinE
libOpenSTA.so:_ZNK3sta10InputDrive15driveResistanceEPKNS_8RiseFallEPKNS_6MinMaxERfRb
libOpenSTA.so:_ZNK3sta10InputDrive9driveCellEPKNS_8RiseFallEPKNS_6MinMaxERPKNS_11LibertyCellERPKNS_11LibertyPortERPfSE_
libOpenSTA.so:_ZNK3sta10SdcNetwork15findNetRelativeEPKNS_8InstanceEPKc
libOpenSTA.so:_ZNK3sta10SdcNetwork17findPortsMatchingEPKNS_4CellEPKNS_12PatternMatchE
libOpenSTA.so:_ZNK3sta10SdcNetwork20findInstNetsMatchingEPKNS_8InstanceEPKNS_12PatternMatchERNS_6VectorIPKNS_3NetEEE
libOpenSTA.so:_ZNK3sta10SdcNetwork20findInstanceRelativeEPKNS_8InstanceEPKc
libOpenSTA.so:_ZNK3sta10SdcNetwork4nameEPKNS_3NetE
libOpenSTA.so:_ZNK3sta10SdcNetwork4nameEPKNS_4PortE
libOpenSTA.so:_ZNK3sta10SdcNetwork4nameEPKNS_8InstanceE
libOpenSTA.so:_ZNK3sta10SdcNetwork7busNameEPKNS_4PortE
libOpenSTA.so:_ZNK3sta10SdcNetwork7findNetEPKNS_8InstanceEPKc
libOpenSTA.so:_ZNK3sta10SdcNetwork7findNetEPKc
libOpenSTA.so:_ZNK3sta10SdcNetwork7findPinEPKNS_8InstanceEPKc
libOpenSTA.so:_ZNK3sta10SdcNetwork8findPortEPKNS_4CellEPKc
libOpenSTA.so:_ZNK3sta10SdcNetwork8pathNameEPKNS_3NetE
libOpenSTA.so:_ZNK3sta10SdcNetwork8pathNameEPKNS_3PinE
libOpenSTA.so:_ZNK3sta10SdcNetwork8pathNameEPKNS_8InstanceE
libOpenSTA.so:_ZNK3sta10SdcNetwork8portNameEPKNS_3PinE
libOpenSTA.so:_ZNK3sta10SdcNetwork8staToSdcEPKc
libOpenSTA.so:_ZNK3sta10SdcNetwork9findChildEPKNS_8InstanceEPKc
libOpenSTA.so:_ZNK3sta10TableModel5axis1Ev
libOpenSTA.so:_ZNK3sta10TableModel5axis2Ev
libOpenSTA.so:_ZNK3sta10TableModel5axis3Ev
libOpenSTA.so:_ZNK3sta10TableModel5orderEv
libOpenSTA.so:_ZNK3sta10TableModel5valueEmmm
libOpenSTA.so:_ZNK3sta10TimingRole11genericRoleEv
libOpenSTA.so:_ZNK3sta10TimingRole11isDataCheckEv
libOpenSTA.so:_ZNK3sta10TimingRole18isAsyncTimingCheckEv
libOpenSTA.so:_ZNK3sta11BfsIterator13reportEntriesEv
libOpenSTA.so:_ZNK3sta11LibertyCell10isInverterEv
libOpenSTA.so:_ZNK3sta11LibertyCell11bufferPortsERPNS_11LibertyPortES3_
libOpenSTA.so:_ZNK3sta11LibertyCell11isClockGateEv
libOpenSTA.so:_ZNK3sta11LibertyCell11latchEnableEPKNS_12TimingArcSetERPKNS_11LibertyPortERPKNS_8FuncExprERPKNS_8RiseFallE
libOpenSTA.so:_ZNK3sta11LibertyCell12leakagePowerERfRb
libOpenSTA.so:_ZNK3sta11LibertyCell13timingArcSetsEPKNS_11LibertyPortES3_
libOpenSTA.so:_ZNK3sta11LibertyCell14hasSequentialsEv
libOpenSTA.so:_ZNK3sta11LibertyCell15findLibertyPortEPKc
libOpenSTA.so:_ZNK3sta11LibertyCell17userFunctionClassEv
libOpenSTA.so:_ZNK3sta11LibertyCell23isClockGateLatchPosedgeEv
libOpenSTA.so:_ZNK3sta11LibertyCell24findLibertyPortsMatchingEPNS_12PatternMatchE
libOpenSTA.so:_ZNK3sta11LibertyCell8isBufferEv
libOpenSTA.so:_ZNK3sta11LibertyCell9footprintEv
libOpenSTA.so:_ZNK3sta11LibertyPort10bundlePortEv
libOpenSTA.so:_ZNK3sta11LibertyPort10cornerPortEi
libOpenSTA.so:_ZNK3sta11LibertyPort10fanoutLoadERfRb
libOpenSTA.so:_ZNK3sta11LibertyPort11capacitanceEPKNS_8RiseFallEPKNS_6MinMaxE
libOpenSTA.so:_ZNK3sta11LibertyPort11capacitanceEv
libOpenSTA.so:_ZNK3sta11LibertyPort11fanoutLimitEPKNS_6MinMaxERfRb
libOpenSTA.so:_ZNK3sta11LibertyPort12clkTreeDelayEfPKNS_8RiseFallEPKNS_6MinMaxE
libOpenSTA.so:_ZNK3sta11LibertyPort13minPulseWidthEPKNS_8RiseFallERfRb
libOpenSTA.so:_ZNK3sta11LibertyPort14intrinsicDelayEPKNS_8StaStateE
libOpenSTA.so:_ZNK3sta11LibertyPort15driveResistanceEv
libOpenSTA.so:_ZNK3sta11LibertyPort15relatedPowerPinEv
libOpenSTA.so:_ZNK3sta11LibertyPort16capacitanceLimitEPKNS_6MinMaxERfRb
libOpenSTA.so:_ZNK3sta11LibertyPort16relatedGroundPinEv
libOpenSTA.so:_ZNK3sta11LibertyPort7isClockEv
libOpenSTA.so:_ZNK3sta11LibertyPort8isPwrGndEv
libOpenSTA.so:_ZNK3sta11LibertyPort9slewLimitEPKNS_6MinMaxERfRb
libOpenSTA.so:_ZNK3sta11PowerResult5totalEv
libOpenSTA.so:_ZNK3sta11PwrActivity10originNameEv
libOpenSTA.so:_ZNK3sta12ConcreteCell12getAttributeERKNSt7__cxx1112basic_stringIcSt11char_traitsIcESaIcEEE
libOpenSTA.so:_ZNK3sta12ConcreteCell12portIteratorEv
libOpenSTA.so:_ZNK3sta12ConcreteCell15portBitIteratorEv
libOpenSTA.so:_ZNK3sta12ConcreteCell8findPortEPKc
libOpenSTA.so:_ZNK3sta12ConcreteCell9portCountEv
libOpenSTA.so:_ZNK3sta12ConcretePort10findMemberEi
libOpenSTA.so:_ZNK3sta12ConcretePort10hasMembersEv
libOpenSTA.so:_ZNK3sta12ConcretePort14memberIteratorEv
libOpenSTA.so:_ZNK3sta12ConcretePort4cellEv
libOpenSTA.so:_ZNK3sta12ConcretePort7busNameEv
libOpenSTA.so:_ZNK3sta12ConcretePort8isBusBitEv
libOpenSTA.so:_ZNK3sta12PathExpanded10startIndexEv
libOpenSTA.so:_ZNK3sta12PathExpanded4pathEm
libOpenSTA.so:_ZNK3sta12PathExpanded9startPathEv
libOpenSTA.so:_ZNK3sta12PatternMatch12hasWildcardsEv
libOpenSTA.so:_ZNK3sta12PatternMatch5matchEPKc
libOpenSTA.so:_ZNK3sta12PatternMatch5matchERKNSt7__cxx1112basic_stringIcSt11char_traitsIcESaIcEEE
libOpenSTA.so:_ZNK3sta12TimingArcSet11libertyCellEv
libOpenSTA.so:_ZNK3sta12TimingArcSet5arcToEPKNS_8RiseFallE
libOpenSTA.so:_ZNK3sta12TimingArcSet5senseEv
libOpenSTA.so:_ZNK3sta12VertexIdLessclEPKNS_6VertexES3_
libOpenSTA.so:_ZNK3sta13PortDirection10isAnyInputEv
libOpenSTA.so:_ZNK3sta13PortDirection11isAnyOutputEv
libOpenSTA.so:_ZNK3sta13PortDirection13isAnyTristateEv
libOpenSTA.so:_ZNK3sta13PortDirection13isPowerGroundEv
libOpenSTA.so:_ZNK3sta13PropertyValue10floatValueEv
libOpenSTA.so:_ZNK3sta13PropertyValue11stringValueEv
libOpenSTA.so:_ZNK3sta13PropertyValue9boolValueEv
libOpenSTA.so:_ZNK3sta13PropertyValue9to_stringB5cxx11EPKNS_7NetworkE
libOpenSTA.so:_ZNK3sta14ArcDcalcResult8loadSlewEm
libOpenSTA.so:_ZNK3sta14ArcDcalcResult9wireDelayEm
libOpenSTA.so:_ZNK3sta14ClockIndexLessclEPKNS_5ClockES3_
libOpenSTA.so:_ZNK3sta14GraphDelayCalc7loadCapEPKNS_3PinEPKNS_15DcalcAnalysisPtE
libOpenSTA.so:_ZNK3sta14GraphDelayCalc7loadCapEPKNS_3PinEPKNS_8RiseFallEPKNS_15DcalcAnalysisPtE
libOpenSTA.so:_ZNK3sta14InstanceIdLessclEPKNS_8InstanceES3_
libOpenSTA.so:_ZNK3sta14LibertyLibrary12findWireloadEPKc
libOpenSTA.so:_ZNK3sta14LibertyLibrary12supplyExistsEPKc
libOpenSTA.so:_ZNK3sta14LibertyLibrary14defaultMaxSlewERfRb
libOpenSTA.so:_ZNK3sta14LibertyLibrary15findLibertyCellEPKc
libOpenSTA.so:_ZNK3sta14LibertyLibrary16defaultMaxFanoutERfRb
libOpenSTA.so:_ZNK3sta14LibertyLibrary17defaultFanoutLoadERfRb
libOpenSTA.so:_ZNK3sta14LibertyLibrary18slewLowerThresholdEPKNS_8RiseFallE
libOpenSTA.so:_ZNK3sta14LibertyLibrary18slewUpperThresholdEPKNS_8RiseFallE
libOpenSTA.so:_ZNK3sta14LibertyLibrary21defaultMaxCapacitanceERfRb
libOpenSTA.so:_ZNK3sta14LibertyLibrary21findWireloadSelectionEPKc
libOpenSTA.so:_ZNK3sta14LibertyLibrary21slewDerateFromLibraryEv
libOpenSTA.so:_ZNK3sta14LibertyLibrary26defaultOperatingConditionsEv
libOpenSTA.so:_ZNK3sta15ConcreteLibrary12cellIteratorB5cxx11Ev
libOpenSTA.so:_ZNK3sta15ConcreteNetwork10findBusBitEPKNS_4PortEi
libOpenSTA.so:_ZNK3sta15ConcreteNetwork10findMemberEPKNS_4PortEi
libOpenSTA.so:_ZNK3sta15ConcreteNetwork10hasMembersEPKNS_4PortE
libOpenSTA.so:_ZNK3sta15ConcreteNetwork11libertyCellEPKNS_4CellE
libOpenSTA.so:_ZNK3sta15ConcreteNetwork11libertyCellEPNS_4CellE
libOpenSTA.so:_ZNK3sta15ConcreteNetwork11libertyPortEPKNS_4PortE
libOpenSTA.so:_ZNK3sta15ConcreteNetwork11netIteratorEPKNS_8InstanceE
libOpenSTA.so:_ZNK3sta15ConcreteNetwork11pinIteratorEPKNS_3NetE
libOpenSTA.so:_ZNK3sta15ConcreteNetwork11pinIteratorEPKNS_8InstanceE
libOpenSTA.so:_ZNK3sta15ConcreteNetwork11topInstanceEv
libOpenSTA.so:_ZNK3sta15ConcreteNetwork12attributeMapB5cxx11EPKNS_4CellE
libOpenSTA.so:_ZNK3sta15ConcreteNetwork12attributeMapB5cxx11EPKNS_8InstanceE
libOpenSTA.so:_ZNK3sta15ConcreteNetwork12getAttributeEPKNS_4CellERKNSt7__cxx1112basic_stringIcSt11char_traitsIcESaIcEEE
libOpenSTA.so:_ZNK3sta15ConcreteNetwork12getAttributeEPKNS_8InstanceERKNSt7__cxx1112basic_stringIcSt11char_traitsIcESaIcEEE
libOpenSTA.so:_ZNK3sta15ConcreteNetwork12portBitCountEPKNS_4CellE
libOpenSTA.so:_ZNK3sta15ConcreteNetwork12portIteratorEPKNS_4CellE
libOpenSTA.so:_ZNK3sta15ConcreteNetwork12termIteratorEPKNS_3NetE
libOpenSTA.so:_ZNK3sta15ConcreteNetwork13childIteratorEPKNS_8InstanceE
libOpenSTA.so:_ZNK3sta15ConcreteNetwork14memberIteratorEPKNS_4PortE
libOpenSTA.so:_ZNK3sta15ConcreteNetwork15libraryIteratorEv
libOpenSTA.so:_ZNK3sta15ConcreteNetwork15portBitIteratorEPKNS_4CellE
libOpenSTA.so:_ZNK3sta15ConcreteNetwork17findCellsMatchingEPKNS_7LibraryEPKNS_12PatternMatchE
libOpenSTA.so:_ZNK3sta15ConcreteNetwork18visitConnectedPinsEPKNS_3NetERNS_10PinVisitorERNS_6NetSetE
libOpenSTA.so:_ZNK3sta15ConcreteNetwork20findInstNetsMatchingEPKNS_8InstanceEPKNS_12PatternMatchERNS_6VectorIPKNS_3NetEEE
libOpenSTA.so:_ZNK3sta15ConcreteNetwork22libertyLibraryIteratorEv
libOpenSTA.so:_ZNK3sta15ConcreteNetwork2idEPKNS_3NetE
libOpenSTA.so:_ZNK3sta15ConcreteNetwork2idEPKNS_3PinE
libOpenSTA.so:_ZNK3sta15ConcreteNetwork2idEPKNS_4CellE
libOpenSTA.so:_ZNK3sta15ConcreteNetwork2idEPKNS_4PortE
libOpenSTA.so:_ZNK3sta15ConcreteNetwork2idEPKNS_4TermE
libOpenSTA.so:_ZNK3sta15ConcreteNetwork2idEPKNS_7LibraryE
libOpenSTA.so:_ZNK3sta15ConcreteNetwork2idEPKNS_8InstanceE
libOpenSTA.so:_ZNK3sta15ConcreteNetwork3netEPKNS_3PinE
libOpenSTA.so:_ZNK3sta15ConcreteNetwork3netEPKNS_4TermE
libOpenSTA.so:_ZNK3sta15ConcreteNetwork3pinEPKNS_4TermE
libOpenSTA.so:_ZNK3sta15ConcreteNetwork4cellEPKNS_11LibertyCellE
libOpenSTA.so:_ZNK3sta15ConcreteNetwork4cellEPKNS_4PortE
libOpenSTA.so:_ZNK3sta15ConcreteNetwork4cellEPKNS_8InstanceE
libOpenSTA.so:_ZNK3sta15ConcreteNetwork4cellEPNS_11LibertyCellE
libOpenSTA.so:_ZNK3sta15ConcreteNetwork4nameEPKNS_3NetE
libOpenSTA.so:_ZNK3sta15ConcreteNetwork4nameEPKNS_4CellE
libOpenSTA.so:_ZNK3sta15ConcreteNetwork4nameEPKNS_4PortE
libOpenSTA.so:_ZNK3sta15ConcreteNetwork4nameEPKNS_7LibraryE
libOpenSTA.so:_ZNK3sta15ConcreteNetwork4nameEPKNS_8InstanceE
libOpenSTA.so:_ZNK3sta15ConcreteNetwork4portEPKNS_3PinE
libOpenSTA.so:_ZNK3sta15ConcreteNetwork4sizeEPKNS_4PortE
libOpenSTA.so:_ZNK3sta15ConcreteNetwork4termEPKNS_3PinE
libOpenSTA.so:_ZNK3sta15ConcreteNetwork5isBusEPKNS_4PortE
libOpenSTA.so:_ZNK3sta15ConcreteNetwork6isLeafEPKNS_4CellE
libOpenSTA.so:_ZNK3sta15ConcreteNetwork6isLeafEPKNS_8InstanceE
libOpenSTA.so:_ZNK3sta15ConcreteNetwork6parentEPKNS_8InstanceE
libOpenSTA.so:_ZNK3sta15ConcreteNetwork7busNameEPKNS_4PortE
libOpenSTA.so:_ZNK3sta15ConcreteNetwork7findNetEPKNS_8InstanceEPKc
libOpenSTA.so:_ZNK3sta15ConcreteNetwork7findPinEPKNS_8InstanceEPKNS_4PortE
libOpenSTA.so:_ZNK3sta15ConcreteNetwork7findPinEPKNS_8InstanceEPKc
libOpenSTA.so:_ZNK3sta15ConcreteNetwork7isPowerEPKNS_3NetE
libOpenSTA.so:_ZNK3sta15ConcreteNetwork7libraryEPKNS_4CellE
libOpenSTA.so:_ZNK3sta15ConcreteNetwork7toIndexEPKNS_4PortE
libOpenSTA.so:_ZNK3sta15ConcreteNetwork8findCellEPKNS_7LibraryEPKc
libOpenSTA.so:_ZNK3sta15ConcreteNetwork8findPortEPKNS_4CellEPKc
libOpenSTA.so:_ZNK3sta15ConcreteNetwork8instanceEPKNS_3NetE
libOpenSTA.so:_ZNK3sta15ConcreteNetwork8instanceEPKNS_3PinE
libOpenSTA.so:_ZNK3sta15ConcreteNetwork8isBundleEPKNS_4PortE
libOpenSTA.so:_ZNK3sta15ConcreteNetwork8isGroundEPKNS_3NetE
libOpenSTA.so:_ZNK3sta15ConcreteNetwork8vertexIdEPKNS_3PinE
libOpenSTA.so:_ZNK3sta15ConcreteNetwork9directionEPKNS_3PinE
libOpenSTA.so:_ZNK3sta15ConcreteNetwork9directionEPKNS_4PortE
libOpenSTA.so:_ZNK3sta15ConcreteNetwork9findChildEPKNS_8InstanceEPKc
libOpenSTA.so:_ZNK3sta15ConcreteNetwork9fromIndexEPKNS_4PortE
libOpenSTA.so:_ZNK3sta15DcalcAnalysisPt12libertyIndexEv
libOpenSTA.so:_ZNK3sta15DcalcAnalysisPt19parasiticAnalysisPtEv
libOpenSTA.so:_ZNK3sta15NetPathNameLessclEPKNS_3NetES3_
libOpenSTA.so:_ZNK3sta15PinPathNameLessclEPKNS_3PinES3_
libOpenSTA.so:_ZNK3sta18NetworkNameAdapter10findBusBitEPKNS_4PortEi
libOpenSTA.so:_ZNK3sta18NetworkNameAdapter10findMemberEPKNS_4PortEi
libOpenSTA.so:_ZNK3sta18NetworkNameAdapter10hasMembersEPKNS_4PortE
libOpenSTA.so:_ZNK3sta18NetworkNameAdapter10isEditableEv
libOpenSTA.so:_ZNK3sta18NetworkNameAdapter10pathEscapeEv
libOpenSTA.so:_ZNK3sta18NetworkNameAdapter11libertyCellEPKNS_4CellE
libOpenSTA.so:_ZNK3sta18NetworkNameAdapter11libertyCellEPNS_4CellE
libOpenSTA.so:_ZNK3sta18NetworkNameAdapter11libertyPortEPKNS_4PortE
libOpenSTA.so:_ZNK3sta18NetworkNameAdapter11netIteratorEPKNS_8InstanceE
libOpenSTA.so:_ZNK3sta18NetworkNameAdapter11pathDividerEv
libOpenSTA.so:_ZNK3sta18NetworkNameAdapter11pinIteratorEPKNS_3NetE
libOpenSTA.so:_ZNK3sta18NetworkNameAdapter11pinIteratorEPKNS_8InstanceE
libOpenSTA.so:_ZNK3sta18NetworkNameAdapter11topInstanceEv
libOpenSTA.so:_ZNK3sta18NetworkNameAdapter12attributeMapB5cxx11EPKNS_4CellE
libOpenSTA.so:_ZNK3sta18NetworkNameAdapter12attributeMapB5cxx11EPKNS_8InstanceE
libOpenSTA.so:_ZNK3sta18NetworkNameAdapter12getAttributeEPKNS_4CellERKNSt7__cxx1112basic_stringIcSt11char_traitsIcESaIcEEE
libOpenSTA.so:_ZNK3sta18NetworkNameAdapter12getAttributeEPKNS_8InstanceERKNSt7__cxx1112basic_stringIcSt11char_traitsIcESaIcEEE
libOpenSTA.so:_ZNK3sta18NetworkNameAdapter12portBitCountEPKNS_4CellE
libOpenSTA.so:_ZNK3sta18NetworkNameAdapter12portIteratorEPKNS_4CellE
libOpenSTA.so:_ZNK3sta18NetworkNameAdapter12termIteratorEPKNS_3NetE
libOpenSTA.so:_ZNK3sta18NetworkNameAdapter13childIteratorEPKNS_8InstanceE
libOpenSTA.so:_ZNK3sta18NetworkNameAdapter14memberIteratorEPKNS_4PortE
libOpenSTA.so:_ZNK3sta18NetworkNameAdapter15libraryIteratorEv
libOpenSTA.so:_ZNK3sta18NetworkNameAdapter15portBitIteratorEPKNS_4CellE
libOpenSTA.so:_ZNK3sta18NetworkNameAdapter17findCellsMatchingEPKNS_7LibraryEPKNS_12PatternMatchE
libOpenSTA.so:_ZNK3sta18NetworkNameAdapter21defaultLibertyLibraryEv
libOpenSTA.so:_ZNK3sta18NetworkNameAdapter22libertyLibraryIteratorEv
libOpenSTA.so:_ZNK3sta18NetworkNameAdapter2idEPKNS_3NetE
libOpenSTA.so:_ZNK3sta18NetworkNameAdapter2idEPKNS_3PinE
libOpenSTA.so:_ZNK3sta18NetworkNameAdapter2idEPKNS_4CellE
libOpenSTA.so:_ZNK3sta18NetworkNameAdapter2idEPKNS_4PortE
libOpenSTA.so:_ZNK3sta18NetworkNameAdapter2idEPKNS_4TermE
libOpenSTA.so:_ZNK3sta18NetworkNameAdapter2idEPKNS_7LibraryE
libOpenSTA.so:_ZNK3sta18NetworkNameAdapter2idEPKNS_8InstanceE
libOpenSTA.so:_ZNK3sta18NetworkNameAdapter3netEPKNS_3PinE
libOpenSTA.so:_ZNK3sta18NetworkNameAdapter3netEPKNS_4TermE
libOpenSTA.so:_ZNK3sta18NetworkNameAdapter3pinEPKNS_4TermE
libOpenSTA.so:_ZNK3sta18NetworkNameAdapter4cellEPKNS_11LibertyCellE
libOpenSTA.so:_ZNK3sta18NetworkNameAdapter4cellEPKNS_4PortE
libOpenSTA.so:_ZNK3sta18NetworkNameAdapter4cellEPKNS_8InstanceE
libOpenSTA.so:_ZNK3sta18NetworkNameAdapter4cellEPNS_11LibertyCellE
libOpenSTA.so:_ZNK3sta18NetworkNameAdapter4nameEPKNS_4CellE
libOpenSTA.so:_ZNK3sta18NetworkNameAdapter4nameEPKNS_7LibraryE
libOpenSTA.so:_ZNK3sta18NetworkNameAdapter4portEPKNS_3PinE
libOpenSTA.so:_ZNK3sta18NetworkNameAdapter4sizeEPKNS_4PortE
libOpenSTA.so:_ZNK3sta18NetworkNameAdapter4termEPKNS_3PinE
libOpenSTA.so:_ZNK3sta18NetworkNameAdapter5isBusEPKNS_4PortE
libOpenSTA.so:_ZNK3sta18NetworkNameAdapter6isLeafEPKNS_4CellE
libOpenSTA.so:_ZNK3sta18NetworkNameAdapter6isLeafEPKNS_8InstanceE
libOpenSTA.so:_ZNK3sta18NetworkNameAdapter6parentEPKNS_8InstanceE
libOpenSTA.so:_ZNK3sta18NetworkNameAdapter7findPinEPKNS_8InstanceEPKNS_11LibertyPortE
libOpenSTA.so:_ZNK3sta18NetworkNameAdapter7findPinEPKNS_8InstanceEPKNS_4PortE
libOpenSTA.so:_ZNK3sta18NetworkNameAdapter7isPowerEPKNS_3NetE
libOpenSTA.so:_ZNK3sta18NetworkNameAdapter7libraryEPKNS_4CellE
libOpenSTA.so:_ZNK3sta18NetworkNameAdapter7toIndexEPKNS_4PortE
libOpenSTA.so:_ZNK3sta18NetworkNameAdapter8findCellEPKNS_7LibraryEPKc
libOpenSTA.so:_ZNK3sta18NetworkNameAdapter8instanceEPKNS_3NetE
libOpenSTA.so:_ZNK3sta18NetworkNameAdapter8instanceEPKNS_3PinE
libOpenSTA.so:_ZNK3sta18NetworkNameAdapter8isBundleEPKNS_4PortE
libOpenSTA.so:_ZNK3sta18NetworkNameAdapter8isGroundEPKNS_3NetE
libOpenSTA.so:_ZNK3sta18NetworkNameAdapter8locationEPKNS_3PinERdS4_Rb
libOpenSTA.so:_ZNK3sta18NetworkNameAdapter8vertexIdEPKNS_3PinE
libOpenSTA.so:_ZNK3sta18NetworkNameAdapter9directionEPKNS_3PinE
libOpenSTA.so:_ZNK3sta18NetworkNameAdapter9directionEPKNS_4PortE
libOpenSTA.so:_ZNK3sta18NetworkNameAdapter9fromIndexEPKNS_4PortE
libOpenSTA.so:_ZNK3sta3Sdc10portExtCapEPKNS_4PortEPKNS_8RiseFallEPKNS_6CornerEPKNS_6MinMaxERfRbSD_SE_RiSE_
libOpenSTA.so:_ZNK3sta3Sdc13isConstrainedEPKNS_3NetE
libOpenSTA.so:_ZNK3sta3Sdc13isConstrainedEPKNS_3PinE
libOpenSTA.so:_ZNK3sta3Sdc13isConstrainedEPKNS_8InstanceE
libOpenSTA.so:_ZNK3sta3Sdc14isLeafPinClockEPKNS_3PinE
libOpenSTA.so:_ZNK3sta3Sdc18findClocksMatchingEPNS_12PatternMatchE
libOpenSTA.so:_ZNK3sta3Sdc9findClockEPKc
libOpenSTA.so:_ZNK3sta3Sta10findElmoreEPNS_3PinES2_PKNS_8RiseFallEPKNS_6MinMaxERfRb
libOpenSTA.so:_ZNK3sta3Sta10isClockSrcEPKNS_3PinE
libOpenSTA.so:_ZNK3sta3Sta11crprEnabledEv
libOpenSTA.so:_ZNK3sta3Sta11pocvEnabledEv
libOpenSTA.so:_ZNK3sta3Sta12clkInfoCountEv
libOpenSTA.so:_ZNK3sta3Sta12connectedCapEPKNS_3NetEPNS_6CornerEPKNS_6MinMaxERfS9_
libOpenSTA.so:_ZNK3sta3Sta12findPiElmoreEPNS_3PinEPKNS_8RiseFallEPKNS_6MinMaxERfS9_S9_Rb
libOpenSTA.so:_ZNK3sta3Sta12isIdealClockEPKNS_3PinE
libOpenSTA.so:_ZNK3sta3Sta13delaysInvalidEv
libOpenSTA.so:_ZNK3sta3Sta13tagGroupCountEv
libOpenSTA.so:_ZNK3sta3Sta14isDisabledLoopEPNS_4EdgeE
libOpenSTA.so:_ZNK3sta3Sta14pathGroupNamesB5cxx11Ev
libOpenSTA.so:_ZNK3sta3Sta15currentInstanceEv
libOpenSTA.so:_ZNK3sta3Sta15isPathGroupNameEPKc
libOpenSTA.so:_ZNK3sta3Sta18defaultThreadCountEv
libOpenSTA.so:_ZNK3sta3Sta18propagateAllClocksEv
libOpenSTA.so:_ZNK3sta3Sta19dynamicLoopBreakingEv
libOpenSTA.so:_ZNK3sta3Sta19isDisabledPresetClrEPNS_4EdgeE
libOpenSTA.so:_ZNK3sta3Sta19operatingConditionsEPKNS_6MinMaxE
libOpenSTA.so:_ZNK3sta3Sta20checkExceptionToPinsEPNS_11ExceptionToEPKci
libOpenSTA.so:_ZNK3sta3Sta20presetClrArcsEnabledEv
libOpenSTA.so:_ZNK3sta3Sta21gatedClkChecksEnabledEv
libOpenSTA.so:_ZNK3sta3Sta22checkExceptionFromPinsEPNS_13ExceptionFromEPKci
libOpenSTA.so:_ZNK3sta3Sta22clkThruTristateEnabledEv
libOpenSTA.so:_ZNK3sta3Sta22condDefaultArcsEnabledEv
libOpenSTA.so:_ZNK3sta3Sta22useDefaultArrivalClockEv
libOpenSTA.so:_ZNK3sta3Sta23bidirectNetPathsEnabledEv
libOpenSTA.so:_ZNK3sta3Sta24bidirectInstPathsEnabledEv
libOpenSTA.so:_ZNK3sta3Sta25isDisabledBidirectNetPathEPNS_4EdgeE
libOpenSTA.so:_ZNK3sta3Sta25propagateGatedClockEnableEv
libOpenSTA.so:_ZNK3sta3Sta26isDisabledBidirectInstPathEPNS_4EdgeE
libOpenSTA.so:_ZNK3sta3Sta28recoveryRemovalChecksEnabledEv
libOpenSTA.so:_ZNK3sta3Sta7isClockEPKNS_3PinE
libOpenSTA.so:_ZNK3sta3Sta8crprModeEv
libOpenSTA.so:_ZNK3sta3Sta8tagCountEv
libOpenSTA.so:_ZNK3sta3Sta9cmdCornerEv
libOpenSTA.so:_ZNK3sta3Sta9pathCountEv
libOpenSTA.so:_ZNK3sta3Tag9to_stringB5cxx11EPKNS_8StaStateE
libOpenSTA.so:_ZNK3sta4Edge4roleEv
libOpenSTA.so:_ZNK3sta4Edge5senseEv
libOpenSTA.so:_ZNK3sta4Edge6isWireEv
libOpenSTA.so:_ZNK3sta4Path10transitionEPKNS_8StaStateE
libOpenSTA.so:_ZNK3sta4Path14pathAnalysisPtEPKNS_8StaStateE
libOpenSTA.so:_ZNK3sta4Path15dcalcAnalysisPtEPKNS_8StaStateE
libOpenSTA.so:_ZNK3sta4Path3pinEPKNS_8StaStateE
libOpenSTA.so:_ZNK3sta4Path3tagEPKNS_8StaStateE
libOpenSTA.so:_ZNK3sta4Path4slewEPKNS_8StaStateE
libOpenSTA.so:_ZNK3sta4Path5clockEPKNS_8StaStateE
libOpenSTA.so:_ZNK3sta4Path5slackEPKNS_8StaStateE
libOpenSTA.so:_ZNK3sta4Path6vertexEPKNS_8StaStateE
libOpenSTA.so:_ZNK3sta4Path7clkEdgeEPKNS_8StaStateE
libOpenSTA.so:_ZNK3sta4Path7isClockEPKNS_8StaStateE
libOpenSTA.so:_ZNK3sta4Path7prevArcEPKNS_8StaStateE
libOpenSTA.so:_ZNK3sta4Path8prevEdgeEPKNS_8StaStateE
libOpenSTA.so:_ZNK3sta4Path8prevPathEv
libOpenSTA.so:_ZNK3sta4Unit11scaleSuffixB5cxx11Ev
libOpenSTA.so:_ZNK3sta4Unit17scaleAbbreviationB5cxx11Ev
libOpenSTA.so:_ZNK3sta4Unit8asStringEd
libOpenSTA.so:_ZNK3sta4Unit8asStringEf
libOpenSTA.so:_ZNK3sta4Unit8asStringEfi
libOpenSTA.so:_ZNK3sta5Clock11isGeneratedEv
libOpenSTA.so:_ZNK3sta5Clock4edgeEPKNS_8RiseFallE
libOpenSTA.so:_ZNK3sta5Clock4slewEPKNS_8RiseFallEPKNS_6MinMaxE
libOpenSTA.so:_ZNK3sta5Clock9isVirtualEv
libOpenSTA.so:_ZNK3sta5Graph11pinVerticesEPKNS_3PinERPNS_6VertexES6_
libOpenSTA.so:_ZNK3sta5Graph13pinDrvrVertexEPKNS_3PinE
libOpenSTA.so:_ZNK3sta5Graph13pinLoadVertexEPKNS_3PinE
libOpenSTA.so:_ZNK3sta5Graph2idEPKNS_6VertexE
libOpenSTA.so:_ZNK3sta5Graph6vertexEj
libOpenSTA.so:_ZNK3sta5Graph8arcDelayEPKNS_4EdgeEPKNS_9TimingArcEi
libOpenSTA.so:_ZNK3sta6Corner12libertyIndexEPKNS_6MinMaxE
libOpenSTA.so:_ZNK3sta6Corner16libertyLibrariesEPKNS_6MinMaxE
libOpenSTA.so:_ZNK3sta6Corner18findPathAnalysisPtEPKNS_6MinMaxE
libOpenSTA.so:_ZNK3sta6Corner19findDcalcAnalysisPtEPKNS_6MinMaxE
libOpenSTA.so:_ZNK3sta6Corner23findParasiticAnalysisPtEPKNS_6MinMaxE
libOpenSTA.so:_ZNK3sta6MinMax11asMinMaxAllEv
libOpenSTA.so:_ZNK3sta6MinMax7compareEff
libOpenSTA.so:_ZNK3sta6Search10pathGroupsEPKNS_7PathEndE
libOpenSTA.so:_ZNK3sta6Search10reportTagsEv
libOpenSTA.so:_ZNK3sta6Search11isGenClkSrcEPKNS_6VertexE
libOpenSTA.so:_ZNK3sta6Search13findPathGroupEPKNS_5ClockEPKNS_6MinMaxE
libOpenSTA.so:_ZNK3sta6Search13findPathGroupEPKcPKNS_6MinMaxE
libOpenSTA.so:_ZNK3sta6Search14clkPathArrivalEPKNS_4PathE
libOpenSTA.so:_ZNK3sta6Search14reportArrivalsEPNS_6VertexEb
libOpenSTA.so:_ZNK3sta6Search14reportClkInfosEv
libOpenSTA.so:_ZNK3sta6Search15reportTagGroupsEv
libOpenSTA.so:_ZNK3sta6Search24reportPathCountHistogramEv
libOpenSTA.so:_ZNK3sta6Search7isClockEPKNS_6VertexE
libOpenSTA.so:_ZNK3sta6Vertex10isConstantEv
libOpenSTA.so:_ZNK3sta6Vertex13slewAnnotatedEPKNS_8RiseFallEPKNS_6MinMaxE
libOpenSTA.so:_ZNK3sta6Vertex13slewAnnotatedEv
libOpenSTA.so:_ZNK3sta6Vertex13tagGroupIndexEv
libOpenSTA.so:_ZNK3sta6Vertex4nameEPKNS_7NetworkE
libOpenSTA.so:_ZNK3sta6Vertex8isDriverEPKNS_7NetworkE
libOpenSTA.so:_ZNK3sta7Corners18findPathAnalysisPtEi
libOpenSTA.so:_ZNK3sta7Corners5countEv
libOpenSTA.so:_ZNK3sta7Network10isCheckClkEPKNS_3PinE
libOpenSTA.so:_ZNK3sta7Network11isConnectedEPKNS_3NetEPKNS_3PinE
libOpenSTA.so:_ZNK3sta7Network11isConnectedEPKNS_3NetES3_
libOpenSTA.so:_ZNK3sta7Network11isLatchDataEPKNS_3PinE
libOpenSTA.so:_ZNK3sta7Network11isRegClkPinEPKNS_3PinE
libOpenSTA.so:_ZNK3sta7Network11libertyCellEPKNS_8InstanceE
libOpenSTA.so:_ZNK3sta7Network11libertyPortEPKNS_3PinE
libOpenSTA.so:_ZNK3sta7Network12findInstanceEPKc
libOpenSTA.so:_ZNK3sta7Network12pathNameLastEPKcRPcS4_
libOpenSTA.so:_ZNK3sta7Network12pathNameLessEPKNS_3PinES3_
libOpenSTA.so:_ZNK3sta7Network13connectedNetsEPKNS_3PinEPNS_6NetSetE
libOpenSTA.so:_ZNK3sta7Network13connectedNetsEPNS_3NetEPNS_6NetSetE
libOpenSTA.so:_ZNK3sta7Network13isTopInstanceEPKNS_8InstanceE
libOpenSTA.so:_ZNK3sta7Network14isHierarchicalEPKNS_3PinE
libOpenSTA.so:_ZNK3sta7Network14isHierarchicalEPKNS_8InstanceE
libOpenSTA.so:_ZNK3sta7Network14isTopLevelPortEPKNS_3PinE
libOpenSTA.so:_ZNK3sta7Network14libertyLibraryEPKNS_4CellE
libOpenSTA.so:_ZNK3sta7Network14libertyLibraryEPKNS_8InstanceE
libOpenSTA.so:_ZNK3sta7Network15findLibertyCellEPKc
libOpenSTA.so:_ZNK3sta7Network15findNetRelativeEPKNS_8InstanceEPKc
libOpenSTA.so:_ZNK3sta7Network15highestNetAboveEPNS_3NetE
libOpenSTA.so:_ZNK3sta7Network16findNetsMatchingEPKNS_8InstanceEPKNS_12PatternMatchE
libOpenSTA.so:_ZNK3sta7Network16findPinsMatchingEPKNS_8InstanceEPKNS_12PatternMatchE
libOpenSTA.so:_ZNK3sta7Network17findPortsMatchingEPKNS_4CellEPKNS_12PatternMatchE
libOpenSTA.so:_ZNK3sta7Network18visitConnectedPinsEPKNS_3NetERNS_10PinVisitorE
libOpenSTA.so:_ZNK3sta7Network18visitConnectedPinsEPKNS_3NetERNS_10PinVisitorERNS_6NetSetE
libOpenSTA.so:_ZNK3sta7Network18visitConnectedPinsEPKNS_3PinERNS_10PinVisitorE
libOpenSTA.so:_ZNK3sta7Network19highestConnectedNetEPNS_3NetE
libOpenSTA.so:_ZNK3sta7Network20connectedPinIteratorEPKNS_3NetE
libOpenSTA.so:_ZNK3sta7Network20connectedPinIteratorEPKNS_3PinE
libOpenSTA.so:_ZNK3sta7Network20findChildrenMatchingEPKNS_8InstanceEPKNS_12PatternMatchERNS_6VectorIS3_EE
libOpenSTA.so:_ZNK3sta7Network20findInstPinsMatchingEPKNS_8InstanceEPKNS_12PatternMatchERNS_6VectorIPKNS_3PinEEE
libOpenSTA.so:_ZNK3sta7Network20findInstanceRelativeEPKNS_8InstanceEPKc
libOpenSTA.so:_ZNK3sta7Network20findNetsHierMatchingEPKNS_8InstanceEPKNS_12PatternMatchE
libOpenSTA.so:_ZNK3sta7Network20findPinsHierMatchingEPKNS_8InstanceEPKNS_12PatternMatchE
libOpenSTA.so:_ZNK3sta7Network20leafInstanceIteratorEv
libOpenSTA.so:_ZNK3sta7Network21defaultLibertyLibraryEv
libOpenSTA.so:_ZNK3sta7Network21findInstancesMatchingEPKNS_8InstanceEPKNS_12PatternMatchE
libOpenSTA.so:_ZNK3sta7Network25findInstancesHierMatchingEPKNS_8InstanceEPKNS_12PatternMatchE
libOpenSTA.so:_ZNK3sta7Network4nameEPKNS_3PinE
libOpenSTA.so:_ZNK3sta7Network4nameEPKNS_4TermE
libOpenSTA.so:_ZNK3sta7Network6isLeafEPKNS_3PinE
libOpenSTA.so:_ZNK3sta7Network6isLoadEPKNS_3PinE
libOpenSTA.so:_ZNK3sta7Network7findNetEPKc
libOpenSTA.so:_ZNK3sta7Network7findPinEPKNS_8InstanceEPKNS_11LibertyPortE
libOpenSTA.so:_ZNK3sta7Network7findPinEPKc
libOpenSTA.so:_ZNK3sta7Network7pinLessEPKNS_3PinES3_
libOpenSTA.so:_ZNK3sta7Network8cellNameEPKNS_8InstanceE
libOpenSTA.so:_ZNK3sta7Network8isDriverEPKNS_3PinE
libOpenSTA.so:_ZNK3sta7Network8isInsideEPKNS_3NetEPKNS_8InstanceE
libOpenSTA.so:_ZNK3sta7Network8isLinkedEv
libOpenSTA.so:_ZNK3sta7Network8locationEPKNS_3PinERdS4_Rb
libOpenSTA.so:_ZNK3sta7Network8pathNameEPKNS_3NetE
libOpenSTA.so:_ZNK3sta7Network8pathNameEPKNS_3PinE
libOpenSTA.so:_ZNK3sta7Network8pathNameEPKNS_4TermE
libOpenSTA.so:_ZNK3sta7Network8pathNameEPKNS_8InstanceE
libOpenSTA.so:_ZNK3sta7Network8portNameEPKNS_3PinE
libOpenSTA.so:_ZNK3sta7Network8portNameEPKNS_4TermE
libOpenSTA.so:_ZNK3sta7PathEnd13sourceClkEdgeEPKNS_8StaStateE
libOpenSTA.so:_ZNK3sta7PathEnd17targetClkEndTransEPKNS_8StaStateE
libOpenSTA.so:_ZNK3sta7PathEnd21dataArrivalTimeOffsetEPKNS_8StaStateE
libOpenSTA.so:_ZNK3sta7PathEnd6minMaxEPKNS_8StaStateE
libOpenSTA.so:_ZNK3sta7PathEnd6vertexEPKNS_8StaStateE
libOpenSTA.so:_ZNK3sta8FuncExpr4portEv
libOpenSTA.so:_ZNK3sta8FuncExpr7hasPortEPKNS_11LibertyPortE
libOpenSTA.so:_ZNK3sta8FuncExpr9to_stringB5cxx11Ev
libOpenSTA.so:_ZNK3sta8RiseFall14asRiseFallBothEv
libOpenSTA.so:_ZNK3sta8StaState21isDisabledCondDefaultEPNS_4EdgeE
libOpenSTA.so:_ZNK3sta9GraphLoop6reportEPKNS_8StaStateE
libOpenSTA.so:_ZNK3sta9NetIdLessclEPKNS_3NetES3_
libOpenSTA.so:_ZNK3sta9PinIdLessclEPKNS_3PinES3_
libOpenSTA.so:_ZNK3sta9TimingArc14gateTableModelEv
libOpenSTA.so:_ZNK3sta9TimingArc14intrinsicDelayEv
libOpenSTA.so:_ZNK3sta9TimingArc9cornerArcEi
libOpenSTA.so:_ZTIN3sta10SdcNetworkE
libOpenSTA.so:_ZTIN3sta11LibertyCellE
libOpenSTA.so:_ZTIN3sta11LibertyPortE
libOpenSTA.so:_ZTIN3sta12ArcDelayCalcE
libOpenSTA.so:_ZTIN3sta14GateTableModelE
libOpenSTA.so:_ZTIN3sta14LibertyLibraryE
libOpenSTA.so:_ZTIN3sta14PrimaDelayCalcE
libOpenSTA.so:_ZTIN3sta15ConcreteNetworkE
libOpenSTA.so:_ZTIN3sta17SearchPredNonReg2E
libOpenSTA.so:_ZTIN3sta3StaE
libOpenSTA.so:_ZTIN3sta8StaStateE
libOpenSTA.so:_ZTIN3sta9ReportTclE
libQt5Charts.so.5:_ZN8QtCharts10QChartView11qt_metacallEN11QMetaObject4CallEiPPv
libQt5Charts.so.5:_ZN8QtCharts10QChartView11qt_metacastEPKc
libQt5Charts.so.5:_ZN8QtCharts10QChartView11resizeEventEP12QResizeEvent
libQt5Charts.so.5:_ZN8QtCharts10QChartView14mouseMoveEventEP11QMouseEvent
libQt5Charts.so.5:_ZN8QtCharts10QChartView15mousePressEventEP11QMouseEvent
libQt5Charts.so.5:_ZN8QtCharts10QChartView16staticMetaObjectE
libQt5Charts.so.5:_ZN8QtCharts10QChartView17mouseReleaseEventEP11QMouseEvent
libQt5Charts.so.5:_ZN8QtCharts10QChartViewC1EPNS_6QChartEP7QWidget
libQt5Charts.so.5:_ZN8QtCharts10QChartViewC2EPNS_6QChartEP7QWidget
libQt5Charts.so.5:_ZN8QtCharts10QChartViewD2Ev
libQt5Charts.so.5:_ZN8QtCharts10QValueAxis12setTickCountEi
libQt5Charts.so.5:_ZN8QtCharts10QValueAxis14setLabelFormatERK7QString
libQt5Charts.so.5:_ZN8QtCharts10QValueAxis6setMaxEd
libQt5Charts.so.5:_ZN8QtCharts10QValueAxis6setMinEd
libQt5Charts.so.5:_ZN8QtCharts10QValueAxis8setRangeEdd
libQt5Charts.so.5:_ZN8QtCharts10QValueAxisC1EP7QObject
libQt5Charts.so.5:_ZN8QtCharts11QLineSeriesC1EP7QObject
libQt5Charts.so.5:_ZN8QtCharts13QAbstractAxis10setVisibleEb
libQt5Charts.so.5:_ZN8QtCharts13QAbstractAxis12setTitleTextERK7QString
libQt5Charts.so.5:_ZN8QtCharts13QAbstractAxis18setGridLineVisibleEb
libQt5Charts.so.5:_ZN8QtCharts13QAbstractAxis4hideEv
libQt5Charts.so.5:_ZN8QtCharts13QLegendMarker10setVisibleEb
libQt5Charts.so.5:_ZN8QtCharts15QAbstractSeries10attachAxisEPNS_13QAbstractAxisE
libQt5Charts.so.5:_ZN8QtCharts15QAbstractSeries7setNameERK7QString
libQt5Charts.so.5:_ZN8QtCharts17QStackedBarSeriesC1EP7QObject
libQt5Charts.so.5:_ZN8QtCharts18QAbstractBarSeries11setBarWidthEd
libQt5Charts.so.5:_ZN8QtCharts18QAbstractBarSeries6appendEPNS_7QBarSetE
libQt5Charts.so.5:_ZN8QtCharts6QChart15removeAllSeriesEv
libQt5Charts.so.5:_ZN8QtCharts6QChart7addAxisEPNS_13QAbstractAxisE6QFlagsIN2Qt13AlignmentFlagEE
libQt5Charts.so.5:_ZN8QtCharts6QChart8setTitleERK7QString
libQt5Charts.so.5:_ZN8QtCharts6QChart9addSeriesEPNS_15QAbstractSeriesE
libQt5Charts.so.5:_ZN8QtCharts6QChartC1EP13QGraphicsItem6QFlagsIN2Qt10WindowTypeEE
libQt5Charts.so.5:_ZN8QtCharts7QBarSet14setBorderColorE6QColor
libQt5Charts.so.5:_ZN8QtCharts7QBarSet16staticMetaObjectE
libQt5Charts.so.5:_ZN8QtCharts7QBarSet7clickedEi
libQt5Charts.so.5:_ZN8QtCharts7QBarSet7hoveredEbi
libQt5Charts.so.5:_ZN8QtCharts7QBarSet8setColorE6QColor
libQt5Charts.so.5:_ZN8QtCharts7QBarSetC1E7QStringP7QObject
libQt5Charts.so.5:_ZN8QtCharts7QBarSetlsERKd
libQt5Charts.so.5:_ZN8QtCharts7QLegend12setAlignmentE6QFlagsIN2Qt13AlignmentFlagEE
libQt5Charts.so.5:_ZN8QtCharts9QXYSeries5clearEv
libQt5Charts.so.5:_ZN8QtCharts9QXYSeries6appendEdd
libQt5Charts.so.5:_ZNK8QtCharts10QChartView5chartEv
libQt5Charts.so.5:_ZNK8QtCharts10QValueAxis3maxEv
libQt5Charts.so.5:_ZNK8QtCharts10QValueAxis3minEv
libQt5Charts.so.5:_ZNK8QtCharts6QChart6legendEv
libQt5Charts.so.5:_ZNK8QtCharts7QBarSet5countEv
libQt5Charts.so.5:_ZNK8QtCharts7QLegend7markersEPNS_15QAbstractSeriesE
libQt5Charts.so.5:_ZTIN8QtCharts10QChartViewE
libQt5Core.so.5:_Z20qt_qFindChild_helperPK7QObjectRK7QStringRK11QMetaObject6QFlagsIN2Qt15FindChildOptionEE
libQt5Core.so.5:_Z21qRegisterResourceDataiPKhS0_S0_
libQt5Core.so.5:_Z22qInstallMessageHandlerPFv9QtMsgTypeRK18QMessageLogContextRK7QStringE
libQt5Core.so.5:_Z23qUnregisterResourceDataiPKhS0_S0_
libQt5Core.so.5:_Z23qt_qFindChildren_helperPK7QObjectRK7QStringRK11QMetaObjectP5QListIPvE6QFlagsIN2Qt15FindChildOptionEE
libQt5Core.so.5:_Z5qHashRK7QStringj
libQt5Core.so.5:_Z9qBadAllocv
libQt5Core.so.5:_ZN10QArrayData10deallocateEPS_mm
libQt5Core.so.5:_ZN10QArrayData11shared_nullE
libQt5Core.so.5:_ZN10QArrayData8allocateEmmm6QFlagsINS_16AllocationOptionEE
libQt5Core.so.5:_ZN10QByteArray11reallocDataEj6QFlagsIN10QArrayData16AllocationOptionEE
libQt5Core.so.5:_ZN10QByteArray6appendEPKc
libQt5Core.so.5:_ZN10QByteArray6appendEPKci
libQt5Core.so.5:_ZN10QByteArray6appendERKS_
libQt5Core.so.5:_ZN10QByteArray6appendEc
libQt5Core.so.5:_ZN10QByteArrayC1EPKci
libQt5Core.so.5:_ZN11QFileDevice5closeEv
libQt5Core.so.5:_ZN11QMetaObject10ConnectionD1Ev
libQt5Core.so.5:_ZN11QMetaObject14normalizedTypeEPKc
libQt5Core.so.5:_ZN11QMetaObject18connectSlotsByNameEP7QObject
libQt5Core.so.5:_ZN11QMetaObject8activateEP7QObjectPKS_iPPv
libQt5Core.so.5:_ZN11QTextStream7readAllEv
libQt5Core.so.5:_ZN11QTextStreamC1EP9QIODevice
libQt5Core.so.5:_ZN11QTextStreamD1Ev
libQt5Core.so.5:_ZN11QTextStreamlsERK7QString
libQt5Core.so.5:_ZN11QTextStreamlsEc
libQt5Core.so.5:_ZN12QMapDataBase10createDataEv
libQt5Core.so.5:_ZN12QMapDataBase10createNodeEiiP12QMapNodeBaseb
libQt5Core.so.5:_ZN12QMapDataBase11shared_nullE
libQt5Core.so.5:_ZN12QMapDataBase18recalcMostLeftNodeEv
libQt5Core.so.5:_ZN12QMapDataBase8freeDataEPS_
libQt5Core.so.5:_ZN12QMapDataBase8freeTreeEP12QMapNodeBasei
libQt5Core.so.5:_ZN14QWaitCondition4waitEP6QMutex14QDeadlineTimer
libQt5Core.so.5:_ZN14QWaitCondition7wakeOneEv
libQt5Core.so.5:_ZN14QWaitConditionC1Ev
libQt5Core.so.5:_ZN14QWaitConditionD1Ev
libQt5Core.so.5:_ZN16QCoreApplication11aboutToQuitENS_14QPrivateSignalE
libQt5Core.so.5:_ZN16QCoreApplication13processEventsE6QFlagsIN10QEventLoop17ProcessEventsFlagEE
libQt5Core.so.5:_ZN16QCoreApplication16sendPostedEventsEP7QObjecti
libQt5Core.so.5:_ZN16QCoreApplication16staticMetaObjectE
libQt5Core.so.5:_ZN16QCoreApplication4quitEv
libQt5Core.so.5:_ZN16QCoreApplication4selfE
libQt5Core.so.5:_ZN16QCoreApplication9translateEPKcS1_S1_i
libQt5Core.so.5:_ZN16QStringListModel13setStringListERK11QStringList
libQt5Core.so.5:_ZN16QStringListModelC1EP7QObject
libQt5Core.so.5:_ZN18QAbstractItemModel10insertRowsEiiRK11QModelIndex
libQt5Core.so.5:_ZN18QAbstractItemModel10modelResetENS_14QPrivateSignalE
libQt5Core.so.5:_ZN18QAbstractItemModel10removeRowsEiiRK11QModelIndex
libQt5Core.so.5:_ZN18QAbstractItemModel11moveColumnsERK11QModelIndexiiS2_i
libQt5Core.so.5:_ZN18QAbstractItemModel11setItemDataERK11QModelIndexRK4QMapIi8QVariantE
libQt5Core.so.5:_ZN18QAbstractItemModel13endResetModelEv
libQt5Core.so.5:_ZN18QAbstractItemModel13insertColumnsEiiRK11QModelIndex
libQt5Core.so.5:_ZN18QAbstractItemModel13removeColumnsEiiRK11QModelIndex
libQt5Core.so.5:_ZN18QAbstractItemModel13setHeaderDataEiN2Qt11OrientationERK8QVarianti
libQt5Core.so.5:_ZN18QAbstractItemModel15beginResetModelEv
libQt5Core.so.5:_ZN18QAbstractItemModel16staticMetaObjectE
libQt5Core.so.5:_ZN18QAbstractItemModel4sortEiN2Qt9SortOrderE
libQt5Core.so.5:_ZN18QAbstractItemModel6revertEv
libQt5Core.so.5:_ZN18QAbstractItemModel6submitEv
libQt5Core.so.5:_ZN18QAbstractItemModel7setDataERK11QModelIndexRK8QVarianti
libQt5Core.so.5:_ZN18QAbstractItemModel8moveRowsERK11QModelIndexiiS2_i
libQt5Core.so.5:_ZN18QAbstractItemModel9fetchMoreERK11QModelIndex
libQt5Core.so.5:_ZN18QRegularExpression6escapeERK7QString
libQt5Core.so.5:_ZN18QRegularExpressionC1ERK7QString6QFlagsINS_13PatternOptionEE
libQt5Core.so.5:_ZN18QRegularExpressionD1Ev
libQt5Core.so.5:_ZN19QAbstractTableModel11qt_metacallEN11QMetaObject4CallEiPPv
libQt5Core.so.5:_ZN19QAbstractTableModel11qt_metacastEPKc
libQt5Core.so.5:_ZN19QAbstractTableModel12dropMimeDataEPK9QMimeDataN2Qt10DropActionEiiRK11QModelIndex
libQt5Core.so.5:_ZN19QAbstractTableModel16staticMetaObjectE
libQt5Core.so.5:_ZN19QAbstractTableModelC2EP7QObject
libQt5Core.so.5:_ZN19QAbstractTableModelD2Ev
libQt5Core.so.5:_ZN19QItemSelectionModel16selectionChangedERK14QItemSelectionS2_
libQt5Core.so.5:_ZN19QItemSelectionModel16staticMetaObjectE
libQt5Core.so.5:_ZN19QItemSelectionModel5modelEv
libQt5Core.so.5:_ZN21QPersistentModelIndexC1ERKS_
libQt5Core.so.5:_ZN21QPersistentModelIndexD1Ev
libQt5Core.so.5:_ZN21QSortFilterProxyModelC1EP7QObject
libQt5Core.so.5:_ZN23QRegularExpressionMatchD1Ev
libQt5Core.so.5:_ZN31QRegularExpressionMatchIterator4nextEv
libQt5Core.so.5:_ZN31QRegularExpressionMatchIteratorD1Ev
libQt5Core.so.5:_ZN4QUrlC1ERK7QStringNS_11ParsingModeE
libQt5Core.so.5:_ZN4QUrlD1Ev
libQt5Core.so.5:_ZN5QFile4openE6QFlagsIN9QIODevice12OpenModeFlagEE
libQt5Core.so.5:_ZN5QFileC1ERK7QString
libQt5Core.so.5:_ZN5QFileD1Ev
libQt5Core.so.5:_ZN6QDebug9putStringEPK5QCharm
libQt5Core.so.5:_ZN6QDebugD1Ev
libQt5Core.so.5:_ZN6QMutex4lockEv
libQt5Core.so.5:_ZN6QMutex6unlockEv
libQt5Core.so.5:_ZN6QMutexD1Ev
libQt5Core.so.5:_ZN6QTimer11setIntervalEi
libQt5Core.so.5:_ZN6QTimer14singleShotImplEiN2Qt9TimerTypeEPK7QObjectPN9QtPrivate15QSlotObjectBaseE
libQt5Core.so.5:_ZN6QTimer16staticMetaObjectE
libQt5Core.so.5:_ZN6QTimer4stopEv
libQt5Core.so.5:_ZN6QTimer5startEi
libQt5Core.so.5:_ZN6QTimer5startEv
libQt5Core.so.5:_ZN6QTimer7timeoutENS_14QPrivateSignalE
libQt5Core.so.5:_ZN6QTimerC1EP7QObject
libQt5Core.so.5:_ZN6QTimerD1Ev
libQt5Core.so.5:_ZN7QLocaleC1Ev
libQt5Core.so.5:_ZN7QLocaleD1Ev
libQt5Core.so.5:_ZN7QLocaleaSERKS_
libQt5Core.so.5:_ZN7QObject10childEventEP11QChildEvent
libQt5Core.so.5:_ZN7QObject10disconnectEPKS_PKcS1_S3_
libQt5Core.so.5:_ZN7QObject10disconnectERKN11QMetaObject10ConnectionE
libQt5Core.so.5:_ZN7QObject10timerEventEP11QTimerEvent
libQt5Core.so.5:_ZN7QObject11connectImplEPKS_PPvS1_S3_PN9QtPrivate15QSlotObjectBaseEN2Qt14ConnectionTypeEPKiPK11QMetaObject
libQt5Core.so.5:_ZN7QObject11customEventEP6QEvent
libQt5Core.so.5:_ZN7QObject11deleteLaterEv
libQt5Core.so.5:_ZN7QObject11eventFilterEPS_P6QEvent
libQt5Core.so.5:_ZN7QObject11qt_metacallEN11QMetaObject4CallEiPPv
libQt5Core.so.5:_ZN7QObject11qt_metacastEPKc
libQt5Core.so.5:_ZN7QObject11setPropertyEPKcRK8QVariant
libQt5Core.so.5:_ZN7QObject12blockSignalsEb
libQt5Core.so.5:_ZN7QObject13connectNotifyERK11QMetaMethod
libQt5Core.so.5:_ZN7QObject13setObjectNameERK7QString
libQt5Core.so.5:_ZN7QObject14disconnectImplEPKS_PPvS1_S3_PK11QMetaObject
libQt5Core.so.5:_ZN7QObject16disconnectNotifyERK11QMetaMethod
libQt5Core.so.5:_ZN7QObject16staticMetaObjectE
libQt5Core.so.5:_ZN7QObject18installEventFilterEPS_
libQt5Core.so.5:_ZN7QObject5eventEP6QEvent
libQt5Core.so.5:_ZN7QObject7connectEPKS_PKcS1_S3_N2Qt14ConnectionTypeE
libQt5Core.so.5:_ZN7QObject9destroyedEPS_
libQt5Core.so.5:_ZN7QObjectC2EPS_
libQt5Core.so.5:_ZN7QObjectD2Ev
libQt5Core.so.5:_ZN7QRegExpC1ERK7QStringN2Qt15CaseSensitivityENS_13PatternSyntaxE
libQt5Core.so.5:_ZN7QRegExpD1Ev
libQt5Core.so.5:_ZN7QString13toUtf8_helperERKS_
libQt5Core.so.5:_ZN7QString14compare_helperEPK5QChariPKciN2Qt15CaseSensitivityE
libQt5Core.so.5:_ZN7QString14toUpper_helperERKS_
libQt5Core.so.5:_ZN7QString14trimmed_helperERKS_
libQt5Core.so.5:_ZN7QString14trimmed_helperERS_
libQt5Core.so.5:_ZN7QString15fromUtf8_helperEPKci
libQt5Core.so.5:_ZN7QString15toLatin1_helperERKS_
libQt5Core.so.5:_ZN7QString16fromAscii_helperEPKci
libQt5Core.so.5:_ZN7QString17simplified_helperERKS_
libQt5Core.so.5:_ZN7QString17simplified_helperERS_
libQt5Core.so.5:_ZN7QString4chopEi
libQt5Core.so.5:_ZN7QString6appendERKS_
libQt5Core.so.5:_ZN7QString6numberEdci
libQt5Core.so.5:_ZN7QString6numberEii
libQt5Core.so.5:_ZN7QString6numberEmi
libQt5Core.so.5:_ZN7QString6removeEii
libQt5Core.so.5:_ZN7QString6setNumEdci
libQt5Core.so.5:_ZN7QString6setNumExi
libQt5Core.so.5:_ZN7QString7replaceERK7QRegExpRKS_
libQt5Core.so.5:_ZN7QString7replaceERKS_S1_N2Qt15CaseSensitivityE
libQt5Core.so.5:_ZN7QString8truncateEi
libQt5Core.so.5:_ZN7QStringaSERKS_
libQt5Core.so.5:_ZN7QThread11qt_metacallEN11QMetaObject4CallEiPPv
libQt5Core.so.5:_ZN7QThread11qt_metacastEPKc
libQt5Core.so.5:_ZN7QThread13currentThreadEv
libQt5Core.so.5:_ZN7QThread16staticMetaObjectE
libQt5Core.so.5:_ZN7QThread4waitE14QDeadlineTimer
libQt5Core.so.5:_ZN7QThread5eventEP6QEvent
libQt5Core.so.5:_ZN7QThread5startENS_8PriorityE
libQt5Core.so.5:_ZN7QThreadC2EP7QObject
libQt5Core.so.5:_ZN7QThreadD2Ev
libQt5Core.so.5:_ZN8QVariantC1EPKc
libQt5Core.so.5:_ZN8QVariantC1ERK10QByteArray
libQt5Core.so.5:_ZN8QVariantC1ERK11QStringList
libQt5Core.so.5:_ZN8QVariantC1ERK5QListIS_E
libQt5Core.so.5:_ZN8QVariantC1ERK7QString
libQt5Core.so.5:_ZN8QVariantC1ERKS_
libQt5Core.so.5:_ZN8QVariantC1Eb
libQt5Core.so.5:_ZN8QVariantC1Ed
libQt5Core.so.5:_ZN8QVariantC1Ei
libQt5Core.so.5:_ZN8QVariantC1EiPKvj
libQt5Core.so.5:_ZN8QVariantC1Ex
libQt5Core.so.5:_ZN8QVariantD1Ev
libQt5Core.so.5:_ZN9QDateTime22currentMSecsSinceEpochEv
libQt5Core.so.5:_ZN9QHashData11free_helperEPFvPNS_4NodeEE
libQt5Core.so.5:_ZN9QHashData11shared_nullE
libQt5Core.so.5:_ZN9QHashData12allocateNodeEi
libQt5Core.so.5:_ZN9QHashData13detach_helperEPFvPNS_4NodeEPvEPFvS1_Eii
libQt5Core.so.5:_ZN9QHashData6rehashEi
libQt5Core.so.5:_ZN9QHashData8nextNodeEPNS_4NodeE
libQt5Core.so.5:_ZN9QListData11detach_growEPii
libQt5Core.so.5:_ZN9QListData11shared_nullE
libQt5Core.so.5:_ZN9QListData5eraseEPPv
libQt5Core.so.5:_ZN9QListData6appendERKS_
libQt5Core.so.5:_ZN9QListData6appendEv
libQt5Core.so.5:_ZN9QListData6detachEi
libQt5Core.so.5:_ZN9QListData6removeEi
libQt5Core.so.5:_ZN9QListData7disposeEPNS_4DataE
libQt5Core.so.5:_ZN9QListData7reallocEi
libQt5Core.so.5:_ZN9QMetaType22registerNormalizedTypeERK10QByteArrayPFvPvEPFS3_S3_PKvEi6QFlagsINS_8TypeFlagEEPK11QMetaObject
libQt5Core.so.5:_ZN9QMetaType25registerConverterFunctionEPKN9QtPrivate25AbstractConverterFunctionEii
libQt5Core.so.5:_ZN9QMetaType27unregisterConverterFunctionEii
libQt5Core.so.5:_ZN9QMetaType30hasRegisteredConverterFunctionEii
libQt5Core.so.5:_ZN9QMetaType8typeNameEi
libQt5Core.so.5:_ZN9QSettings10beginGroupERK7QString
libQt5Core.so.5:_ZN9QSettings8endGroupEv
libQt5Core.so.5:_ZN9QSettings8setValueERK7QStringRK8QVariant
libQt5Core.so.5:_ZN9QSettingsC1ERK7QStringS2_P7QObject
libQt5Core.so.5:_ZN9QSettingsD1Ev
libQt5Core.so.5:_ZN9QtPrivate16QStringList_joinEPK11QStringListPK5QChari
libQt5Core.so.5:_ZN9QtPrivate16QStringList_sortEP11QStringListN2Qt15CaseSensitivityE
libQt5Core.so.5:_ZNK10QByteArray6isNullEv
libQt5Core.so.5:_ZNK10QByteArray8endsWithEc
libQt5Core.so.5:_ZNK11QMetaObject2trEPKcS1_i
libQt5Core.so.5:_ZNK11QMetaObject4castEP7QObject
libQt5Core.so.5:_ZNK11QMetaObject9classNameEv
libQt5Core.so.5:_ZNK11QObjectData17dynamicMetaObjectEv
libQt5Core.so.5:_ZNK14QItemSelection7indexesEv
libQt5Core.so.5:_ZNK14QMessageLogger5debugEv
libQt5Core.so.5:_ZNK18QAbstractItemModel12canFetchMoreERK11QModelIndex
libQt5Core.so.5:_ZNK18QAbstractItemModel15canDropMimeDataEPK9QMimeDataN2Qt10DropActionEiiRK11QModelIndex
libQt5Core.so.5:_ZNK18QAbstractItemModel20supportedDragActionsEv
libQt5Core.so.5:_ZNK18QAbstractItemModel20supportedDropActionsEv
libQt5Core.so.5:_ZNK18QAbstractItemModel4spanERK11QModelIndex
libQt5Core.so.5:_ZNK18QAbstractItemModel5buddyERK11QModelIndex
libQt5Core.so.5:_ZNK18QAbstractItemModel5matchERK11QModelIndexiRK8QVarianti6QFlagsIN2Qt9MatchFlagEE
libQt5Core.so.5:_ZNK18QAbstractItemModel8itemDataERK11QModelIndex
libQt5Core.so.5:_ZNK18QAbstractItemModel8mimeDataERK5QListI11QModelIndexE
libQt5Core.so.5:_ZNK18QAbstractItemModel9mimeTypesEv
libQt5Core.so.5:_ZNK18QAbstractItemModel9roleNamesEv
libQt5Core.so.5:_ZNK18QRegularExpression11globalMatchERK7QStringiNS_9MatchTypeE6QFlagsINS_11MatchOptionEE
libQt5Core.so.5:_ZNK19QAbstractTableModel10metaObjectEv
libQt5Core.so.5:_ZNK19QAbstractTableModel11hasChildrenERK11QModelIndex
libQt5Core.so.5:_ZNK19QAbstractTableModel5flagsERK11QModelIndex
libQt5Core.so.5:_ZNK19QAbstractTableModel5indexEiiRK11QModelIndex
libQt5Core.so.5:_ZNK19QAbstractTableModel6parentERK11QModelIndex
libQt5Core.so.5:_ZNK19QAbstractTableModel7siblingEiiRK11QModelIndex
libQt5Core.so.5:_ZNK19QItemSelectionModel12selectedRowsEi
libQt5Core.so.5:_ZNK19QItemSelectionModel15selectedIndexesEv
libQt5Core.so.5:_ZNK19QItemSelectionModel9selectionEv
libQt5Core.so.5:_ZNK23QRegularExpressionMatch11capturedEndEi
libQt5Core.so.5:_ZNK23QRegularExpressionMatch13capturedStartEi
libQt5Core.so.5:_ZNK23QRegularExpressionMatch14capturedLengthEi
libQt5Core.so.5:_ZNK23QRegularExpressionMatch17lastCapturedIndexEv
libQt5Core.so.5:_ZNK31QRegularExpressionMatchIterator7hasNextEv
libQt5Core.so.5:_ZNK4QUrl8toStringE12QUrlTwoFlagsINS_19UrlFormattingOptionENS_25ComponentFormattingOptionEE
libQt5Core.so.5:_ZNK5QRect10normalizedEv
libQt5Core.so.5:_ZNK5QRect8containsERK6QPointb
libQt5Core.so.5:_ZNK6QRectF10normalizedEv
libQt5Core.so.5:_ZNK6QRectForERKS_
libQt5Core.so.5:_ZNK6QTimer13remainingTimeEv
libQt5Core.so.5:_ZNK7QObject10objectNameEv
libQt5Core.so.5:_ZNK7QObject6threadEv
libQt5Core.so.5:_ZNK7QRegExp10exactMatchERK7QString
libQt5Core.so.5:_ZNK7QString10startsWithERKS_N2Qt15CaseSensitivityE
libQt5Core.so.5:_ZNK7QString11lastIndexOfERK18QRegularExpressioni
libQt5Core.so.5:_ZNK7QString13toHtmlEscapedEv
libQt5Core.so.5:_ZNK7QString3argERKS_i5QChar
libQt5Core.so.5:_ZNK7QString3argEdici5QChar
libQt5Core.so.5:_ZNK7QString3argExii5QChar
libQt5Core.so.5:_ZNK7QString3midEii
libQt5Core.so.5:_ZNK7QString4leftEi
libQt5Core.so.5:_ZNK7QString5rightEi
libQt5Core.so.5:_ZNK7QString5splitE5QChar6QFlagsIN2Qt18SplitBehaviorFlagsEENS2_15CaseSensitivityE
libQt5Core.so.5:_ZNK7QString5splitERKS_6QFlagsIN2Qt18SplitBehaviorFlagsEENS3_15CaseSensitivityE
libQt5Core.so.5:_ZNK7QString5toIntEPbi
libQt5Core.so.5:_ZNK7QString7indexOfE5QChariN2Qt15CaseSensitivityE
libQt5Core.so.5:_ZNK7QString7indexOfERK18QRegularExpressioni
libQt5Core.so.5:_ZNK7QString7indexOfERKS_iN2Qt15CaseSensitivityE
libQt5Core.so.5:_ZNK7QString8endsWithE5QCharN2Qt15CaseSensitivityE
libQt5Core.so.5:_ZNK7QString8endsWithERKS_N2Qt15CaseSensitivityE
libQt5Core.so.5:_ZNK7QString8toDoubleEPb
libQt5Core.so.5:_ZNK7QThread10isFinishedEv
libQt5Core.so.5:_ZNK7QThread9isRunningEv
libQt5Core.so.5:_ZNK8QVariant11toByteArrayEv
libQt5Core.so.5:_ZNK8QVariant12toStringListEv
libQt5Core.so.5:_ZNK8QVariant5toIntEPb
libQt5Core.so.5:_ZNK8QVariant6toBoolEv
libQt5Core.so.5:_ZNK8QVariant6toListEv
libQt5Core.so.5:_ZNK8QVariant7convertEiPv
libQt5Core.so.5:_ZNK8QVariant8toDoubleEPb
libQt5Core.so.5:_ZNK8QVariant8toStringEv
libQt5Core.so.5:_ZNK8QVariant8userTypeEv
libQt5Core.so.5:_ZNK8QVariant9constDataEv
libQt5Core.so.5:_ZNK9QMimeData4textEv
libQt5Core.so.5:_ZNK9QSettings11childGroupsEv
libQt5Core.so.5:_ZNK9QSettings5valueERK7QStringRK8QVariant
libQt5Core.so.5:_ZTI19QAbstractTableModel
libQt5Core.so.5:_ZTI7QObject
libQt5Core.so.5:_ZTI7QThread
libQt5Core.so.5:_ZeqRK7QStringS1_
libQt5Core.so.5:_ZltRK7QStringS1_
libQt5Core.so.5:qt_version_tag
libQt5Gui.so.5:_ZN10QClipboard7setTextERK7QStringNS_4ModeE
libQt5Gui.so.5:_ZN10QTransform5scaleEdd
libQt5Gui.so.5:_ZN10QTransform6rotateEdN2Qt4AxisE
libQt5Gui.so.5:_ZN10QTransform9translateEdd
libQt5Gui.so.5:_ZN11QTextCursor10insertTextERK7QString
libQt5Gui.so.5:_ZN11QTextCursor12movePositionENS_13MoveOperationENS_8MoveModeEi
libQt5Gui.so.5:_ZN11QTextCursor6selectENS_13SelectionTypeE
libQt5Gui.so.5:_ZN11QTextCursorD1Ev
libQt5Gui.so.5:_ZN11QTextFormat11setPropertyEiRK8QVariant
libQt5Gui.so.5:_ZN11QTextFormatD2Ev
libQt5Gui.so.5:_ZN12QFontMetricsC1ERK5QFont
libQt5Gui.so.5:_ZN12QFontMetricsD1Ev
libQt5Gui.so.5:_ZN12QImageWriter21supportedImageFormatsEv
libQt5Gui.so.5:_ZN12QKeySequenceC1ERK7QStringNS_14SequenceFormatE
libQt5Gui.so.5:_ZN12QKeySequenceD1Ev
libQt5Gui.so.5:_ZN12QPainterPath10addEllipseERK6QRectF
libQt5Gui.so.5:_ZN12QPainterPath10addPolygonERK9QPolygonF
libQt5Gui.so.5:_ZN12QPainterPath6lineToERK7QPointF
libQt5Gui.so.5:_ZN12QPainterPath6moveToERK7QPointF
libQt5Gui.so.5:_ZN12QPainterPath6quadToERK7QPointFS2_
libQt5Gui.so.5:_ZN12QPainterPath7addTextERK7QPointFRK5QFontRK7QString
libQt5Gui.so.5:_ZN12QPainterPathC1ERKS_
libQt5Gui.so.5:_ZN12QPainterPathC1Ev
libQt5Gui.so.5:_ZN12QPainterPathD1Ev
libQt5Gui.so.5:_ZN13QFontMetricsFC1ERK5QFont
libQt5Gui.so.5:_ZN13QFontMetricsFD1Ev
libQt5Gui.so.5:_ZN13QStandardItem10setEnabledEb
libQt5Gui.so.5:_ZN13QStandardItem11setEditableEb
libQt5Gui.so.5:_ZN13QStandardItem12setCheckableEb
libQt5Gui.so.5:_ZN13QStandardItem13setSelectableEb
libQt5Gui.so.5:_ZN13QStandardItem8setFlagsE6QFlagsIN2Qt8ItemFlagEE
libQt5Gui.so.5:_ZN13QStandardItem9insertRowEiRK5QListIPS_E
libQt5Gui.so.5:_ZN13QStandardItemC1ERK5QIconRK7QString
libQt5Gui.so.5:_ZN13QStandardItemC1ERK7QString
libQt5Gui.so.5:_ZN13QTextDocument12drawContentsEP8QPainterRK6QRectF
libQt5Gui.so.5:_ZN13QTextDocument12setTextWidthEd
libQt5Gui.so.5:_ZN13QTextDocument7setHtmlERK7QString
libQt5Gui.so.5:_ZN13QTextDocumentC1EP7QObject
libQt5Gui.so.5:_ZN13QTextDocumentD1Ev
libQt5Gui.so.5:_ZN15QGuiApplication12platformNameEv
libQt5Gui.so.5:_ZN15QGuiApplication17keyboardModifiersEv
libQt5Gui.so.5:_ZN15QGuiApplication17setOverrideCursorERK7QCursor
libQt5Gui.so.5:_ZN15QGuiApplication21restoreOverrideCursorEv
libQt5Gui.so.5:_ZN15QGuiApplication9clipboardEv
libQt5Gui.so.5:_ZN15QTextCharFormatC1Ev
libQt5Gui.so.5:_ZN16QDesktopServices7openUrlERK4QUrl
libQt5Gui.so.5:_ZN18QStandardItemModel10insertRowsEiiRK11QModelIndex
libQt5Gui.so.5:_ZN18QStandardItemModel10removeRowsEiiRK11QModelIndex
libQt5Gui.so.5:_ZN18QStandardItemModel11itemChangedEP13QStandardItem
libQt5Gui.so.5:_ZN18QStandardItemModel11qt_metacallEN11QMetaObject4CallEiPPv
libQt5Gui.so.5:_ZN18QStandardItemModel11qt_metacastEPKc
libQt5Gui.so.5:_ZN18QStandardItemModel11setItemDataERK11QModelIndexRK4QMapIi8QVariantE
libQt5Gui.so.5:_ZN18QStandardItemModel11setSortRoleEi
libQt5Gui.so.5:_ZN18QStandardItemModel12dropMimeDataEPK9QMimeDataN2Qt10DropActionEiiRK11QModelIndex
libQt5Gui.so.5:_ZN18QStandardItemModel13insertColumnsEiiRK11QModelIndex
libQt5Gui.so.5:_ZN18QStandardItemModel13removeColumnsEiiRK11QModelIndex
libQt5Gui.so.5:_ZN18QStandardItemModel13setHeaderDataEiN2Qt11OrientationERK8QVarianti
libQt5Gui.so.5:_ZN18QStandardItemModel16staticMetaObjectE
libQt5Gui.so.5:_ZN18QStandardItemModel25setHorizontalHeaderLabelsERK11QStringList
libQt5Gui.so.5:_ZN18QStandardItemModel4sortEiN2Qt9SortOrderE
libQt5Gui.so.5:_ZN18QStandardItemModel7setDataERK11QModelIndexRK8QVarianti
libQt5Gui.so.5:_ZN18QStandardItemModel7takeRowEi
libQt5Gui.so.5:_ZN18QStandardItemModel9appendRowERK5QListIP13QStandardItemE
libQt5Gui.so.5:_ZN18QStandardItemModelC1EP7QObject
libQt5Gui.so.5:_ZN18QStandardItemModelC2EP7QObject
libQt5Gui.so.5:_ZN18QStandardItemModelC2EiiP7QObject
libQt5Gui.so.5:_ZN18QStandardItemModelD2Ev
libQt5Gui.so.5:_ZN18QSyntaxHighlighter11qt_metacallEN11QMetaObject4CallEiPPv
libQt5Gui.so.5:_ZN18QSyntaxHighlighter11qt_metacastEPKc
libQt5Gui.so.5:_ZN18QSyntaxHighlighter11setDocumentEP13QTextDocument
libQt5Gui.so.5:_ZN18QSyntaxHighlighter16staticMetaObjectE
libQt5Gui.so.5:_ZN18QSyntaxHighlighter20setCurrentBlockStateEi
libQt5Gui.so.5:_ZN18QSyntaxHighlighter23setCurrentBlockUserDataEP18QTextBlockUserData
libQt5Gui.so.5:_ZN18QSyntaxHighlighter9setFormatEiiRK15QTextCharFormat
libQt5Gui.so.5:_ZN18QSyntaxHighlighterC2EP13QTextDocument
libQt5Gui.so.5:_ZN18QSyntaxHighlighterD2Ev
libQt5Gui.so.5:_ZN18QTextBlockUserDataD2Ev
libQt5Gui.so.5:_ZN4QPen11setCosmeticEb
libQt5Gui.so.5:_ZN4QPen8setWidthEi
libQt5Gui.so.5:_ZN4QPenC1ERK6QBrushdN2Qt8PenStyleENS3_11PenCapStyleENS3_12PenJoinStyleE
libQt5Gui.so.5:_ZN4QPenC1ERK6QColor
libQt5Gui.so.5:_ZN4QPenD1Ev
libQt5Gui.so.5:_ZN5QFont12setPixelSizeEi
libQt5Gui.so.5:_ZN5QFont12setPointSizeEi
libQt5Gui.so.5:_ZN5QFont12setStyleHintENS_9StyleHintENS_13StyleStrategyE
libQt5Gui.so.5:_ZN5QFont12setUnderlineEb
libQt5Gui.so.5:_ZN5QFont9setWeightEi
libQt5Gui.so.5:_ZN5QFontC1ERK7QStringiib
libQt5Gui.so.5:_ZN5QFontC1ERKS_
libQt5Gui.so.5:_ZN5QFontC1Ev
libQt5Gui.so.5:_ZN5QFontD1Ev
libQt5Gui.so.5:_ZN5QFontaSERKS_
libQt5Gui.so.5:_ZN5QIconC1ERK7QPixmap
libQt5Gui.so.5:_ZN5QIconC1ERK7QString
libQt5Gui.so.5:_ZN5QIconC1Ev
libQt5Gui.so.5:_ZN5QIconD1Ev
libQt5Gui.so.5:_ZN5QIconaSERKS_
libQt5Gui.so.5:_ZN6QBrushC1EN2Qt11GlobalColorENS0_10BrushStyleE
libQt5Gui.so.5:_ZN6QBrushC1ERK6QColorN2Qt10BrushStyleE
libQt5Gui.so.5:_ZN6QBrushC1Ev
libQt5Gui.so.5:_ZN6QBrushD1Ev
libQt5Gui.so.5:_ZN6QBrushaSERKS_
libQt5Gui.so.5:_ZN6QColor13setNamedColorE13QLatin1String
libQt5Gui.so.5:_ZN6QColor7fromRgbEiiii
libQt5Gui.so.5:_ZN6QColor8setAlphaEi
libQt5Gui.so.5:_ZN6QColorC1EN2Qt11GlobalColorE
libQt5Gui.so.5:_ZN6QColorC1Ej
libQt5Gui.so.5:_ZN6QColoraSEN2Qt11GlobalColorE
libQt5Gui.so.5:_ZN6QColoraSERKS_
libQt5Gui.so.5:_ZN6QImage4fillERK6QColor
libQt5Gui.so.5:_ZN6QImageC1ERK5QSizeNS_6FormatE
libQt5Gui.so.5:_ZN6QImageC1EiiNS_6FormatE
libQt5Gui.so.5:_ZN6QImageC1Ev
libQt5Gui.so.5:_ZN6QImageD1Ev
libQt5Gui.so.5:_ZN7QCursor3posEv
libQt5Gui.so.5:_ZN7QCursorC1EN2Qt11CursorShapeE
libQt5Gui.so.5:_ZN7QCursorD1Ev
libQt5Gui.so.5:_ZN7QPixmap4fillERK6QColor
libQt5Gui.so.5:_ZN7QPixmap9fromImageERK6QImage6QFlagsIN2Qt19ImageConversionFlagEE
libQt5Gui.so.5:_ZN7QPixmapC1Eii
libQt5Gui.so.5:_ZN7QPixmapC1Ev
libQt5Gui.so.5:_ZN7QPixmapD1Ev
libQt5Gui.so.5:_ZN7QRegionC1ERK5QRectNS_10RegionTypeE
libQt5Gui.so.5:_ZN7QRegionC1EiiiiNS_10RegionTypeE
libQt5Gui.so.5:_ZN7QRegionD1Ev
libQt5Gui.so.5:_ZN8QPainter10drawPixmapERK7QPointFRK7QPixmap
libQt5Gui.so.5:_ZN8QPainter10drawPointsEPK6QPointi
libQt5Gui.so.5:_ZN8QPainter10strokePathERK12QPainterPathRK4QPen
libQt5Gui.so.5:_ZN8QPainter11drawEllipseERK5QRect
libQt5Gui.so.5:_ZN8QPainter11drawEllipseERK6QRectF
libQt5Gui.so.5:_ZN8QPainter11drawPolygonEPK6QPointiN2Qt8FillRuleE
libQt5Gui.so.5:_ZN8QPainter11drawPolygonEPK7QPointFiN2Qt8FillRuleE
libQt5Gui.so.5:_ZN8QPainter12setTransformERK10QTransformb
libQt5Gui.so.5:_ZN8QPainter14setRenderHintsE6QFlagsINS_10RenderHintEEb
libQt5Gui.so.5:_ZN8QPainter15drawRoundedRectERK6QRectFddN2Qt8SizeModeE
libQt5Gui.so.5:_ZN8QPainter3endEv
libQt5Gui.so.5:_ZN8QPainter4saveEv
libQt5Gui.so.5:_ZN8QPainter5scaleEdd
libQt5Gui.so.5:_ZN8QPainter6rotateEd
libQt5Gui.so.5:_ZN8QPainter6setPenEN2Qt8PenStyleE
libQt5Gui.so.5:_ZN8QPainter6setPenERK4QPen
libQt5Gui.so.5:_ZN8QPainter7restoreEv
libQt5Gui.so.5:_ZN8QPainter7setFontERK5QFont
libQt5Gui.so.5:_ZN8QPainter8drawPathERK12QPainterPath
libQt5Gui.so.5:_ZN8QPainter8drawTextERK7QPointFRK7QString
libQt5Gui.so.5:_ZN8QPainter8fillPathERK12QPainterPathRK6QBrush
libQt5Gui.so.5:_ZN8QPainter8fillRectERK5QRectRK6QColor
libQt5Gui.so.5:_ZN8QPainter8setBrushEN2Qt10BrushStyleE
libQt5Gui.so.5:_ZN8QPainter8setBrushERK6QBrush
libQt5Gui.so.5:_ZN8QPainter9drawLinesEPK5QLinei
libQt5Gui.so.5:_ZN8QPainter9drawLinesEPK6QLineFi
libQt5Gui.so.5:_ZN8QPainter9drawRectsEPK5QRecti
libQt5Gui.so.5:_ZN8QPainter9drawRectsEPK6QRectFi
libQt5Gui.so.5:_ZN8QPainter9translateERK7QPointF
libQt5Gui.so.5:_ZN8QPainterC1EP12QPaintDevice
libQt5Gui.so.5:_ZN8QPainterD1Ev
libQt5Gui.so.5:_ZN8QPalette8setBrushENS_10ColorGroupENS_9ColorRoleERK6QBrush
libQt5Gui.so.5:_ZN8QPaletteC1ERKS_
libQt5Gui.so.5:_ZN8QPaletteC1Ev
libQt5Gui.so.5:_ZN8QPaletteD1Ev
libQt5Gui.so.5:_ZN8QPolygonC1ERK5QRectb
libQt5Gui.so.5:_ZN9QPolygonF9translateERK7QPointF
libQt5Gui.so.5:_ZNK10QTextBlock11blockNumberEv
libQt5Gui.so.5:_ZNK10QTextBlock8userDataEv
libQt5Gui.so.5:_ZNK11QTextCursor12hasSelectionEv
libQt5Gui.so.5:_ZNK11QTextCursor12selectedTextEv
libQt5Gui.so.5:_ZNK11QTextCursor15positionInBlockEv
libQt5Gui.so.5:_ZNK11QTextCursor5blockEv
libQt5Gui.so.5:_ZNK11QTextCursor7atStartEv
libQt5Gui.so.5:_ZNK12QFontMetrics11lineSpacingEv
libQt5Gui.so.5:_ZNK12QFontMetrics12boundingRectERK7QString
libQt5Gui.so.5:_ZNK12QFontMetrics16averageCharWidthEv
libQt5Gui.so.5:_ZNK12QFontMetrics6heightEv
libQt5Gui.so.5:_ZNK12QFontMetrics7descentEv
libQt5Gui.so.5:_ZNK12QPainterPath12boundingRectEv
libQt5Gui.so.5:_ZNK13QFontMetricsF10elidedTextERK7QStringN2Qt13TextElideModeEdi
libQt5Gui.so.5:_ZNK13QFontMetricsF12boundingRectERK7QString
libQt5Gui.so.5:_ZNK13QFontMetricsF6ascentEv
libQt5Gui.so.5:_ZNK13QFontMetricsF7descentEv
libQt5Gui.so.5:_ZNK13QStandardItem11hasChildrenEv
libQt5Gui.so.5:_ZNK13QStandardItem3rowEv
libQt5Gui.so.5:_ZNK13QStandardItem5childEii
libQt5Gui.so.5:_ZNK13QStandardItem5flagsEv
libQt5Gui.so.5:_ZNK13QStandardItem5indexEv
libQt5Gui.so.5:_ZNK13QStandardItem6parentEv
libQt5Gui.so.5:_ZNK13QStandardItem8rowCountEv
libQt5Gui.so.5:_ZNK13QTextDocument10idealWidthEv
libQt5Gui.so.5:_ZNK13QTextDocument11toPlainTextEv
libQt5Gui.so.5:_ZNK13QTextDocument14documentMarginEv
libQt5Gui.so.5:_ZNK13QTextDocument17findBlockByNumberEi
libQt5Gui.so.5:_ZNK13QTextDocument4sizeEv
libQt5Gui.so.5:_ZNK18QStandardItemModel10headerDataEiN2Qt11OrientationEi
libQt5Gui.so.5:_ZNK18QStandardItemModel10metaObjectEv
libQt5Gui.so.5:_ZNK18QStandardItemModel11columnCountERK11QModelIndex
libQt5Gui.so.5:_ZNK18QStandardItemModel11hasChildrenERK11QModelIndex
libQt5Gui.so.5:_ZNK18QStandardItemModel13indexFromItemEPK13QStandardItem
libQt5Gui.so.5:_ZNK18QStandardItemModel13itemFromIndexERK11QModelIndex
libQt5Gui.so.5:_ZNK18QStandardItemModel17invisibleRootItemEv
libQt5Gui.so.5:_ZNK18QStandardItemModel20supportedDropActionsEv
libQt5Gui.so.5:_ZNK18QStandardItemModel4dataERK11QModelIndexi
libQt5Gui.so.5:_ZNK18QStandardItemModel4itemEii
libQt5Gui.so.5:_ZNK18QStandardItemModel5flagsERK11QModelIndex
libQt5Gui.so.5:_ZNK18QStandardItemModel5indexEiiRK11QModelIndex
libQt5Gui.so.5:_ZNK18QStandardItemModel6parentERK11QModelIndex
libQt5Gui.so.5:_ZNK18QStandardItemModel7siblingEiiRK11QModelIndex
libQt5Gui.so.5:_ZNK18QStandardItemModel8itemDataERK11QModelIndex
libQt5Gui.so.5:_ZNK18QStandardItemModel8mimeDataERK5QListI11QModelIndexE
libQt5Gui.so.5:_ZNK18QStandardItemModel8rowCountERK11QModelIndex
libQt5Gui.so.5:_ZNK18QStandardItemModel9mimeTypesEv
libQt5Gui.so.5:_ZNK18QSyntaxHighlighter12currentBlockEv
libQt5Gui.so.5:_ZNK18QSyntaxHighlighter17currentBlockStateEv
libQt5Gui.so.5:_ZNK18QSyntaxHighlighter18previousBlockStateEv
libQt5Gui.so.5:_ZNK18QSyntaxHighlighter20currentBlockUserDataEv
libQt5Gui.so.5:_ZNK18QSyntaxHighlighter8documentEv
libQt5Gui.so.5:_ZNK4QPen10isCosmeticEv
libQt5Gui.so.5:_ZNK4QPen5colorEv
libQt5Gui.so.5:_ZNK5QFont6familyEv
libQt5Gui.so.5:_ZNK5QFont9pointSizeEv
libQt5Gui.so.5:_ZNK5QFontcv8QVariantEv
libQt5Gui.so.5:_ZNK5QIconcv8QVariantEv
libQt5Gui.so.5:_ZNK6QBrushcv8QVariantEv
libQt5Gui.so.5:_ZNK6QColor3redEv
libQt5Gui.so.5:_ZNK6QColor4blueEv
libQt5Gui.so.5:_ZNK6QColor4nameEv
libQt5Gui.so.5:_ZNK6QColor5alphaEv
libQt5Gui.so.5:_ZNK6QColor5greenEv
libQt5Gui.so.5:_ZNK6QColor6darkerEi
libQt5Gui.so.5:_ZNK6QColor7lighterEi
libQt5Gui.so.5:_ZNK6QColorcv8QVariantEv
libQt5Gui.so.5:_ZNK6QImage4saveERK7QStringPKci
libQt5Gui.so.5:_ZNK6QImage5pixelEii
libQt5Gui.so.5:_ZNK6QImage5widthEv
libQt5Gui.so.5:_ZNK6QImage6heightEv
libQt5Gui.so.5:_ZNK6QImage6isNullEv
libQt5Gui.so.5:_ZNK6QImage6scaledERK5QSizeN2Qt15AspectRatioModeENS3_18TransformationModeE
libQt5Gui.so.5:_ZNK7QPixmap6isNullEv
libQt5Gui.so.5:_ZNK7QRegion12boundingRectEv
libQt5Gui.so.5:_ZNK7QRegion7isEmptyEv
libQt5Gui.so.5:_ZNK8QPainter11fontMetricsEv
libQt5Gui.so.5:_ZNK8QPainter3penEv
libQt5Gui.so.5:_ZNK8QPainter4fontEv
libQt5Gui.so.5:_ZNK8QPainter9transformEv
libQt5Gui.so.5:_ZNK8QPolygon12boundingRectEv
libQt5Gui.so.5:_ZNK9QKeyEvent7matchesEN12QKeySequence11StandardKeyE
libQt5Gui.so.5:_ZNK9QKeyEvent9modifiersEv
libQt5Gui.so.5:_ZNK9QPolygonF12boundingRectEv
libQt5Gui.so.5:_ZTI18QStandardItemModel
libQt5Gui.so.5:_ZTI18QSyntaxHighlighter
libQt5Gui.so.5:_ZTI18QTextBlockUserData
libQt5Widgets.so.5:_ZN10QBoxLayout10addStretchEi
libQt5Widgets.so.5:_ZN10QBoxLayout10setSpacingEi
libQt5Widgets.so.5:_ZN10QBoxLayout10setStretchEii
libQt5Widgets.so.5:_ZN10QBoxLayout13insertStretchEii
libQt5Widgets.so.5:_ZN10QBoxLayout9addLayoutEP7QLayouti
libQt5Widgets.so.5:_ZN10QBoxLayout9addWidgetEP7QWidgeti6QFlagsIN2Qt13AlignmentFlagEE
libQt5Widgets.so.5:_ZN10QCompleter13setWrapAroundEb
libQt5Widgets.so.5:_ZN10QCompleter15setModelSortingENS_12ModelSortingE
libQt5Widgets.so.5:_ZN10QCompleter16staticMetaObjectE
libQt5Widgets.so.5:_ZN10QCompleter17setCompletionModeENS_14CompletionModeE
libQt5Widgets.so.5:_ZN10QCompleter18setCaseSensitivityEN2Qt15CaseSensitivityE
libQt5Widgets.so.5:_ZN10QCompleter19setCompletionPrefixERK7QString
libQt5Widgets.so.5:_ZN10QCompleter8completeERK5QRect
libQt5Widgets.so.5:_ZN10QCompleter8setModelEP18QAbstractItemModel
libQt5Widgets.so.5:_ZN10QCompleter9activatedERK7QString
libQt5Widgets.so.5:_ZN10QCompleter9setWidgetEP7QWidget
libQt5Widgets.so.5:_ZN10QCompleterC1EP7QObject
libQt5Widgets.so.5:_ZN10QStatusBar11showMessageERK7QStringi
libQt5Widgets.so.5:_ZN10QStatusBar18addPermanentWidgetEP7QWidgeti
libQt5Widgets.so.5:_ZN10QTabWidget10paintEventEP11QPaintEvent
libQt5Widgets.so.5:_ZN10QTabWidget10setTabTextEiRK7QString
libQt5Widgets.so.5:_ZN10QTabWidget10tabRemovedEi
libQt5Widgets.so.5:_ZN10QTabWidget11changeEventEP6QEvent
libQt5Widgets.so.5:_ZN10QTabWidget11qt_metacallEN11QMetaObject4CallEiPPv
libQt5Widgets.so.5:_ZN10QTabWidget11qt_metacastEPKc
libQt5Widgets.so.5:_ZN10QTabWidget11resizeEventEP12QResizeEvent
libQt5Widgets.so.5:_ZN10QTabWidget11tabInsertedEi
libQt5Widgets.so.5:_ZN10QTabWidget13keyPressEventEP9QKeyEvent
libQt5Widgets.so.5:_ZN10QTabWidget14currentChangedEi
libQt5Widgets.so.5:_ZN10QTabWidget15setCurrentIndexEi
libQt5Widgets.so.5:_ZN10QTabWidget16setCurrentWidgetEP7QWidget
libQt5Widgets.so.5:_ZN10QTabWidget16staticMetaObjectE
libQt5Widgets.so.5:_ZN10QTabWidget17setTabBarAutoHideEb
libQt5Widgets.so.5:_ZN10QTabWidget5clearEv
libQt5Widgets.so.5:_ZN10QTabWidget5eventEP6QEvent
libQt5Widgets.so.5:_ZN10QTabWidget6addTabEP7QWidgetRK7QString
libQt5Widgets.so.5:_ZN10QTabWidget9showEventEP10QShowEvent
libQt5Widgets.so.5:_ZN10QTabWidgetC1EP7QWidget
libQt5Widgets.so.5:_ZN10QTabWidgetC2EP7QWidget
libQt5Widgets.so.5:_ZN10QTabWidgetD2Ev
libQt5Widgets.so.5:_ZN10QTableView15setColumnHiddenEib
libQt5Widgets.so.5:_ZN10QTableView17setSortingEnabledEb
libQt5Widgets.so.5:_ZN10QTableView23resizeColumnsToContentsEv
libQt5Widgets.so.5:_ZN10QTableView7hideRowEi
libQt5Widgets.so.5:_ZN10QTableView7showRowEi
libQt5Widgets.so.5:_ZN10QTableViewC1EP7QWidget
libQt5Widgets.so.5:_ZN11QDockWidget10closeEventEP11QCloseEvent
libQt5Widgets.so.5:_ZN11QDockWidget10paintEventEP11QPaintEvent
libQt5Widgets.so.5:_ZN11QDockWidget11changeEventEP6QEvent
libQt5Widgets.so.5:_ZN11QDockWidget11qt_metacallEN11QMetaObject4CallEiPPv
libQt5Widgets.so.5:_ZN11QDockWidget11qt_metacastEPKc
libQt5Widgets.so.5:_ZN11QDockWidget16staticMetaObjectE
libQt5Widgets.so.5:_ZN11QDockWidget5eventEP6QEvent
libQt5Widgets.so.5:_ZN11QDockWidget9setWidgetEP7QWidget
libQt5Widgets.so.5:_ZN11QDockWidgetC2EP7QWidget6QFlagsIN2Qt10WindowTypeEE
libQt5Widgets.so.5:_ZN11QDockWidgetC2ERK7QStringP7QWidget6QFlagsIN2Qt10WindowTypeEE
libQt5Widgets.so.5:_ZN11QDockWidgetD2Ev
libQt5Widgets.so.5:_ZN11QFileDialog15getOpenFileNameEP7QWidgetRK7QStringS4_S4_PS2_6QFlagsINS_6OptionEE
libQt5Widgets.so.5:_ZN11QFileDialog15getSaveFileNameEP7QWidgetRK7QStringS4_S4_PS2_6QFlagsINS_6OptionEE
libQt5Widgets.so.5:_ZN11QFontDialog7getFontEPbRK5QFontP7QWidgetRK7QString6QFlagsINS_16FontDialogOptionEE
libQt5Widgets.so.5:_ZN11QFormLayout6addRowERK7QStringP7QLayout
libQt5Widgets.so.5:_ZN11QFormLayout6addRowERK7QStringP7QWidget
libQt5Widgets.so.5:_ZN11QFormLayout9insertRowEiRK7QStringP7QWidget
libQt5Widgets.so.5:_ZN11QFormLayout9removeRowEi
libQt5Widgets.so.5:_ZN11QFormLayoutC1EP7QWidget
libQt5Widgets.so.5:_ZN11QGridLayout10setSpacingEi
libQt5Widgets.so.5:_ZN11QGridLayout16setColumnStretchEii
libQt5Widgets.so.5:_ZN11QGridLayout9addLayoutEP7QLayoutiiii6QFlagsIN2Qt13AlignmentFlagEE
libQt5Widgets.so.5:_ZN11QGridLayout9addWidgetEP7QWidgetii6QFlagsIN2Qt13AlignmentFlagEE
libQt5Widgets.so.5:_ZN11QGridLayout9addWidgetEP7QWidgetiiii6QFlagsIN2Qt13AlignmentFlagEE
libQt5Widgets.so.5:_ZN11QGridLayoutC1EP7QWidget
libQt5Widgets.so.5:_ZN11QGridLayoutC1Ev
libQt5Widgets.so.5:_ZN11QHBoxLayoutC1EP7QWidget
libQt5Widgets.so.5:_ZN11QHBoxLayoutC1Ev
libQt5Widgets.so.5:_ZN11QHeaderView12restoreStateERK10QByteArray
libQt5Widgets.so.5:_ZN11QHeaderView14resizeSectionsENS_10ResizeModeE
libQt5Widgets.so.5:_ZN11QHeaderView16setSortIndicatorEiN2Qt9SortOrderE
libQt5Widgets.so.5:_ZN11QHeaderView16staticMetaObjectE
libQt5Widgets.so.5:_ZN11QHeaderView18setSectionsMovableEb
libQt5Widgets.so.5:_ZN11QHeaderView20setSectionResizeModeENS_10ResizeModeE
libQt5Widgets.so.5:_ZN11QHeaderView20setSectionResizeModeEiNS_10ResizeModeE
libQt5Widgets.so.5:_ZN11QHeaderView20sortIndicatorChangedEiN2Qt9SortOrderE
libQt5Widgets.so.5:_ZN11QHeaderView21setMinimumSectionSizeEi
libQt5Widgets.so.5:_ZN11QHeaderView21setStretchLastSectionEb
libQt5Widgets.so.5:_ZN11QLayoutItem10spacerItemEv
libQt5Widgets.so.5:_ZN11QLayoutItem6widgetEv
libQt5Widgets.so.5:_ZN11QListWidget10insertItemEiP15QListWidgetItem
libQt5Widgets.so.5:_ZN11QListWidget11itemClickedEP15QListWidgetItem
libQt5Widgets.so.5:_ZN11QListWidget14setCurrentItemEP15QListWidgetItem
libQt5Widgets.so.5:_ZN11QListWidget16staticMetaObjectE
libQt5Widgets.so.5:_ZN11QListWidget18currentItemChangedEP15QListWidgetItemS1_
libQt5Widgets.so.5:_ZN11QListWidget20itemSelectionChangedEv
libQt5Widgets.so.5:_ZN11QListWidget5clearEv
libQt5Widgets.so.5:_ZN11QListWidget9sortItemsEN2Qt9SortOrderE
libQt5Widgets.so.5:_ZN11QListWidgetC1EP7QWidget
libQt5Widgets.so.5:_ZN11QMainWindow10addToolBarERK7QString
libQt5Widgets.so.5:_ZN11QMainWindow11qt_metacallEN11QMetaObject4CallEiPPv
libQt5Widgets.so.5:_ZN11QMainWindow11qt_metacastEPKc
libQt5Widgets.so.5:_ZN11QMainWindow12restoreStateERK10QByteArrayi
libQt5Widgets.so.5:_ZN11QMainWindow13addDockWidgetEN2Qt14DockWidgetAreaEP11QDockWidget
libQt5Widgets.so.5:_ZN11QMainWindow15createPopupMenuEv
libQt5Widgets.so.5:_ZN11QMainWindow16contextMenuEventEP17QContextMenuEvent
libQt5Widgets.so.5:_ZN11QMainWindow16setCentralWidgetEP7QWidget
libQt5Widgets.so.5:_ZN11QMainWindow16staticMetaObjectE
libQt5Widgets.so.5:_ZN11QMainWindow16tabifyDockWidgetEP11QDockWidgetS1_
libQt5Widgets.so.5:_ZN11QMainWindow5eventEP6QEvent
libQt5Widgets.so.5:_ZN11QMainWindowC2EP7QWidget6QFlagsIN2Qt10WindowTypeEE
libQt5Widgets.so.5:_ZN11QMainWindowD2Ev
libQt5Widgets.so.5:_ZN11QMessageBox14setWindowTitleERK7QString
libQt5Widgets.so.5:_ZN11QMessageBox16setDefaultButtonEP11QPushButton
libQt5Widgets.so.5:_ZN11QMessageBox7setIconENS_4IconE
libQt5Widgets.so.5:_ZN11QMessageBox7setTextERK7QString
libQt5Widgets.so.5:_ZN11QMessageBox7warningEP7QWidgetRK7QStringS4_6QFlagsINS_14StandardButtonEES6_
libQt5Widgets.so.5:_ZN11QMessageBox8criticalEP7QWidgetRK7QStringS4_6QFlagsINS_14StandardButtonEES6_
libQt5Widgets.so.5:_ZN11QMessageBox9addButtonENS_14StandardButtonE
libQt5Widgets.so.5:_ZN11QMessageBox9addButtonERK7QStringNS_10ButtonRoleE
libQt5Widgets.so.5:_ZN11QMessageBoxC1EP7QWidget
libQt5Widgets.so.5:_ZN11QMessageBoxD1Ev
libQt5Widgets.so.5:_ZN11QPushButton10setDefaultEb
libQt5Widgets.so.5:_ZN11QPushButton14setAutoDefaultEb
libQt5Widgets.so.5:_ZN11QPushButton16staticMetaObjectE
libQt5Widgets.so.5:_ZN11QPushButton7setMenuEP5QMenu
libQt5Widgets.so.5:_ZN11QPushButtonC1EP7QWidget
libQt5Widgets.so.5:_ZN11QPushButtonC1ERK5QIconRK7QStringP7QWidget
libQt5Widgets.so.5:_ZN11QPushButtonC1ERK7QStringP7QWidget
libQt5Widgets.so.5:_ZN11QPushButtonD1Ev
libQt5Widgets.so.5:_ZN11QScrollArea11eventFilterEP7QObjectP6QEvent
libQt5Widgets.so.5:_ZN11QScrollArea11qt_metacallEN11QMetaObject4CallEiPPv
libQt5Widgets.so.5:_ZN11QScrollArea11qt_metacastEPKc
libQt5Widgets.so.5:_ZN11QScrollArea11resizeEventEP12QResizeEvent
libQt5Widgets.so.5:_ZN11QScrollArea16scrollContentsByEii
libQt5Widgets.so.5:_ZN11QScrollArea16staticMetaObjectE
libQt5Widgets.so.5:_ZN11QScrollArea18focusNextPrevChildEb
libQt5Widgets.so.5:_ZN11QScrollArea18setWidgetResizableEb
libQt5Widgets.so.5:_ZN11QScrollArea5eventEP6QEvent
libQt5Widgets.so.5:_ZN11QScrollArea9setWidgetEP7QWidget
libQt5Widgets.so.5:_ZN11QScrollAreaC2EP7QWidget
libQt5Widgets.so.5:_ZN11QScrollAreaD2Ev
libQt5Widgets.so.5:_ZN11QVBoxLayoutC1EP7QWidget
libQt5Widgets.so.5:_ZN11QVBoxLayoutC1Ev
libQt5Widgets.so.5:_ZN12QApplication11qt_metacallEN11QMetaObject4CallEiPPv
libQt5Widgets.so.5:_ZN12QApplication11qt_metacastEPKc
libQt5Widgets.so.5:_ZN12QApplication13compressEventEP6QEventP7QObjectP14QPostEventList
libQt5Widgets.so.5:_ZN12QApplication15topLevelWidgetsEv
libQt5Widgets.so.5:_ZN12QApplication19doubleClickIntervalEv
libQt5Widgets.so.5:_ZN12QApplication4execEv
libQt5Widgets.so.5:_ZN12QApplication4fontEv
libQt5Widgets.so.5:_ZN12QApplication5eventEP6QEvent
libQt5Widgets.so.5:_ZN12QApplication5styleEv
libQt5Widgets.so.5:_ZN12QApplication6notifyEP7QObjectP6QEvent
libQt5Widgets.so.5:_ZN12QApplication7setFontERK5QFontPKc
libQt5Widgets.so.5:_ZN12QApplicationC2ERiPPci
libQt5Widgets.so.5:_ZN12QApplicationD2Ev
libQt5Widgets.so.5:_ZN12QColorDialog10setOptionsE6QFlagsINS_17ColorDialogOptionEE
libQt5Widgets.so.5:_ZN12QColorDialog15setCurrentColorERK6QColor
libQt5Widgets.so.5:_ZN12QColorDialog8getColorERK6QColorP7QWidgetRK7QString6QFlagsINS_17ColorDialogOptionEE
libQt5Widgets.so.5:_ZN12QColorDialog9setOptionENS_17ColorDialogOptionEb
libQt5Widgets.so.5:_ZN12QColorDialogC1EP7QWidget
libQt5Widgets.so.5:_ZN12QInputDialog6getIntEP7QWidgetRK7QStringS4_iiiiPb6QFlagsIN2Qt10WindowTypeEE
libQt5Widgets.so.5:_ZN12QInputDialog7getItemEP7QWidgetRK7QStringS4_RK11QStringListibPb6QFlagsIN2Qt10WindowTypeEES9_INSA_15InputMethodHintEE
libQt5Widgets.so.5:_ZN12QInputDialog7getTextEP7QWidgetRK7QStringS4_N9QLineEdit8EchoModeES4_Pb6QFlagsIN2Qt10WindowTypeEES8_INS9_15InputMethodHintEE
libQt5Widgets.so.5:_ZN12QProgressBar11resetFormatEv
libQt5Widgets.so.5:_ZN12QProgressBar14setTextVisibleEb
libQt5Widgets.so.5:_ZN12QProgressBar5resetEv
libQt5Widgets.so.5:_ZN12QProgressBar8setRangeEii
libQt5Widgets.so.5:_ZN12QProgressBar8setValueEi
libQt5Widgets.so.5:_ZN12QProgressBar9setFormatERK7QString
libQt5Widgets.so.5:_ZN12QProgressBarC1EP7QWidget
libQt5Widgets.so.5:_ZN12QRadioButton10paintEventEP11QPaintEvent
libQt5Widgets.so.5:_ZN12QRadioButton11qt_metacallEN11QMetaObject4CallEiPPv
libQt5Widgets.so.5:_ZN12QRadioButton11qt_metacastEPKc
libQt5Widgets.so.5:_ZN12QRadioButton14mouseMoveEventEP11QMouseEvent
libQt5Widgets.so.5:_ZN12QRadioButton16staticMetaObjectE
libQt5Widgets.so.5:_ZN12QRadioButton5eventEP6QEvent
libQt5Widgets.so.5:_ZN12QRadioButtonC1EP7QWidget
libQt5Widgets.so.5:_ZN12QRadioButtonC1ERK7QStringP7QWidget
libQt5Widgets.so.5:_ZN12QRadioButtonC2EP7QWidget
libQt5Widgets.so.5:_ZN12QRadioButtonD2Ev
libQt5Widgets.so.5:_ZN12QStyleOptionC2Eii
libQt5Widgets.so.5:_ZN12QStyleOptionD2Ev
libQt5Widgets.so.5:_ZN12QStyleOptionaSERKS_
libQt5Widgets.so.5:_ZN12QTextBrowser20setOpenExternalLinksEb
libQt5Widgets.so.5:_ZN12QTextBrowserC1EP7QWidget
libQt5Widgets.so.5:_ZN13QGraphicsItem10itemChangeENS_18GraphicsItemChangeERK8QVariant
libQt5Widgets.so.5:_ZN13QGraphicsItem10sceneEventEP6QEvent
libQt5Widgets.so.5:_ZN13QGraphicsItem10setToolTipERK7QString
libQt5Widgets.so.5:_ZN13QGraphicsItem10setVisibleEb
libQt5Widgets.so.5:_ZN13QGraphicsItem10wheelEventEP24QGraphicsSceneWheelEvent
libQt5Widgets.so.5:_ZN13QGraphicsItem11setSelectedEb
libQt5Widgets.so.5:_ZN13QGraphicsItem12focusInEventEP11QFocusEvent
libQt5Widgets.so.5:_ZN13QGraphicsItem12setExtensionENS_9ExtensionERK8QVariant
libQt5Widgets.so.5:_ZN13QGraphicsItem13dragMoveEventEP27QGraphicsSceneDragDropEvent
libQt5Widgets.so.5:_ZN13QGraphicsItem13focusOutEventEP11QFocusEvent
libQt5Widgets.so.5:_ZN13QGraphicsItem13keyPressEventEP9QKeyEvent
libQt5Widgets.so.5:_ZN13QGraphicsItem14dragEnterEventEP27QGraphicsSceneDragDropEvent
libQt5Widgets.so.5:_ZN13QGraphicsItem14dragLeaveEventEP27QGraphicsSceneDragDropEvent
libQt5Widgets.so.5:_ZN13QGraphicsItem14hoverMoveEventEP24QGraphicsSceneHoverEvent
libQt5Widgets.so.5:_ZN13QGraphicsItem14mouseMoveEventEP24QGraphicsSceneMouseEvent
libQt5Widgets.so.5:_ZN13QGraphicsItem15hoverEnterEventEP24QGraphicsSceneHoverEvent
libQt5Widgets.so.5:_ZN13QGraphicsItem15hoverLeaveEventEP24QGraphicsSceneHoverEvent
libQt5Widgets.so.5:_ZN13QGraphicsItem15keyReleaseEventEP9QKeyEvent
libQt5Widgets.so.5:_ZN13QGraphicsItem15mousePressEventEP24QGraphicsSceneMouseEvent
libQt5Widgets.so.5:_ZN13QGraphicsItem16contextMenuEventEP30QGraphicsSceneContextMenuEvent
libQt5Widgets.so.5:_ZN13QGraphicsItem16inputMethodEventEP17QInputMethodEvent
libQt5Widgets.so.5:_ZN13QGraphicsItem16sceneEventFilterEPS_P6QEvent
libQt5Widgets.so.5:_ZN13QGraphicsItem17mouseReleaseEventEP24QGraphicsSceneMouseEvent
libQt5Widgets.so.5:_ZN13QGraphicsItem20setAcceptHoverEventsEb
libQt5Widgets.so.5:_ZN13QGraphicsItem21mouseDoubleClickEventEP24QGraphicsSceneMouseEvent
libQt5Widgets.so.5:_ZN13QGraphicsItem6setPosERK7QPointF
libQt5Widgets.so.5:_ZN13QGraphicsItem7advanceEi
libQt5Widgets.so.5:_ZN13QGraphicsItem7setDataEiRK8QVariant
libQt5Widgets.so.5:_ZN13QGraphicsItem7setFlagENS_16GraphicsItemFlagEb
libQt5Widgets.so.5:_ZN13QGraphicsItem9dropEventEP27QGraphicsSceneDragDropEvent
libQt5Widgets.so.5:_ZN13QGraphicsItem9setZValueEd
libQt5Widgets.so.5:_ZN13QGraphicsItemC2EPS_
libQt5Widgets.so.5:_ZN13QGraphicsItemD2Ev
libQt5Widgets.so.5:_ZN13QGraphicsView10paintEventEP11QPaintEvent
libQt5Widgets.so.5:_ZN13QGraphicsView10wheelEventEP11QWheelEvent
libQt5Widgets.so.5:_ZN13QGraphicsView11qt_metacallEN11QMetaObject4CallEiPPv
libQt5Widgets.so.5:_ZN13QGraphicsView11qt_metacastEPKc
libQt5Widgets.so.5:_ZN13QGraphicsView11resizeEventEP12QResizeEvent
libQt5Widgets.so.5:_ZN13QGraphicsView11setDragModeENS_8DragModeE
libQt5Widgets.so.5:_ZN13QGraphicsView12focusInEventEP11QFocusEvent
libQt5Widgets.so.5:_ZN13QGraphicsView13dragMoveEventEP14QDragMoveEvent
libQt5Widgets.so.5:_ZN13QGraphicsView13focusOutEventEP11QFocusEvent
libQt5Widgets.so.5:_ZN13QGraphicsView13keyPressEventEP9QKeyEvent
libQt5Widgets.so.5:_ZN13QGraphicsView13setRenderHintEN8QPainter10RenderHintEb
libQt5Widgets.so.5:_ZN13QGraphicsView13setupViewportEP7QWidget
libQt5Widgets.so.5:_ZN13QGraphicsView13viewportEventEP6QEvent
libQt5Widgets.so.5:_ZN13QGraphicsView14dragEnterEventEP15QDragEnterEvent
libQt5Widgets.so.5:_ZN13QGraphicsView14dragLeaveEventEP15QDragLeaveEvent
libQt5Widgets.so.5:_ZN13QGraphicsView14drawBackgroundEP8QPainterRK6QRectF
libQt5Widgets.so.5:_ZN13QGraphicsView14drawForegroundEP8QPainterRK6QRectF
libQt5Widgets.so.5:_ZN13QGraphicsView14mouseMoveEventEP11QMouseEvent
libQt5Widgets.so.5:_ZN13QGraphicsView15keyReleaseEventEP9QKeyEvent
libQt5Widgets.so.5:_ZN13QGraphicsView15mousePressEventEP11QMouseEvent
libQt5Widgets.so.5:_ZN13QGraphicsView16contextMenuEventEP17QContextMenuEvent
libQt5Widgets.so.5:_ZN13QGraphicsView16inputMethodEventEP17QInputMethodEvent
libQt5Widgets.so.5:_ZN13QGraphicsView16scrollContentsByEii
libQt5Widgets.so.5:_ZN13QGraphicsView16staticMetaObjectE
libQt5Widgets.so.5:_ZN13QGraphicsView17mouseReleaseEventEP11QMouseEvent
libQt5Widgets.so.5:_ZN13QGraphicsView18focusNextPrevChildEb
libQt5Widgets.so.5:_ZN13QGraphicsView18setBackgroundBrushERK6QBrush
libQt5Widgets.so.5:_ZN13QGraphicsView21mouseDoubleClickEventEP11QMouseEvent
libQt5Widgets.so.5:_ZN13QGraphicsView21setViewportUpdateModeENS_18ViewportUpdateModeE
libQt5Widgets.so.5:_ZN13QGraphicsView23setTransformationAnchorENS_14ViewportAnchorE
libQt5Widgets.so.5:_ZN13QGraphicsView5eventEP6QEvent
libQt5Widgets.so.5:_ZN13QGraphicsView5scaleEdd
libQt5Widgets.so.5:_ZN13QGraphicsView9drawItemsEP8QPainteriPP13QGraphicsItemPK24QStyleOptionGraphicsItem
libQt5Widgets.so.5:_ZN13QGraphicsView9dropEventEP10QDropEvent
libQt5Widgets.so.5:_ZN13QGraphicsView9fitInViewERK6QRectFN2Qt15AspectRatioModeE
libQt5Widgets.so.5:_ZN13QGraphicsView9showEventEP10QShowEvent
libQt5Widgets.so.5:_ZN13QGraphicsViewC2EP14QGraphicsSceneP7QWidget
libQt5Widgets.so.5:_ZN13QGraphicsViewD2Ev
libQt5Widgets.so.5:_ZN13QWidgetAction16setDefaultWidgetEP7QWidget
libQt5Widgets.so.5:_ZN13QWidgetActionC1EP7QObject
libQt5Widgets.so.5:_ZN14QDesktopWidgetC1Ev
libQt5Widgets.so.5:_ZN14QDesktopWidgetD1Ev
libQt5Widgets.so.5:_ZN14QDoubleSpinBox11setDecimalsEi
libQt5Widgets.so.5:_ZN14QDoubleSpinBox12valueChangedEd
libQt5Widgets.so.5:_ZN14QDoubleSpinBox13setSingleStepEd
libQt5Widgets.so.5:_ZN14QDoubleSpinBox16staticMetaObjectE
libQt5Widgets.so.5:_ZN14QDoubleSpinBox8setRangeEdd
libQt5Widgets.so.5:_ZN14QDoubleSpinBox8setValueEd
libQt5Widgets.so.5:_ZN14QDoubleSpinBox9setSuffixERK7QString
libQt5Widgets.so.5:_ZN14QDoubleSpinBoxC1EP7QWidget
libQt5Widgets.so.5:_ZN14QGraphicsScene10removeItemEP13QGraphicsItem
libQt5Widgets.so.5:_ZN14QGraphicsScene10wheelEventEP24QGraphicsSceneWheelEvent
libQt5Widgets.so.5:_ZN14QGraphicsScene11eventFilterEP7QObjectP6QEvent
libQt5Widgets.so.5:_ZN14QGraphicsScene11qt_metacallEN11QMetaObject4CallEiPPv
libQt5Widgets.so.5:_ZN14QGraphicsScene11qt_metacastEPKc
libQt5Widgets.so.5:_ZN14QGraphicsScene12focusInEventEP11QFocusEvent
libQt5Widgets.so.5:_ZN14QGraphicsScene12setSceneRectERK6QRectF
libQt5Widgets.so.5:_ZN14QGraphicsScene13dragMoveEventEP27QGraphicsSceneDragDropEvent
libQt5Widgets.so.5:_ZN14QGraphicsScene13focusOutEventEP11QFocusEvent
libQt5Widgets.so.5:_ZN14QGraphicsScene13keyPressEventEP9QKeyEvent
libQt5Widgets.so.5:_ZN14QGraphicsScene14clearSelectionEv
libQt5Widgets.so.5:_ZN14QGraphicsScene14dragEnterEventEP27QGraphicsSceneDragDropEvent
libQt5Widgets.so.5:_ZN14QGraphicsScene14dragLeaveEventEP27QGraphicsSceneDragDropEvent
libQt5Widgets.so.5:_ZN14QGraphicsScene14drawBackgroundEP8QPainterRK6QRectF
libQt5Widgets.so.5:_ZN14QGraphicsScene14drawForegroundEP8QPainterRK6QRectF
libQt5Widgets.so.5:_ZN14QGraphicsScene14mouseMoveEventEP24QGraphicsSceneMouseEvent
libQt5Widgets.so.5:_ZN14QGraphicsScene15keyReleaseEventEP9QKeyEvent
libQt5Widgets.so.5:_ZN14QGraphicsScene15mousePressEventEP24QGraphicsSceneMouseEvent
libQt5Widgets.so.5:_ZN14QGraphicsScene16contextMenuEventEP30QGraphicsSceneContextMenuEvent
libQt5Widgets.so.5:_ZN14QGraphicsScene16inputMethodEventEP17QInputMethodEvent
libQt5Widgets.so.5:_ZN14QGraphicsScene16selectionChangedEv
libQt5Widgets.so.5:_ZN14QGraphicsScene16staticMetaObjectE
libQt5Widgets.so.5:_ZN14QGraphicsScene17mouseReleaseEventEP24QGraphicsSceneMouseEvent
libQt5Widgets.so.5:_ZN14QGraphicsScene21mouseDoubleClickEventEP24QGraphicsSceneMouseEvent
libQt5Widgets.so.5:_ZN14QGraphicsScene5eventEP6QEvent
libQt5Widgets.so.5:_ZN14QGraphicsScene7addItemEP13QGraphicsItem
libQt5Widgets.so.5:_ZN14QGraphicsScene9drawItemsEP8QPainteriPP13QGraphicsItemPK24QStyleOptionGraphicsItemP7QWidget
libQt5Widgets.so.5:_ZN14QGraphicsScene9dropEventEP27QGraphicsSceneDragDropEvent
libQt5Widgets.so.5:_ZN14QGraphicsScene9helpEventEP23QGraphicsSceneHelpEvent
libQt5Widgets.so.5:_ZN14QGraphicsSceneC2EP7QObject
libQt5Widgets.so.5:_ZN14QGraphicsSceneD2Ev
libQt5Widgets.so.5:_ZN14QPlainTextEdit10appendHtmlERK7QString
libQt5Widgets.so.5:_ZN14QPlainTextEdit10moveCursorEN11QTextCursor13MoveOperationENS0_8MoveModeE
libQt5Widgets.so.5:_ZN14QPlainTextEdit10paintEventEP11QPaintEvent
libQt5Widgets.so.5:_ZN14QPlainTextEdit10timerEventEP11QTimerEvent
libQt5Widgets.so.5:_ZN14QPlainTextEdit10wheelEventEP11QWheelEvent
libQt5Widgets.so.5:_ZN14QPlainTextEdit11changeEventEP6QEvent
libQt5Widgets.so.5:_ZN14QPlainTextEdit11qt_metacallEN11QMetaObject4CallEiPPv
libQt5Widgets.so.5:_ZN14QPlainTextEdit11qt_metacastEPKc
libQt5Widgets.so.5:_ZN14QPlainTextEdit11resizeEventEP12QResizeEvent
libQt5Widgets.so.5:_ZN14QPlainTextEdit11setReadOnlyEb
libQt5Widgets.so.5:_ZN14QPlainTextEdit11textChangedEv
libQt5Widgets.so.5:_ZN14QPlainTextEdit12focusInEventEP11QFocusEvent
libQt5Widgets.so.5:_ZN14QPlainTextEdit12loadResourceEiRK4QUrl
libQt5Widgets.so.5:_ZN14QPlainTextEdit12setPlainTextERK7QString
libQt5Widgets.so.5:_ZN14QPlainTextEdit13dragMoveEventEP14QDragMoveEvent
libQt5Widgets.so.5:_ZN14QPlainTextEdit13focusOutEventEP11QFocusEvent
libQt5Widgets.so.5:_ZN14QPlainTextEdit13keyPressEventEP9QKeyEvent
libQt5Widgets.so.5:_ZN14QPlainTextEdit13setTextCursorERK11QTextCursor
libQt5Widgets.so.5:_ZN14QPlainTextEdit14dragLeaveEventEP15QDragLeaveEvent
libQt5Widgets.so.5:_ZN14QPlainTextEdit14mouseMoveEventEP11QMouseEvent
libQt5Widgets.so.5:_ZN14QPlainTextEdit15doSetTextCursorERK11QTextCursor
libQt5Widgets.so.5:_ZN14QPlainTextEdit15insertPlainTextERK7QString
libQt5Widgets.so.5:_ZN14QPlainTextEdit15keyReleaseEventEP9QKeyEvent
libQt5Widgets.so.5:_ZN14QPlainTextEdit15mousePressEventEP11QMouseEvent
libQt5Widgets.so.5:_ZN14QPlainTextEdit16contextMenuEventEP17QContextMenuEvent
libQt5Widgets.so.5:_ZN14QPlainTextEdit16inputMethodEventEP17QInputMethodEvent
libQt5Widgets.so.5:_ZN14QPlainTextEdit16scrollContentsByEii
libQt5Widgets.so.5:_ZN14QPlainTextEdit16staticMetaObjectE
libQt5Widgets.so.5:_ZN14QPlainTextEdit17mouseReleaseEventEP11QMouseEvent
libQt5Widgets.so.5:_ZN14QPlainTextEdit18focusNextPrevChildEb
libQt5Widgets.so.5:_ZN14QPlainTextEdit18insertFromMimeDataEPK9QMimeData
libQt5Widgets.so.5:_ZN14QPlainTextEdit18setPlaceholderTextERK7QString
libQt5Widgets.so.5:_ZN14QPlainTextEdit18setTabStopDistanceEd
libQt5Widgets.so.5:_ZN14QPlainTextEdit19ensureCursorVisibleEv
libQt5Widgets.so.5:_ZN14QPlainTextEdit21mouseDoubleClickEventEP11QMouseEvent
libQt5Widgets.so.5:_ZN14QPlainTextEdit25createStandardContextMenuEv
libQt5Widgets.so.5:_ZN14QPlainTextEdit5clearEv
libQt5Widgets.so.5:_ZN14QPlainTextEdit5eventEP6QEvent
libQt5Widgets.so.5:_ZN14QPlainTextEdit9showEventEP10QShowEvent
libQt5Widgets.so.5:_ZN14QPlainTextEditC1EP7QWidget
libQt5Widgets.so.5:_ZN14QPlainTextEditC2EP7QWidget
libQt5Widgets.so.5:_ZN14QPlainTextEditD2Ev
libQt5Widgets.so.5:_ZN15QAbstractButton10setCheckedEb
libQt5Widgets.so.5:_ZN15QAbstractButton10timerEventEP11QTimerEvent
libQt5Widgets.so.5:_ZN15QAbstractButton11changeEventEP6QEvent
libQt5Widgets.so.5:_ZN15QAbstractButton12focusInEventEP11QFocusEvent
libQt5Widgets.so.5:_ZN15QAbstractButton13checkStateSetEv
libQt5Widgets.so.5:_ZN15QAbstractButton13focusOutEventEP11QFocusEvent
libQt5Widgets.so.5:_ZN15QAbstractButton13keyPressEventEP9QKeyEvent
libQt5Widgets.so.5:_ZN15QAbstractButton14nextCheckStateEv
libQt5Widgets.so.5:_ZN15QAbstractButton15keyReleaseEventEP9QKeyEvent
libQt5Widgets.so.5:_ZN15QAbstractButton15mousePressEventEP11QMouseEvent
libQt5Widgets.so.5:_ZN15QAbstractButton16staticMetaObjectE
libQt5Widgets.so.5:_ZN15QAbstractButton17mouseReleaseEventEP11QMouseEvent
libQt5Widgets.so.5:_ZN15QAbstractButton5clickEv
libQt5Widgets.so.5:_ZN15QAbstractButton7clickedEb
libQt5Widgets.so.5:_ZN15QAbstractButton7pressedEv
libQt5Widgets.so.5:_ZN15QAbstractButton7setIconERK5QIcon
libQt5Widgets.so.5:_ZN15QAbstractButton7setTextERK7QString
libQt5Widgets.so.5:_ZN15QAbstractButton7toggledEb
libQt5Widgets.so.5:_ZN15QAbstractButton8releasedEv
libQt5Widgets.so.5:_ZN15QAbstractSlider8setValueEi
libQt5Widgets.so.5:_ZN15QGraphicsObject11qt_metacallEN11QMetaObject4CallEiPPv
libQt5Widgets.so.5:_ZN15QGraphicsObject11qt_metacastEPKc
libQt5Widgets.so.5:_ZN15QGraphicsObject16staticMetaObjectE
libQt5Widgets.so.5:_ZN15QGraphicsObject5eventEP6QEvent
libQt5Widgets.so.5:_ZN15QGraphicsObjectC2EP13QGraphicsItem
libQt5Widgets.so.5:_ZN15QGraphicsObjectD2Ev
libQt5Widgets.so.5:_ZN15QListWidgetItem11setSelectedEb
libQt5Widgets.so.5:_ZN15QListWidgetItemC1ERK7QStringP11QListWidgeti
libQt5Widgets.so.5:_ZN16QDialogButtonBox14setOrientationEN2Qt11OrientationE
libQt5Widgets.so.5:_ZN16QDialogButtonBox18setStandardButtonsE6QFlagsINS_14StandardButtonEE
libQt5Widgets.so.5:_ZN16QDialogButtonBoxC1EP7QWidget
libQt5Widgets.so.5:_ZN17QAbstractItemView10commitDataEP7QWidget
libQt5Widgets.so.5:_ZN17QAbstractItemView11closeEditorEP7QWidgetN21QAbstractItemDelegate11EndEditHintE
libQt5Widgets.so.5:_ZN17QAbstractItemView11eventFilterEP7QObjectP6QEvent
libQt5Widgets.so.5:_ZN17QAbstractItemView11resizeEventEP12QResizeEvent
libQt5Widgets.so.5:_ZN17QAbstractItemView12focusInEventEP11QFocusEvent
libQt5Widgets.so.5:_ZN17QAbstractItemView13doubleClickedERK11QModelIndex
libQt5Widgets.so.5:_ZN17QAbstractItemView13focusOutEventEP11QFocusEvent
libQt5Widgets.so.5:_ZN17QAbstractItemView14clearSelectionEv
libQt5Widgets.so.5:_ZN17QAbstractItemView14dragEnterEventEP15QDragEnterEvent
libQt5Widgets.so.5:_ZN17QAbstractItemView14dragLeaveEventEP15QDragLeaveEvent
libQt5Widgets.so.5:_ZN17QAbstractItemView15editorDestroyedEP7QObject
libQt5Widgets.so.5:_ZN17QAbstractItemView15setCurrentIndexERK11QModelIndex
libQt5Widgets.so.5:_ZN17QAbstractItemView15setItemDelegateEP21QAbstractItemDelegate
libQt5Widgets.so.5:_ZN17QAbstractItemView15viewportEnteredEv
libQt5Widgets.so.5:_ZN17QAbstractItemView16inputMethodEventEP17QInputMethodEvent
libQt5Widgets.so.5:_ZN17QAbstractItemView16setSelectionModeENS_13SelectionModeE
libQt5Widgets.so.5:_ZN17QAbstractItemView16staticMetaObjectE
libQt5Widgets.so.5:_ZN17QAbstractItemView16updateEditorDataEv
libQt5Widgets.so.5:_ZN17QAbstractItemView18focusNextPrevChildEb
libQt5Widgets.so.5:_ZN17QAbstractItemView20setSelectionBehaviorENS_17SelectionBehaviorE
libQt5Widgets.so.5:_ZN17QAbstractItemView22updateEditorGeometriesEv
libQt5Widgets.so.5:_ZN17QAbstractItemView23verticalScrollbarActionEi
libQt5Widgets.so.5:_ZN17QAbstractItemView31horizontalScrollbarValueChangedEi
libQt5Widgets.so.5:_ZN17QAbstractItemView4editERK11QModelIndex
libQt5Widgets.so.5:_ZN17QAbstractItemView4editERK11QModelIndexNS_11EditTriggerEP6QEvent
libQt5Widgets.so.5:_ZN17QAbstractItemView5eventEP6QEvent
libQt5Widgets.so.5:_ZN17QAbstractItemView7clickedERK11QModelIndex
libQt5Widgets.so.5:_ZN17QAbstractItemView7enteredERK11QModelIndex
libQt5Widgets.so.5:_ZN17QAbstractItemView9dropEventEP10QDropEvent
libQt5Widgets.so.5:_ZN17QAbstractItemView9startDragE6QFlagsIN2Qt10DropActionEE
libQt5Widgets.so.5:_ZN19QAbstractScrollArea10paintEventEP11QPaintEvent
libQt5Widgets.so.5:_ZN19QAbstractScrollArea10wheelEventEP11QWheelEvent
libQt5Widgets.so.5:_ZN19QAbstractScrollArea11eventFilterEP7QObjectP6QEvent
libQt5Widgets.so.5:_ZN19QAbstractScrollArea13dragMoveEventEP14QDragMoveEvent
libQt5Widgets.so.5:_ZN19QAbstractScrollArea13keyPressEventEP9QKeyEvent
libQt5Widgets.so.5:_ZN19QAbstractScrollArea13setupViewportEP7QWidget
libQt5Widgets.so.5:_ZN19QAbstractScrollArea13viewportEventEP6QEvent
libQt5Widgets.so.5:_ZN19QAbstractScrollArea14dragEnterEventEP15QDragEnterEvent
libQt5Widgets.so.5:_ZN19QAbstractScrollArea14dragLeaveEventEP15QDragLeaveEvent
libQt5Widgets.so.5:_ZN19QAbstractScrollArea14mouseMoveEventEP11QMouseEvent
libQt5Widgets.so.5:_ZN19QAbstractScrollArea15mousePressEventEP11QMouseEvent
libQt5Widgets.so.5:_ZN19QAbstractScrollArea16contextMenuEventEP17QContextMenuEvent
libQt5Widgets.so.5:_ZN19QAbstractScrollArea17mouseReleaseEventEP11QMouseEvent
libQt5Widgets.so.5:_ZN19QAbstractScrollArea21mouseDoubleClickEventEP11QMouseEvent
libQt5Widgets.so.5:_ZN19QAbstractScrollArea9dropEventEP10QDropEvent
libQt5Widgets.so.5:_ZN19QStyledItemDelegate11editorEventEP6QEventP18QAbstractItemModelRK20QStyleOptionViewItemRK11QModelIndex
libQt5Widgets.so.5:_ZN19QStyledItemDelegate11eventFilterEP7QObjectP6QEvent
libQt5Widgets.so.5:_ZN19QStyledItemDelegate11qt_metacallEN11QMetaObject4CallEiPPv
libQt5Widgets.so.5:_ZN19QStyledItemDelegate11qt_metacastEPKc
libQt5Widgets.so.5:_ZN19QStyledItemDelegate16staticMetaObjectE
libQt5Widgets.so.5:_ZN19QStyledItemDelegateC2EP7QObject
libQt5Widgets.so.5:_ZN19QStyledItemDelegateD2Ev
libQt5Widgets.so.5:_ZN21QAbstractItemDelegate9helpEventEP10QHelpEventP17QAbstractItemViewRK20QStyleOptionViewItemRK11QModelIndex
libQt5Widgets.so.5:_ZN5QMenu12addSeparatorEv
libQt5Widgets.so.5:_ZN5QMenu16staticMetaObjectE
libQt5Widgets.so.5:_ZN5QMenu4execERK6QPointP7QAction
libQt5Widgets.so.5:_ZN5QMenu5popupERK6QPointP7QAction
libQt5Widgets.so.5:_ZN5QMenu7addMenuEPS_
libQt5Widgets.so.5:_ZN5QMenu7addMenuERK7QString
libQt5Widgets.so.5:_ZN5QMenu9addActionERK7QString
libQt5Widgets.so.5:_ZN5QMenuC1EP7QWidget
libQt5Widgets.so.5:_ZN5QMenuC1ERK7QStringP7QWidget
libQt5Widgets.so.5:_ZN5QMenuD1Ev
libQt5Widgets.so.5:_ZN6QFrame11changeEventEP6QEvent
libQt5Widgets.so.5:_ZN6QFrame12setLineWidthEi
libQt5Widgets.so.5:_ZN6QFrame13setFrameShapeENS_5ShapeE
libQt5Widgets.so.5:_ZN6QFrame13setFrameStyleEi
libQt5Widgets.so.5:_ZN6QFrame14setFrameShadowENS_6ShadowE
libQt5Widgets.so.5:_ZN6QFrame15setMidLineWidthEi
libQt5Widgets.so.5:_ZN6QFrameC1EP7QWidget6QFlagsIN2Qt10WindowTypeEE
libQt5Widgets.so.5:_ZN6QLabel12setAlignmentE6QFlagsIN2Qt13AlignmentFlagEE
libQt5Widgets.so.5:_ZN6QLabel7setTextERK7QString
libQt5Widgets.so.5:_ZN6QLabel8setBuddyEP7QWidget
libQt5Widgets.so.5:_ZN6QLabelC1EP7QWidget6QFlagsIN2Qt10WindowTypeEE
libQt5Widgets.so.5:_ZN6QLabelC1ERK7QStringP7QWidget6QFlagsIN2Qt10WindowTypeEE
libQt5Widgets.so.5:_ZN7QAction10setCheckedEb
libQt5Widgets.so.5:_ZN7QAction10setEnabledEb
libQt5Widgets.so.5:_ZN7QAction10setVisibleEb
libQt5Widgets.so.5:_ZN7QAction11setShortcutERK12QKeySequence
libQt5Widgets.so.5:_ZN7QAction12setCheckableEb
libQt5Widgets.so.5:_ZN7QAction16staticMetaObjectE
libQt5Widgets.so.5:_ZN7QAction7setDataERK8QVariant
libQt5Widgets.so.5:_ZN7QAction7setTextERK7QString
libQt5Widgets.so.5:_ZN7QAction7toggledEb
libQt5Widgets.so.5:_ZN7QAction8activateENS_11ActionEventE
libQt5Widgets.so.5:_ZN7QAction9triggeredEb
libQt5Widgets.so.5:_ZN7QActionC1ERK7QStringP7QObject
libQt5Widgets.so.5:_ZN7QDialog10closeEventEP11QCloseEvent
libQt5Widgets.so.5:_ZN7QDialog10setVisibleEb
libQt5Widgets.so.5:_ZN7QDialog11eventFilterEP7QObjectP6QEvent
libQt5Widgets.so.5:_ZN7QDialog11qt_metacallEN11QMetaObject4CallEiPPv
libQt5Widgets.so.5:_ZN7QDialog11qt_metacastEPKc
libQt5Widgets.so.5:_ZN7QDialog11resizeEventEP12QResizeEvent
libQt5Widgets.so.5:_ZN7QDialog13keyPressEventEP9QKeyEvent
libQt5Widgets.so.5:_ZN7QDialog16contextMenuEventEP17QContextMenuEvent
libQt5Widgets.so.5:_ZN7QDialog16staticMetaObjectE
libQt5Widgets.so.5:_ZN7QDialog18setSizeGripEnabledEb
libQt5Widgets.so.5:_ZN7QDialog4doneEi
libQt5Widgets.so.5:_ZN7QDialog4execEv
libQt5Widgets.so.5:_ZN7QDialog4openEv
libQt5Widgets.so.5:_ZN7QDialog6acceptEv
libQt5Widgets.so.5:_ZN7QDialog6rejectEv
libQt5Widgets.so.5:_ZN7QDialog8acceptedEv
libQt5Widgets.so.5:_ZN7QDialog8finishedEi
libQt5Widgets.so.5:_ZN7QDialog8rejectedEv
libQt5Widgets.so.5:_ZN7QDialog8setModalEb
libQt5Widgets.so.5:_ZN7QDialog9showEventEP10QShowEvent
libQt5Widgets.so.5:_ZN7QDialogC2EP7QWidget6QFlagsIN2Qt10WindowTypeEE
libQt5Widgets.so.5:_ZN7QDialogD2Ev
libQt5Widgets.so.5:_ZN7QLayout10childEventEP11QChildEvent
libQt5Widgets.so.5:_ZN7QLayout10invalidateEv
libQt5Widgets.so.5:_ZN7QLayout10removeItemEP11QLayoutItem
libQt5Widgets.so.5:_ZN7QLayout11qt_metacallEN11QMetaObject4CallEiPPv
libQt5Widgets.so.5:_ZN7QLayout11qt_metacastEPKc
libQt5Widgets.so.5:_ZN7QLayout11setGeometryERK5QRect
libQt5Widgets.so.5:_ZN7QLayout12removeWidgetEP7QWidget
libQt5Widgets.so.5:_ZN7QLayout16staticMetaObjectE
libQt5Widgets.so.5:_ZN7QLayout17setSizeConstraintENS_14SizeConstraintE
libQt5Widgets.so.5:_ZN7QLayout18setContentsMarginsEiiii
libQt5Widgets.so.5:_ZN7QLayout6layoutEv
libQt5Widgets.so.5:_ZN7QLayout9addWidgetEP7QWidget
libQt5Widgets.so.5:_ZN7QLayoutC2EP7QWidget
libQt5Widgets.so.5:_ZN7QLayoutD2Ev
libQt5Widgets.so.5:_ZN7QWidget10adjustSizeEv
libQt5Widgets.so.5:_ZN7QWidget10closeEventEP11QCloseEvent
libQt5Widgets.so.5:_ZN7QWidget10enterEventEP6QEvent
libQt5Widgets.so.5:_ZN7QWidget10leaveEventEP6QEvent
libQt5Widgets.so.5:_ZN7QWidget10paintEventEP11QPaintEvent
libQt5Widgets.so.5:_ZN7QWidget10setEnabledEb
libQt5Widgets.so.5:_ZN7QWidget10setPaletteERK8QPalette
libQt5Widgets.so.5:_ZN7QWidget10setToolTipERK7QString
libQt5Widgets.so.5:_ZN7QWidget10setVisibleEb
libQt5Widgets.so.5:_ZN7QWidget10showNormalEv
libQt5Widgets.so.5:_ZN7QWidget10wheelEventEP11QWheelEvent
libQt5Widgets.so.5:_ZN7QWidget11actionEventEP12QActionEvent
libQt5Widgets.so.5:_ZN7QWidget11changeEventEP6QEvent
libQt5Widgets.so.5:_ZN7QWidget11nativeEventERK10QByteArrayPvPl
libQt5Widgets.so.5:_ZN7QWidget11qt_metacallEN11QMetaObject4CallEiPPv
libQt5Widgets.so.5:_ZN7QWidget11qt_metacastEPKc
libQt5Widgets.so.5:_ZN7QWidget11resizeEventEP12QResizeEvent
libQt5Widgets.so.5:_ZN7QWidget11setBaseSizeEii
libQt5Widgets.so.5:_ZN7QWidget11setDisabledEb
libQt5Widgets.so.5:_ZN7QWidget11tabletEventEP12QTabletEvent
libQt5Widgets.so.5:_ZN7QWidget11unsetCursorEv
libQt5Widgets.so.5:_ZN7QWidget12focusInEventEP11QFocusEvent
libQt5Widgets.so.5:_ZN7QWidget12removeActionEP7QAction
libQt5Widgets.so.5:_ZN7QWidget12setAttributeEN2Qt15WidgetAttributeEb
libQt5Widgets.so.5:_ZN7QWidget13dragMoveEventEP14QDragMoveEvent
libQt5Widgets.so.5:_ZN7QWidget13focusOutEventEP11QFocusEvent
libQt5Widgets.so.5:_ZN7QWidget13keyPressEventEP9QKeyEvent
libQt5Widgets.so.5:_ZN7QWidget13setFixedWidthEi
libQt5Widgets.so.5:_ZN7QWidget13setSizePolicyE11QSizePolicy
libQt5Widgets.so.5:_ZN7QWidget13setStyleSheetERK7QString
libQt5Widgets.so.5:_ZN7QWidget13setWindowIconERK5QIcon
libQt5Widgets.so.5:_ZN7QWidget13showMinimizedEv
libQt5Widgets.so.5:_ZN7QWidget14dragEnterEventEP15QDragEnterEvent
libQt5Widgets.so.5:_ZN7QWidget14dragLeaveEventEP15QDragLeaveEvent
libQt5Widgets.so.5:_ZN7QWidget14mouseMoveEventEP11QMouseEvent
libQt5Widgets.so.5:_ZN7QWidget14setAcceptDropsEb
libQt5Widgets.so.5:_ZN7QWidget14setFixedHeightEi
libQt5Widgets.so.5:_ZN7QWidget14setFocusPolicyEN2Qt11FocusPolicyE
libQt5Widgets.so.5:_ZN7QWidget14setMaximumSizeEii
libQt5Widgets.so.5:_ZN7QWidget14setMinimumSizeEii
libQt5Widgets.so.5:_ZN7QWidget14setWindowFlagsE6QFlagsIN2Qt10WindowTypeEE
libQt5Widgets.so.5:_ZN7QWidget14setWindowTitleERK7QString
libQt5Widgets.so.5:_ZN7QWidget15keyReleaseEventEP9QKeyEvent
libQt5Widgets.so.5:_ZN7QWidget15mousePressEventEP11QMouseEvent
libQt5Widgets.so.5:_ZN7QWidget15restoreGeometryERK10QByteArray
libQt5Widgets.so.5:_ZN7QWidget15setMaximumWidthEi
libQt5Widgets.so.5:_ZN7QWidget15setMinimumWidthEi
libQt5Widgets.so.5:_ZN7QWidget16contextMenuEventEP17QContextMenuEvent
libQt5Widgets.so.5:_ZN7QWidget16inputMethodEventEP17QInputMethodEvent
libQt5Widgets.so.5:_ZN7QWidget16setMaximumHeightEi
libQt5Widgets.so.5:_ZN7QWidget16setMinimumHeightEi
libQt5Widgets.so.5:_ZN7QWidget16setSizeIncrementEii
libQt5Widgets.so.5:_ZN7QWidget16staticMetaObjectE
libQt5Widgets.so.5:_ZN7QWidget17mouseReleaseEventEP11QMouseEvent
libQt5Widgets.so.5:_ZN7QWidget17setUpdatesEnabledEb
libQt5Widgets.so.5:_ZN7QWidget17setWindowModalityEN2Qt14WindowModalityE
libQt5Widgets.so.5:_ZN7QWidget18focusNextPrevChildEb
libQt5Widgets.so.5:_ZN7QWidget18setLayoutDirectionEN2Qt15LayoutDirectionE
libQt5Widgets.so.5:_ZN7QWidget19setInputMethodHintsE6QFlagsIN2Qt15InputMethodHintEE
libQt5Widgets.so.5:_ZN7QWidget20setContextMenuPolicyEN2Qt17ContextMenuPolicyE
libQt5Widgets.so.5:_ZN7QWidget21mouseDoubleClickEventEP11QMouseEvent
libQt5Widgets.so.5:_ZN7QWidget21setAutoFillBackgroundEb
libQt5Widgets.so.5:_ZN7QWidget26customContextMenuRequestedERK6QPoint
libQt5Widgets.so.5:_ZN7QWidget4hideEv
libQt5Widgets.so.5:_ZN7QWidget4moveERK6QPoint
libQt5Widgets.so.5:_ZN7QWidget4showEv
libQt5Widgets.so.5:_ZN7QWidget5closeEv
libQt5Widgets.so.5:_ZN7QWidget5eventEP6QEvent
libQt5Widgets.so.5:_ZN7QWidget5raiseEv
libQt5Widgets.so.5:_ZN7QWidget6renderEP8QPainterRK6QPointRK7QRegion6QFlagsINS_10RenderFlagEE
libQt5Widgets.so.5:_ZN7QWidget6resizeERK5QSize
libQt5Widgets.so.5:_ZN7QWidget6updateEv
libQt5Widgets.so.5:_ZN7QWidget7repaintEv
libQt5Widgets.so.5:_ZN7QWidget7setFontERK5QFont
libQt5Widgets.so.5:_ZN7QWidget8setFocusEN2Qt11FocusReasonE
libQt5Widgets.so.5:_ZN7QWidget9addActionEP7QAction
libQt5Widgets.so.5:_ZN7QWidget9dropEventEP10QDropEvent
libQt5Widgets.so.5:_ZN7QWidget9hideEventEP10QHideEvent
libQt5Widgets.so.5:_ZN7QWidget9moveEventEP10QMoveEvent
libQt5Widgets.so.5:_ZN7QWidget9setCursorERK7QCursor
libQt5Widgets.so.5:_ZN7QWidget9setLayoutEP7QLayout
libQt5Widgets.so.5:_ZN7QWidget9showEventEP10QShowEvent
libQt5Widgets.so.5:_ZN7QWidgetC1EPS_6QFlagsIN2Qt10WindowTypeEE
libQt5Widgets.so.5:_ZN7QWidgetC2EPS_6QFlagsIN2Qt10WindowTypeEE
libQt5Widgets.so.5:_ZN7QWidgetD2Ev
libQt5Widgets.so.5:_ZN8QMenuBar7addMenuERK7QString
libQt5Widgets.so.5:_ZN8QSpinBox12valueChangedEi
libQt5Widgets.so.5:_ZN8QSpinBox16staticMetaObjectE
libQt5Widgets.so.5:_ZN8QSpinBox8setRangeEii
libQt5Widgets.so.5:_ZN8QSpinBox8setValueEi
libQt5Widgets.so.5:_ZN8QSpinBoxC1EP7QWidget
libQt5Widgets.so.5:_ZN8QToolBar9addActionERK7QString
libQt5Widgets.so.5:_ZN8QToolTip8showTextERK6QPointRK7QStringP7QWidget
libQt5Widgets.so.5:_ZN9QCheckBox12stateChangedEi
libQt5Widgets.so.5:_ZN9QCheckBox13setCheckStateEN2Qt10CheckStateE
libQt5Widgets.so.5:_ZN9QCheckBox16staticMetaObjectE
libQt5Widgets.so.5:_ZN9QCheckBoxC1EP7QWidget
libQt5Widgets.so.5:_ZN9QCheckBoxC1ERK7QStringP7QWidget
libQt5Widgets.so.5:_ZN9QComboBox10insertItemEiRK5QIconRK7QStringRK8QVariant
libQt5Widgets.so.5:_ZN9QComboBox10paintEventEP11QPaintEvent
libQt5Widgets.so.5:_ZN9QComboBox10wheelEventEP11QWheelEvent
libQt5Widgets.so.5:_ZN9QComboBox11changeEventEP6QEvent
libQt5Widgets.so.5:_ZN9QComboBox11qt_metacallEN11QMetaObject4CallEiPPv
libQt5Widgets.so.5:_ZN9QComboBox11qt_metacastEPKc
libQt5Widgets.so.5:_ZN9QComboBox11resizeEventEP12QResizeEvent
libQt5Widgets.so.5:_ZN9QComboBox11setItemTextEiRK7QString
libQt5Widgets.so.5:_ZN9QComboBox12focusInEventEP11QFocusEvent
libQt5Widgets.so.5:_ZN9QComboBox13focusOutEventEP11QFocusEvent
libQt5Widgets.so.5:_ZN9QComboBox13keyPressEventEP9QKeyEvent
libQt5Widgets.so.5:_ZN9QComboBox14setCurrentTextERK7QString
libQt5Widgets.so.5:_ZN9QComboBox15keyReleaseEventEP9QKeyEvent
libQt5Widgets.so.5:_ZN9QComboBox15mousePressEventEP11QMouseEvent
libQt5Widgets.so.5:_ZN9QComboBox15setCurrentIndexEi
libQt5Widgets.so.5:_ZN9QComboBox16contextMenuEventEP17QContextMenuEvent
libQt5Widgets.so.5:_ZN9QComboBox16inputMethodEventEP17QInputMethodEvent
libQt5Widgets.so.5:_ZN9QComboBox16staticMetaObjectE
libQt5Widgets.so.5:_ZN9QComboBox17mouseReleaseEventEP11QMouseEvent
libQt5Widgets.so.5:_ZN9QComboBox18currentTextChangedERK7QString
libQt5Widgets.so.5:_ZN9QComboBox19currentIndexChangedEi
libQt5Widgets.so.5:_ZN9QComboBox5clearEv
libQt5Widgets.so.5:_ZN9QComboBox5eventEP6QEvent
libQt5Widgets.so.5:_ZN9QComboBox8setModelEP18QAbstractItemModel
libQt5Widgets.so.5:_ZN9QComboBox9hideEventEP10QHideEvent
libQt5Widgets.so.5:_ZN9QComboBox9hidePopupEv
libQt5Widgets.so.5:_ZN9QComboBox9showEventEP10QShowEvent
libQt5Widgets.so.5:_ZN9QComboBox9showPopupEv
libQt5Widgets.so.5:_ZN9QComboBoxC1EP7QWidget
libQt5Widgets.so.5:_ZN9QComboBoxC2EP7QWidget
libQt5Widgets.so.5:_ZN9QComboBoxD2Ev
libQt5Widgets.so.5:_ZN9QGroupBox8setTitleERK7QString
libQt5Widgets.so.5:_ZN9QGroupBoxC1EP7QWidget
libQt5Widgets.so.5:_ZN9QGroupBoxC1ERK7QStringP7QWidget
libQt5Widgets.so.5:_ZN9QLineEdit11setReadOnlyEb
libQt5Widgets.so.5:_ZN9QLineEdit11textChangedERK7QString
libQt5Widgets.so.5:_ZN9QLineEdit13returnPressedEv
libQt5Widgets.so.5:_ZN9QLineEdit16staticMetaObjectE
libQt5Widgets.so.5:_ZN9QLineEdit18setPlaceholderTextERK7QString
libQt5Widgets.so.5:_ZN9QLineEdit5clearEv
libQt5Widgets.so.5:_ZN9QLineEdit7setTextERK7QString
libQt5Widgets.so.5:_ZN9QLineEditC1EP7QWidget
libQt5Widgets.so.5:_ZN9QShortcut16staticMetaObjectE
libQt5Widgets.so.5:_ZN9QShortcut9activatedEv
libQt5Widgets.so.5:_ZN9QShortcutC1ERK12QKeySequenceP7QWidgetPKcS6_N2Qt15ShortcutContextE
libQt5Widgets.so.5:_ZN9QSplitter12restoreStateERK10QByteArray
libQt5Widgets.so.5:_ZN9QSplitter14setCollapsibleEib
libQt5Widgets.so.5:_ZN9QSplitter9addWidgetEP7QWidget
libQt5Widgets.so.5:_ZN9QSplitterC1EN2Qt11OrientationEP7QWidget
libQt5Widgets.so.5:_ZN9QTextEdit7setHtmlERK7QString
libQt5Widgets.so.5:_ZN9QTreeView10moveCursorEN17QAbstractItemView12CursorActionE6QFlagsIN2Qt16KeyboardModifierEE
libQt5Widgets.so.5:_ZN9QTreeView10paintEventEP11QPaintEvent
libQt5Widgets.so.5:_ZN9QTreeView10timerEventEP11QTimerEvent
libQt5Widgets.so.5:_ZN9QTreeView11dataChangedERK11QModelIndexS2_RK7QVectorIiE
libQt5Widgets.so.5:_ZN9QTreeView11qt_metacallEN11QMetaObject4CallEiPPv
libQt5Widgets.so.5:_ZN9QTreeView11qt_metacastEPKc
libQt5Widgets.so.5:_ZN9QTreeView11setExpandedERK11QModelIndexb
libQt5Widgets.so.5:_ZN9QTreeView12rowsInsertedERK11QModelIndexii
libQt5Widgets.so.5:_ZN9QTreeView12setRootIndexERK11QModelIndex
libQt5Widgets.so.5:_ZN9QTreeView12setRowHiddenEiRK11QModelIndexb
libQt5Widgets.so.5:_ZN9QTreeView12setSelectionERK5QRect6QFlagsIN19QItemSelectionModel13SelectionFlagEE
libQt5Widgets.so.5:_ZN9QTreeView13doItemsLayoutEv
libQt5Widgets.so.5:_ZN9QTreeView13dragMoveEventEP14QDragMoveEvent
libQt5Widgets.so.5:_ZN9QTreeView13keyPressEventEP9QKeyEvent
libQt5Widgets.so.5:_ZN9QTreeView13viewportEventEP6QEvent
libQt5Widgets.so.5:_ZN9QTreeView14currentChangedERK11QModelIndexS2_
libQt5Widgets.so.5:_ZN9QTreeView14keyboardSearchERK7QString
libQt5Widgets.so.5:_ZN9QTreeView14mouseMoveEventEP11QMouseEvent
libQt5Widgets.so.5:_ZN9QTreeView14setColumnWidthEii
libQt5Widgets.so.5:_ZN9QTreeView15mousePressEventEP11QMouseEvent
libQt5Widgets.so.5:_ZN9QTreeView16scrollContentsByEii
libQt5Widgets.so.5:_ZN9QTreeView16selectionChangedERK14QItemSelectionS2_
libQt5Widgets.so.5:_ZN9QTreeView16staticMetaObjectE
libQt5Widgets.so.5:_ZN9QTreeView16updateGeometriesEv
libQt5Widgets.so.5:_ZN9QTreeView17mouseReleaseEventEP11QMouseEvent
libQt5Widgets.so.5:_ZN9QTreeView17setSelectionModelEP19QItemSelectionModel
libQt5Widgets.so.5:_ZN9QTreeView17setSortingEnabledEb
libQt5Widgets.so.5:_ZN9QTreeView20rowsAboutToBeRemovedERK11QModelIndexii
libQt5Widgets.so.5:_ZN9QTreeView21mouseDoubleClickEventEP11QMouseEvent
libQt5Widgets.so.5:_ZN9QTreeView22resizeColumnToContentsEi
libQt5Widgets.so.5:_ZN9QTreeView25horizontalScrollbarActionEi
libQt5Widgets.so.5:_ZN9QTreeView29verticalScrollbarValueChangedEi
libQt5Widgets.so.5:_ZN9QTreeView5resetEv
libQt5Widgets.so.5:_ZN9QTreeView6expandERK11QModelIndex
libQt5Widgets.so.5:_ZN9QTreeView8expandedERK11QModelIndex
libQt5Widgets.so.5:_ZN9QTreeView8scrollToERK11QModelIndexN17QAbstractItemView10ScrollHintE
libQt5Widgets.so.5:_ZN9QTreeView8setModelEP18QAbstractItemModel
libQt5Widgets.so.5:_ZN9QTreeView9collapsedERK11QModelIndex
libQt5Widgets.so.5:_ZN9QTreeView9selectAllEv
libQt5Widgets.so.5:_ZN9QTreeViewC1EP7QWidget
libQt5Widgets.so.5:_ZN9QTreeViewC2EP7QWidget
libQt5Widgets.so.5:_ZN9QTreeViewD2Ev
libQt5Widgets.so.5:_ZNK10QCompleter15completionCountEv
libQt5Widgets.so.5:_ZNK10QCompleter15completionModelEv
libQt5Widgets.so.5:_ZNK10QCompleter16completionPrefixEv
libQt5Widgets.so.5:_ZNK10QCompleter17currentCompletionEv
libQt5Widgets.so.5:_ZNK10QCompleter5popupEv
libQt5Widgets.so.5:_ZNK10QTabWidget12currentIndexEv
libQt5Widgets.so.5:_ZNK10QTabWidget13currentWidgetEv
libQt5Widgets.so.5:_ZNK10QTabWidget14heightForWidthEi
libQt5Widgets.so.5:_ZNK10QTabWidget15minimumSizeHintEv
libQt5Widgets.so.5:_ZNK10QTabWidget17hasHeightForWidthEv
libQt5Widgets.so.5:_ZNK10QTabWidget5countEv
libQt5Widgets.so.5:_ZNK10QTabWidget7indexOfEP7QWidget
libQt5Widgets.so.5:_ZNK10QTabWidget8sizeHintEv
libQt5Widgets.so.5:_ZNK10QTableView14isColumnHiddenEi
libQt5Widgets.so.5:_ZNK10QTableView14verticalHeaderEv
libQt5Widgets.so.5:_ZNK10QTableView16horizontalHeaderEv
libQt5Widgets.so.5:_ZNK11QDockWidget16toggleViewActionEv
libQt5Widgets.so.5:_ZNK11QHeaderView18sortIndicatorOrderEv
libQt5Widgets.so.5:_ZNK11QHeaderView20sortIndicatorSectionEv
libQt5Widgets.so.5:_ZNK11QHeaderView5countEv
libQt5Widgets.so.5:_ZNK11QHeaderView9saveStateEv
libQt5Widgets.so.5:_ZNK11QLayoutItem21minimumHeightForWidthEi
libQt5Widgets.so.5:_ZNK11QListWidget13selectedItemsEv
libQt5Widgets.so.5:_ZNK11QListWidget4itemEi
libQt5Widgets.so.5:_ZNK11QListWidget5countEv
libQt5Widgets.so.5:_ZNK11QListWidget6itemAtERK6QPoint
libQt5Widgets.so.5:_ZNK11QListWidget9findItemsERK7QString6QFlagsIN2Qt9MatchFlagEE
libQt5Widgets.so.5:_ZNK11QMainWindow7menuBarEv
libQt5Widgets.so.5:_ZNK11QMainWindow9saveStateEi
libQt5Widgets.so.5:_ZNK11QMainWindow9statusBarEv
libQt5Widgets.so.5:_ZNK11QMessageBox13clickedButtonEv
libQt5Widgets.so.5:_ZNK11QPushButton8sizeHintEv
libQt5Widgets.so.5:_ZNK11QScrollArea16viewportSizeHintEv
libQt5Widgets.so.5:_ZNK11QScrollArea6widgetEv
libQt5Widgets.so.5:_ZNK11QScrollArea8sizeHintEv
libQt5Widgets.so.5:_ZNK12QApplication10metaObjectEv
libQt5Widgets.so.5:_ZNK12QColorDialog13selectedColorEv
libQt5Widgets.so.5:_ZNK12QRadioButton15minimumSizeHintEv
libQt5Widgets.so.5:_ZNK12QRadioButton8sizeHintEv
libQt5Widgets.so.5:_ZNK12QRadioButton9hitButtonERK6QPoint
libQt5Widgets.so.5:_ZNK13QGraphicsItem10isSelectedEv
libQt5Widgets.so.5:_ZNK13QGraphicsItem10opaqueAreaEv
libQt5Widgets.so.5:_ZNK13QGraphicsItem12isObscuredByEPKS_
libQt5Widgets.so.5:_ZNK13QGraphicsItem16collidesWithItemEPKS_N2Qt17ItemSelectionModeE
libQt5Widgets.so.5:_ZNK13QGraphicsItem16collidesWithPathERK12QPainterPathN2Qt17ItemSelectionModeE
libQt5Widgets.so.5:_ZNK13QGraphicsItem16inputMethodQueryEN2Qt16InputMethodQueryE
libQt5Widgets.so.5:_ZNK13QGraphicsItem17sceneBoundingRectEv
libQt5Widgets.so.5:_ZNK13QGraphicsItem17supportsExtensionENS_9ExtensionE
libQt5Widgets.so.5:_ZNK13QGraphicsItem3posEv
libQt5Widgets.so.5:_ZNK13QGraphicsItem4dataEi
libQt5Widgets.so.5:_ZNK13QGraphicsItem4typeEv
libQt5Widgets.so.5:_ZNK13QGraphicsItem5shapeEv
libQt5Widgets.so.5:_ZNK13QGraphicsItem8containsERK7QPointF
libQt5Widgets.so.5:_ZNK13QGraphicsItem9extensionERK8QVariant
libQt5Widgets.so.5:_ZNK13QGraphicsView10mapToSceneERK5QRect
libQt5Widgets.so.5:_ZNK13QGraphicsView10mapToSceneERK6QPoint
libQt5Widgets.so.5:_ZNK13QGraphicsView16inputMethodQueryEN2Qt16InputMethodQueryE
libQt5Widgets.so.5:_ZNK13QGraphicsView20transformationAnchorEv
libQt5Widgets.so.5:_ZNK13QGraphicsView5sceneEv
libQt5Widgets.so.5:_ZNK13QGraphicsView8sizeHintEv
libQt5Widgets.so.5:_ZNK14QDesktopWidget17availableGeometryEPK7QWidget
libQt5Widgets.so.5:_ZNK14QDoubleSpinBox5valueEv
libQt5Widgets.so.5:_ZNK14QGraphicsScene13selectedItemsEv
libQt5Widgets.so.5:_ZNK14QGraphicsScene16inputMethodQueryEN2Qt16InputMethodQueryE
libQt5Widgets.so.5:_ZNK14QGraphicsScene17itemsBoundingRectEv
libQt5Widgets.so.5:_ZNK14QGraphicsScene9sceneRectEv
libQt5Widgets.so.5:_ZNK14QPlainTextEdit10cursorRectEv
libQt5Widgets.so.5:_ZNK14QPlainTextEdit10textCursorEv
libQt5Widgets.so.5:_ZNK14QPlainTextEdit16inputMethodQueryEN2Qt16InputMethodQueryE
libQt5Widgets.so.5:_ZNK14QPlainTextEdit21canInsertFromMimeDataEPK9QMimeData
libQt5Widgets.so.5:_ZNK14QPlainTextEdit27createMimeDataFromSelectionEv
libQt5Widgets.so.5:_ZNK14QPlainTextEdit8documentEv
libQt5Widgets.so.5:_ZNK15QAbstractButton4textEv
libQt5Widgets.so.5:_ZNK15QAbstractButton9isCheckedEv
libQt5Widgets.so.5:_ZNK15QAbstractSlider5valueEv
libQt5Widgets.so.5:_ZNK15QAbstractSlider7maximumEv
libQt5Widgets.so.5:_ZNK15QAbstractSlider7minimumEv
libQt5Widgets.so.5:_ZNK15QAbstractSlider8pageStepEv
libQt5Widgets.so.5:_ZNK15QListWidgetItem10isSelectedEv
libQt5Widgets.so.5:_ZNK17QAbstractItemView11viewOptionsEv
libQt5Widgets.so.5:_ZNK17QAbstractItemView14selectionModelEv
libQt5Widgets.so.5:_ZNK17QAbstractItemView14sizeHintForRowEi
libQt5Widgets.so.5:_ZNK17QAbstractItemView16inputMethodQueryEN2Qt16InputMethodQueryE
libQt5Widgets.so.5:_ZNK17QAbstractItemView16selectionCommandERK11QModelIndexPK6QEvent
libQt5Widgets.so.5:_ZNK17QAbstractItemView5modelEv
libQt5Widgets.so.5:_ZNK19QAbstractScrollArea15minimumSizeHintEv
libQt5Widgets.so.5:_ZNK19QAbstractScrollArea16viewportSizeHintEv
libQt5Widgets.so.5:_ZNK19QAbstractScrollArea17verticalScrollBarEv
libQt5Widgets.so.5:_ZNK19QAbstractScrollArea19horizontalScrollBarEv
libQt5Widgets.so.5:_ZNK19QAbstractScrollArea19maximumViewportSizeEv
libQt5Widgets.so.5:_ZNK19QAbstractScrollArea8sizeHintEv
libQt5Widgets.so.5:_ZNK19QAbstractScrollArea8viewportEv
libQt5Widgets.so.5:_ZNK19QStyledItemDelegate11displayTextERK8QVariantRK7QLocale
libQt5Widgets.so.5:_ZNK19QStyledItemDelegate15initStyleOptionEP20QStyleOptionViewItemRK11QModelIndex
libQt5Widgets.so.5:_ZNK19QStyledItemDelegate20updateEditorGeometryEP7QWidgetRK20QStyleOptionViewItemRK11QModelIndex
libQt5Widgets.so.5:_ZNK19QStyledItemDelegate5paintEP8QPainterRK20QStyleOptionViewItemRK11QModelIndex
libQt5Widgets.so.5:_ZNK19QStyledItemDelegate8sizeHintERK20QStyleOptionViewItemRK11QModelIndex
libQt5Widgets.so.5:_ZNK21QAbstractItemDelegate13destroyEditorEP7QWidgetRK11QModelIndex
libQt5Widgets.so.5:_ZNK21QAbstractItemDelegate13paintingRolesEv
libQt5Widgets.so.5:_ZNK30QGraphicsSceneContextMenuEvent9screenPosEv
libQt5Widgets.so.5:_ZNK5QMenu10menuActionEv
libQt5Widgets.so.5:_ZNK5QMenu7isEmptyEv
libQt5Widgets.so.5:_ZNK7QAction4dataEv
libQt5Widgets.so.5:_ZNK7QAction4menuEv
libQt5Widgets.so.5:_ZNK7QAction4textEv
libQt5Widgets.so.5:_ZNK7QAction9isCheckedEv
libQt5Widgets.so.5:_ZNK7QDialog15minimumSizeHintEv
libQt5Widgets.so.5:_ZNK7QDialog8sizeHintEv
libQt5Widgets.so.5:_ZNK7QLayout11maximumSizeEv
libQt5Widgets.so.5:_ZNK7QLayout12controlTypesEv
libQt5Widgets.so.5:_ZNK7QLayout15contentsMarginsEv
libQt5Widgets.so.5:_ZNK7QLayout18getContentsMarginsEPiS0_S0_S0_
libQt5Widgets.so.5:_ZNK7QLayout19expandingDirectionsEv
libQt5Widgets.so.5:_ZNK7QLayout7indexOfEP7QWidget
libQt5Widgets.so.5:_ZNK7QLayout7isEmptyEv
libQt5Widgets.so.5:_ZNK7QLayout8geometryEv
libQt5Widgets.so.5:_ZNK7QWidget10redirectedEP6QPoint
libQt5Widgets.so.5:_ZNK7QWidget10sizePolicyEv
libQt5Widgets.so.5:_ZNK7QWidget10styleSheetEv
libQt5Widgets.so.5:_ZNK7QWidget11initPainterEP8QPainter
libQt5Widgets.so.5:_ZNK7QWidget11mapToGlobalERK6QPoint
libQt5Widgets.so.5:_ZNK7QWidget11paintEngineEv
libQt5Widgets.so.5:_ZNK7QWidget11windowTitleEv
libQt5Widgets.so.5:_ZNK7QWidget12saveGeometryEv
libQt5Widgets.so.5:_ZNK7QWidget13mapFromGlobalERK6QPoint
libQt5Widgets.so.5:_ZNK7QWidget13sharedPainterEv
libQt5Widgets.so.5:_ZNK7QWidget13visibleRegionEv
libQt5Widgets.so.5:_ZNK7QWidget14heightForWidthEi
libQt5Widgets.so.5:_ZNK7QWidget15contentsMarginsEv
libQt5Widgets.so.5:_ZNK7QWidget15minimumSizeHintEv
libQt5Widgets.so.5:_ZNK7QWidget16inputMethodQueryEN2Qt16InputMethodQueryE
libQt5Widgets.so.5:_ZNK7QWidget17hasHeightForWidthEv
libQt5Widgets.so.5:_ZNK7QWidget20testAttribute_helperEN2Qt15WidgetAttributeE
libQt5Widgets.so.5:_ZNK7QWidget5styleEv
libQt5Widgets.so.5:_ZNK7QWidget6layoutEv
libQt5Widgets.so.5:_ZNK7QWidget6metricEN12QPaintDevice17PaintDeviceMetricE
libQt5Widgets.so.5:_ZNK7QWidget7actionsEv
libQt5Widgets.so.5:_ZNK7QWidget7devTypeEv
libQt5Widgets.so.5:_ZNK7QWidget7paletteEv
libQt5Widgets.so.5:_ZNK7QWidget8hasFocusEv
libQt5Widgets.so.5:_ZNK7QWidget8sizeHintEv
libQt5Widgets.so.5:_ZNK8QSpinBox5valueEv
libQt5Widgets.so.5:_ZNK8QToolBar16toggleViewActionEv
libQt5Widgets.so.5:_ZNK9QCheckBox10checkStateEv
libQt5Widgets.so.5:_ZNK9QComboBox11currentDataEi
libQt5Widgets.so.5:_ZNK9QComboBox11currentTextEv
libQt5Widgets.so.5:_ZNK9QComboBox12currentIndexEv
libQt5Widgets.so.5:_ZNK9QComboBox15minimumSizeHintEv
libQt5Widgets.so.5:_ZNK9QComboBox16inputMethodQueryEN2Qt16InputMethodQueryE
libQt5Widgets.so.5:_ZNK9QComboBox5countEv
libQt5Widgets.so.5:_ZNK9QComboBox8findDataERK8QVarianti6QFlagsIN2Qt9MatchFlagEE
libQt5Widgets.so.5:_ZNK9QComboBox8itemDataEii
libQt5Widgets.so.5:_ZNK9QComboBox8sizeHintEv
libQt5Widgets.so.5:_ZNK9QLineEdit4textEv
libQt5Widgets.so.5:_ZNK9QSplitter9saveStateEv
libQt5Widgets.so.5:_ZNK9QTreeView10isExpandedERK11QModelIndex
libQt5Widgets.so.5:_ZNK9QTreeView10visualRectERK11QModelIndex
libQt5Widgets.so.5:_ZNK9QTreeView11columnWidthEi
libQt5Widgets.so.5:_ZNK9QTreeView11isRowHiddenEiRK11QModelIndex
libQt5Widgets.so.5:_ZNK9QTreeView12drawBranchesEP8QPainterRK5QRectRK11QModelIndex
libQt5Widgets.so.5:_ZNK9QTreeView13isIndexHiddenERK11QModelIndex
libQt5Widgets.so.5:_ZNK9QTreeView14verticalOffsetEv
libQt5Widgets.so.5:_ZNK9QTreeView15selectedIndexesEv
libQt5Widgets.so.5:_ZNK9QTreeView16horizontalOffsetEv
libQt5Widgets.so.5:_ZNK9QTreeView16viewportSizeHintEv
libQt5Widgets.so.5:_ZNK9QTreeView17sizeHintForColumnEi
libQt5Widgets.so.5:_ZNK9QTreeView24visualRegionForSelectionERK14QItemSelection
libQt5Widgets.so.5:_ZNK9QTreeView6headerEv
libQt5Widgets.so.5:_ZNK9QTreeView7drawRowEP8QPainterRK20QStyleOptionViewItemRK11QModelIndex
libQt5Widgets.so.5:_ZNK9QTreeView7indexAtERK6QPoint
libQt5Widgets.so.5:_ZTI10QTabWidget
libQt5Widgets.so.5:_ZTI11QDockWidget
libQt5Widgets.so.5:_ZTI11QMainWindow
libQt5Widgets.so.5:_ZTI11QScrollArea
libQt5Widgets.so.5:_ZTI12QApplication
libQt5Widgets.so.5:_ZTI12QRadioButton
libQt5Widgets.so.5:_ZTI13QGraphicsItem
libQt5Widgets.so.5:_ZTI13QGraphicsView
libQt5Widgets.so.5:_ZTI14QGraphicsScene
libQt5Widgets.so.5:_ZTI14QPlainTextEdit
libQt5Widgets.so.5:_ZTI15QGraphicsObject
libQt5Widgets.so.5:_ZTI19QStyledItemDelegate
libQt5Widgets.so.5:_ZTI7QDialog
libQt5Widgets.so.5:_ZTI7QLayout
libQt5Widgets.so.5:_ZTI7QWidget
libQt5Widgets.so.5:_ZTI9QComboBox
libQt5Widgets.so.5:_ZTI9QTreeView
libQt5Widgets.so.5:_ZTV11QSpacerItem
libQt5Widgets.so.5:_ZThn16_N7QLayout10invalidateEv
libQt5Widgets.so.5:_ZThn16_N7QLayout6layoutEv
libQt5Widgets.so.5:_ZThn16_NK7QLayout11maximumSizeEv
libQt5Widgets.so.5:_ZThn16_NK7QLayout12controlTypesEv
libQt5Widgets.so.5:_ZThn16_NK7QLayout19expandingDirectionsEv
libQt5Widgets.so.5:_ZThn16_NK7QLayout7isEmptyEv
libQt5Widgets.so.5:_ZThn16_NK7QLayout8geometryEv
libQt5Widgets.so.5:_ZThn16_NK7QWidget10redirectedEP6QPoint
libQt5Widgets.so.5:_ZThn16_NK7QWidget11initPainterEP8QPainter
libQt5Widgets.so.5:_ZThn16_NK7QWidget11paintEngineEv
libQt5Widgets.so.5:_ZThn16_NK7QWidget13sharedPainterEv
libQt5Widgets.so.5:_ZThn16_NK7QWidget6metricEN12QPaintDevice17PaintDeviceMetricE
libQt5Widgets.so.5:_ZThn16_NK7QWidget7devTypeEv
libabsl_raw_hash_set.so.2401.0.0:_ZN4absl12lts_2024011618container_internal11kEmptyGroupE
libboost_iostreams.so.1.83.0:_ZN5boost9iostreams10zlib_error5checkEi
libboost_iostreams.so.1.83.0:_ZN5boost9iostreams4zlib10best_speedE
libboost_iostreams.so.1.83.0:_ZN5boost9iostreams4zlib10stream_endE
libboost_iostreams.so.1.83.0:_ZN5boost9iostreams4zlib10sync_flushE
libboost_iostreams.so.1.83.0:_ZN5boost9iostreams4zlib16best_compressionE
libboost_iostreams.so.1.83.0:_ZN5boost9iostreams4zlib16default_strategyE
libboost_iostreams.so.1.83.0:_ZN5boost9iostreams4zlib19default_compressionE
libboost_iostreams.so.1.83.0:_ZN5boost9iostreams4zlib4okayE
libboost_iostreams.so.1.83.0:_ZN5boost9iostreams4zlib6finishE
libboost_iostreams.so.1.83.0:_ZN5boost9iostreams4zlib8deflatedE
libboost_iostreams.so.1.83.0:_ZN5boost9iostreams4zlib8no_flushE
libboost_iostreams.so.1.83.0:_ZN5boost9iostreams6detail11gzip_footer5resetEv
libboost_iostreams.so.1.83.0:_ZN5boost9iostreams6detail11gzip_footer7processEc
libboost_iostreams.so.1.83.0:_ZN5boost9iostreams6detail11gzip_header5resetEv
libboost_iostreams.so.1.83.0:_ZN5boost9iostreams6detail11gzip_header7processEc
libboost_iostreams.so.1.83.0:_ZN5boost9iostreams6detail9zlib_base5afterERPKcRPcb
libboost_iostreams.so.1.83.0:_ZN5boost9iostreams6detail9zlib_base5resetEbb
libboost_iostreams.so.1.83.0:_ZN5boost9iostreams6detail9zlib_base6beforeERPKcS4_RPcS6_
libboost_iostreams.so.1.83.0:_ZN5boost9iostreams6detail9zlib_base7do_initERKNS0_11zlib_paramsEbPFPvS6_jjEPFvS6_S6_ES6_
libboost_iostreams.so.1.83.0:_ZN5boost9iostreams6detail9zlib_base8xdeflateEi
libboost_iostreams.so.1.83.0:_ZN5boost9iostreams6detail9zlib_base8xinflateEi
libboost_iostreams.so.1.83.0:_ZN5boost9iostreams6detail9zlib_baseC2Ev
libboost_iostreams.so.1.83.0:_ZN5boost9iostreams6detail9zlib_baseD2Ev
libboost_serialization.so.1.83.0:_ZN5boost13serialization11void_upcastERKNS0_18extended_type_infoES3_PKv
libboost_serialization.so.1.83.0:_ZN5boost13serialization13typeid_system27extended_type_info_typeid_013type_registerERKSt9type_info
libboost_serialization.so.1.83.0:_ZN5boost13serialization13typeid_system27extended_type_info_typeid_015type_unregisterEv
libboost_serialization.so.1.83.0:_ZN5boost13serialization13typeid_system27extended_type_info_typeid_0C2EPKc
libboost_serialization.so.1.83.0:_ZN5boost13serialization13typeid_system27extended_type_info_typeid_0D2Ev
libboost_serialization.so.1.83.0:_ZN5boost13serialization13void_downcastERKNS0_18extended_type_infoES3_PKv
libboost_serialization.so.1.83.0:_ZN5boost7archive17archive_exceptionC1ENS1_14exception_codeEPKcS4_
libboost_serialization.so.1.83.0:_ZN5boost7archive17archive_exceptionC1ERKS1_
libboost_serialization.so.1.83.0:_ZN5boost7archive17archive_exceptionD1Ev
libboost_serialization.so.1.83.0:_ZN5boost7archive6detail14basic_iarchive11load_objectEPvRKNS1_17basic_iserializerE
libboost_serialization.so.1.83.0:_ZN5boost7archive6detail14basic_iarchive12load_pointerERPvPKNS1_25basic_pointer_iserializerEPFS7_RKNS_13serialization18extended_type_infoEE
libboost_serialization.so.1.83.0:_ZN5boost7archive6detail14basic_iarchive19next_object_pointerEPv
libboost_serialization.so.1.83.0:_ZN5boost7archive6detail14basic_iarchive20reset_object_addressEPKvS4_
libboost_serialization.so.1.83.0:_ZN5boost7archive6detail14basic_iarchive25register_basic_serializerERKNS1_17basic_iserializerE
libboost_serialization.so.1.83.0:_ZN5boost7archive6detail14basic_iarchiveC2Ej
libboost_serialization.so.1.83.0:_ZN5boost7archive6detail14basic_iarchiveD2Ev
libboost_serialization.so.1.83.0:_ZN5boost7archive6detail14basic_oarchive11save_objectEPKvRKNS1_17basic_oserializerE
libboost_serialization.so.1.83.0:_ZN5boost7archive6detail14basic_oarchive12end_preambleEv
libboost_serialization.so.1.83.0:_ZN5boost7archive6detail14basic_oarchive12save_pointerEPKvPKNS1_25basic_pointer_oserializerE
libboost_serialization.so.1.83.0:_ZN5boost7archive6detail14basic_oarchive25register_basic_serializerERKNS1_17basic_oserializerE
libboost_serialization.so.1.83.0:_ZN5boost7archive6detail14basic_oarchiveC2Ej
libboost_serialization.so.1.83.0:_ZN5boost7archive6detail14basic_oarchiveD2Ev
libboost_serialization.so.1.83.0:_ZN5boost7archive6detail17basic_iserializerC2ERKNS_13serialization18extended_type_infoE
libboost_serialization.so.1.83.0:_ZN5boost7archive6detail17basic_iserializerD2Ev
libboost_serialization.so.1.83.0:_ZN5boost7archive6detail17basic_oserializerC2ERKNS_13serialization18extended_type_infoE
libboost_serialization.so.1.83.0:_ZN5boost7archive6detail17basic_oserializerD2Ev
libboost_serialization.so.1.83.0:_ZN5boost7archive6detail20basic_serializer_map5eraseEPKNS1_16basic_serializerE
libboost_serialization.so.1.83.0:_ZN5boost7archive6detail20basic_serializer_map6insertEPKNS1_16basic_serializerE
libboost_serialization.so.1.83.0:_ZN5boost7archive6detail25basic_pointer_iserializerC2ERKNS_13serialization18extended_type_infoE
libboost_serialization.so.1.83.0:_ZN5boost7archive6detail25basic_pointer_iserializerD2Ev
libboost_serialization.so.1.83.0:_ZN5boost7archive6detail25basic_pointer_oserializerC2ERKNS_13serialization18extended_type_infoE
libboost_serialization.so.1.83.0:_ZN5boost7archive6detail25basic_pointer_oserializerD2Ev
libboost_serialization.so.1.83.0:_ZNK5boost13serialization13typeid_system27extended_type_info_typeid_012is_less_thanERKNS0_18extended_type_infoE
libboost_serialization.so.1.83.0:_ZNK5boost13serialization13typeid_system27extended_type_info_typeid_022get_extended_type_infoERKSt9type_info
libboost_serialization.so.1.83.0:_ZNK5boost13serialization13typeid_system27extended_type_info_typeid_08is_equalERKNS0_18extended_type_infoE
libboost_serialization.so.1.83.0:_ZNK5boost13serialization16void_cast_detail11void_caster18recursive_registerEb
libboost_serialization.so.1.83.0:_ZNK5boost13serialization16void_cast_detail11void_caster20recursive_unregisterEv
libboost_serialization.so.1.83.0:_ZNK5boost13serialization18extended_type_info12key_registerEv
libboost_serialization.so.1.83.0:_ZNK5boost13serialization18extended_type_info14key_unregisterEv
libboost_serialization.so.1.83.0:_ZNK5boost13serialization18extended_type_infoeqERKS1_
libboost_serialization.so.1.83.0:_ZNK5boost7archive6detail14basic_iarchive19get_library_versionEv
libboost_serialization.so.1.83.0:_ZNK5boost7archive6detail20basic_serializer_map4findERKNS_13serialization18extended_type_infoE
libboost_thread.so.1.83.0:_ZN5boost11this_thread18interruption_pointEv
libboost_thread.so.1.83.0:_ZN5boost6detail16thread_data_baseD2Ev
libboost_thread.so.1.83.0:_ZN5boost6detail23get_current_thread_dataEv
libboost_thread.so.1.83.0:_ZN5boost6thread13join_noexceptEv
libboost_thread.so.1.83.0:_ZN5boost6thread13native_handleEv
libboost_thread.so.1.83.0:_ZN5boost6thread21start_thread_noexceptEv
libboost_thread.so.1.83.0:_ZN5boost6thread6detachEv
libboost_thread.so.1.83.0:_ZN5boost6threadC1Ev
libboost_thread.so.1.83.0:_ZNK5boost6thread8joinableEv
libc.so.6:__ctype_b_loc
libc.so.6:__cxa_atexit
libc.so.6:__errno_location
libc.so.6:__fread_chk
libc.so.6:__getcwd_chk
libc.so.6:__inet_ntop_chk
libc.so.6:__inet_pton_chk
libc.so.6:__isoc23_fscanf
libc.so.6:__isoc23_scanf
libc.so.6:__isoc23_sscanf
libc.so.6:__isoc23_strtol
libc.so.6:__isoc23_strtoul
libc.so.6:__libc_single_threaded
libc.so.6:__libc_start_main
libc.so.6:__memcpy_chk
libc.so.6:__memmove_chk
libc.so.6:__memset_chk
libc.so.6:__open_2
libc.so.6:__overflow
libc.so.6:__poll_chk
libc.so.6:__stack_chk_fail
libc.so.6:__strcat_chk
libc.so.6:__strcpy_chk
libc.so.6:__strncat_chk
libc.so.6:__strncpy_chk
libc.so.6:__uflow
libc.so.6:__vfprintf_chk
libc.so.6:__vprintf_chk
libc.so.6:__vsnprintf_chk
libc.so.6:__vsprintf_chk
libc.so.6:__xpg_basename
libc.so.6:_exit
libc.so.6:abort
libc.so.6:accept
libc.so.6:access
libc.so.6:aligned_alloc
libc.so.6:alphasort
libc.so.6:asctime
libc.so.6:bind
libc.so.6:calloc
libc.so.6:clearerr
libc.so.6:clock
libc.so.6:clock_gettime
libc.so.6:close
libc.so.6:closedir
libc.so.6:connect
libc.so.6:difftime
libc.so.6:dladdr
libc.so.6:dlclose
libc.so.6:dlerror
libc.so.6:dlopen
libc.so.6:dlsym
libc.so.6:dup
libc.so.6:dup2
libc.so.6:epoll_create
libc.so.6:epoll_create1
libc.so.6:epoll_ctl
libc.so.6:epoll_wait
libc.so.6:eventfd
libc.so.6:execv
libc.so.6:exit
libc.so.6:fclose
libc.so.6:fcntl
libc.so.6:fdopen
libc.so.6:feof
libc.so.6:ferror
libc.so.6:fflush
libc.so.6:fgetc
libc.so.6:fgets
libc.so.6:fileno
libc.so.6:fnmatch
libc.so.6:fopen
libc.so.6:fork
libc.so.6:fputc
libc.so.6:fputs
libc.so.6:fread
libc.so.6:free
libc.so.6:freeaddrinfo
libc.so.6:fseek
libc.so.6:fstat
libc.so.6:ftell
libc.so.6:fwrite
libc.so.6:getaddrinfo
libc.so.6:getenv
libc.so.6:getpagesize
libc.so.6:getpeername
libc.so.6:getpid
libc.so.6:getrusage
libc.so.6:getsockname
libc.so.6:getsockopt
libc.so.6:gettimeofday
libc.so.6:if_indextoname
libc.so.6:if_nametoindex
libc.so.6:inet_ntop
libc.so.6:inet_pton
libc.so.6:ioctl
libc.so.6:isalnum
libc.so.6:isalpha
libc.so.6:isatty
libc.so.6:isgraph
libc.so.6:ispunct
libc.so.6:isspace
libc.so.6:isupper
libc.so.6:isxdigit
libc.so.6:listen
libc.so.6:localtime
libc.so.6:lseek64
libc.so.6:malloc
libc.so.6:memchr
libc.so.6:memcmp
libc.so.6:memcpy
libc.so.6:memmove
libc.so.6:memset
libc.so.6:mkdir
libc.so.6:mkstemp
libc.so.6:nanosleep
libc.so.6:open
libc.so.6:opendir
libc.so.6:pause
libc.so.6:pclose
libc.so.6:pipe
libc.so.6:popen
libc.so.6:pthread_cond_broadcast
libc.so.6:pthread_cond_destroy
libc.so.6:pthread_cond_init
libc.so.6:pthread_cond_signal
libc.so.6:pthread_cond_timedwait
libc.so.6:pthread_cond_wait
libc.so.6:pthread_condattr_destroy
libc.so.6:pthread_condattr_init
libc.so.6:pthread_condattr_setclock
libc.so.6:pthread_create
libc.so.6:pthread_detach
libc.so.6:pthread_exit
libc.so.6:pthread_join
libc.so.6:pthread_mutex_destroy
libc.so.6:pthread_mutex_init
libc.so.6:pthread_mutex_lock
libc.so.6:pthread_mutex_trylock
libc.so.6:pthread_mutex_unlock
libc.so.6:pthread_once
libc.so.6:pthread_self
libc.so.6:pthread_sigmask
libc.so.6:putc
libc.so.6:qsort
libc.so.6:raise
libc.so.6:rand
libc.so.6:read
libc.so.6:readdir
libc.so.6:realloc
libc.so.6:recv
libc.so.6:rewind
libc.so.6:scandir
libc.so.6:send
libc.so.6:sendmsg
libc.so.6:setenv
libc.so.6:setlocale
libc.so.6:setrlimit
libc.so.6:setsockopt
libc.so.6:shutdown
libc.so.6:sigaction
libc.so.6:sigemptyset
libc.so.6:sigfillset
libc.so.6:signal
libc.so.6:socket
libc.so.6:srand
libc.so.6:stat
libc.so.6:stderr
libc.so.6:stdin
libc.so.6:stdout
libc.so.6:strcasecmp
libc.so.6:strcat
libc.so.6:strchr
libc.so.6:strcmp
libc.so.6:strcpy
libc.so.6:strdup
libc.so.6:strerror
libc.so.6:strerror_r
libc.so.6:strftime
libc.so.6:strlen
libc.so.6:strncasecmp
libc.so.6:strncmp
libc.so.6:strncpy
libc.so.6:strrchr
libc.so.6:strstr
libc.so.6:strtod
libc.so.6:strtof
libc.so.6:strtok
libc.so.6:sysconf
libc.so.6:system
libc.so.6:time
libc.so.6:timerfd_create
libc.so.6:timerfd_settime
libc.so.6:tolower
libc.so.6:toupper
libc.so.6:ungetc
libc.so.6:unlink
libc.so.6:vsnprintf
libc.so.6:waitpid
libc.so.6:write
libfmt.so.12:_ZN3fmt3v1212report_errorEPKc
libfmt.so.12:_ZN3fmt3v126detail10vformat_toERNS1_6bufferIcEENS0_17basic_string_viewIcEENS0_17basic_format_argsINS0_7contextEEENS0_10locale_refE
libfmt.so.12:_ZN3fmt3v126detail12is_printableEj
libfmt.so.12:_ZN3fmt3v127vformatB5cxx11ENS0_17basic_string_viewIcEENS0_17basic_format_argsINS0_7contextEEE
libgcc_s.so.1:_Unwind_Backtrace
libgcc_s.so.1:_Unwind_GetIP
libgcc_s.so.1:_Unwind_Resume
libm.so.6:atan
libm.so.6:atan2
libm.so.6:ceil
libm.so.6:ceilf
libm.so.6:cos
libm.so.6:erff
libm.so.6:exp
libm.so.6:exp2
libm.so.6:expf
libm.so.6:floor
libm.so.6:floorf
libm.so.6:floorl
libm.so.6:hypotf
libm.so.6:ldexp
libm.so.6:log
libm.so.6:log10
libm.so.6:log10f
libm.so.6:log2
libm.so.6:logf
libm.so.6:logl
libm.so.6:lround
libm.so.6:lroundf
libm.so.6:modf
libm.so.6:nextafter
libm.so.6:nextafterf
libm.so.6:pow
libm.so.6:powf
libm.so.6:round
libm.so.6:roundf
libm.so.6:sin
libm.so.6:sqrt
libm.so.6:sqrtf
libm.so.6:trunc
libomp.so:__kmpc_critical
libomp.so:__kmpc_dispatch_deinit
libomp.so:__kmpc_dispatch_init_4
libomp.so:__kmpc_dispatch_init_4u
libomp.so:__kmpc_dispatch_init_8
libomp.so:__kmpc_dispatch_init_8u
libomp.so:__kmpc_dispatch_next_4
libomp.so:__kmpc_dispatch_next_4u
libomp.so:__kmpc_dispatch_next_8
libomp.so:__kmpc_dispatch_next_8u
libomp.so:__kmpc_end_critical
libomp.so:__kmpc_end_reduce_nowait
libomp.so:__kmpc_for_static_fini
libomp.so:__kmpc_for_static_init_4
libomp.so:__kmpc_for_static_init_8
libomp.so:__kmpc_for_static_init_8u
libomp.so:__kmpc_fork_call
libomp.so:__kmpc_global_thread_num
libomp.so:__kmpc_push_num_threads
libomp.so:__kmpc_reduce_nowait
libomp.so:omp_get_max_threads
libomp.so:omp_get_num_threads
libomp.so:omp_set_num_threads
libortools.so.9:_ZN19operations_research11MPObjective14SetCoefficientEPKNS_10MPVariableEd
libortools.so.9:_ZN19operations_research11MPObjective24SetOptimizationDirectionEb
libortools.so.9:_ZN19operations_research12MPConstraint14SetCoefficientEPKNS_10MPVariableEd
libortools.so.9:_ZN19operations_research3sat10LinearExprC1ENS0_6IntVarE
libortools.so.9:_ZN19operations_research3sat10LinearExprC1ENS0_7BoolVarE
libortools.so.9:_ZN19operations_research3sat10LinearExprC1El
libortools.so.9:_ZN19operations_research3sat10LinearExprmIERKS1_
libortools.so.9:_ZN19operations_research3sat10LinearExprmLEl
libortools.so.9:_ZN19operations_research3sat10LinearExprpLERKS1_
libortools.so.9:_ZN19operations_research3sat12CpModelProtoC2EPN6google8protobuf5ArenaE
libortools.so.9:_ZN19operations_research3sat12CpModelProtoD1Ev
libortools.so.9:_ZN19operations_research3sat12SolveCpModelERKNS0_12CpModelProtoEPNS0_5ModelE
libortools.so.9:_ZN19operations_research3sat13SatParametersC2EPN6google8protobuf5ArenaE
libortools.so.9:_ZN19operations_research3sat13SatParametersD1Ev
libortools.so.9:_ZN19operations_research3sat14CpModelBuilder10NewBoolVarEv
libortools.so.9:_ZN19operations_research3sat14CpModelBuilder14AddLessOrEqualERKNS0_10LinearExprES4_
libortools.so.9:_ZN19operations_research3sat14CpModelBuilder8MinimizeERKNS0_16DoubleLinearExprE
libortools.so.9:_ZN19operations_research3sat14CpModelBuilder9NewIntVarERKNS_6DomainE
libortools.so.9:_ZN19operations_research3sat16CpSolverResponseD1Ev
libortools.so.9:_ZN19operations_research3sat16DoubleLinearExpr7AddTermENS0_6IntVarEd
libortools.so.9:_ZN19operations_research3sat16DoubleLinearExpr7AddTermENS0_7BoolVarEd
libortools.so.9:_ZN19operations_research3sat16DoubleLinearExprC1Ev
libortools.so.9:_ZN19operations_research3sat16NewSatParametersERKNS0_13SatParametersE
libortools.so.9:_ZN19operations_research3sat20SolutionBooleanValueERKNS0_16CpSolverResponseENS0_7BoolVarE
libortools.so.9:_ZN19operations_research6DomainC1Ell
libortools.so.9:_ZN19operations_research8MPSolver10MakeIntVarEddRKNSt7__cxx1112basic_stringIcSt11char_traitsIcESaIcEEE
libortools.so.9:_ZN19operations_research8MPSolver10MakeNumVarEddRKNSt7__cxx1112basic_stringIcSt11char_traitsIcESaIcEEE
libortools.so.9:_ZN19operations_research8MPSolver12CreateSolverERKNSt7__cxx1112basic_stringIcSt11char_traitsIcESaIcEEE
libortools.so.9:_ZN19operations_research8MPSolver17MakeRowConstraintEddRKNSt7__cxx1112basic_stringIcSt11char_traitsIcESaIcEEE
libortools.so.9:_ZN19operations_research8MPSolver5SolveEv
libortools.so.9:_ZNK19operations_research10MPVariable14solution_valueEv
libpython3.12.so.1.0:PyArg_UnpackTuple
libpython3.12.so.1.0:PyBool_FromLong
libpython3.12.so.1.0:PyBool_Type
libpython3.12.so.1.0:PyBytes_AsString
libpython3.12.so.1.0:PyCapsule_GetPointer
libpython3.12.so.1.0:PyCapsule_Import
libpython3.12.so.1.0:PyCapsule_New
libpython3.12.so.1.0:PyConfig_Clear
libpython3.12.so.1.0:PyConfig_InitPythonConfig
libpython3.12.so.1.0:PyConfig_SetBytesArgv
libpython3.12.so.1.0:PyDict_GetItemWithError
libpython3.12.so.1.0:PyDict_New
libpython3.12.so.1.0:PyDict_SetItem
libpython3.12.so.1.0:PyDict_SetItemString
libpython3.12.so.1.0:PyErr_Clear
libpython3.12.so.1.0:PyErr_ExceptionMatches
libpython3.12.so.1.0:PyErr_Fetch
libpython3.12.so.1.0:PyErr_Format
libpython3.12.so.1.0:PyErr_GivenExceptionMatches
libpython3.12.so.1.0:PyErr_Occurred
libpython3.12.so.1.0:PyErr_Print
libpython3.12.so.1.0:PyErr_Restore
libpython3.12.so.1.0:PyErr_SetObject
libpython3.12.so.1.0:PyErr_SetString
libpython3.12.so.1.0:PyErr_WriteUnraisable
libpython3.12.so.1.0:PyExc_AttributeError
libpython3.12.so.1.0:PyExc_Exception
libpython3.12.so.1.0:PyExc_IOError
libpython3.12.so.1.0:PyExc_IndexError
libpython3.12.so.1.0:PyExc_MemoryError
libpython3.12.so.1.0:PyExc_OverflowError
libpython3.12.so.1.0:PyExc_RuntimeError
libpython3.12.so.1.0:PyExc_StopIteration
libpython3.12.so.1.0:PyExc_SyntaxError
libpython3.12.so.1.0:PyExc_SystemError
libpython3.12.so.1.0:PyExc_TypeError
libpython3.12.so.1.0:PyExc_ValueError
libpython3.12.so.1.0:PyExc_ZeroDivisionError
libpython3.12.so.1.0:PyFloat_AsDouble
libpython3.12.so.1.0:PyFloat_FromDouble
libpython3.12.so.1.0:PyFloat_Type
libpython3.12.so.1.0:PyImport_AddModule
libpython3.12.so.1.0:PyImport_AppendInittab
libpython3.12.so.1.0:PyImport_ExecCodeModule
libpython3.12.so.1.0:PyIter_Next
libpython3.12.so.1.0:PyList_Append
libpython3.12.so.1.0:PyList_GetItem
libpython3.12.so.1.0:PyList_New
libpython3.12.so.1.0:PyList_SetItem
libpython3.12.so.1.0:PyList_Size
libpython3.12.so.1.0:PyLong_AsDouble
libpython3.12.so.1.0:PyLong_AsLong
libpython3.12.so.1.0:PyLong_AsLongLong
libpython3.12.so.1.0:PyLong_AsUnsignedLong
libpython3.12.so.1.0:PyLong_FromLong
libpython3.12.so.1.0:PyLong_FromSize_t
libpython3.12.so.1.0:PyLong_FromUnsignedLong
libpython3.12.so.1.0:PyLong_FromUnsignedLongLong
libpython3.12.so.1.0:PyLong_FromVoidPtr
libpython3.12.so.1.0:PyModuleDef_Init
libpython3.12.so.1.0:PyModule_AddObject
libpython3.12.so.1.0:PyModule_GetDict
libpython3.12.so.1.0:PyOS_snprintf
libpython3.12.so.1.0:PyObject_Call
libpython3.12.so.1.0:PyObject_CallFunctionObjArgs
libpython3.12.so.1.0:PyObject_Free
libpython3.12.so.1.0:PyObject_GenericGetAttr
libpython3.12.so.1.0:PyObject_GetAttr
libpython3.12.so.1.0:PyObject_GetAttrString
libpython3.12.so.1.0:PyObject_GetIter
libpython3.12.so.1.0:PyObject_IsInstance
libpython3.12.so.1.0:PyObject_IsTrue
libpython3.12.so.1.0:PyObject_SetAttr
libpython3.12.so.1.0:PySequence_Check
libpython3.12.so.1.0:PySequence_Concat
libpython3.12.so.1.0:PySequence_Fast
libpython3.12.so.1.0:PySequence_GetItem
libpython3.12.so.1.0:PySequence_Size
libpython3.12.so.1.0:PySlice_GetIndices
libpython3.12.so.1.0:PySlice_Type
libpython3.12.so.1.0:PyTuple_GetSlice
libpython3.12.so.1.0:PyTuple_New
libpython3.12.so.1.0:PyTuple_Pack
libpython3.12.so.1.0:PyTuple_SetItem
libpython3.12.so.1.0:PyTuple_Size
libpython3.12.so.1.0:PyType_FromSpec
libpython3.12.so.1.0:PyType_IsSubtype
libpython3.12.so.1.0:PyType_Modified
libpython3.12.so.1.0:PyType_Type
libpython3.12.so.1.0:PyUnicode_AsASCIIString
libpython3.12.so.1.0:PyUnicode_AsUTF8AndSize
libpython3.12.so.1.0:PyUnicode_CompareWithASCIIString
libpython3.12.so.1.0:PyUnicode_Concat
libpython3.12.so.1.0:PyUnicode_DecodeUTF8
libpython3.12.so.1.0:PyUnicode_FromFormat
libpython3.12.so.1.0:PyUnicode_FromString
libpython3.12.so.1.0:PyUnicode_InternFromString
libpython3.12.so.1.0:Py_CompileStringExFlags
libpython3.12.so.1.0:Py_InitializeFromConfig
libpython3.12.so.1.0:Py_RunMain
libpython3.12.so.1.0:_PyObject_CallMethod_SizeT
libpython3.12.so.1.0:_PyObject_New
libpython3.12.so.1.0:_Py_Dealloc
libpython3.12.so.1.0:_Py_NoneStruct
libpython3.12.so.1.0:_Py_NotImplementedStruct
libspdlog.so.1.17:_ZN6spdlog17pattern_formatterC1ENSt7__cxx1112basic_stringIcSt11char_traitsIcESaIcEEENS_17pattern_time_typeES6_St13unordered_mapIcSt10unique_ptrINS_21custom_flag_formatterESt14default_deleteISA_EESt4hashIcESt8equal_toIcESaISt4pairIKcSD_EEE
libspdlog.so.1.17:_ZN6spdlog6logger13set_formatterESt10unique_ptrINS_9formatterESt14default_deleteIS2_EE
libspdlog.so.1.17:_ZN6spdlog6logger5flushEv
libspdlog.so.1.17:_ZN6spdlog6logger5sinksEv
libspdlog.so.1.17:_ZN6spdlog6logger7log_it_ERKNS_7details7log_msgEbb
libspdlog.so.1.17:_ZN6spdlog6logger9set_levelENS_5level10level_enumE
libspdlog.so.1.17:_ZN6spdlog7details11file_helperD1Ev
libspdlog.so.1.17:_ZN6spdlog7details7log_msgC1ENS_10source_locEN3fmt3v1217basic_string_viewIcEENS_5level10level_enumES6_
libspdlog.so.1.17:_ZNK6spdlog6logger12err_handler_ERKNSt7__cxx1112basic_stringIcSt11char_traitsIcESaIcEEE
libspdlog.so.1.17:_ZNK6spdlog7details10backtracer7enabledEv
libspdlog.so.1.17:_ZTVN6spdlog6loggerE
libstdc++.so.6:_ZNKRSt7__cxx1115basic_stringbufIcSt11char_traitsIcESaIcEE3strEv
libstdc++.so.6:_ZNKSt10filesystem7__cxx1118directory_iteratordeEv
libstdc++.so.6:_ZNKSt10filesystem7__cxx114path11parent_pathEv
libstdc++.so.6:_ZNKSt10filesystem7__cxx114path15has_parent_pathEv
libstdc++.so.6:_ZNKSt10filesystem7__cxx114path17_M_find_extensionEv
libstdc++.so.6:_ZNKSt10filesystem7__cxx114path18has_root_directoryEv
libstdc++.so.6:_ZNKSt10filesystem7__cxx114path5_List13_Impl_deleterclEPNS2_5_ImplE
libstdc++.so.6:_ZNKSt10filesystem7__cxx114path5_List3endEv
libstdc++.so.6:_ZNKSt10filesystem7__cxx114path5_List5beginEv
libstdc++.so.6:_ZNKSt10filesystem7__cxx114path7compareERKS1_
libstdc++.so.6:_ZNKSt11logic_error4whatEv
libstdc++.so.6:_ZNKSt12__basic_fileIcE7is_openEv
libstdc++.so.6:_ZNKSt13runtime_error4whatEv
libstdc++.so.6:_ZNKSt3_V214error_category10_M_messageB5cxx11Ei
libstdc++.so.6:_ZNKSt5ctypeIcE13_M_widen_initEv
libstdc++.so.6:_ZNKSt6locale2id5_M_idEv
libstdc++.so.6:_ZNKSt7__cxx1112basic_stringIcSt11char_traitsIcESaIcEE4findEcm
libstdc++.so.6:_ZNKSt7codecvtIcc11__mbstate_tE10do_unshiftERS0_PcS3_RS3_
libstdc++.so.6:_ZNKSt7codecvtIcc11__mbstate_tE11do_encodingEv
libstdc++.so.6:_ZNKSt7codecvtIcc11__mbstate_tE13do_max_lengthEv
libstdc++.so.6:_ZNKSt7codecvtIcc11__mbstate_tE5do_inERS0_PKcS4_RS4_PcS6_RS6_
libstdc++.so.6:_ZNKSt7codecvtIcc11__mbstate_tE6do_outERS0_PKcS4_RS4_PcS6_RS6_
libstdc++.so.6:_ZNKSt7codecvtIcc11__mbstate_tE9do_lengthERS0_PKcS4_m
libstdc++.so.6:_ZNKSt8__detail20_Prime_rehash_policy11_M_next_bktEm
libstdc++.so.6:_ZNKSt8__detail20_Prime_rehash_policy14_M_need_rehashEmmm
libstdc++.so.6:_ZNKSt8ios_base7failureB5cxx114whatEv
libstdc++.so.6:_ZNKSt9bad_alloc4whatEv
libstdc++.so.6:_ZNKSt9basic_iosIcSt11char_traitsIcEE5widenEc
libstdc++.so.6:_ZNSi10_M_extractIbEERSiRT_
libstdc++.so.6:_ZNSi10_M_extractIdEERSiRT_
libstdc++.so.6:_ZNSi10_M_extractIfEERSiRT_
libstdc++.so.6:_ZNSi10_M_extractIjEERSiRT_
libstdc++.so.6:_ZNSi10_M_extractIlEERSiRT_
libstdc++.so.6:_ZNSi10_M_extractImEERSiRT_
libstdc++.so.6:_ZNSi10_M_extractItEERSiRT_
libstdc++.so.6:_ZNSi3getEv
libstdc++.so.6:_ZNSi4peekEv
libstdc++.so.6:_ZNSi4readEPcl
libstdc++.so.6:_ZNSi6sentryC1ERSib
libstdc++.so.6:_ZNSirsERi
libstdc++.so.6:_ZNSirsERs
libstdc++.so.6:_ZNSo3putEc
libstdc++.so.6:_ZNSo5flushEv
libstdc++.so.6:_ZNSo5tellpEv
libstdc++.so.6:_ZNSo5writeEPKcl
libstdc++.so.6:_ZNSo9_M_insertIPKvEERSoT_
libstdc++.so.6:_ZNSo9_M_insertIbEERSoT_
libstdc++.so.6:_ZNSo9_M_insertIdEERSoT_
libstdc++.so.6:_ZNSo9_M_insertIlEERSoT_
libstdc++.so.6:_ZNSo9_M_insertImEERSoT_
libstdc++.so.6:_ZNSo9_M_insertIyEERSoT_
libstdc++.so.6:_ZNSolsEPSt15basic_streambufIcSt11char_traitsIcEE
libstdc++.so.6:_ZNSolsEi
libstdc++.so.6:_ZNSolsEs
libstdc++.so.6:_ZNSt10filesystem10remove_allERKNS_7__cxx114pathE
libstdc++.so.6:_ZNSt10filesystem12current_pathB5cxx11Ev
libstdc++.so.6:_ZNSt10filesystem16create_directoryERKNS_7__cxx114pathE
libstdc++.so.6:_ZNSt10filesystem18create_directoriesERKNS_7__cxx114pathE
libstdc++.so.6:_ZNSt10filesystem6removeERKNS_7__cxx114pathERSt10error_code
libstdc++.so.6:_ZNSt10filesystem6renameERKNS_7__cxx114pathES3_
libstdc++.so.6:_ZNSt10filesystem6statusERKNS_7__cxx114pathE
libstdc++.so.6:_ZNSt10filesystem6statusERKNS_7__cxx114pathERSt10error_code
libstdc++.so.6:_ZNSt10filesystem7__cxx1118directory_iteratorC2ERKNS0_4pathENS_17directory_optionsEPSt10error_code
libstdc++.so.6:_ZNSt10filesystem7__cxx1118directory_iteratorppEv
libstdc++.so.6:_ZNSt10filesystem7__cxx114path14_M_split_cmptsEv
libstdc++.so.6:_ZNSt10filesystem7__cxx114path5_ListC1ERKS2_
libstdc++.so.6:_ZNSt10filesystem7__cxx114path5_ListC1Ev
libstdc++.so.6:_ZNSt10filesystem7__cxx114path9_M_appendESt17basic_string_viewIcSt11char_traitsIcEE
libstdc++.so.6:_ZNSt10filesystem7__cxx114path9_M_concatESt17basic_string_viewIcSt11char_traitsIcEE
libstdc++.so.6:_ZNSt10filesystem7__cxx114pathdVERKS1_
libstdc++.so.6:_ZNSt11logic_errorC1EPKc
libstdc++.so.6:_ZNSt11logic_errorC2EPKc
libstdc++.so.6:_ZNSt11logic_errorC2ERKS_
libstdc++.so.6:_ZNSt11logic_errorD1Ev
libstdc++.so.6:_ZNSt11logic_errorD2Ev
libstdc++.so.6:_ZNSt11regex_errorD1Ev
libstdc++.so.6:_ZNSt12domain_errorC2EPKc
libstdc++.so.6:_ZNSt12domain_errorD2Ev
libstdc++.so.6:_ZNSt12length_errorC1EPKc
libstdc++.so.6:_ZNSt12length_errorD1Ev
libstdc++.so.6:_ZNSt12length_errorD2Ev
libstdc++.so.6:_ZNSt12out_of_rangeC1EPKc
libstdc++.so.6:_ZNSt12out_of_rangeD1Ev
libstdc++.so.6:_ZNSt12out_of_rangeD2Ev
libstdc++.so.6:_ZNSt13basic_filebufIcSt11char_traitsIcEE4openEPKcSt13_Ios_Openmode
libstdc++.so.6:_ZNSt13basic_filebufIcSt11char_traitsIcEE5closeEv
libstdc++.so.6:_ZNSt13random_device7_M_finiEv
libstdc++.so.6:_ZNSt13random_device7_M_initERKNSt7__cxx1112basic_stringIcSt11char_traitsIcESaIcEEE
libstdc++.so.6:_ZNSt13random_device9_M_getvalEv
libstdc++.so.6:_ZNSt13runtime_errorC1EPKc
libstdc++.so.6:_ZNSt13runtime_errorC1ERKNSt7__cxx1112basic_stringIcSt11char_traitsIcESaIcEEE
libstdc++.so.6:_ZNSt13runtime_errorC2EOS_
libstdc++.so.6:_ZNSt13runtime_errorC2EPKc
libstdc++.so.6:_ZNSt13runtime_errorC2ERKNSt7__cxx1112basic_stringIcSt11char_traitsIcESaIcEEE
libstdc++.so.6:_ZNSt13runtime_errorC2ERKS_
libstdc++.so.6:_ZNSt13runtime_errorD1Ev
libstdc++.so.6:_ZNSt13runtime_errorD2Ev
libstdc++.so.6:_ZNSt14basic_ifstreamIcSt11char_traitsIcEEC1EPKcSt13_Ios_Openmode
libstdc++.so.6:_ZNSt14basic_ifstreamIcSt11char_traitsIcEEC1ERKNSt7__cxx1112basic_stringIcS1_SaIcEEESt13_Ios_Openmode
libstdc++.so.6:_ZNSt14basic_ifstreamIcSt11char_traitsIcEEC1Ev
libstdc++.so.6:_ZNSt14basic_ifstreamIcSt11char_traitsIcEED2Ev
libstdc++.so.6:_ZNSt14basic_ofstreamIcSt11char_traitsIcEEC1EPKcSt13_Ios_Openmode
libstdc++.so.6:_ZNSt14basic_ofstreamIcSt11char_traitsIcEEC1ERKNSt7__cxx1112basic_stringIcS1_SaIcEEESt13_Ios_Openmode
libstdc++.so.6:_ZNSt14basic_ofstreamIcSt11char_traitsIcEEC1Ev
libstdc++.so.6:_ZNSt14basic_ofstreamIcSt11char_traitsIcEED1Ev
libstdc++.so.6:_ZNSt14overflow_errorC1EPKc
libstdc++.so.6:_ZNSt14overflow_errorD1Ev
libstdc++.so.6:_ZNSt15__exception_ptr13exception_ptr10_M_releaseEv
libstdc++.so.6:_ZNSt15__exception_ptr13exception_ptr9_M_addrefEv
libstdc++.so.6:_ZNSt15__exception_ptr13exception_ptrC1EPv
libstdc++.so.6:_ZNSt15basic_streambufIcSt11char_traitsIcEE4syncEv
libstdc++.so.6:_ZNSt15basic_streambufIcSt11char_traitsIcEE5imbueERKSt6locale
libstdc++.so.6:_ZNSt15basic_streambufIcSt11char_traitsIcEE5uflowEv
libstdc++.so.6:_ZNSt15basic_streambufIcSt11char_traitsIcEE6setbufEPcl
libstdc++.so.6:_ZNSt15basic_streambufIcSt11char_traitsIcEE6xsgetnEPcl
libstdc++.so.6:_ZNSt15basic_streambufIcSt11char_traitsIcEE6xsputnEPKcl
libstdc++.so.6:_ZNSt15basic_streambufIcSt11char_traitsIcEE7seekoffElSt12_Ios_SeekdirSt13_Ios_Openmode
libstdc++.so.6:_ZNSt15basic_streambufIcSt11char_traitsIcEE7seekposESt4fposI11__mbstate_tESt13_Ios_Openmode
libstdc++.so.6:_ZNSt15basic_streambufIcSt11char_traitsIcEE8overflowEi
libstdc++.so.6:_ZNSt15basic_streambufIcSt11char_traitsIcEE9pbackfailEi
libstdc++.so.6:_ZNSt15basic_streambufIcSt11char_traitsIcEE9showmanycEv
libstdc++.so.6:_ZNSt15basic_streambufIcSt11char_traitsIcEE9underflowEv
libstdc++.so.6:_ZNSt15basic_streambufIcSt11char_traitsIcEED2Ev
libstdc++.so.6:_ZNSt16invalid_argumentC1EPKc
libstdc++.so.6:_ZNSt16invalid_argumentC1ERKNSt7__cxx1112basic_stringIcSt11char_traitsIcESaIcEEE
libstdc++.so.6:_ZNSt16invalid_argumentC2ERKNSt7__cxx1112basic_stringIcSt11char_traitsIcESaIcEEE
libstdc++.so.6:_ZNSt16invalid_argumentD1Ev
libstdc++.so.6:_ZNSt16invalid_argumentD2Ev
libstdc++.so.6:_ZNSt16nested_exceptionD2Ev
libstdc++.so.6:_ZNSt18condition_variable10notify_allEv
libstdc++.so.6:_ZNSt18condition_variable10notify_oneEv
libstdc++.so.6:_ZNSt18condition_variable4waitERSt11unique_lockISt5mutexE
libstdc++.so.6:_ZNSt18condition_variableC1Ev
libstdc++.so.6:_ZNSt18condition_variableD1Ev
libstdc++.so.6:_ZNSt3_V214error_categoryD2Ev
libstdc++.so.6:_ZNSt3_V215system_categoryEv
libstdc++.so.6:_ZNSt3_V216generic_categoryEv
libstdc++.so.6:_ZNSt5ctypeIcE2idE
libstdc++.so.6:_ZNSt6chrono3_V212steady_clock3nowEv
libstdc++.so.6:_ZNSt6chrono3_V212system_clock3nowEv
libstdc++.so.6:_ZNSt6locale5_Impl16_M_install_facetEPKNS_2idEPKNS_5facetE
libstdc++.so.6:_ZNSt6locale5_ImplC1ERKS0_m
libstdc++.so.6:_ZNSt6locale5_ImplD1Ev
libstdc++.so.6:_ZNSt6locale7classicEv
libstdc++.so.6:_ZNSt6localeC1ERKS_
libstdc++.so.6:_ZNSt6localeC1Ev
libstdc++.so.6:_ZNSt6localeD1Ev
libstdc++.so.6:_ZNSt6localeaSERKS_
libstdc++.so.6:_ZNSt6thread15_M_start_threadESt10unique_ptrINS_6_StateESt14default_deleteIS1_EEPFvvE
libstdc++.so.6:_ZNSt6thread20hardware_concurrencyEv
libstdc++.so.6:_ZNSt6thread4joinEv
libstdc++.so.6:_ZNSt6thread6_StateD2Ev
libstdc++.so.6:_ZNSt7__cxx1112basic_stringIcSt11char_traitsIcESaIcEE12_M_constructEmc
libstdc++.so.6:_ZNSt7__cxx1112basic_stringIcSt11char_traitsIcESaIcEE14_M_replace_auxEmmmc
libstdc++.so.6:_ZNSt7__cxx1112basic_stringIcSt11char_traitsIcESaIcEE7reserveEm
libstdc++.so.6:_ZNSt7__cxx1112basic_stringIcSt11char_traitsIcESaIcEE9_M_appendEPKcm
libstdc++.so.6:_ZNSt7__cxx1112basic_stringIcSt11char_traitsIcESaIcEE9_M_assignERKS4_
libstdc++.so.6:_ZNSt7__cxx1112basic_stringIcSt11char_traitsIcESaIcEE9_M_createERmm
libstdc++.so.6:_ZNSt7__cxx1118basic_stringstreamIcSt11char_traitsIcESaIcEEC1EONS_12basic_stringIcS2_S3_EESt13_Ios_Openmode
libstdc++.so.6:_ZNSt7__cxx1118basic_stringstreamIcSt11char_traitsIcESaIcEEC1ERKNS_12basic_stringIcS2_S3_EESt13_Ios_Openmode
libstdc++.so.6:_ZNSt7__cxx1118basic_stringstreamIcSt11char_traitsIcESaIcEEC1ESt13_Ios_Openmode
libstdc++.so.6:_ZNSt7__cxx1118basic_stringstreamIcSt11char_traitsIcESaIcEEC1Ev
libstdc++.so.6:_ZNSt7__cxx1118basic_stringstreamIcSt11char_traitsIcESaIcEED1Ev
libstdc++.so.6:_ZNSt7__cxx1119basic_istringstreamIcSt11char_traitsIcESaIcEEC1EONS_12basic_stringIcS2_S3_EESt13_Ios_Openmode
libstdc++.so.6:_ZNSt7__cxx1119basic_istringstreamIcSt11char_traitsIcESaIcEEC1ERKNS_12basic_stringIcS2_S3_EESt13_Ios_Openmode
libstdc++.so.6:_ZNSt7__cxx1119basic_istringstreamIcSt11char_traitsIcESaIcEED1Ev
libstdc++.so.6:_ZNSt7__cxx1119basic_ostringstreamIcSt11char_traitsIcESaIcEEC1Ev
libstdc++.so.6:_ZNSt7__cxx1119basic_ostringstreamIcSt11char_traitsIcESaIcEED1Ev
libstdc++.so.6:_ZNSt7__cxx117collateIcE2idE
libstdc++.so.6:_ZNSt7__cxx118messagesIcE2idE
libstdc++.so.6:_ZNSt7__cxx118numpunctIcE2idE
libstdc++.so.6:_ZNSt7codecvtIcc11__mbstate_tE2idE
libstdc++.so.6:_ZNSt7codecvtIcc11__mbstate_tEC2Em
libstdc++.so.6:_ZNSt7codecvtIcc11__mbstate_tED2Ev
libstdc++.so.6:_ZNSt8__detail15_List_node_base11_M_transferEPS0_S1_
libstdc++.so.6:_ZNSt8__detail15_List_node_base4swapERS0_S1_
libstdc++.so.6:_ZNSt8__detail15_List_node_base7_M_hookEPS0_
libstdc++.so.6:_ZNSt8__detail15_List_node_base9_M_unhookEv
libstdc++.so.6:_ZNSt8bad_castD2Ev
libstdc++.so.6:_ZNSt8ios_base13_M_grow_wordsEib
libstdc++.so.6:_ZNSt8ios_base6xallocEv
libstdc++.so.6:_ZNSt8ios_base7failureB5cxx11C1EPKcRKSt10error_code
libstdc++.so.6:_ZNSt8ios_base7failureB5cxx11C1ERKNSt7__cxx1112basic_stringIcSt11char_traitsIcESaIcEEE
libstdc++.so.6:_ZNSt8ios_base7failureB5cxx11C2EPKcRKSt10error_code
libstdc++.so.6:_ZNSt8ios_base7failureB5cxx11D1Ev
libstdc++.so.6:_ZNSt8ios_base7failureB5cxx11D2Ev
libstdc++.so.6:_ZNSt8ios_baseC2Ev
libstdc++.so.6:_ZNSt8ios_baseD2Ev
libstdc++.so.6:_ZNSt9bad_allocD1Ev
libstdc++.so.6:_ZNSt9bad_allocD2Ev
libstdc++.so.6:_ZNSt9basic_iosIcSt11char_traitsIcEE4initEPSt15basic_streambufIcS1_E
libstdc++.so.6:_ZNSt9basic_iosIcSt11char_traitsIcEE5clearESt12_Ios_Iostate
libstdc++.so.6:_ZNSt9basic_iosIcSt11char_traitsIcEE5imbueERKSt6locale
libstdc++.so.6:_ZNSt9basic_iosIcSt11char_traitsIcEE5rdbufEPSt15basic_streambufIcS1_E
libstdc++.so.6:_ZNSt9exceptionD2Ev
libstdc++.so.6:_ZSt11_Hash_bytesPKvmm
libstdc++.so.6:_ZSt11__once_call
libstdc++.so.6:_ZSt15__once_callable
libstdc++.so.6:_ZSt16__ostream_insertIcSt11char_traitsIcEERSt13basic_ostreamIT_T0_ES6_PKS3_l
libstdc++.so.6:_ZSt16__throw_bad_castv
libstdc++.so.6:_ZSt17__throw_bad_allocv
libstdc++.so.6:_ZSt17current_exceptionv
libstdc++.so.6:_ZSt17iostream_categoryv
libstdc++.so.6:_ZSt17rethrow_exceptionNSt15__exception_ptr13exception_ptrE
libstdc++.so.6:_ZSt18_Rb_tree_decrementPSt18_Rb_tree_node_base
libstdc++.so.6:_ZSt18_Rb_tree_incrementPSt18_Rb_tree_node_base
libstdc++.so.6:_ZSt19__throw_logic_errorPKc
libstdc++.so.6:_ZSt19__throw_regex_errorNSt15regex_constants10error_typeE
libstdc++.so.6:_ZSt20__throw_length_errorPKc
libstdc++.so.6:_ZSt20__throw_out_of_rangePKc
libstdc++.so.6:_ZSt20__throw_system_errori
libstdc++.so.6:_ZSt21__glibcxx_assert_failPKciS0_S0_
libstdc++.so.6:_ZSt21ios_base_library_initv
libstdc++.so.6:_ZSt24__throw_invalid_argumentPKc
libstdc++.so.6:_ZSt24__throw_out_of_range_fmtPKcz
libstdc++.so.6:_ZSt25__throw_bad_function_callv
libstdc++.so.6:_ZSt28_Rb_tree_rebalance_for_erasePSt18_Rb_tree_node_baseRS_
libstdc++.so.6:_ZSt28__throw_bad_array_new_lengthv
libstdc++.so.6:_ZSt29_Rb_tree_insert_and_rebalancebPSt18_Rb_tree_node_baseS0_RS_
libstdc++.so.6:_ZSt2wsIcSt11char_traitsIcEERSt13basic_istreamIT_T0_ES6_
libstdc++.so.6:_ZSt4cerr
libstdc++.so.6:_ZSt4cout
libstdc++.so.6:_ZSt4endlIcSt11char_traitsIcEERSt13basic_ostreamIT_T0_ES6_
libstdc++.so.6:_ZSt7getlineIcSt11char_traitsIcESaIcEERSt13basic_istreamIT_T0_ES7_RNSt7__cxx1112basic_stringIS4_S5_T1_EES4_
libstdc++.so.6:_ZSt8to_charsPcS_d
libstdc++.so.6:_ZSt9terminatev
libstdc++.so.6:_ZStlsISt11char_traitsIcEERSt13basic_ostreamIcT_ES5_PKc
libstdc++.so.6:_ZStlsISt11char_traitsIcEERSt13basic_ostreamIcT_ES5_c
libstdc++.so.6:_ZStlsIcSt11char_traitsIcESaIcEERSt13basic_ostreamIT_T0_ES7_RKNSt7__cxx1112basic_stringIS4_S5_T1_EE
libstdc++.so.6:_ZStrsIcSt11char_traitsIcESaIcEERSt13basic_istreamIT_T0_ES7_RNSt7__cxx1112basic_stringIS4_S5_T1_EE
libstdc++.so.6:_ZTINSt10filesystem7__cxx1116filesystem_errorE
libstdc++.so.6:_ZTINSt3_V214error_categoryE
libstdc++.so.6:_ZTINSt6thread6_StateE
libstdc++.so.6:_ZTINSt7__cxx117collateIcEE
libstdc++.so.6:_ZTINSt8ios_base7failureB5cxx11E
libstdc++.so.6:_ZTIPKc
libstdc++.so.6:_ZTISt11logic_error
libstdc++.so.6:_ZTISt11regex_error
libstdc++.so.6:_ZTISt12domain_error
libstdc++.so.6:_ZTISt12length_error
libstdc++.so.6:_ZTISt12out_of_range
libstdc++.so.6:_ZTISt13runtime_error
libstdc++.so.6:_ZTISt14overflow_error
libstdc++.so.6:_ZTISt15basic_streambufIcSt11char_traitsIcEE
libstdc++.so.6:_ZTISt16invalid_argument
libstdc++.so.6:_ZTISt16nested_exception
libstdc++.so.6:_ZTISt7codecvtIcc11__mbstate_tE
libstdc++.so.6:_ZTISt8bad_cast
libstdc++.so.6:_ZTISt9bad_alloc
libstdc++.so.6:_ZTISt9exception
libstdc++.so.6:_ZTIb
libstdc++.so.6:_ZTId
libstdc++.so.6:_ZTIf
libstdc++.so.6:_ZTIi
libstdc++.so.6:_ZTIj
libstdc++.so.6:_ZTIv
libstdc++.so.6:_ZTTNSt7__cxx1118basic_stringstreamIcSt11char_traitsIcESaIcEEE
libstdc++.so.6:_ZTTNSt7__cxx1119basic_istringstreamIcSt11char_traitsIcESaIcEEE
libstdc++.so.6:_ZTTNSt7__cxx1119basic_ostringstreamIcSt11char_traitsIcESaIcEEE
libstdc++.so.6:_ZTTSi
libstdc++.so.6:_ZTTSt14basic_ifstreamIcSt11char_traitsIcEE
libstdc++.so.6:_ZTVN10__cxxabiv116__enum_type_infoE
libstdc++.so.6:_ZTVN10__cxxabiv117__class_type_infoE
libstdc++.so.6:_ZTVN10__cxxabiv119__pointer_type_infoE
libstdc++.so.6:_ZTVN10__cxxabiv120__function_type_infoE
libstdc++.so.6:_ZTVN10__cxxabiv120__si_class_type_infoE
libstdc++.so.6:_ZTVN10__cxxabiv121__vmi_class_type_infoE
libstdc++.so.6:_ZTVN10__cxxabiv129__pointer_to_member_type_infoE
libstdc++.so.6:_ZTVNSt7__cxx1115basic_stringbufIcSt11char_traitsIcESaIcEEE
libstdc++.so.6:_ZTVNSt8ios_base7failureB5cxx11E
libstdc++.so.6:_ZTVSi
libstdc++.so.6:_ZTVSo
libstdc++.so.6:_ZTVSt11regex_error
libstdc++.so.6:_ZTVSt12length_error
libstdc++.so.6:_ZTVSt12out_of_range
libstdc++.so.6:_ZTVSt12system_error
libstdc++.so.6:_ZTVSt15basic_streambufIcSt11char_traitsIcEE
libstdc++.so.6:_ZTVSt16invalid_argument
libstdc++.so.6:_ZTVSt16nested_exception
libstdc++.so.6:_ZTVSt9bad_alloc
libstdc++.so.6:_ZdaPv
libstdc++.so.6:_ZdaPvm
libstdc++.so.6:_ZdlPv
libstdc++.so.6:_ZdlPvm
libstdc++.so.6:_Znam
libstdc++.so.6:_Znwm
libstdc++.so.6:_ZnwmRKSt9nothrow_t
libstdc++.so.6:__cxa_allocate_exception
libstdc++.so.6:__cxa_bad_cast
libstdc++.so.6:__cxa_begin_catch
libstdc++.so.6:__cxa_demangle
libstdc++.so.6:__cxa_end_catch
libstdc++.so.6:__cxa_free_exception
libstdc++.so.6:__cxa_guard_abort
libstdc++.so.6:__cxa_guard_acquire
libstdc++.so.6:__cxa_guard_release
libstdc++.so.6:__cxa_init_primary_exception
libstdc++.so.6:__cxa_pure_virtual
libstdc++.so.6:__cxa_rethrow
libstdc++.so.6:__cxa_thread_atexit
libstdc++.so.6:__cxa_throw
libstdc++.so.6:__dynamic_cast
libstdc++.so.6:__gxx_personality_v0
libstdc++.so.6:__once_proxy
libtcl8.6.so:TclFreeObj
libtcl8.6.so:Tcl_AppendElement
libtcl8.6.so:Tcl_AppendResult
libtcl8.6.so:Tcl_CommandComplete
libtcl8.6.so:Tcl_CreateCommand
libtcl8.6.so:Tcl_CreateInterp
libtcl8.6.so:Tcl_CreateObjCommand
libtcl8.6.so:Tcl_DeleteCommand
libtcl8.6.so:Tcl_DeleteCommandFromToken
libtcl8.6.so:Tcl_DeleteHashEntry
libtcl8.6.so:Tcl_DictObjGet
libtcl8.6.so:Tcl_DuplicateObj
libtcl8.6.so:Tcl_Eval
libtcl8.6.so:Tcl_EvalObjEx
libtcl8.6.so:Tcl_GetAssocData
libtcl8.6.so:Tcl_GetBooleanFromObj
libtcl8.6.so:Tcl_GetCommandInfo
libtcl8.6.so:Tcl_GetDouble
libtcl8.6.so:Tcl_GetDoubleFromObj
libtcl8.6.so:Tcl_GetInt
libtcl8.6.so:Tcl_GetIntFromObj
libtcl8.6.so:Tcl_GetLongFromObj
libtcl8.6.so:Tcl_GetObjResult
libtcl8.6.so:Tcl_GetReturnOptions
libtcl8.6.so:Tcl_GetString
libtcl8.6.so:Tcl_GetStringFromObj
libtcl8.6.so:Tcl_GetStringResult
libtcl8.6.so:Tcl_GetVar2
libtcl8.6.so:Tcl_GetWideIntFromObj
libtcl8.6.so:Tcl_Init
libtcl8.6.so:Tcl_InitHashTable
libtcl8.6.so:Tcl_ListObjAppendElement
libtcl8.6.so:Tcl_ListObjGetElements
libtcl8.6.so:Tcl_MainEx
libtcl8.6.so:Tcl_NewDoubleObj
libtcl8.6.so:Tcl_NewIntObj
libtcl8.6.so:Tcl_NewListObj
libtcl8.6.so:Tcl_NewLongObj
libtcl8.6.so:Tcl_NewStringObj
libtcl8.6.so:Tcl_ObjGetVar2
libtcl8.6.so:Tcl_ObjSetVar2
libtcl8.6.so:Tcl_PkgProvideEx
libtcl8.6.so:Tcl_RecordAndEval
libtcl8.6.so:Tcl_ResetResult
libtcl8.6.so:Tcl_SetAssocData
libtcl8.6.so:Tcl_SetErrorCode
libtcl8.6.so:Tcl_SetIntObj
libtcl8.6.so:Tcl_SetObjResult
libtcl8.6.so:Tcl_SetResult
libtcl8.6.so:Tcl_SetVar2
libtcl8.6.so:Tcl_TraceVar2
libtcl8.6.so:Tcl_VarEval
libyaml-cpp.so.0.7:_ZN4YAML11InvalidNodeD1Ev
libyaml-cpp.so.0.7:_ZN4YAML12BadSubscriptD1Ev
libyaml-cpp.so.0.7:_ZN4YAML13BadConversionD2Ev
libyaml-cpp.so.0.7:_ZN4YAML4LoadERKNSt7__cxx1112basic_stringIcSt11char_traitsIcESaIcEEE
libyaml-cpp.so.0.7:_ZN4YAML6detail13memory_holder5mergeERS1_
libyaml-cpp.so.0.7:_ZN4YAML6detail4node8m_amountE
libyaml-cpp.so.0.7:_ZN4YAML6detail6memory11create_nodeEv
libyaml-cpp.so.0.7:_ZN4YAML6detail9node_data10set_scalarERKNSt7__cxx1112basic_stringIcSt11char_traitsIcESaIcEEE
libyaml-cpp.so.0.7:_ZN4YAML6detail9node_data12mark_definedEv
libyaml-cpp.so.0.7:_ZN4YAML6detail9node_data14convert_to_mapERKSt10shared_ptrINS0_13memory_holderEE
libyaml-cpp.so.0.7:_ZN4YAML6detail9node_data15insert_map_pairERNS0_4nodeES3_
libyaml-cpp.so.0.7:_ZN4YAML6detail9node_data3endEv
libyaml-cpp.so.0.7:_ZN4YAML6detail9node_data5beginEv
libyaml-cpp.so.0.7:_ZN4YAML6detail9node_data8set_nullEv
libyaml-cpp.so.0.7:_ZN4YAML6detail9node_data9push_backERNS0_4nodeERKSt10shared_ptrINS0_13memory_holderEE
libyaml-cpp.so.0.7:_ZN4YAML6detail9node_data9set_styleENS_12EmitterStyle5valueE
libyaml-cpp.so.0.7:_ZN4YAML7convertIbE6decodeERKNS_4NodeERb
libyaml-cpp.so.0.7:_ZN4YAMLlsERSoRKNS_4NodeE
libyaml-cpp.so.0.7:_ZNK4YAML6detail9node_data4sizeEv
libz.so.1:gzclose
libz.so.1:gzopen
libz.so.1:gzread
