libKF6ColorScheme.so.6:_ZN12KColorSchemeC1EN8QPalette10ColorGroupENS_8ColorSetE28QExplicitlySharedDataPointerI13KSharedConfigE
libKF6ColorScheme.so.6:_ZN12KColorSchemeD1Ev
libKF6ColorScheme.so.6:_ZNK12KColorScheme10backgroundENS_14BackgroundRoleE
libKF6ConfigCore.so.6:_ZN12KConfigGroup10writeEntryEPKcRK10QByteArray6QFlagsIN11KConfigBase15WriteConfigFlagEE
libKF6ConfigCore.so.6:_ZN12KConfigGroupC1ERK28QExplicitlySharedDataPointerI13KSharedConfigERK7QString
libKF6ConfigCore.so.6:_ZN12KConfigGroupD1Ev
libKF6ConfigCore.so.6:_ZN13KSharedConfig10openConfigERK7QString6QFlagsIN7KConfig8OpenFlagEEN14QStandardPaths16StandardLocationE
libKF6ConfigCore.so.6:_ZN19KConfigSkeletonItem8setLabelERK7QString
libKF6ConfigCore.so.6:_ZN19KCoreConfigSkeleton10ItemStringC1ERK7QStringS3_RS1_S3_NS0_4TypeE
libKF6ConfigCore.so.6:_ZN19KCoreConfigSkeleton11ItemIntListC1ERK7QStringS3_R5QListIiERKS5_
libKF6ConfigCore.so.6:_ZN19KCoreConfigSkeleton11setDefaultsEv
libKF6ConfigCore.so.6:_ZN19KCoreConfigSkeleton11useDefaultsEb
libKF6ConfigCore.so.6:_ZN19KCoreConfigSkeleton14usrSetDefaultsEv
libKF6ConfigCore.so.6:_ZN19KCoreConfigSkeleton14usrUseDefaultsEb
libKF6ConfigCore.so.6:_ZN19KCoreConfigSkeleton15setCurrentGroupERK7QString
libKF6ConfigCore.so.6:_ZN19KCoreConfigSkeleton4readEv
libKF6ConfigCore.so.6:_ZN19KCoreConfigSkeleton4saveEv
libKF6ConfigCore.so.6:_ZN19KCoreConfigSkeleton7ItemIntC1ERK7QStringS3_Rii
libKF6ConfigCore.so.6:_ZN19KCoreConfigSkeleton7addItemEP19KConfigSkeletonItemRK7QString
libKF6ConfigCore.so.6:_ZN19KCoreConfigSkeleton7usrReadEv
libKF6ConfigCore.so.6:_ZN19KCoreConfigSkeleton7usrSaveEv
libKF6ConfigCore.so.6:_ZN19KCoreConfigSkeleton8ItemBoolC1ERK7QStringS3_Rbb
libKF6ConfigCore.so.6:_ZN19KCoreConfigSkeleton8ItemEnumC1ERK7QStringS3_RiRK5QListINS0_6ChoiceEEi
libKF6ConfigCore.so.6:_ZN19KCoreConfigSkeletonD2Ev
libKF6ConfigCore.so.6:_ZNK12KConfigGroup9readEntryEPKcRK8QVariant
libKF6ConfigCore.so.6:_ZNK19KCoreConfigSkeleton11isImmutableERK7QString
libKF6ConfigCore.so.6:_ZNK19KCoreConfigSkeleton12currentGroupEv
libKF6ConfigCore.so.6:_ZNK19KCoreConfigSkeleton8findItemERK7QString
libKF6ConfigGui.so.6:_ZN15KConfigSkeleton11qt_metacallEN11QMetaObject4CallEiPPv
libKF6ConfigGui.so.6:_ZN15KConfigSkeleton11qt_metacastEPKc
libKF6ConfigGui.so.6:_ZN15KConfigSkeleton9ItemColorC1ERK7QStringS3_R6QColorRKS4_
libKF6ConfigGui.so.6:_ZN15KConfigSkeletonC2E28QExplicitlySharedDataPointerI13KSharedConfigEP7QObject
libKF6ConfigGui.so.6:_ZNK15KConfigSkeleton10metaObjectEv
libKF6ConfigGui.so.6:_ZTI15KConfigSkeleton
libKF6ConfigWidgets.so.6:_ZN13KConfigDialog10hasChangedEv
libKF6ConfigWidgets.so.6:_ZN13KConfigDialog10showDialogERK7QString
libKF6ConfigWidgets.so.6:_ZN13KConfigDialog11qt_metacallEN11QMetaObject4CallEiPPv
libKF6ConfigWidgets.so.6:_ZN13KConfigDialog11qt_metacastEPKc
libKF6ConfigWidgets.so.6:_ZN13KConfigDialog13updateWidgetsEv
libKF6ConfigWidgets.so.6:_ZN13KConfigDialog14updateSettingsEv
libKF6ConfigWidgets.so.6:_ZN13KConfigDialog15settingsChangedERK7QString
libKF6ConfigWidgets.so.6:_ZN13KConfigDialog19settingsChangedSlotEv
libKF6ConfigWidgets.so.6:_ZN13KConfigDialog7addPageEP7QWidgetRK7QStringS4_S4_b
libKF6ConfigWidgets.so.6:_ZN13KConfigDialog8showHelpEv
libKF6ConfigWidgets.so.6:_ZN13KConfigDialog9isDefaultEv
libKF6ConfigWidgets.so.6:_ZN13KConfigDialog9showEventEP10QShowEvent
libKF6ConfigWidgets.so.6:_ZN13KConfigDialogC2EP7QWidgetRK7QStringP19KCoreConfigSkeleton
libKF6ConfigWidgets.so.6:_ZN13KConfigDialogD2Ev
libKF6ConfigWidgets.so.6:_ZN15KStandardAction17_k_createInternalENS_14StandardActionEP7QObject
libKF6ConfigWidgets.so.6:_ZNK13KConfigDialog10metaObjectEv
libKF6ConfigWidgets.so.6:_ZTI13KConfigDialog
libKF6CoreAddons.so.6:_ZN10KAboutData11setHomepageERK7QString
libKF6CoreAddons.so.6:_ZN10KAboutData14setProductNameERK10QByteArray
libKF6CoreAddons.so.6:_ZN10KAboutData16setupCommandLineEP18QCommandLineParser
libKF6CoreAddons.so.6:_ZN10KAboutData18processCommandLineEP18QCommandLineParser
libKF6CoreAddons.so.6:_ZN10KAboutData18setApplicationDataERKS_
libKF6CoreAddons.so.6:_ZN10KAboutData21setOrganizationDomainERK10QByteArray
libKF6CoreAddons.so.6:_ZN10KAboutData9addAuthorERK7QStringS2_S2_S2_RK4QUrl
libKF6CoreAddons.so.6:_ZN10KAboutData9addCreditERK7QStringS2_S2_S2_RK4QUrl
libKF6CoreAddons.so.6:_ZN10KAboutDataC1ERK7QStringS2_S2_S2_N13KAboutLicense10LicenseKeyES2_S2_S2_S2_
libKF6CoreAddons.so.6:_ZN10KAboutDataD1Ev
libKF6CoreAddons.so.6:_ZN15KPluginMetaDataD1Ev
libKF6CoreAddons.so.6:_ZN4KJob4execEv
libKF6CoreAddons.so.6:_ZN7KFormatC1ERK7QLocale
libKF6CoreAddons.so.6:_ZN7KFormatD1Ev
libKF6CoreAddons.so.6:_ZNK15KPluginMetaData4nameEv
libKF6CoreAddons.so.6:_ZNK15KPluginMetaData8pluginIdEv
libKF6CoreAddons.so.6:_ZNK4KJob10uiDelegateEv
libKF6CoreAddons.so.6:_ZNK4KJob5errorEv
libKF6CoreAddons.so.6:_ZNK7KFormat14formatDurationEy6QFlagsINS_20DurationFormatOptionEE
libKF6CoreAddons.so.6:_ZNK7KFormat22formatSpelloutDurationEy
libKF6Crash.so.6:_ZN6KCrash10initializeEv
libKF6DBusAddons.so.6:_ZN12KDBusService16staticMetaObjectE
libKF6DBusAddons.so.6:_ZN12KDBusService17activateRequestedERK5QListI7QStringERKS1_
libKF6DBusAddons.so.6:_ZN12KDBusServiceC1E6QFlagsINS_13StartupOptionEEP7QObject
libKF6DBusAddons.so.6:_ZN12KDBusServiceD1Ev
libKF6I18n.so.6:_Z5ki18nPKc
libKF6I18n.so.6:_Z6ki18ncPKcS0_
libKF6I18n.so.6:_Z6kxi18nPKc
libKF6I18n.so.6:_Z7kxi18ncPKcS0_
libKF6I18n.so.6:_Z8kxi18ncpPKcS0_S0_
libKF6I18n.so.6:_ZN16KLocalizedString20setApplicationDomainERK10QByteArray
libKF6I18n.so.6:_ZN16KLocalizedStringC1Ev
libKF6I18n.so.6:_ZN16KLocalizedStringD1Ev
libKF6I18n.so.6:_ZN16KLocalizedStringaSERKS_
libKF6I18n.so.6:_ZNK16KLocalizedString4subsERK7QStringi5QChar
libKF6I18n.so.6:_ZNK16KLocalizedString4subsERKS_i5QChar
libKF6I18n.so.6:_ZNK16KLocalizedString4subsEiii5QChar
libKF6I18n.so.6:_ZNK16KLocalizedString4subsEjii5QChar
libKF6I18n.so.6:_ZNK16KLocalizedString4subsExii5QChar
libKF6I18n.so.6:_ZNK16KLocalizedString7isEmptyEv
libKF6I18n.so.6:_ZNK16KLocalizedString8toStringEv
libKF6KIOCore.so.6:_ZN3KIO4moveERK4QUrlS2_6QFlagsINS_7JobFlagEE
libKF6KIOCore.so.6:_ZN3KIO9file_copyERK4QUrlS2_i6QFlagsINS_7JobFlagEE
libKF6KIOGui.so.6:_ZN3KIO10OpenUrlJobC1ERK4QUrlRK7QStringP7QObject
libKF6WidgetsAddons.so.6:_ZN11KJobWidgets9setWindowEP7QObjectP7QWidget
libKF6WidgetsAddons.so.6:_ZN11KMessageBox11informationEP7QWidgetRK7QStringS4_S4_6QFlagsINS_6OptionEE
libKF6WidgetsAddons.so.6:_ZN11KMessageBox13detailedErrorEP7QWidgetRK7QStringS4_S4_6QFlagsINS_6OptionEE
libKF6WidgetsAddons.so.6:_ZN11KMessageBox17warningTwoActionsEP7QWidgetRK7QStringS4_RK8KGuiItemS7_S4_6QFlagsINS_6OptionEE
libKF6WidgetsAddons.so.6:_ZN11KMessageBox21warningContinueCancelEP7QWidgetRK7QStringS4_RK8KGuiItemS7_S4_6QFlagsINS_6OptionEE
libKF6WidgetsAddons.so.6:_ZN11KMessageBox25warningContinueCancelListEP7QWidgetRK7QStringRK5QListIS2_ES4_RK8KGuiItemSB_S4_6QFlagsINS_6OptionEE
libKF6WidgetsAddons.so.6:_ZN11KMessageBox5errorEP7QWidgetRK7QStringS4_6QFlagsINS_6OptionEE
libKF6WidgetsAddons.so.6:_ZN11KPageDialog11setFaceTypeENS_8FaceTypeE
libKF6WidgetsAddons.so.6:_ZN12KColorButtonC1EP7QWidget
libKF6WidgetsAddons.so.6:_ZN14KMessageWidget11setPositionENS_8PositionE
libKF6WidgetsAddons.so.6:_ZN14KMessageWidget12animatedHideEv
libKF6WidgetsAddons.so.6:_ZN14KMessageWidget12animatedShowEv
libKF6WidgetsAddons.so.6:_ZN14KMessageWidget14setMessageTypeENS_11MessageTypeE
libKF6WidgetsAddons.so.6:_ZN14KMessageWidget21setCloseButtonVisibleEb
libKF6WidgetsAddons.so.6:_ZN14KMessageWidget7setTextERK7QString
libKF6WidgetsAddons.so.6:_ZN14KMessageWidget9addActionEP7QAction
libKF6WidgetsAddons.so.6:_ZN14KMessageWidgetC1EP7QWidget
libKF6WidgetsAddons.so.6:_ZN15KPasswordDialog9setPromptERK7QString
libKF6WidgetsAddons.so.6:_ZN15KPasswordDialogC1EP7QWidgetRK6QFlagsINS_19KPasswordDialogFlagEE
libKF6WidgetsAddons.so.6:_ZN15KPasswordDialogD1Ev
libKF6WidgetsAddons.so.6:_ZN16KStandardGuiItem6cancelEv
libKF6WidgetsAddons.so.6:_ZN18KNewPasswordWidget16staticMetaObjectE
libKF6WidgetsAddons.so.6:_ZN18KNewPasswordWidget21passwordStatusChangedEv
libKF6WidgetsAddons.so.6:_ZN18KNewPasswordWidget24setMaximumPasswordLengthEi
libKF6WidgetsAddons.so.6:_ZN18KNewPasswordWidget24setMinimumPasswordLengthEi
libKF6WidgetsAddons.so.6:_ZN18KNewPasswordWidget25setBackgroundWarningColorERK6QColor
libKF6WidgetsAddons.so.6:_ZN18KNewPasswordWidgetC1EP7QWidget
libKF6WidgetsAddons.so.6:_ZN8KGuiItemC1ERK7QStringS2_S2_S2_
libKF6WidgetsAddons.so.6:_ZN8KGuiItemD1Ev
libKF6WidgetsAddons.so.6:_ZNK11KPageDialog6buttonEN16QDialogButtonBox14StandardButtonE
libKF6WidgetsAddons.so.6:_ZNK15KPasswordDialog8passwordEv
libKF6WidgetsAddons.so.6:_ZNK18KNewPasswordWidget14passwordStatusEv
libKF6WidgetsAddons.so.6:_ZNK18KNewPasswordWidget8passwordEv
libKF6WindowSystem.so.6:_ZN13KWindowSystem14activateWindowEP7QWindowl
libKF6WindowSystem.so.6:_ZN13KWindowSystem15updateStartupIdEP7QWindow
libKF6XmlGui.so.6:_ZN11KMainWindow10closeEventEP11QCloseEvent
libKF6XmlGui.so.6:_ZN11KMainWindow10queryCloseEv
libKF6XmlGui.so.6:_ZN11KMainWindow10setCaptionERK7QString
libKF6XmlGui.so.6:_ZN11KMainWindow10setCaptionERK7QStringb
libKF6XmlGui.so.6:_ZN11KMainWindow13keyPressEventEP9QKeyEvent
libKF6XmlGui.so.6:_ZN11KMainWindow15setPlainCaptionERK7QString
libKF6XmlGui.so.6:_ZN11KMainWindow20readGlobalPropertiesEP7KConfig
libKF6XmlGui.so.6:_ZN11KMainWindow20saveGlobalPropertiesEP7KConfig
libKF6XmlGui.so.6:_ZN13KXMLGUIClient10setXMLFileERK7QStringbb
libKF6XmlGui.so.6:_ZN13KXMLGUIClient12stateChangedERK7QStringNS_18ReverseStateChangeE
libKF6XmlGui.so.6:_ZN13KXMLGUIClient12virtual_hookEiPv
libKF6XmlGui.so.6:_ZN13KXMLGUIClient14setDOMDocumentERK12QDomDocumentb
libKF6XmlGui.so.6:_ZN13KXMLGUIClient15setLocalXMLFileERK7QString
libKF6XmlGui.so.6:_ZN13KXMLGUIClient16setComponentNameERK7QStringS2_
libKF6XmlGui.so.6:_ZN13KXMLGUIClient6setXMLERK7QStringb
libKF6XmlGui.so.6:_ZN13KXMLGUIClientC2Ev
libKF6XmlGui.so.6:_ZN13KXMLGUIClientD2Ev
libKF6XmlGui.so.6:_ZN13KXmlGuiWindow10guiFactoryEv
libKF6XmlGui.so.6:_ZN13KXmlGuiWindow11qt_metacallEN11QMetaObject4CallEiPPv
libKF6XmlGui.so.6:_ZN13KXmlGuiWindow11qt_metacastEPKc
libKF6XmlGui.so.6:_ZN13KXmlGuiWindow16slotStateChangedERK7QString
libKF6XmlGui.so.6:_ZN13KXmlGuiWindow16staticMetaObjectE
libKF6XmlGui.so.6:_ZN13KXmlGuiWindow17configureToolbarsEv
libKF6XmlGui.so.6:_ZN13KXmlGuiWindow20saveNewToolbarConfigEv
libKF6XmlGui.so.6:_ZN13KXmlGuiWindow23applyMainWindowSettingsERK12KConfigGroup
libKF6XmlGui.so.6:_ZN13KXmlGuiWindow5eventEP6QEvent
libKF6XmlGui.so.6:_ZN13KXmlGuiWindow8setupGUIE6QFlagsINS_20StandardWindowOptionEERK7QString
libKF6XmlGui.so.6:_ZN13KXmlGuiWindowC2EP7QWidget6QFlagsIN2Qt10WindowTypeEE
libKF6XmlGui.so.6:_ZN13KXmlGuiWindowD0Ev
libKF6XmlGui.so.6:_ZN13KXmlGuiWindowD1Ev
libKF6XmlGui.so.6:_ZN13KXmlGuiWindowD2Ev
libKF6XmlGui.so.6:_ZN14KXMLGUIBuilder11finalizeGUIEP13KXMLGUIClient
libKF6XmlGui.so.6:_ZN14KXMLGUIBuilder12virtual_hookEiPv
libKF6XmlGui.so.6:_ZN14KXMLGUIBuilder15createContainerEP7QWidgetiRK11QDomElementRP7QAction
libKF6XmlGui.so.6:_ZN14KXMLGUIBuilder15removeContainerEP7QWidgetS1_R11QDomElementP7QAction
libKF6XmlGui.so.6:_ZN14KXMLGUIBuilder19createCustomElementEP7QWidgetiRK11QDomElement
libKF6XmlGui.so.6:_ZN14KXMLGUIFactory9containerERK7QStringP13KXMLGUIClientb
libKF6XmlGui.so.6:_ZN17KActionCollection18setDefaultShortcutEP7QActionRK12QKeySequence
libKF6XmlGui.so.6:_ZN17KActionCollection9addActionERK7QStringP7QAction
libKF6XmlGui.so.6:_ZN17KActionCollection9addActionERK7QStringPK7QObjectPKc
libKF6XmlGui.so.6:_ZN23KAboutApplicationDialogC1ERK10KAboutDataP7QWidget
libKF6XmlGui.so.6:_ZN23KAboutApplicationDialogD1Ev
libKF6XmlGui.so.6:_ZNK13KXMLGUIClient11domDocumentEv
libKF6XmlGui.so.6:_ZNK13KXMLGUIClient12localXMLFileEv
libKF6XmlGui.so.6:_ZNK13KXMLGUIClient13componentNameEv
libKF6XmlGui.so.6:_ZNK13KXMLGUIClient16actionCollectionEv
libKF6XmlGui.so.6:_ZNK13KXMLGUIClient6actionERK11QDomElement
libKF6XmlGui.so.6:_ZNK13KXMLGUIClient7xmlFileEv
libKF6XmlGui.so.6:_ZNK13KXmlGuiWindow10metaObjectEv
libKF6XmlGui.so.6:_ZNK14KXMLGUIBuilder10customTagsEv
libKF6XmlGui.so.6:_ZNK14KXMLGUIBuilder13containerTagsEv
libKF6XmlGui.so.6:_ZNK17KActionCollection6actionERK7QString
libKF6XmlGui.so.6:_ZTI13KXmlGuiWindow
libKF6XmlGui.so.6:_ZTv0_n24_N13KXmlGuiWindowD0Ev
libKF6XmlGui.so.6:_ZTv0_n24_N13KXmlGuiWindowD1Ev
libQt6Core.so.6:_Z20qt_qFindChild_helperPK7QObject14QAnyStringViewRK11QMetaObject6QFlagsIN2Qt15FindChildOptionEE
libQt6Core.so.6:_Z21qRegisterResourceDataiPKhS0_S0_
libQt6Core.so.6:_Z23qUnregisterResourceDataiPKhS0_S0_
libQt6Core.so.6:_Z23qt_qFindChildren_helperPK7QObject14QAnyStringViewRK11QMetaObjectP5QListIPvE6QFlagsIN2Qt15FindChildOptionEE
libQt6Core.so.6:_Z26qt_QMetaEnum_debugOperatorR6QDebugxPK11QMetaObjectPKc
libQt6Core.so.6:_Z30qt_QMetaEnum_flagDebugOperatorR6QDebugyPK11QMetaObjectPKc
libQt6Core.so.6:_ZN10QArrayData10deallocateEPS_xx
libQt6Core.so.6:_ZN10QArrayData19reallocateUnalignedEPS_PvxxNS_16AllocationOptionE
libQt6Core.so.6:_ZN10QArrayData8allocateEPPS_xxxNS_16AllocationOptionE
libQt6Core.so.6:_ZN10QByteArray11reallocDataExN10QArrayData16AllocationOptionE
libQt6Core.so.6:_ZN10QByteArray6appendEc
libQt6Core.so.6:_ZN10QByteArray6insertEx14QByteArrayView
libQt6Core.so.6:_ZN10QByteArrayC1EPKcx
libQt6Core.so.6:_ZN10QEventLoop4execE6QFlagsINS_17ProcessEventsFlagEE
libQt6Core.so.6:_ZN10QEventLoop4quitEv
libQt6Core.so.6:_ZN10QEventLoopC1EP7QObject
libQt6Core.so.6:_ZN10QEventLoopD1Ev
libQt6Core.so.6:_ZN11QBasicMutex12lockInternalEv
libQt6Core.so.6:_ZN11QBasicMutex19unlockInternalFutexEPv
libQt6Core.so.6:_ZN11QDataStreamlsEi
libQt6Core.so.6:_ZN11QDataStreamrsERi
libQt6Core.so.6:_ZN11QFileDevice5closeEv
libQt6Core.so.6:_ZN11QMetaObject10ConnectionD1Ev
libQt6Core.so.6:_ZN11QMetaObject18connectSlotsByNameEP7QObject
libQt6Core.so.6:_ZN11QMetaObject8activateEP7QObjectPKS_iPPv
libQt6Core.so.6:_ZN11QTextStream5flushEv
libQt6Core.so.6:_ZN11QTextStreamC1EP7QString6QFlagsIN13QIODeviceBase12OpenModeFlagEE
libQt6Core.so.6:_ZN11QTextStreamC1EP9QIODevice
libQt6Core.so.6:_ZN11QTextStreamD1Ev
libQt6Core.so.6:_ZN11QTextStreamlsEPKc
libQt6Core.so.6:_ZN11QTextStreamlsERK7QString
libQt6Core.so.6:_ZN11QTextStreamlsEc
libQt6Core.so.6:_ZN11QTextStreamlsEi
libQt6Core.so.6:_ZN13QElapsedTimer5startEv
libQt6Core.so.6:_ZN14QReadWriteLock14tryLockForReadE14QDeadlineTimer
libQt6Core.so.6:_ZN14QReadWriteLock6unlockEv
libQt6Core.so.6:_ZN14QTemporaryFile13setAutoRemoveEb
libQt6Core.so.6:_ZN14QTemporaryFile15setFileTemplateERK7QString
libQt6Core.so.6:_ZN14QTemporaryFileC1Ev
libQt6Core.so.6:_ZN14QTemporaryFileD1Ev
libQt6Core.so.6:_ZN15QtSharedPointer20ExternalRefCountData9getAndRefEPK7QObject
libQt6Core.so.6:_ZN16QCoreApplication14applicationPidEv
libQt6Core.so.6:_ZN16QCoreApplication15applicationNameEv
libQt6Core.so.6:_ZN16QCoreApplication9translateEPKcS1_S1_i
libQt6Core.so.6:_ZN18QCommandLineOptionC1ERK7QStringS2_S2_S2_
libQt6Core.so.6:_ZN18QCommandLineOptionD1Ev
libQt6Core.so.6:_ZN18QCommandLineParser7processERK16QCoreApplication
libQt6Core.so.6:_ZN18QCommandLineParser9addOptionERK18QCommandLineOption
libQt6Core.so.6:_ZN18QCommandLineParserC1Ev
libQt6Core.so.6:_ZN18QCommandLineParserD1Ev
libQt6Core.so.6:_ZN18QRegularExpression10setPatternERK7QString
libQt6Core.so.6:_ZN18QRegularExpressionC1ERK7QString6QFlagsINS_13PatternOptionEE
libQt6Core.so.6:_ZN18QRegularExpressionD1Ev
libQt6Core.so.6:_ZN23QRegularExpressionMatchD1Ev
libQt6Core.so.6:_ZN2Qt16staticMetaObjectE
libQt6Core.so.6:_ZN4QDirC1ERK7QString
libQt6Core.so.6:_ZN4QDirD1Ev
libQt6Core.so.6:_ZN4QUrl13fromLocalFileERK7QString
libQt6Core.so.6:_ZN4QUrlC1Ev
libQt6Core.so.6:_ZN4QUrlD1Ev
libQt6Core.so.6:_ZN5QChar15isNumber_helperEDi
libQt6Core.so.6:_ZN5QFile11setFileNameERK7QString
libQt6Core.so.6:_ZN5QFile14setPermissionsE6QFlagsIN11QFileDevice10PermissionEE
libQt6Core.so.6:_ZN5QFile4openE6QFlagsIN13QIODeviceBase12OpenModeFlagEE
libQt6Core.so.6:_ZN5QFile6existsERK7QString
libQt6Core.so.6:_ZN5QFileC1Ev
libQt6Core.so.6:_ZN5QFileD1Ev
libQt6Core.so.6:_ZN5QTime10fromStringERK7QString11QStringView
libQt6Core.so.6:_ZN5QTimeC1Eiiii
libQt6Core.so.6:_ZN6QDebug9putStringEPK5QCharm
libQt6Core.so.6:_ZN6QDebugD1Ev
libQt6Core.so.6:_ZN6QTimer16staticMetaObjectE
libQt6Core.so.6:_ZN6QTimer4stopEv
libQt6Core.so.6:_ZN6QTimer5startEi
libQt6Core.so.6:_ZN6QTimer7timeoutENS_14QPrivateSignalE
libQt6Core.so.6:_ZN6QTimerC1EP7QObject
libQt6Core.so.6:_ZN6QTimerD1Ev
libQt6Core.so.6:_ZN7QLocaleC1ENS_8LanguageENS_6ScriptENS_7CountryE
libQt6Core.so.6:_ZN7QLocaleC1Ev
libQt6Core.so.6:_ZN7QLocaleD1Ev
libQt6Core.so.6:_ZN7QLocaleaSERKS_
libQt6Core.so.6:_ZN7QObject10childEventEP11QChildEvent
libQt6Core.so.6:_ZN7QObject10disconnectEPKS_PKcS1_S3_
libQt6Core.so.6:_ZN7QObject10timerEventEP11QTimerEvent
libQt6Core.so.6:_ZN7QObject11connectImplEPKS_PPvS1_S3_PN9QtPrivate15QSlotObjectBaseEN2Qt14ConnectionTypeEPKiPK11QMetaObject
libQt6Core.so.6:_ZN7QObject11customEventEP6QEvent
libQt6Core.so.6:_ZN7QObject11deleteLaterEv
libQt6Core.so.6:_ZN7QObject11eventFilterEPS_P6QEvent
libQt6Core.so.6:_ZN7QObject12blockSignalsEb
libQt6Core.so.6:_ZN7QObject13connectNotifyERK11QMetaMethod
libQt6Core.so.6:_ZN7QObject13doSetPropertyEPKcRK8QVariantPS2_
libQt6Core.so.6:_ZN7QObject13setObjectNameE14QAnyStringView
libQt6Core.so.6:_ZN7QObject15doSetObjectNameERK7QString
libQt6Core.so.6:_ZN7QObject16disconnectNotifyERK11QMetaMethod
libQt6Core.so.6:_ZN7QObject16staticMetaObjectE
libQt6Core.so.6:_ZN7QObject5eventEP6QEvent
libQt6Core.so.6:_ZN7QString10fromLatin1E14QByteArrayView
libQt6Core.so.6:_ZN7QString14toLower_helperERS_
libQt6Core.so.6:_ZN7QString14trimmed_helperERKS_
libQt6Core.so.6:_ZN7QString17simplified_helperERKS_
libQt6Core.so.6:_ZN7QString17toIntegral_helperE11QStringViewPbi
libQt6Core.so.6:_ZN7QString6_emptyE
libQt6Core.so.6:_ZN7QString6appendERKS_
libQt6Core.so.6:_ZN7QString6numberEii
libQt6Core.so.6:_ZN7QString6numberExi
libQt6Core.so.6:_ZN7QString6removeERKS_N2Qt15CaseSensitivityE
libQt6Core.so.6:_ZN7QString7replaceERKS_S1_N2Qt15CaseSensitivityE
libQt6Core.so.6:_ZN7QString8fromUtf8E14QByteArrayView
libQt6Core.so.6:_ZN7QStringC1ExN2Qt14InitializationE
libQt6Core.so.6:_ZN7QStringaSERKS_
libQt6Core.so.6:_ZN7QThread5startENS_8PriorityE
libQt6Core.so.6:_ZN8QVariant13moveConstructE9QMetaTypePv
libQt6Core.so.6:_ZN8QVariantC1E5QSize
libQt6Core.so.6:_ZN8QVariantC1E9QMetaTypePKv
libQt6Core.so.6:_ZN8QVariantC1ERK7QString
libQt6Core.so.6:_ZN8QVariantC1Eb
libQt6Core.so.6:_ZN8QVariantC1Ei
libQt6Core.so.6:_ZN8QVariantC1Ey
libQt6Core.so.6:_ZN8QVariantD1Ev
libQt6Core.so.6:_ZN9QDateTime15currentDateTimeEv
libQt6Core.so.6:_ZN9QDateTimeD1Ev
libQt6Core.so.6:_ZN9QFileInfoC1ERK7QString
libQt6Core.so.6:_ZN9QFileInfoD1Ev
libQt6Core.so.6:_ZN9QIODevice8readLineEx
libQt6Core.so.6:_ZN9QMetaType14registerHelperEPKN9QtPrivate18QMetaTypeInterfaceE
libQt6Core.so.6:_ZN9QMetaType25registerNormalizedTypedefERK10QByteArrayS_
libQt6Core.so.6:_ZN9QMetaType7convertES_PKvS_Pv
libQt6Core.so.6:_ZN9QtPrivate12equalStringsE11QStringViewS0_
libQt6Core.so.6:_ZN9QtPrivate14compareStringsE11QStringViewS0_N2Qt15CaseSensitivityE
libQt6Core.so.6:_ZN9QtPrivate16QStringList_joinEPK5QListI7QStringEPK5QCharx
libQt6Core.so.6:_ZN9QtPrivate20QStringList_containsEPK5QListI7QStringE11QStringViewN2Qt15CaseSensitivityE
libQt6Core.so.6:_ZN9QtPrivate25QMetaTypeInterfaceWrapperI10QByteArrayE8metaTypeE
libQt6Core.so.6:_ZN9QtPrivate25QMetaTypeInterfaceWrapperI6QPointE8metaTypeE
libQt6Core.so.6:_ZN9QtPrivate25QMetaTypeInterfaceWrapperI7QStringE8metaTypeE
libQt6Core.so.6:_ZN9QtPrivate25QMetaTypeInterfaceWrapperIbE8metaTypeE
libQt6Core.so.6:_ZN9QtPrivate25QMetaTypeInterfaceWrapperIiE8metaTypeE
libQt6Core.so.6:_ZNK10QEventLoop9isRunningEv
libQt6Core.so.6:_ZNK11QMetaObject2trEPKcS1_i
libQt6Core.so.6:_ZNK11QMetaObject4castEPK7QObject
libQt6Core.so.6:_ZNK11QMetaObject9classNameEv
libQt6Core.so.6:_ZNK11QObjectData17dynamicMetaObjectEv
libQt6Core.so.6:_ZNK13QElapsedTimer7elapsedEv
libQt6Core.so.6:_ZNK14QMessageLogger5debugEv
libQt6Core.so.6:_ZNK14QMessageLogger5fatalEPKcz
libQt6Core.so.6:_ZNK14QMessageLogger7warningEv
libQt6Core.so.6:_ZNK14QTemporaryFile8fileNameEv
libQt6Core.so.6:_ZNK18QCommandLineParser5valueERK18QCommandLineOption
libQt6Core.so.6:_ZNK18QRegularExpression5matchERK7QStringxNS_9MatchTypeE6QFlagsINS_11MatchOptionEE
libQt6Core.so.6:_ZNK23QRegularExpressionMatch8capturedEi
libQt6Core.so.6:_ZNK23QRegularExpressionMatch8hasMatchEv
libQt6Core.so.6:_ZNK4QDir13canonicalPathEv
libQt6Core.so.6:_ZNK4QUrl11isLocalFileEv
libQt6Core.so.6:_ZNK4QUrl11toLocalFileEv
libQt6Core.so.6:_ZNK4QUrl7isEmptyEv
libQt6Core.so.6:_ZNK4QUrl8fileNameE6QFlagsINS_25ComponentFormattingOptionEE
libQt6Core.so.6:_ZNK4QUrl8toStringE12QUrlTwoFlagsINS_19UrlFormattingOptionENS_25ComponentFormattingOptionEE
libQt6Core.so.6:_ZNK5QTime7addSecsEi
libQt6Core.so.6:_ZNK5QTime8addMSecsEi
libQt6Core.so.6:_ZNK5QTime8toStringE11QStringView
libQt6Core.so.6:_ZNK7QLocale8toDoubleE11QStringViewPb
libQt6Core.so.6:_ZNK7QLocale8toStringERK9QDateTimeNS_10FormatTypeE
libQt6Core.so.6:_ZNK7QLocale8toStringEdci
libQt6Core.so.6:_ZNK7QLocale8toStringEx
libQt6Core.so.6:_ZNK7QLocale8toStringEy
libQt6Core.so.6:_ZNK7QObject10objectNameEv
libQt6Core.so.6:_ZNK7QObject6senderEv
libQt6Core.so.6:_ZNK7QString10startsWithERKS_N2Qt15CaseSensitivityE
libQt6Core.so.6:_ZNK7QString5splitE5QChar6QFlagsIN2Qt18SplitBehaviorFlagsEENS2_15CaseSensitivityE
libQt6Core.so.6:_ZNK7QString5splitERKS_6QFlagsIN2Qt18SplitBehaviorFlagsEENS3_15CaseSensitivityE
libQt6Core.so.6:_ZNK7QString7indexOfERKS_xN2Qt15CaseSensitivityE
libQt6Core.so.6:_ZNK7QString8arg_implE14QAnyStringViewi5QChar
libQt6Core.so.6:_ZNK7QString8arg_implExii5QChar
libQt6Core.so.6:_ZNK7QString8endsWithERKS_N2Qt15CaseSensitivityE
libQt6Core.so.6:_ZNK7QThread9isRunningEv
libQt6Core.so.6:_ZNK8QVariant11toULongLongEPb
libQt6Core.so.6:_ZNK8QVariant5toIntEPb
libQt6Core.so.6:_ZNK8QVariant8toStringEv
libQt6Core.so.6:_ZNK9QDateTime8toStringERK7QString
libQt6Core.so.6:_ZNK9QFileInfo17canonicalFilePathEv
libQt6Core.so.6:_ZNKR7QString3midExx
libQt6Core.so.6:_Zls6QDebugPK7QObject
libQt6Core.so.6:qt_resourceFeatureZstd
libQt6Core.so.6:qt_version_tag
libQt6Gui.so.6:_ZN12QKeySequenceC1E15QKeyCombinationS0_S0_S0_
libQt6Gui.so.6:_ZN12QKeySequenceC1ENS_11StandardKeyE
libQt6Gui.so.6:_ZN12QKeySequenceC1Eiiii
libQt6Gui.so.6:_ZN12QKeySequenceD1Ev
libQt6Gui.so.6:_ZN13QFontDatabase10systemFontENS_10SystemFontE
libQt6Gui.so.6:_ZN13QTextDocument11setPageSizeERK6QSizeF
libQt6Gui.so.6:_ZN13QTextDocument12drawContentsEP8QPainterRK6QRectF
libQt6Gui.so.6:_ZN13QTextDocument7setHtmlERK7QString
libQt6Gui.so.6:_ZN13QTextDocumentC1EP7QObject
libQt6Gui.so.6:_ZN13QTextDocumentD1Ev
libQt6Gui.so.6:_ZN15QGuiApplication13setWindowIconERK5QIcon
libQt6Gui.so.6:_ZN15QGuiApplication17setOverrideCursorERK7QCursor
libQt6Gui.so.6:_ZN15QGuiApplication21restoreOverrideCursorEv
libQt6Gui.so.6:_ZN15QGuiApplication22applicationDisplayNameEv
libQt6Gui.so.6:_ZN21QTextDocumentFragment8fromHtmlERK7QStringPK13QTextDocument
libQt6Gui.so.6:_ZN21QTextDocumentFragmentD1Ev
libQt6Gui.so.6:_ZN27QRegularExpressionValidatorC1ERK18QRegularExpressionP7QObject
libQt6Gui.so.6:_ZN5QFont9setWeightENS_6WeightE
libQt6Gui.so.6:_ZN5QFontC1Ev
libQt6Gui.so.6:_ZN5QFontD1Ev
libQt6Gui.so.6:_ZN5QFontaSERKS_
libQt6Gui.so.6:_ZN5QIcon9fromThemeERK7QString
libQt6Gui.so.6:_ZN5QIconC1ERK7QPixmap
libQt6Gui.so.6:_ZN5QIconC1Ev
libQt6Gui.so.6:_ZN5QIconD1Ev
libQt6Gui.so.6:_ZN5QIconaSERKS_
libQt6Gui.so.6:_ZN6QBrushC1ERK6QColorN2Qt10BrushStyleE
libQt6Gui.so.6:_ZN6QBrushC1Ev
libQt6Gui.so.6:_ZN6QBrushD1Ev
libQt6Gui.so.6:_ZN6QBrushaSERKS_
libQt6Gui.so.6:_ZN6QColor8setAlphaEi
libQt6Gui.so.6:_ZN7QAction10setCheckedEb
libQt6Gui.so.6:_ZN7QAction10setEnabledEb
libQt6Gui.so.6:_ZN7QAction10setToolTipERK7QString
libQt6Gui.so.6:_ZN7QAction10setVisibleEb
libQt6Gui.so.6:_ZN7QAction12setCheckableEb
libQt6Gui.so.6:_ZN7QAction12setStatusTipERK7QString
libQt6Gui.so.6:_ZN7QAction16staticMetaObjectE
libQt6Gui.so.6:_ZN7QAction7setDataERK8QVariant
libQt6Gui.so.6:_ZN7QAction7setIconERK5QIcon
libQt6Gui.so.6:_ZN7QAction7setTextERK7QString
libQt6Gui.so.6:_ZN7QAction8activateENS_11ActionEventE
libQt6Gui.so.6:_ZN7QAction9triggeredEb
libQt6Gui.so.6:_ZN7QActionC1ERK7QStringP7QObject
libQt6Gui.so.6:_ZN7QCursorC1EN2Qt11CursorShapeE
libQt6Gui.so.6:_ZN7QCursorD1Ev
libQt6Gui.so.6:_ZN7QPixmapC1Eii
libQt6Gui.so.6:_ZN7QPixmapD1Ev
libQt6Gui.so.6:_ZN8QPainter11setClipRectERK5QRectN2Qt13ClipOperationE
libQt6Gui.so.6:_ZN8QPainter3endEv
libQt6Gui.so.6:_ZN8QPainter4saveEv
libQt6Gui.so.6:_ZN8QPainter6setPenERK6QColor
libQt6Gui.so.6:_ZN8QPainter7restoreEv
libQt6Gui.so.6:_ZN8QPainter8setBrushE6QColor
libQt6Gui.so.6:_ZN8QPainter9drawRectsEPK5QRecti
libQt6Gui.so.6:_ZN8QPainter9translateERK7QPointF
libQt6Gui.so.6:_ZN8QPainterC1EP12QPaintDevice
libQt6Gui.so.6:_ZN8QPainterD1Ev
libQt6Gui.so.6:_ZN8QPalette8setBrushENS_10ColorGroupENS_9ColorRoleERK6QBrush
libQt6Gui.so.6:_ZN8QPaletteC1ERKS_
libQt6Gui.so.6:_ZN8QPaletteD1Ev
libQt6Gui.so.6:_ZNK11QEventPoint8positionEv
libQt6Gui.so.6:_ZNK13QTextDocument11toPlainTextEv
libQt6Gui.so.6:_ZNK13QTextDocument4sizeEv
libQt6Gui.so.6:_ZNK21QTextDocumentFragment11toPlainTextEv
libQt6Gui.so.6:_ZNK5QFont6familyEv
libQt6Gui.so.6:_ZNK5QFont9pixelSizeEv
libQt6Gui.so.6:_ZNK5QFont9pointSizeEv
libQt6Gui.so.6:_ZNK5QFontcv8QVariantEv
libQt6Gui.so.6:_ZNK5QIcon6pixmapERK5QSizeNS_4ModeENS_5StateE
libQt6Gui.so.6:_ZNK5QIconcv8QVariantEv
libQt6Gui.so.6:_ZNK7QAction4dataEv
libQt6Gui.so.6:_ZNK7QAction4textEv
libQt6Gui.so.6:_ZNK7QAction9isCheckedEv
libQt6Gui.so.6:_ZNK7QPixmap5widthEv
libQt6Gui.so.6:_ZNK7QPixmap6heightEv
libQt6Gui.so.6:_ZNK8QPalette5brushENS_10ColorGroupENS_9ColorRoleE
libQt6Widgets.so.6:_ZN10QBoxLayout9addLayoutEP7QLayouti
libQt6Widgets.so.6:_ZN10QBoxLayout9addWidgetEP7QWidgeti6QFlagsIN2Qt13AlignmentFlagEE
libQt6Widgets.so.6:_ZN10QStatusBar9addWidgetEP7QWidgeti
libQt6Widgets.so.6:_ZN11QDockWidget11setFeaturesE6QFlagsINS_17DockWidgetFeatureEE
libQt6Widgets.so.6:_ZN11QDockWidget15setAllowedAreasE6QFlagsIN2Qt14DockWidgetAreaEE
libQt6Widgets.so.6:_ZN11QDockWidget16staticMetaObjectE
libQt6Widgets.so.6:_ZN11QDockWidget17setTitleBarWidgetEP7QWidget
libQt6Widgets.so.6:_ZN11QDockWidget9setWidgetEP7QWidget
libQt6Widgets.so.6:_ZN11QDockWidgetC1EP7QWidget6QFlagsIN2Qt10WindowTypeEE
libQt6Widgets.so.6:_ZN11QFileDialog14getOpenFileUrlEP7QWidgetRK7QStringRK4QUrlS4_PS2_6QFlagsINS_6OptionEERK5QListIS2_E
libQt6Widgets.so.6:_ZN11QFileDialog14getSaveFileUrlEP7QWidgetRK7QStringRK4QUrlS4_PS2_6QFlagsINS_6OptionEERK5QListIS2_E
libQt6Widgets.so.6:_ZN11QFileDialog15getOpenFileNameEP7QWidgetRK7QStringS4_S4_PS2_6QFlagsINS_6OptionEE
libQt6Widgets.so.6:_ZN11QFileDialog15getSaveFileNameEP7QWidgetRK7QStringS4_S4_PS2_6QFlagsINS_6OptionEE
libQt6Widgets.so.6:_ZN11QFileDialog20getExistingDirectoryEP7QWidgetRK7QStringS4_6QFlagsINS_6OptionEE
libQt6Widgets.so.6:_ZN11QFormLayout9setWidgetEiNS_8ItemRoleEP7QWidget
libQt6Widgets.so.6:_ZN11QFormLayoutC1EP7QWidget
libQt6Widgets.so.6:_ZN11QGridLayout7addItemEP11QLayoutItemiiii6QFlagsIN2Qt13AlignmentFlagEE
libQt6Widgets.so.6:_ZN11QGridLayout9addLayoutEP7QLayoutiiii6QFlagsIN2Qt13AlignmentFlagEE
libQt6Widgets.so.6:_ZN11QGridLayout9addWidgetEP7QWidgetiiii6QFlagsIN2Qt13AlignmentFlagEE
libQt6Widgets.so.6:_ZN11QGridLayoutC1EP7QWidget
libQt6Widgets.so.6:_ZN11QHBoxLayoutC1EP7QWidget
libQt6Widgets.so.6:_ZN11QHBoxLayoutC1Ev
libQt6Widgets.so.6:_ZN11QHeaderView11moveSectionEii
libQt6Widgets.so.6:_ZN11QHeaderView20setSectionResizeModeENS_10ResizeModeE
libQt6Widgets.so.6:_ZN11QHeaderView21setStretchLastSectionEb
libQt6Widgets.so.6:_ZN11QLayoutItem12setAlignmentE6QFlagsIN2Qt13AlignmentFlagEE
libQt6Widgets.so.6:_ZN11QListWidget10insertItemEiP15QListWidgetItem
libQt6Widgets.so.6:_ZN11QListWidget11itemChangedEP15QListWidgetItem
libQt6Widgets.so.6:_ZN11QListWidget11itemClickedEP15QListWidgetItem
libQt6Widgets.so.6:_ZN11QListWidget14setCurrentItemEP15QListWidgetItem
libQt6Widgets.so.6:_ZN11QListWidget16staticMetaObjectE
libQt6Widgets.so.6:_ZN11QListWidget17currentRowChangedEi
libQt6Widgets.so.6:_ZN11QListWidget17setSortingEnabledEb
libQt6Widgets.so.6:_ZN11QListWidget5clearEv
libQt6Widgets.so.6:_ZN11QListWidgetC1EP7QWidget
libQt6Widgets.so.6:_ZN11QMainWindow13addDockWidgetEN2Qt14DockWidgetAreaEP11QDockWidget
libQt6Widgets.so.6:_ZN11QMainWindow15createPopupMenuEv
libQt6Widgets.so.6:_ZN11QMainWindow16contextMenuEventEP17QContextMenuEvent
libQt6Widgets.so.6:_ZN11QMainWindow16setCentralWidgetEP7QWidget
libQt6Widgets.so.6:_ZN11QPushButton10setDefaultEb
libQt6Widgets.so.6:_ZN11QPushButtonC1EP7QWidget
libQt6Widgets.so.6:_ZN11QTreeWidget14setColumnCountEi
libQt6Widgets.so.6:_ZN11QTreeWidget14setCurrentItemEP15QTreeWidgetItem
libQt6Widgets.so.6:_ZN11QTreeWidget15addTopLevelItemEP15QTreeWidgetItem
libQt6Widgets.so.6:_ZN11QTreeWidget16takeTopLevelItemEi
libQt6Widgets.so.6:_ZN11QTreeWidget5clearEv
libQt6Widgets.so.6:_ZN11QTreeWidget9sortItemsEiN2Qt9SortOrderE
libQt6Widgets.so.6:_ZN11QTreeWidgetC1EP7QWidget
libQt6Widgets.so.6:_ZN11QVBoxLayoutC1EP7QWidget
libQt6Widgets.so.6:_ZN11QVBoxLayoutC1Ev
libQt6Widgets.so.6:_ZN12QApplication15topLevelWidgetsEv
libQt6Widgets.so.6:_ZN12QApplication4execEv
libQt6Widgets.so.6:_ZN12QApplication5styleEv
libQt6Widgets.so.6:_ZN12QApplicationC1ERiPPci
libQt6Widgets.so.6:_ZN12QApplicationD1Ev
libQt6Widgets.so.6:_ZN12QButtonGroup5setIdEP15QAbstractButtoni
libQt6Widgets.so.6:_ZN12QButtonGroup9addButtonEP15QAbstractButtoni
libQt6Widgets.so.6:_ZN12QButtonGroupC1EP7QObject
libQt6Widgets.so.6:_ZN12QProgressBar16staticMetaObjectE
libQt6Widgets.so.6:_ZN12QProgressBar8setRangeEii
libQt6Widgets.so.6:_ZN12QProgressBar8setValueEi
libQt6Widgets.so.6:_ZN12QProgressBar9setFormatERK7QString
libQt6Widgets.so.6:_ZN12QProgressBarC1EP7QWidget
libQt6Widgets.so.6:_ZN12QRadioButtonC1EP7QWidget
libQt6Widgets.so.6:_ZN12QStyleOptionC2Eii
libQt6Widgets.so.6:_ZN12QStyleOptionD2Ev
libQt6Widgets.so.6:_ZN12QStyleOptionaSERKS_
libQt6Widgets.so.6:_ZN14QDoubleSpinBox10setMaximumEd
libQt6Widgets.so.6:_ZN14QDoubleSpinBox10setMinimumEd
libQt6Widgets.so.6:_ZN14QDoubleSpinBox11qt_metacallEN11QMetaObject4CallEiPPv
libQt6Widgets.so.6:_ZN14QDoubleSpinBox11qt_metacastEPKc
libQt6Widgets.so.6:_ZN14QDoubleSpinBox11setDecimalsEi
libQt6Widgets.so.6:_ZN14QDoubleSpinBox12valueChangedEd
libQt6Widgets.so.6:_ZN14QDoubleSpinBox13setSingleStepEd
libQt6Widgets.so.6:_ZN14QDoubleSpinBox16staticMetaObjectE
libQt6Widgets.so.6:_ZN14QDoubleSpinBox8setRangeEdd
libQt6Widgets.so.6:_ZN14QDoubleSpinBox8setValueEd
libQt6Widgets.so.6:_ZN14QDoubleSpinBox9setSuffixERK7QString
libQt6Widgets.so.6:_ZN14QDoubleSpinBoxC2EP7QWidget
libQt6Widgets.so.6:_ZN14QDoubleSpinBoxD2Ev
libQt6Widgets.so.6:_ZN14QPlainTextEdit15appendPlainTextERK7QString
libQt6Widgets.so.6:_ZN14QPlainTextEdit18setPlaceholderTextERK7QString
libQt6Widgets.so.6:_ZN14QPlainTextEditC1EP7QWidget
libQt6Widgets.so.6:_ZN15QAbstractButton10setCheckedEb
libQt6Widgets.so.6:_ZN15QAbstractButton16staticMetaObjectE
libQt6Widgets.so.6:_ZN15QAbstractButton7clickedEb
libQt6Widgets.so.6:_ZN15QAbstractButton7setIconERK5QIcon
libQt6Widgets.so.6:_ZN15QAbstractButton7setTextERK7QString
libQt6Widgets.so.6:_ZN15QAbstractButton7toggledEb
libQt6Widgets.so.6:_ZN15QListWidgetItem4readER11QDataStream
libQt6Widgets.so.6:_ZN15QListWidgetItem7setDataEiRK8QVariant
libQt6Widgets.so.6:_ZN15QListWidgetItem8setFlagsE6QFlagsIN2Qt8ItemFlagEE
libQt6Widgets.so.6:_ZN15QListWidgetItemC1ERK5QIconRK7QStringP11QListWidgeti
libQt6Widgets.so.6:_ZN15QListWidgetItemC1ERK7QStringP11QListWidgeti
libQt6Widgets.so.6:_ZN15QListWidgetItemC2ERK5QIconRK7QStringP11QListWidgeti
libQt6Widgets.so.6:_ZN15QListWidgetItemC2ERK7QStringP11QListWidgeti
libQt6Widgets.so.6:_ZN15QListWidgetItemD2Ev
libQt6Widgets.so.6:_ZN15QProgressDialog11changeEventEP6QEvent
libQt6Widgets.so.6:_ZN15QProgressDialog11qt_metacallEN11QMetaObject4CallEiPPv
libQt6Widgets.so.6:_ZN15QProgressDialog11qt_metacastEPKc
libQt6Widgets.so.6:_ZN15QProgressDialog11resizeEventEP12QResizeEvent
libQt6Widgets.so.6:_ZN15QProgressDialog12setLabelTextERK7QString
libQt6Widgets.so.6:_ZN15QProgressDialog15setCancelButtonEP11QPushButton
libQt6Widgets.so.6:_ZN15QProgressDialog18setMinimumDurationEi
libQt6Widgets.so.6:_ZN15QProgressDialog6cancelEv
libQt6Widgets.so.6:_ZN15QProgressDialog8setValueEi
libQt6Widgets.so.6:_ZN15QProgressDialog9showEventEP10QShowEvent
libQt6Widgets.so.6:_ZN15QProgressDialogC2EP7QWidget6QFlagsIN2Qt10WindowTypeEE
libQt6Widgets.so.6:_ZN15QProgressDialogD2Ev
libQt6Widgets.so.6:_ZN15QTreeWidgetItem11setExpandedEb
libQt6Widgets.so.6:_ZN15QTreeWidgetItem11setSelectedEb
libQt6Widgets.so.6:_ZN15QTreeWidgetItem21setFirstColumnSpannedEb
libQt6Widgets.so.6:_ZN15QTreeWidgetItem4readER11QDataStream
libQt6Widgets.so.6:_ZN15QTreeWidgetItem7setDataEiiRK8QVariant
libQt6Widgets.so.6:_ZN15QTreeWidgetItem8addChildEPS_
libQt6Widgets.so.6:_ZN15QTreeWidgetItem8setFlagsE6QFlagsIN2Qt8ItemFlagEE
libQt6Widgets.so.6:_ZN15QTreeWidgetItemC1ERK5QListI7QStringEi
libQt6Widgets.so.6:_ZN15QTreeWidgetItemC1Ei
libQt6Widgets.so.6:_ZN15QTreeWidgetItemC2Ei
libQt6Widgets.so.6:_ZN15QTreeWidgetItemD2Ev
libQt6Widgets.so.6:_ZN16QAbstractSpinBox10closeEventEP11QCloseEvent
libQt6Widgets.so.6:_ZN16QAbstractSpinBox10paintEventEP11QPaintEvent
libQt6Widgets.so.6:_ZN16QAbstractSpinBox10timerEventEP11QTimerEvent
libQt6Widgets.so.6:_ZN16QAbstractSpinBox10wheelEventEP11QWheelEvent
libQt6Widgets.so.6:_ZN16QAbstractSpinBox11changeEventEP6QEvent
libQt6Widgets.so.6:_ZN16QAbstractSpinBox11resizeEventEP12QResizeEvent
libQt6Widgets.so.6:_ZN16QAbstractSpinBox12focusInEventEP11QFocusEvent
libQt6Widgets.so.6:_ZN16QAbstractSpinBox12setAlignmentE6QFlagsIN2Qt13AlignmentFlagEE
libQt6Widgets.so.6:_ZN16QAbstractSpinBox13focusOutEventEP11QFocusEvent
libQt6Widgets.so.6:_ZN16QAbstractSpinBox13keyPressEventEP9QKeyEvent
libQt6Widgets.so.6:_ZN16QAbstractSpinBox14mouseMoveEventEP11QMouseEvent
libQt6Widgets.so.6:_ZN16QAbstractSpinBox15keyReleaseEventEP9QKeyEvent
libQt6Widgets.so.6:_ZN16QAbstractSpinBox15mousePressEventEP11QMouseEvent
libQt6Widgets.so.6:_ZN16QAbstractSpinBox16contextMenuEventEP17QContextMenuEvent
libQt6Widgets.so.6:_ZN16QAbstractSpinBox16staticMetaObjectE
libQt6Widgets.so.6:_ZN16QAbstractSpinBox17mouseReleaseEventEP11QMouseEvent
libQt6Widgets.so.6:_ZN16QAbstractSpinBox19setKeyboardTrackingEb
libQt6Widgets.so.6:_ZN16QAbstractSpinBox5clearEv
libQt6Widgets.so.6:_ZN16QAbstractSpinBox5eventEP6QEvent
libQt6Widgets.so.6:_ZN16QAbstractSpinBox6stepByEi
libQt6Widgets.so.6:_ZN16QAbstractSpinBox9hideEventEP10QHideEvent
libQt6Widgets.so.6:_ZN16QAbstractSpinBox9showEventEP10QShowEvent
libQt6Widgets.so.6:_ZN16QDialogButtonBox16staticMetaObjectE
libQt6Widgets.so.6:_ZN16QDialogButtonBox18setStandardButtonsE6QFlagsINS_14StandardButtonEE
libQt6Widgets.so.6:_ZN16QDialogButtonBox8acceptedEv
libQt6Widgets.so.6:_ZN16QDialogButtonBox8rejectedEv
libQt6Widgets.so.6:_ZN16QDialogButtonBox9addButtonENS_14StandardButtonE
libQt6Widgets.so.6:_ZN16QDialogButtonBox9addButtonEP15QAbstractButtonNS_10ButtonRoleE
libQt6Widgets.so.6:_ZN16QDialogButtonBoxC1E6QFlagsINS_14StandardButtonEEN2Qt11OrientationEP7QWidget
libQt6Widgets.so.6:_ZN16QDialogButtonBoxC1EP7QWidget
libQt6Widgets.so.6:_ZN17QAbstractItemView11setIconSizeERK5QSize
libQt6Widgets.so.6:_ZN17QAbstractItemView13setAutoScrollEb
libQt6Widgets.so.6:_ZN17QAbstractItemView14scrollToBottomEv
libQt6Widgets.so.6:_ZN17QAbstractItemView16setSelectionModeENS_13SelectionModeE
libQt6Widgets.so.6:_ZN17QAbstractItemView16setTextElideModeEN2Qt13TextElideModeE
libQt6Widgets.so.6:_ZN17QAbstractItemView23setAlternatingRowColorsEb
libQt6Widgets.so.6:_ZN17QAbstractItemView24setItemDelegateForColumnEiP21QAbstractItemDelegate
libQt6Widgets.so.6:_ZN19QAbstractScrollArea28setHorizontalScrollBarPolicyEN2Qt15ScrollBarPolicyE
libQt6Widgets.so.6:_ZN19QStyledItemDelegate11editorEventEP6QEventP18QAbstractItemModelRK20QStyleOptionViewItemRK11QModelIndex
libQt6Widgets.so.6:_ZN19QStyledItemDelegate11eventFilterEP7QObjectP6QEvent
libQt6Widgets.so.6:_ZN19QStyledItemDelegate11qt_metacallEN11QMetaObject4CallEiPPv
libQt6Widgets.so.6:_ZN19QStyledItemDelegate11qt_metacastEPKc
libQt6Widgets.so.6:_ZN19QStyledItemDelegateC2EP7QObject
libQt6Widgets.so.6:_ZN19QStyledItemDelegateD2Ev
libQt6Widgets.so.6:_ZN21QAbstractItemDelegate9helpEventEP10QHelpEventP17QAbstractItemViewRK20QStyleOptionViewItemRK11QModelIndex
libQt6Widgets.so.6:_ZN5QMenu4execERK6QPointP7QAction
libQt6Widgets.so.6:_ZN5QMenu5clearEv
libQt6Widgets.so.6:_ZN5QMenuC1ERK7QStringP7QWidget
libQt6Widgets.so.6:_ZN5QMenuD1Ev
libQt6Widgets.so.6:_ZN6QFrame13setFrameShapeENS_5ShapeE
libQt6Widgets.so.6:_ZN6QFrame14setFrameShadowENS_6ShadowE
libQt6Widgets.so.6:_ZN6QFrame16staticMetaObjectE
libQt6Widgets.so.6:_ZN6QFrameC1EP7QWidget6QFlagsIN2Qt10WindowTypeEE
libQt6Widgets.so.6:_ZN6QLabel11setWordWrapEb
libQt6Widgets.so.6:_ZN6QLabel12setAlignmentE6QFlagsIN2Qt13AlignmentFlagEE
libQt6Widgets.so.6:_ZN6QLabel16staticMetaObjectE
libQt6Widgets.so.6:_ZN6QLabel23setTextInteractionFlagsE6QFlagsIN2Qt19TextInteractionFlagEE
libQt6Widgets.so.6:_ZN6QLabel7setTextERK7QString
libQt6Widgets.so.6:_ZN6QLabel8setBuddyEP7QWidget
libQt6Widgets.so.6:_ZN6QLabel9setMarginEi
libQt6Widgets.so.6:_ZN6QLabel9setPixmapERK7QPixmap
libQt6Widgets.so.6:_ZN6QLabelC1EP7QWidget6QFlagsIN2Qt10WindowTypeEE
libQt6Widgets.so.6:_ZN6QLabelC1ERK7QStringP7QWidget6QFlagsIN2Qt10WindowTypeEE
libQt6Widgets.so.6:_ZN6QLabelD1Ev
libQt6Widgets.so.6:_ZN7QDialog10closeEventEP11QCloseEvent
libQt6Widgets.so.6:_ZN7QDialog10setVisibleEb
libQt6Widgets.so.6:_ZN7QDialog11eventFilterEP7QObjectP6QEvent
libQt6Widgets.so.6:_ZN7QDialog11qt_metacallEN11QMetaObject4CallEiPPv
libQt6Widgets.so.6:_ZN7QDialog11qt_metacastEPKc
libQt6Widgets.so.6:_ZN7QDialog11resizeEventEP12QResizeEvent
libQt6Widgets.so.6:_ZN7QDialog13keyPressEventEP9QKeyEvent
libQt6Widgets.so.6:_ZN7QDialog16contextMenuEventEP17QContextMenuEvent
libQt6Widgets.so.6:_ZN7QDialog16staticMetaObjectE
libQt6Widgets.so.6:_ZN7QDialog4doneEi
libQt6Widgets.so.6:_ZN7QDialog4execEv
libQt6Widgets.so.6:_ZN7QDialog4openEv
libQt6Widgets.so.6:_ZN7QDialog6acceptEv
libQt6Widgets.so.6:_ZN7QDialog6rejectEv
libQt6Widgets.so.6:_ZN7QDialog9showEventEP10QShowEvent
libQt6Widgets.so.6:_ZN7QDialogC2EP7QWidget6QFlagsIN2Qt10WindowTypeEE
libQt6Widgets.so.6:_ZN7QDialogD2Ev
libQt6Widgets.so.6:_ZN7QLayout17setSizeConstraintENS_14SizeConstraintE
libQt6Widgets.so.6:_ZN7QLayout18setContentsMarginsEiiii
libQt6Widgets.so.6:_ZN7QWidget10closeEventEP11QCloseEvent
libQt6Widgets.so.6:_ZN7QWidget10enterEventEP11QEnterEvent
libQt6Widgets.so.6:_ZN7QWidget10leaveEventEP6QEvent
libQt6Widgets.so.6:_ZN7QWidget10paintEventEP11QPaintEvent
libQt6Widgets.so.6:_ZN7QWidget10setEnabledEb
libQt6Widgets.so.6:_ZN7QWidget10setPaletteERK8QPalette
libQt6Widgets.so.6:_ZN7QWidget10setToolTipERK7QString
libQt6Widgets.so.6:_ZN7QWidget10setVisibleEb
libQt6Widgets.so.6:_ZN7QWidget10wheelEventEP11QWheelEvent
libQt6Widgets.so.6:_ZN7QWidget11actionEventEP12QActionEvent
libQt6Widgets.so.6:_ZN7QWidget11changeEventEP6QEvent
libQt6Widgets.so.6:_ZN7QWidget11nativeEventERK10QByteArrayPvPx
libQt6Widgets.so.6:_ZN7QWidget11qt_metacallEN11QMetaObject4CallEiPPv
libQt6Widgets.so.6:_ZN7QWidget11qt_metacastEPKc
libQt6Widgets.so.6:_ZN7QWidget11resizeEventEP12QResizeEvent
libQt6Widgets.so.6:_ZN7QWidget11setGeometryERK5QRect
libQt6Widgets.so.6:_ZN7QWidget11setTabOrderEPS_S0_
libQt6Widgets.so.6:_ZN7QWidget11tabletEventEP12QTabletEvent
libQt6Widgets.so.6:_ZN7QWidget12focusInEventEP11QFocusEvent
libQt6Widgets.so.6:_ZN7QWidget12removeActionEP7QAction
libQt6Widgets.so.6:_ZN7QWidget12setAttributeEN2Qt15WidgetAttributeEb
libQt6Widgets.so.6:_ZN7QWidget12setWhatsThisERK7QString
libQt6Widgets.so.6:_ZN7QWidget13dragMoveEventEP14QDragMoveEvent
libQt6Widgets.so.6:_ZN7QWidget13focusOutEventEP11QFocusEvent
libQt6Widgets.so.6:_ZN7QWidget13keyPressEventEP9QKeyEvent
libQt6Widgets.so.6:_ZN7QWidget13setSizePolicyE11QSizePolicy
libQt6Widgets.so.6:_ZN7QWidget14activateWindowEv
libQt6Widgets.so.6:_ZN7QWidget14dragEnterEventEP15QDragEnterEvent
libQt6Widgets.so.6:_ZN7QWidget14dragLeaveEventEP15QDragLeaveEvent
libQt6Widgets.so.6:_ZN7QWidget14mouseMoveEventEP11QMouseEvent
libQt6Widgets.so.6:_ZN7QWidget14setMaximumSizeEii
libQt6Widgets.so.6:_ZN7QWidget14setMinimumSizeEii
libQt6Widgets.so.6:_ZN7QWidget14setWindowTitleERK7QString
libQt6Widgets.so.6:_ZN7QWidget15keyReleaseEventEP9QKeyEvent
libQt6Widgets.so.6:_ZN7QWidget15mousePressEventEP11QMouseEvent
libQt6Widgets.so.6:_ZN7QWidget15restoreGeometryERK10QByteArray
libQt6Widgets.so.6:_ZN7QWidget15setMinimumWidthEi
libQt6Widgets.so.6:_ZN7QWidget16contextMenuEventEP17QContextMenuEvent
libQt6Widgets.so.6:_ZN7QWidget16inputMethodEventEP17QInputMethodEvent
libQt6Widgets.so.6:_ZN7QWidget16staticMetaObjectE
libQt6Widgets.so.6:_ZN7QWidget17mouseReleaseEventEP11QMouseEvent
libQt6Widgets.so.6:_ZN7QWidget18focusNextPrevChildEb
libQt6Widgets.so.6:_ZN7QWidget18setContentsMarginsEiiii
libQt6Widgets.so.6:_ZN7QWidget20setContextMenuPolicyEN2Qt17ContextMenuPolicyE
libQt6Widgets.so.6:_ZN7QWidget21mouseDoubleClickEventEP11QMouseEvent
libQt6Widgets.so.6:_ZN7QWidget26customContextMenuRequestedERK6QPoint
libQt6Widgets.so.6:_ZN7QWidget4hideEv
libQt6Widgets.so.6:_ZN7QWidget4showEv
libQt6Widgets.so.6:_ZN7QWidget5closeEv
libQt6Widgets.so.6:_ZN7QWidget5eventEP6QEvent
libQt6Widgets.so.6:_ZN7QWidget5raiseEv
libQt6Widgets.so.6:_ZN7QWidget6resizeERK5QSize
libQt6Widgets.so.6:_ZN7QWidget6updateEv
libQt6Widgets.so.6:_ZN7QWidget7repaintEv
libQt6Widgets.so.6:_ZN7QWidget7setFontERK5QFont
libQt6Widgets.so.6:_ZN7QWidget8setFocusEN2Qt11FocusReasonE
libQt6Widgets.so.6:_ZN7QWidget9addActionEP7QAction
libQt6Widgets.so.6:_ZN7QWidget9addActionERK7QString
libQt6Widgets.so.6:_ZN7QWidget9dropEventEP10QDropEvent
libQt6Widgets.so.6:_ZN7QWidget9hideEventEP10QHideEvent
libQt6Widgets.so.6:_ZN7QWidget9moveEventEP10QMoveEvent
libQt6Widgets.so.6:_ZN7QWidget9setLayoutEP7QLayout
libQt6Widgets.so.6:_ZN7QWidget9setParentEPS_
libQt6Widgets.so.6:_ZN7QWidget9showEventEP10QShowEvent
libQt6Widgets.so.6:_ZN7QWidgetC1EPS_6QFlagsIN2Qt10WindowTypeEE
libQt6Widgets.so.6:_ZN7QWidgetC2EPS_6QFlagsIN2Qt10WindowTypeEE
libQt6Widgets.so.6:_ZN7QWidgetD2Ev
libQt6Widgets.so.6:_ZN8QSpinBox10setMaximumEi
libQt6Widgets.so.6:_ZN8QSpinBox10setMinimumEi
libQt6Widgets.so.6:_ZN8QSpinBox12valueChangedEi
libQt6Widgets.so.6:_ZN8QSpinBox13setSingleStepEi
libQt6Widgets.so.6:_ZN8QSpinBox16staticMetaObjectE
libQt6Widgets.so.6:_ZN8QSpinBox8setValueEi
libQt6Widgets.so.6:_ZN8QSpinBox9setSuffixERK7QString
libQt6Widgets.so.6:_ZN8QSpinBoxC1EP7QWidget
libQt6Widgets.so.6:_ZN9QCheckBox13setCheckStateEN2Qt10CheckStateE
libQt6Widgets.so.6:_ZN9QCheckBox16staticMetaObjectE
libQt6Widgets.so.6:_ZN9QCheckBox17checkStateChangedEN2Qt10CheckStateE
libQt6Widgets.so.6:_ZN9QCheckBoxC1EP7QWidget
libQt6Widgets.so.6:_ZN9QComboBox10insertItemEiRK5QIconRK7QStringRK8QVariant
libQt6Widgets.so.6:_ZN9QComboBox10removeItemEi
libQt6Widgets.so.6:_ZN9QComboBox11insertItemsEiRK5QListI7QStringE
libQt6Widgets.so.6:_ZN9QComboBox11setEditableEb
libQt6Widgets.so.6:_ZN9QComboBox11setItemTextEiRK7QString
libQt6Widgets.so.6:_ZN9QComboBox14setCurrentTextERK7QString
libQt6Widgets.so.6:_ZN9QComboBox15setCurrentIndexEi
libQt6Widgets.so.6:_ZN9QComboBox16staticMetaObjectE
libQt6Widgets.so.6:_ZN9QComboBox18currentTextChangedERK7QString
libQt6Widgets.so.6:_ZN9QComboBox19currentIndexChangedEi
libQt6Widgets.so.6:_ZN9QComboBox5clearEv
libQt6Widgets.so.6:_ZN9QComboBox9activatedEi
libQt6Widgets.so.6:_ZN9QComboBoxC1EP7QWidget
libQt6Widgets.so.6:_ZN9QGroupBox8setTitleERK7QString
libQt6Widgets.so.6:_ZN9QGroupBoxC1EP7QWidget
libQt6Widgets.so.6:_ZN9QLineEdit10textEditedERK7QString
libQt6Widgets.so.6:_ZN9QLineEdit11setReadOnlyEb
libQt6Widgets.so.6:_ZN9QLineEdit11textChangedERK7QString
libQt6Widgets.so.6:_ZN9QLineEdit12setMaxLengthEi
libQt6Widgets.so.6:_ZN9QLineEdit12setValidatorEPK10QValidator
libQt6Widgets.so.6:_ZN9QLineEdit16staticMetaObjectE
libQt6Widgets.so.6:_ZN9QLineEdit7setTextERK7QString
libQt6Widgets.so.6:_ZN9QLineEditC1EP7QWidget
libQt6Widgets.so.6:_ZN9QListView11setWordWrapEb
libQt6Widgets.so.6:_ZN9QListView13setResizeModeENS_10ResizeModeE
libQt6Widgets.so.6:_ZN9QTextEdit10moveCursorEN11QTextCursor13MoveOperationENS0_8MoveModeE
libQt6Widgets.so.6:_ZN9QTextEdit14setCursorWidthEi
libQt6Widgets.so.6:_ZN9QTextEdit19ensureCursorVisibleEv
libQt6Widgets.so.6:_ZN9QTextEdit23setTextInteractionFlagsE6QFlagsIN2Qt19TextInteractionFlagEE
libQt6Widgets.so.6:_ZN9QTextEdit5clearEv
libQt6Widgets.so.6:_ZN9QTextEdit7setHtmlERK7QString
libQt6Widgets.so.6:_ZN9QTextEditC1EP7QWidget
libQt6Widgets.so.6:_ZN9QTreeView11setWordWrapEb
libQt6Widgets.so.6:_ZN9QTreeView14setColumnWidthEii
libQt6Widgets.so.6:_ZN9QTreeView14setIndentationEi
libQt6Widgets.so.6:_ZN9QTreeView15setColumnHiddenEib
libQt6Widgets.so.6:_ZN9QTreeView15setHeaderHiddenEb
libQt6Widgets.so.6:_ZN9QTreeView18setItemsExpandableEb
libQt6Widgets.so.6:_ZN9QTreeView18setRootIsDecoratedEb
libQt6Widgets.so.6:_ZN9QTreeView20setUniformRowHeightsEb
libQt6Widgets.so.6:_ZN9QTreeView22resizeColumnToContentsEi
libQt6Widgets.so.6:_ZN9QTreeView22setAllColumnsShowFocusEb
libQt6Widgets.so.6:_ZN9QTreeView23setExpandsOnDoubleClickEb
libQt6Widgets.so.6:_ZNK11QDockWidget16toggleViewActionEv
libQt6Widgets.so.6:_ZNK11QHeaderView11visualIndexEi
libQt6Widgets.so.6:_ZNK11QHeaderView12logicalIndexEi
libQt6Widgets.so.6:_ZNK11QHeaderView15isSectionHiddenEi
libQt6Widgets.so.6:_ZNK11QListWidget13selectedItemsEv
libQt6Widgets.so.6:_ZNK11QListWidget4itemEi
libQt6Widgets.so.6:_ZNK11QListWidget5countEv
libQt6Widgets.so.6:_ZNK11QListWidget9findItemsERK7QString6QFlagsIN2Qt9MatchFlagEE
libQt6Widgets.so.6:_ZNK11QMainWindow14dockWidgetAreaEP11QDockWidget
libQt6Widgets.so.6:_ZNK11QMainWindow9statusBarEv
libQt6Widgets.so.6:_ZNK11QTreeWidget10headerItemEv
libQt6Widgets.so.6:_ZNK11QTreeWidget11columnCountEv
libQt6Widgets.so.6:_ZNK11QTreeWidget12topLevelItemEi
libQt6Widgets.so.6:_ZNK11QTreeWidget17invisibleRootItemEv
libQt6Widgets.so.6:_ZNK11QTreeWidget17topLevelItemCountEv
libQt6Widgets.so.6:_ZNK11QTreeWidget9findItemsERK7QString6QFlagsIN2Qt9MatchFlagEEi
libQt6Widgets.so.6:_ZNK12QButtonGroup9checkedIdEv
libQt6Widgets.so.6:_ZNK12QProgressBar5valueEv
libQt6Widgets.so.6:_ZNK12QProgressBar7maximumEv
libQt6Widgets.so.6:_ZNK14QDoubleSpinBox10metaObjectEv
libQt6Widgets.so.6:_ZNK14QDoubleSpinBox5fixupER7QString
libQt6Widgets.so.6:_ZNK14QDoubleSpinBox6prefixEv
libQt6Widgets.so.6:_ZNK14QDoubleSpinBox6suffixEv
libQt6Widgets.so.6:_ZNK14QDoubleSpinBox8decimalsEv
libQt6Widgets.so.6:_ZNK14QDoubleSpinBox8validateER7QStringRi
libQt6Widgets.so.6:_ZNK14QPlainTextEdit8documentEv
libQt6Widgets.so.6:_ZNK15QAbstractButton9isCheckedEv
libQt6Widgets.so.6:_ZNK15QListWidgetItem4dataEi
libQt6Widgets.so.6:_ZNK15QListWidgetItem5cloneEv
libQt6Widgets.so.6:_ZNK15QListWidgetItem5writeER11QDataStream
libQt6Widgets.so.6:_ZNK15QListWidgetItemltERKS_
libQt6Widgets.so.6:_ZNK15QProgressDialog10metaObjectEv
libQt6Widgets.so.6:_ZNK15QProgressDialog8sizeHintEv
libQt6Widgets.so.6:_ZNK15QTreeWidgetItem18executePendingSortEv
libQt6Widgets.so.6:_ZNK15QTreeWidgetItem4dataEii
libQt6Widgets.so.6:_ZNK15QTreeWidgetItem5cloneEv
libQt6Widgets.so.6:_ZNK15QTreeWidgetItem5writeER11QDataStream
libQt6Widgets.so.6:_ZNK15QTreeWidgetItemltERKS_
libQt6Widgets.so.6:_ZNK16QAbstractSpinBox11stepEnabledEv
libQt6Widgets.so.6:_ZNK16QAbstractSpinBox15initStyleOptionEP19QStyleOptionSpinBox
libQt6Widgets.so.6:_ZNK16QAbstractSpinBox15minimumSizeHintEv
libQt6Widgets.so.6:_ZNK16QAbstractSpinBox16inputMethodQueryEN2Qt16InputMethodQueryE
libQt6Widgets.so.6:_ZNK16QAbstractSpinBox16specialValueTextEv
libQt6Widgets.so.6:_ZNK16QAbstractSpinBox8sizeHintEv
libQt6Widgets.so.6:_ZNK16QDialogButtonBox6buttonENS_14StandardButtonE
libQt6Widgets.so.6:_ZNK17QAbstractItemView5modelEv
libQt6Widgets.so.6:_ZNK19QAbstractScrollArea8viewportEv
libQt6Widgets.so.6:_ZNK19QStyledItemDelegate10metaObjectEv
libQt6Widgets.so.6:_ZNK19QStyledItemDelegate11displayTextERK8QVariantRK7QLocale
libQt6Widgets.so.6:_ZNK19QStyledItemDelegate12createEditorEP7QWidgetRK20QStyleOptionViewItemRK11QModelIndex
libQt6Widgets.so.6:_ZNK19QStyledItemDelegate12setModelDataEP7QWidgetP18QAbstractItemModelRK11QModelIndex
libQt6Widgets.so.6:_ZNK19QStyledItemDelegate13setEditorDataEP7QWidgetRK11QModelIndex
libQt6Widgets.so.6:_ZNK19QStyledItemDelegate15initStyleOptionEP20QStyleOptionViewItemRK11QModelIndex
libQt6Widgets.so.6:_ZNK19QStyledItemDelegate20updateEditorGeometryEP7QWidgetRK20QStyleOptionViewItemRK11QModelIndex
libQt6Widgets.so.6:_ZNK19QStyledItemDelegate8sizeHintERK20QStyleOptionViewItemRK11QModelIndex
libQt6Widgets.so.6:_ZNK21QAbstractItemDelegate13destroyEditorEP7QWidgetRK11QModelIndex
libQt6Widgets.so.6:_ZNK21QAbstractItemDelegate13paintingRolesEv
libQt6Widgets.so.6:_ZNK7QDialog10metaObjectEv
libQt6Widgets.so.6:_ZNK7QDialog15minimumSizeHintEv
libQt6Widgets.so.6:_ZNK7QDialog8sizeHintEv
libQt6Widgets.so.6:_ZNK7QWidget10metaObjectEv
libQt6Widgets.so.6:_ZNK7QWidget10redirectedEP6QPoint
libQt6Widgets.so.6:_ZNK7QWidget10sizePolicyEv
libQt6Widgets.so.6:_ZNK7QWidget11initPainterEP8QPainter
libQt6Widgets.so.6:_ZNK7QWidget11mapToGlobalERK6QPoint
libQt6Widgets.so.6:_ZNK7QWidget11paintEngineEv
libQt6Widgets.so.6:_ZNK7QWidget11windowTitleEv
libQt6Widgets.so.6:_ZNK7QWidget12saveGeometryEv
libQt6Widgets.so.6:_ZNK7QWidget12windowHandleEv
libQt6Widgets.so.6:_ZNK7QWidget13sharedPainterEv
libQt6Widgets.so.6:_ZNK7QWidget14heightForWidthEi
libQt6Widgets.so.6:_ZNK7QWidget14isActiveWindowEv
libQt6Widgets.so.6:_ZNK7QWidget15minimumSizeHintEv
libQt6Widgets.so.6:_ZNK7QWidget16inputMethodQueryEN2Qt16InputMethodQueryE
libQt6Widgets.so.6:_ZNK7QWidget17hasHeightForWidthEv
libQt6Widgets.so.6:_ZNK7QWidget5styleEv
libQt6Widgets.so.6:_ZNK7QWidget6layoutEv
libQt6Widgets.so.6:_ZNK7QWidget6metricEN12QPaintDevice17PaintDeviceMetricE
libQt6Widgets.so.6:_ZNK7QWidget7actionsEv
libQt6Widgets.so.6:_ZNK7QWidget7childAtERK6QPoint
libQt6Widgets.so.6:_ZNK7QWidget7devTypeEv
libQt6Widgets.so.6:_ZNK7QWidget7paletteEv
libQt6Widgets.so.6:_ZNK7QWidget8sizeHintEv
libQt6Widgets.so.6:_ZNK8QSpinBox5valueEv
libQt6Widgets.so.6:_ZNK9QComboBox11currentTextEv
libQt6Widgets.so.6:_ZNK9QComboBox12currentIndexEv
libQt6Widgets.so.6:_ZNK9QComboBox5countEv
libQt6Widgets.so.6:_ZNK9QComboBox8findDataERK8QVarianti6QFlagsIN2Qt9MatchFlagEE
libQt6Widgets.so.6:_ZNK9QComboBox8itemTextEi
libQt6Widgets.so.6:_ZNK9QLineEdit4textEv
libQt6Widgets.so.6:_ZNK9QTreeView11columnWidthEi
libQt6Widgets.so.6:_ZNK9QTreeView14isColumnHiddenEi
libQt6Widgets.so.6:_ZNK9QTreeView6headerEv
libQt6Widgets.so.6:_ZTI14QDoubleSpinBox
libQt6Widgets.so.6:_ZTI15QListWidgetItem
libQt6Widgets.so.6:_ZTI15QProgressDialog
libQt6Widgets.so.6:_ZTI15QTreeWidgetItem
libQt6Widgets.so.6:_ZTI19QStyledItemDelegate
libQt6Widgets.so.6:_ZTI7QDialog
libQt6Widgets.so.6:_ZTI7QWidget
libQt6Widgets.so.6:_ZTV11QSpacerItem
libQt6Widgets.so.6:_ZThn16_NK7QWidget10redirectedEP6QPoint
libQt6Widgets.so.6:_ZThn16_NK7QWidget11initPainterEP8QPainter
libQt6Widgets.so.6:_ZThn16_NK7QWidget11paintEngineEv
libQt6Widgets.so.6:_ZThn16_NK7QWidget13sharedPainterEv
libQt6Widgets.so.6:_ZThn16_NK7QWidget6metricEN12QPaintDevice17PaintDeviceMetricE
libQt6Widgets.so.6:_ZThn16_NK7QWidget7devTypeEv
libc.so.6:__cxa_atexit
libc.so.6:__libc_single_threaded
libc.so.6:__libc_start_main
libc.so.6:__stack_chk_fail
libc.so.6:memcmp
libc.so.6:memcpy
libc.so.6:memmove
libc.so.6:memset
libc.so.6:strcmp
libc.so.6:strlen
libkpmcore.so.13:_Z12aboutKPMcorev
libkpmcore.so.13:_Z16readFstabEntriesRK7QString
libkpmcore.so.13:_Z16writeMountpointsRK5QListI10FstabEntryE
libkpmcore.so.13:_Z17registerMetaTypesv
libkpmcore.so.13:_Z19possibleMountPointsRK7QStringS1_
libkpmcore.so.13:_Z23caseInsensitiveLessThanRK7QStringS1_
libkpmcore.so.13:_ZN10FileSystem11nameForTypeENS_4TypeERK5QListI7QStringE
libkpmcore.so.13:_ZN10FileSystem11typeForNameERK7QStringRK5QListIS0_E
libkpmcore.so.13:_ZN10FileSystem13setLastSectorEx
libkpmcore.so.13:_ZN10FileSystem14setFirstSectorEx
libkpmcore.so.13:_ZN10FileSystem4moveEx
libkpmcore.so.13:_ZN10FileSystem8setLabelERK7QString
libkpmcore.so.13:_ZN10FstabEntry10setOptionsERK5QListI7QStringE
libkpmcore.so.13:_ZN10FstabEntry11setDumpFreqEi
libkpmcore.so.13:_ZN10FstabEntry13setMountPointERK7QString
libkpmcore.so.13:_ZN10FstabEntry13setPassNumberEi
libkpmcore.so.13:_ZN10FstabEntry9setFsSpecERK7QString
libkpmcore.so.13:_ZN10FstabEntryC1ERK7QStringS2_S2_S2_iiS2_
libkpmcore.so.13:_ZN10HtmlReport6footerEv
libkpmcore.so.13:_ZN10HtmlReport6headerEv
libkpmcore.so.13:_ZN10HtmlReport9tableLineERK7QStringS0_
libkpmcore.so.13:_ZN10PartWidget16staticMetaObjectE
libkpmcore.so.13:_ZN10PartWidget22setFileSystemColorCodeERKSt6vectorI6QColorSaIS1_EE
libkpmcore.so.13:_ZN10PartWidget4initEP9Partition
libkpmcore.so.13:_ZN10PartWidgetC1EP7QWidgetP9Partition
libkpmcore.so.13:_ZN11CoreBackend26isPolkitInstalledCorrectlyEv
libkpmcore.so.13:_ZN11CoreBackend2idEv
libkpmcore.so.13:_ZN11CoreBackend7versionEv
libkpmcore.so.13:_ZN11SmartStatus12tempToStringEy
libkpmcore.so.13:_ZN11SmartStatus22selfTestStatusToStringENS_14SelfTestStatusE
libkpmcore.so.13:_ZN11SmartStatus25overallAssessmentToStringENS_7OverallE
libkpmcore.so.13:_ZN12NewOperation12canCreateNewEPK9Partition
libkpmcore.so.13:_ZN12NewOperation9createNewERK9PartitionN10FileSystem4TypeE
libkpmcore.so.13:_ZN12NewOperationC1ER6DeviceP9Partition
libkpmcore.so.13:_ZN13CopyOperation10createCopyERK9PartitionS2_
libkpmcore.so.13:_ZN13CopyOperation7canCopyEPK9Partition
libkpmcore.so.13:_ZN13CopyOperation8canPasteEPK9PartitionS2_
libkpmcore.so.13:_ZN13CopyOperationC1ER6DeviceP9PartitionS1_S3_
libkpmcore.so.13:_ZN13DeviceScanner16setupConnectionsEv
libkpmcore.so.13:_ZN13DeviceScannerC1EP7QObjectR14OperationStack
libkpmcore.so.13:_ZN14CheckOperation8canCheckEPK9Partition
libkpmcore.so.13:_ZN14CheckOperationC1ER6DeviceR9Partition
libkpmcore.so.13:_ZN14OperationStack15clearOperationsEv
libkpmcore.so.13:_ZN14OperationStack22findDeviceForPartitionEPK9Partition
libkpmcore.so.13:_ZN14OperationStack3popEv
libkpmcore.so.13:_ZN14OperationStack4pushEP9Operation
libkpmcore.so.13:_ZN14OperationStackC1EP7QObject
libkpmcore.so.13:_ZN14PartitionTable13flagsFromListE5QListI7QStringE
libkpmcore.so.13:_ZN14PartitionTable15nameToTableTypeERK7QString
libkpmcore.so.13:_ZN14PartitionTable15tableTypeToNameENS_9TableTypeE
libkpmcore.so.13:_ZN14PartitionTable17defaultLastUsableERK6DeviceNS_9TableTypeE
libkpmcore.so.13:_ZN14PartitionTable17insertUnallocatedERK6DeviceP13PartitionNodex
libkpmcore.so.13:_ZN14PartitionTable17removeUnallocatedEP13PartitionNode
libkpmcore.so.13:_ZN14PartitionTable18defaultFirstUsableERK6DeviceNS_9TableTypeE
libkpmcore.so.13:_ZN14PartitionTable19tableTypeIsReadOnlyENS_9TableTypeE
libkpmcore.so.13:_ZN14PartitionTable25tableTypeSupportsExtendedENS_9TableTypeE
libkpmcore.so.13:_ZN14PartitionTable8flagNameENS_4FlagE
libkpmcore.so.13:_ZN14PartitionTable9flagNamesE6QFlagsINS_4FlagEE
libkpmcore.so.13:_ZN14PartitionTableC1ENS_9TableTypeExx
libkpmcore.so.13:_ZN14SmartAttribute18assessmentToStringENS_10AssessmentE
libkpmcore.so.13:_ZN15BackupOperation9canBackupEPK9Partition
libkpmcore.so.13:_ZN15BackupOperationC1ER6DeviceR9PartitionRK7QString
libkpmcore.so.13:_ZN15DeleteOperation9canDeleteEPK9Partition
libkpmcore.so.13:_ZN15DeleteOperationC1ER6DeviceP9PartitionNS_11ShredActionE
libkpmcore.so.13:_ZN15OperationRunner10opFinishedEiP9Operation
libkpmcore.so.13:_ZN15OperationRunner11progressSubEi
libkpmcore.so.13:_ZN15OperationRunner16staticMetaObjectE
libkpmcore.so.13:_ZN15OperationRunner5errorEv
libkpmcore.so.13:_ZN15OperationRunner8finishedEv
libkpmcore.so.13:_ZN15OperationRunner9cancelledEv
libkpmcore.so.13:_ZN15OperationRunner9opStartedEiP9Operation
libkpmcore.so.13:_ZN15OperationRunnerC1EP7QObjectR14OperationStack
libkpmcore.so.13:_ZN15ResizeOperation7canGrowEPK9Partition
libkpmcore.so.13:_ZN15ResizeOperation7canMoveEPK9Partition
libkpmcore.so.13:_ZN15ResizeOperation9canShrinkEPK9Partition
libkpmcore.so.13:_ZN15ResizeOperationC1ER6DeviceR9Partitionxx
libkpmcore.so.13:_ZN16RestoreOperation10canRestoreEPK9Partition
libkpmcore.so.13:_ZN16RestoreOperation22createRestorePartitionERK6DeviceR13PartitionNodexRK7QString
libkpmcore.so.13:_ZN16RestoreOperationC1ER6DeviceP9PartitionRK7QString
libkpmcore.so.13:_ZN17FileSystemFactory3mapEv
libkpmcore.so.13:_ZN17FileSystemFactory4initEv
libkpmcore.so.13:_ZN17FileSystemFactory6createEN10FileSystem4TypeExxxxRK7QStringRK4QMapIS2_8QVariantES4_
libkpmcore.so.13:_ZN17PartResizerWidget13movePartitionEx
libkpmcore.so.13:_ZN17PartResizerWidget14resizeLogicalsExxb
libkpmcore.so.13:_ZN17PartResizerWidget16setMaximumLengthEx
libkpmcore.so.13:_ZN17PartResizerWidget16setMinimumLengthEx
libkpmcore.so.13:_ZN17PartResizerWidget16staticMetaObjectE
libkpmcore.so.13:_ZN17PartResizerWidget16updateLastSectorEx
libkpmcore.so.13:_ZN17PartResizerWidget17lastSectorChangedEx
libkpmcore.so.13:_ZN17PartResizerWidget17updateFirstSectorEx
libkpmcore.so.13:_ZN17PartResizerWidget18firstSectorChangedEx
libkpmcore.so.13:_ZN17PartResizerWidget4initER6DeviceR9Partitionxxbb
libkpmcore.so.13:_ZN17PartResizerWidgetC1EP7QWidget
libkpmcore.so.13:_ZN18CoreBackendManager4loadERK7QString
libkpmcore.so.13:_ZN18CoreBackendManager4selfEv
libkpmcore.so.13:_ZN18CoreBackendManager6unloadEv
libkpmcore.so.13:_ZN18CoreBackendManager7backendEv
libkpmcore.so.13:_ZN18PartitionAlignment10firstDeltaERK6DeviceRK9Partitionx
libkpmcore.so.13:_ZN18PartitionAlignment15sectorAlignmentERK6Device
libkpmcore.so.13:_ZN18PartitionAlignment17alignedLastSectorERK6DeviceRK9Partitionxxxxxxb
libkpmcore.so.13:_ZN18PartitionAlignment18alignedFirstSectorERK6DeviceRK9Partitionxxxxx
libkpmcore.so.13:_ZN18PartitionAlignment18setSectorAlignmentEi
libkpmcore.so.13:_ZN18PartitionAlignment9lastDeltaERK6DeviceRK9Partitionx
libkpmcore.so.13:_ZN21SetPartFlagsOperationC1ER6DeviceR9PartitionRK6QFlagsIN14PartitionTable4FlagEE
libkpmcore.so.13:_ZN21SetPartLabelOperationC1ER6DeviceR9PartitionRK7QString
libkpmcore.so.13:_ZN25CreateFileSystemOperationC1ER6DeviceR9PartitionN10FileSystem4TypeE
libkpmcore.so.13:_ZN26CreateVolumeGroupOperation9canCreateEv
libkpmcore.so.13:_ZN26CreateVolumeGroupOperationC1ERK7QStringRK5QListIPK9PartitionEi
libkpmcore.so.13:_ZN26RemoveVolumeGroupOperation11isRemovableEPK19VolumeManagerDevice
libkpmcore.so.13:_ZN26RemoveVolumeGroupOperationC1ER19VolumeManagerDevice
libkpmcore.so.13:_ZN26ResizeVolumeGroupOperationC1ER9LvmDeviceRK5QListIPK9PartitionE
libkpmcore.so.13:_ZN27SetFileSystemLabelOperationC1ER9PartitionRK7QString
libkpmcore.so.13:_ZN29CreatePartitionTableOperation9canCreateEPK6Device
libkpmcore.so.13:_ZN29CreatePartitionTableOperationC1ER6DeviceN14PartitionTable9TableTypeE
libkpmcore.so.13:_ZN29CreatePartitionTableOperationC1ER6DeviceP14PartitionTable
libkpmcore.so.13:_ZN2FS4luks10cryptCloseERK7QString
libkpmcore.so.13:_ZN2FS4luks13setPassphraseERK7QString
libkpmcore.so.13:_ZN2FS4luks14canEncryptTypeEN10FileSystem4TypeE
libkpmcore.so.13:_ZN2FS4luks21createInnerFileSystemEN10FileSystem4TypeE
libkpmcore.so.13:_ZN2FS4luks9cryptOpenEP7QWidgetRK7QString
libkpmcore.so.13:_ZN2FS5luks211keyLocationEv
libkpmcore.so.13:_ZN30DeactivateVolumeGroupOperation15isDeactivatableEPK19VolumeManagerDevice
libkpmcore.so.13:_ZN30DeactivateVolumeGroupOperationC1ER19VolumeManagerDevice
libkpmcore.so.13:_ZN3LVM6pvList6m_listE
libkpmcore.so.13:_ZN3LogD1Ev
libkpmcore.so.13:_ZN6Report13outputChangedEv
libkpmcore.so.13:_ZN6Report16staticMetaObjectE
libkpmcore.so.13:_ZN6ReportC1EPS_RK7QString
libkpmcore.so.13:_ZN6ReportD1Ev
libkpmcore.so.13:_ZN8Capacity10unitFactorENS_4UnitES0_
libkpmcore.so.13:_ZN8Capacity14formatByteSizeEdi
libkpmcore.so.13:_ZN8Capacity15m_InvalidStringE
libkpmcore.so.13:_ZN8Capacity8unitNameENS_4UnitEx
libkpmcore.so.13:_ZN8CapacityC1ERK9PartitionNS_4TypeE
libkpmcore.so.13:_ZN8CapacityC1Ex
libkpmcore.so.13:_ZN9GlobalLog10newMessageEN3Log5LevelERK7QString
libkpmcore.so.13:_ZN9GlobalLog16staticMetaObjectE
libkpmcore.so.13:_ZN9GlobalLog8instanceEv
libkpmcore.so.13:_ZN9LvmDevice10s_DirtyPVsE
libkpmcore.so.13:_ZN9LvmDevice11s_OrphanPVsE
libkpmcore.so.13:_ZN9Operation10jobStartedEP3JobPS_
libkpmcore.so.13:_ZN9Operation11jobFinishedEP3JobPS_
libkpmcore.so.13:_ZN9Operation16staticMetaObjectE
libkpmcore.so.13:_ZN9Partition13setFileSystemEP10FileSystem
libkpmcore.so.13:_ZN9Partition16deleteFileSystemEv
libkpmcore.so.13:_ZN9Partition16setPartitionPathERK7QString
libkpmcore.so.13:_ZN9Partition20checkChildrenMountedEv
libkpmcore.so.13:_ZN9Partition4moveEx
libkpmcore.so.13:_ZN9Partition5mountER6Report
libkpmcore.so.13:_ZN9Partition7unmountER6Report
libkpmcore.so.13:_ZN9PartitionC1EP13PartitionNodeRK6DeviceRK13PartitionRoleP10FileSystemxx7QString6QFlagsIN14PartitionTable4FlagEERKSA_bSE_NS_5StateE
libkpmcore.so.13:_ZN9PartitionC1ERKS_P13PartitionNode
libkpmcore.so.13:_ZN9PartitionD1Ev
libkpmcore.so.13:_ZNK10DiskDevice12totalSectorsEv
libkpmcore.so.13:_ZNK10DiskDevice17logicalSectorSizeEv
libkpmcore.so.13:_ZNK10DiskDevice18physicalSectorSizeEv
libkpmcore.so.13:_ZNK10FileSystem10lastSectorEv
libkpmcore.so.13:_ZNK10FileSystem11firstSectorEv
libkpmcore.so.13:_ZNK10FileSystem11sectorsUsedEv
libkpmcore.so.13:_ZNK10FileSystem4uuidEv
libkpmcore.so.13:_ZNK10FileSystem5labelEv
libkpmcore.so.13:_ZNK10FstabEntry10deviceNodeEv
libkpmcore.so.13:_ZNK10FstabEntry10passNumberEv
libkpmcore.so.13:_ZNK10FstabEntry6fsSpecEv
libkpmcore.so.13:_ZNK10FstabEntry7optionsEv
libkpmcore.so.13:_ZNK10FstabEntry8dumpFreqEv
libkpmcore.so.13:_ZNK10FstabEntry9entryTypeEv
libkpmcore.so.13:_ZNK12SoftwareRAID10totalChunkEv
libkpmcore.so.13:_ZNK12SoftwareRAID9arraySizeEv
libkpmcore.so.13:_ZNK12SoftwareRAID9chunkSizeEv
libkpmcore.so.13:_ZNK12SoftwareRAID9raidLevelEv
libkpmcore.so.13:_ZNK13PartitionRole8toStringERK5QListI7QStringE
libkpmcore.so.13:_ZNK14OperationStack8containsEPK9Partition
libkpmcore.so.13:_ZNK14PartWidgetBase12childWidgetsEv
libkpmcore.so.13:_ZNK14PartWidgetBase16positionChildrenEPK7QWidgetRK5QListIP9PartitionES3_IP10PartWidgetE
libkpmcore.so.13:_ZNK14PartitionTable10childRolesERK9Partition
libkpmcore.so.13:_ZNK14PartitionTable11freeSectorsEv
libkpmcore.so.13:_ZNK14PartitionTable12numPrimariesEv
libkpmcore.so.13:_ZNK14PartitionTable16freeSectorsAfterERK9Partition
libkpmcore.so.13:_ZNK14PartitionTable17freeSectorsBeforeERK9Partition
libkpmcore.so.13:_ZNK15OperationRunner13numOperationsEv
libkpmcore.so.13:_ZNK15OperationRunner7numJobsEv
libkpmcore.so.13:_ZNK18CoreBackendManager4listEv
libkpmcore.so.13:_ZNK2FS4luks11isCryptOpenEv
libkpmcore.so.13:_ZNK2FS4luks12canCryptOpenERK7QString
libkpmcore.so.13:_ZNK2FS4luks13canCryptCloseERK7QString
libkpmcore.so.13:_ZNK2FS4luks14cryptOpenTitleEv
libkpmcore.so.13:_ZNK2FS4luks14testPassphraseERK7QStringS3_
libkpmcore.so.13:_ZNK2FS4luks15cryptCloseTitleEv
libkpmcore.so.13:_ZNK6Report6toHtmlEv
libkpmcore.so.13:_ZNK6Report6toTextEv
libkpmcore.so.13:_ZNK8Capacity7isValidEv
libkpmcore.so.13:_ZNK8Capacity8toDoubleENS_4UnitE
libkpmcore.so.13:_ZNK9LvmDevice11allocatedPEEv
libkpmcore.so.13:_ZNK9LvmDevice6freePEEv
libkpmcore.so.13:_ZNK9LvmDevice6peSizeEv
libkpmcore.so.13:_ZNK9LvmDevice7totalPEEv
libkpmcore.so.13:_ZNK9Operation13totalProgressEv
libkpmcore.so.13:_ZNK9Partition10canUnmountEv
libkpmcore.so.13:_ZNK9Partition10deviceNodeEv
libkpmcore.so.13:_ZNK9Partition11sectorsUsedEv
libkpmcore.so.13:_ZNK9Partition13minLastSectorEv
libkpmcore.so.13:_ZNK9Partition14maxFirstSectorEv
libkpmcore.so.13:_ZNK9Partition14maximumSectorsEv
libkpmcore.so.13:_ZNK9Partition14minimumSectorsEv
libkpmcore.so.13:_ZNK9Partition8canMountEv
libkpmcore.so.13:_ZTI10FileSystem
libkpmcore.so.13:_ZTI13PartitionNode
libkpmcore.so.13:_ZTI14PartWidgetBase
libkpmcore.so.13:_ZTI15DeleteOperation
libkpmcore.so.13:_ZTI19VolumeManagerDevice
libkpmcore.so.13:_ZTI6Device
libkpmcore.so.13:_ZTI9LvmDevice
libkpmcore.so.13:_ZTI9Operation
libkpmcore.so.13:_ZTI9Partition
libkpmcore.so.13:_ZTIN2FS4luksE
libkpmcore.so.13:_ZTIN2FS5luks2E
libkpmcore.so.13:_ZTIN2FS7lvm2_pvE
libkpmcore.so.13:_ZlsR11QTextStreamRK14PartitionTable
libpolkit-qt6-core-1.so.1:_ZN9PolkitQt118UnixProcessSubjectC1Ex
libpolkit-qt6-core-1.so.1:_ZN9PolkitQt17SubjectD2Ev
libpolkit-qt6-core-1.so.1:_ZN9PolkitQt19Authority10clearErrorEv
libpolkit-qt6-core-1.so.1:_ZN9PolkitQt19Authority16staticMetaObjectE
libpolkit-qt6-core-1.so.1:_ZN9PolkitQt19Authority18checkAuthorizationERK7QStringRKNS_7SubjectE6QFlagsINS0_17AuthorizationFlagEE
libpolkit-qt6-core-1.so.1:_ZN9PolkitQt19Authority26checkAuthorizationFinishedENS0_6ResultE
libpolkit-qt6-core-1.so.1:_ZN9PolkitQt19Authority8instanceEP16_PolkitAuthority
libpolkit-qt6-core-1.so.1:_ZNK9PolkitQt19Authority12errorDetailsEv
libpolkit-qt6-core-1.so.1:_ZNK9PolkitQt19Authority8hasErrorEv
libpolkit-qt6-core-1.so.1:_ZNK9PolkitQt19Authority9lastErrorEv
libstdc++.so.6:_ZSt18_Rb_tree_decrementPSt18_Rb_tree_node_base
libstdc++.so.6:_ZSt18_Rb_tree_incrementPSt18_Rb_tree_node_base
libstdc++.so.6:_ZSt20__throw_length_errorPKc
libstdc++.so.6:_ZSt29_Rb_tree_insert_and_rebalancebPSt18_Rb_tree_node_baseS0_RS_
libstdc++.so.6:_ZTVN10__cxxabiv117__class_type_infoE
libstdc++.so.6:_ZTVN10__cxxabiv120__si_class_type_infoE
libstdc++.so.6:_ZTVN10__cxxabiv121__vmi_class_type_infoE
libstdc++.so.6:_ZdlPv
libstdc++.so.6:_ZdlPvm
libstdc++.so.6:_Znwm
libstdc++.so.6:__cxa_bad_cast
libstdc++.so.6:__cxa_guard_acquire
libstdc++.so.6:__cxa_guard_release
libstdc++.so.6:__dynamic_cast
