libMpvQt.so.1:_Z13on_mpv_redrawPv
libMpvQt.so.1:_ZN11MpvRenderer23createFramebufferObjectERK5QSize
libMpvQt.so.1:_ZN11MpvRenderer6renderEv
libMpvQt.so.1:_ZN11MpvRendererC1EP15MpvAbstractItem
libMpvQt.so.1:_ZN11MpvRendererC2EP15MpvAbstractItem
libMpvQt.so.1:_ZN13MpvController10asyncReplyERK8QVariant9mpv_event
libMpvQt.so.1:_ZN13MpvController10fileLoadedEv
libMpvQt.so.1:_ZN13MpvController11fileStartedEv
libMpvQt.so.1:_ZN13MpvController11getPropertyERK7QString
libMpvQt.so.1:_ZN13MpvController11qt_metacallEN11QMetaObject4CallEiPPv
libMpvQt.so.1:_ZN13MpvController11qt_metacastEPKc
libMpvQt.so.1:_ZN13MpvController11setPropertyERK7QStringRK8QVariant
libMpvQt.so.1:_ZN13MpvController12commandAsyncERK8QVarianti
libMpvQt.so.1:_ZN13MpvController12eventHandlerEv
libMpvQt.so.1:_ZN13MpvController13videoReconfigEv
libMpvQt.so.1:_ZN13MpvController15observePropertyERK7QString10mpv_format
libMpvQt.so.1:_ZN13MpvController15propertyChangedERK7QStringRK8QVariant
libMpvQt.so.1:_ZN13MpvController16getPropertyAsyncERK7QStringi
libMpvQt.so.1:_ZN13MpvController16setPropertyAsyncERK7QStringRK8QVarianti
libMpvQt.so.1:_ZN13MpvController16staticMetaObjectE
libMpvQt.so.1:_ZN13MpvController4initEv
libMpvQt.so.1:_ZN13MpvController7commandERK8QVariant
libMpvQt.so.1:_ZN13MpvController7endFileE7QString
libMpvQt.so.1:_ZN13MpvController8getErrorEi
libMpvQt.so.1:_ZN13MpvController9mpvEventsEPv
libMpvQt.so.1:_ZN13MpvControllerC1EP7QObject
libMpvQt.so.1:_ZN13MpvControllerC2EP7QObject
libMpvQt.so.1:_ZN15MpvAbstractItem10expandTextERK7QString
libMpvQt.so.1:_ZN15MpvAbstractItem11getPropertyERK7QString
libMpvQt.so.1:_ZN15MpvAbstractItem11qt_metacallEN11QMetaObject4CallEiPPv
libMpvQt.so.1:_ZN15MpvAbstractItem11qt_metacastEPKc
libMpvQt.so.1:_ZN15MpvAbstractItem11setPropertyERK7QStringRK8QVariant
libMpvQt.so.1:_ZN15MpvAbstractItem12commandAsyncERK5QListI7QStringEi
libMpvQt.so.1:_ZN15MpvAbstractItem13mpvControllerEv
libMpvQt.so.1:_ZN15MpvAbstractItem15commandBlockingERK8QVariant
libMpvQt.so.1:_ZN15MpvAbstractItem15observePropertyERK7QString10mpv_format
libMpvQt.so.1:_ZN15MpvAbstractItem16getPropertyAsyncERK7QStringi
libMpvQt.so.1:_ZN15MpvAbstractItem16setPropertyAsyncERK7QStringRK8QVarianti
libMpvQt.so.1:_ZN15MpvAbstractItem16staticMetaObjectE
libMpvQt.so.1:_ZN15MpvAbstractItem19setPropertyBlockingERK7QStringRK8QVariant
libMpvQt.so.1:_ZN15MpvAbstractItem5readyEv
libMpvQt.so.1:_ZN15MpvAbstractItem7commandERK5QListI7QStringE
libMpvQt.so.1:_ZN15MpvAbstractItemC1EP10QQuickItem
libMpvQt.so.1:_ZN15MpvAbstractItemC2EP10QQuickItem
libMpvQt.so.1:_ZN15MpvAbstractItemD0Ev
libMpvQt.so.1:_ZN15MpvAbstractItemD1Ev
libMpvQt.so.1:_ZN15MpvAbstractItemD2Ev
libMpvQt.so.1:_ZN20MpvControllerPrivate10createListEP8mpv_nodebi
libMpvQt.so.1:_ZN20MpvControllerPrivate7setNodeEP8mpv_nodeRK8QVariant
libMpvQt.so.1:_ZN20MpvControllerPrivate8freeNodeEP8mpv_node
libMpvQt.so.1:_ZN20MpvControllerPrivate8testTypeERK8QVariantN9QMetaType4TypeE
libMpvQt.so.1:_ZN20MpvControllerPrivateC1EP13MpvController
libMpvQt.so.1:_ZN20MpvControllerPrivateC2EP13MpvController
libMpvQt.so.1:_ZN22MpvAbstractItemPrivateC1EP15MpvAbstractItem
libMpvQt.so.1:_ZN22MpvAbstractItemPrivateC2EP15MpvAbstractItem
libMpvQt.so.1:_ZNK13MpvController10metaObjectEv
libMpvQt.so.1:_ZNK13MpvController3mpvEv
libMpvQt.so.1:_ZNK15MpvAbstractItem10metaObjectEv
libMpvQt.so.1:_ZNK15MpvAbstractItem14createRendererEv
libMpvQt.so.1:_ZTI11MpvRenderer
libMpvQt.so.1:_ZTI13MpvController
libMpvQt.so.1:_ZTI15MpvAbstractItem
libMpvQt.so.1:_ZTS11MpvRenderer
libMpvQt.so.1:_ZTS13MpvController
libMpvQt.so.1:_ZTS15MpvAbstractItem
libMpvQt.so.1:_ZTV11MpvRenderer
libMpvQt.so.1:_ZTV13MpvController
libMpvQt.so.1:_ZTV15MpvAbstractItem
libMpvQt.so.1:_ZThn16_N15MpvAbstractItemD0Ev
libMpvQt.so.1:_ZThn16_N15MpvAbstractItemD1Ev
