kcm_kget_bittorrentfactory.so:_ZN18BittorrentSettings4selfEv
kcm_kget_bittorrentfactory.so:_ZN18BittorrentSettingsC1Ev
kcm_kget_bittorrentfactory.so:_ZN18BittorrentSettingsC2Ev
kcm_kget_bittorrentfactory.so:_ZN18BittorrentSettingsD0Ev
kcm_kget_bittorrentfactory.so:_ZN18BittorrentSettingsD1Ev
kcm_kget_bittorrentfactory.so:_ZN18BittorrentSettingsD2Ev
kcm_kget_bittorrentfactory.so:qt_plugin_instance
kcm_kget_bittorrentfactory.so:qt_plugin_query_metadata
kcm_kget_checksumsearchfactory.so:_ZN22ChecksumSearchSettings4selfEv
kcm_kget_checksumsearchfactory.so:_ZN22ChecksumSearchSettingsC1Ev
kcm_kget_checksumsearchfactory.so:_ZN22ChecksumSearchSettingsC2Ev
kcm_kget_checksumsearchfactory.so:_ZN22ChecksumSearchSettingsD0Ev
kcm_kget_checksumsearchfactory.so:_ZN22ChecksumSearchSettingsD1Ev
kcm_kget_checksumsearchfactory.so:_ZN22ChecksumSearchSettingsD2Ev
kcm_kget_checksumsearchfactory.so:__bss_start
kcm_kget_checksumsearchfactory.so:_edata
kcm_kget_checksumsearchfactory.so:_end
kcm_kget_checksumsearchfactory.so:qt_plugin_instance
kcm_kget_checksumsearchfactory.so:qt_plugin_query_metadata
kcm_kget_metalinkfactory.so:_ZN16MetalinkSettings4selfEv
kcm_kget_metalinkfactory.so:_ZN16MetalinkSettingsC1Ev
kcm_kget_metalinkfactory.so:_ZN16MetalinkSettingsC2Ev
kcm_kget_metalinkfactory.so:_ZN16MetalinkSettingsD0Ev
kcm_kget_metalinkfactory.so:_ZN16MetalinkSettingsD1Ev
kcm_kget_metalinkfactory.so:_ZN16MetalinkSettingsD2Ev
kcm_kget_metalinkfactory.so:qt_plugin_instance
kcm_kget_metalinkfactory.so:qt_plugin_query_metadata
kcm_kget_mirrorsearchfactory.so:_ZN20MirrorSearchSettings4selfEv
kcm_kget_mirrorsearchfactory.so:_ZN20MirrorSearchSettingsC1Ev
kcm_kget_mirrorsearchfactory.so:_ZN20MirrorSearchSettingsC2Ev
kcm_kget_mirrorsearchfactory.so:_ZN20MirrorSearchSettingsD0Ev
kcm_kget_mirrorsearchfactory.so:_ZN20MirrorSearchSettingsD1Ev
kcm_kget_mirrorsearchfactory.so:_ZN20MirrorSearchSettingsD2Ev
kcm_kget_mirrorsearchfactory.so:qt_plugin_instance
kcm_kget_mirrorsearchfactory.so:qt_plugin_query_metadata
kcm_kget_mmsfactory.so:_ZN11MmsSettings4selfEv
kcm_kget_mmsfactory.so:_ZN11MmsSettingsC1Ev
kcm_kget_mmsfactory.so:_ZN11MmsSettingsC2Ev
kcm_kget_mmsfactory.so:_ZN11MmsSettingsD0Ev
kcm_kget_mmsfactory.so:_ZN11MmsSettingsD1Ev
kcm_kget_mmsfactory.so:_ZN11MmsSettingsD2Ev
kcm_kget_mmsfactory.so:qt_plugin_instance
kcm_kget_mmsfactory.so:qt_plugin_query_metadata
kcm_kget_multisegkiofactory.so:_ZN19MultiSegKioSettings4selfEv
kcm_kget_multisegkiofactory.so:_ZN19MultiSegKioSettingsC1Ev
kcm_kget_multisegkiofactory.so:_ZN19MultiSegKioSettingsC2Ev
kcm_kget_multisegkiofactory.so:_ZN19MultiSegKioSettingsD0Ev
kcm_kget_multisegkiofactory.so:_ZN19MultiSegKioSettingsD1Ev
kcm_kget_multisegkiofactory.so:_ZN19MultiSegKioSettingsD2Ev
kcm_kget_multisegkiofactory.so:qt_plugin_instance
kcm_kget_multisegkiofactory.so:qt_plugin_query_metadata
kget_bittorrent.so:_ZN18BittorrentSettings4selfEv
kget_bittorrent.so:_ZN18BittorrentSettingsC1Ev
kget_bittorrent.so:_ZN18BittorrentSettingsC2Ev
kget_bittorrent.so:_ZN18BittorrentSettingsD0Ev
kget_bittorrent.so:_ZN18BittorrentSettingsD1Ev
kget_bittorrent.so:_ZN18BittorrentSettingsD2Ev
kget_bittorrent.so:__bss_start
kget_bittorrent.so:_edata
kget_bittorrent.so:_end
kget_bittorrent.so:qt_plugin_instance
kget_bittorrent.so:qt_plugin_query_metadata
kget_browser_integration.so:qt_plugin_instance
kget_browser_integration.so:qt_plugin_query_metadata
kget_checksumsearchfactory.so:_ZN22ChecksumSearchSettings4selfEv
kget_checksumsearchfactory.so:_ZN22ChecksumSearchSettingsC1Ev
kget_checksumsearchfactory.so:_ZN22ChecksumSearchSettingsC2Ev
kget_checksumsearchfactory.so:_ZN22ChecksumSearchSettingsD0Ev
kget_checksumsearchfactory.so:_ZN22ChecksumSearchSettingsD1Ev
kget_checksumsearchfactory.so:_ZN22ChecksumSearchSettingsD2Ev
kget_checksumsearchfactory.so:__bss_start
kget_checksumsearchfactory.so:_edata
kget_checksumsearchfactory.so:_end
kget_checksumsearchfactory.so:qt_plugin_instance
kget_checksumsearchfactory.so:qt_plugin_query_metadata
kget_kio.so:__bss_start
kget_kio.so:_edata
kget_kio.so:_end
kget_kio.so:qt_plugin_instance
kget_kio.so:qt_plugin_query_metadata
kget_metalinkfactory.so:_ZN16MetalinkSettings4selfEv
kget_metalinkfactory.so:_ZN16MetalinkSettingsC1Ev
kget_metalinkfactory.so:_ZN16MetalinkSettingsC2Ev
kget_metalinkfactory.so:_ZN16MetalinkSettingsD0Ev
kget_metalinkfactory.so:_ZN16MetalinkSettingsD1Ev
kget_metalinkfactory.so:_ZN16MetalinkSettingsD2Ev
kget_metalinkfactory.so:__bss_start
kget_metalinkfactory.so:_edata
kget_metalinkfactory.so:_end
kget_metalinkfactory.so:qt_plugin_instance
kget_metalinkfactory.so:qt_plugin_query_metadata
kget_mirrorsearchfactory.so:_ZN20MirrorSearchSettings4selfEv
kget_mirrorsearchfactory.so:_ZN20MirrorSearchSettingsC1Ev
kget_mirrorsearchfactory.so:_ZN20MirrorSearchSettingsC2Ev
kget_mirrorsearchfactory.so:_ZN20MirrorSearchSettingsD0Ev
kget_mirrorsearchfactory.so:_ZN20MirrorSearchSettingsD1Ev
kget_mirrorsearchfactory.so:_ZN20MirrorSearchSettingsD2Ev
kget_mirrorsearchfactory.so:__bss_start
kget_mirrorsearchfactory.so:_edata
kget_mirrorsearchfactory.so:_end
kget_mirrorsearchfactory.so:qt_plugin_instance
kget_mirrorsearchfactory.so:qt_plugin_query_metadata
kget_mmsfactory.so:_ZN11MmsSettings4selfEv
kget_mmsfactory.so:_ZN11MmsSettingsC1Ev
kget_mmsfactory.so:_ZN11MmsSettingsC2Ev
kget_mmsfactory.so:_ZN11MmsSettingsD0Ev
kget_mmsfactory.so:_ZN11MmsSettingsD1Ev
kget_mmsfactory.so:_ZN11MmsSettingsD2Ev
kget_mmsfactory.so:__bss_start
kget_mmsfactory.so:_edata
kget_mmsfactory.so:_end
kget_mmsfactory.so:qt_plugin_instance
kget_mmsfactory.so:qt_plugin_query_metadata
kget_multisegkiofactory.so:_ZN19MultiSegKioSettings4selfEv
kget_multisegkiofactory.so:_ZN19MultiSegKioSettingsC1Ev
kget_multisegkiofactory.so:_ZN19MultiSegKioSettingsC2Ev
kget_multisegkiofactory.so:_ZN19MultiSegKioSettingsD0Ev
kget_multisegkiofactory.so:_ZN19MultiSegKioSettingsD1Ev
kget_multisegkiofactory.so:_ZN19MultiSegKioSettingsD2Ev
kget_multisegkiofactory.so:__bss_start
kget_multisegkiofactory.so:_edata
kget_multisegkiofactory.so:_end
kget_multisegkiofactory.so:qt_plugin_instance
kget_multisegkiofactory.so:qt_plugin_query_metadata
libkgetcore.so.5:_Z12mostLocalUrlRK4QUrl
libkgetcore.so.5:_Z15mostLocalUrlJobRK4QUrl
libkgetcore.so.5:_ZN10KGetPlugin11qt_metacallEN11QMetaObject4CallEiPPv
libkgetcore.so.5:_ZN10KGetPlugin11qt_metacastEPKc
libkgetcore.so.5:_ZN10KGetPlugin16staticMetaObjectE
libkgetcore.so.5:_ZN10KGetPluginC1EP7QObjectRK5QListI8QVariantE
libkgetcore.so.5:_ZN10KGetPluginC2EP7QObjectRK5QListI8QVariantE
libkgetcore.so.5:_ZN10KGetPluginD0Ev
libkgetcore.so.5:_ZN10KGetPluginD1Ev
libkgetcore.so.5:_ZN10KGetPluginD2Ev
libkgetcore.so.5:_ZN10UrlChecker11checkFolderERK4QUrlb
libkgetcore.so.5:_ZN10UrlChecker11checkSourceERK4QUrlb
libkgetcore.so.5:_ZN10UrlChecker14existingSourceERK4QUrlRNS_10UrlWarningE
libkgetcore.so.5:_ZN10UrlChecker14wouldOverwriteERK4QUrlS2_
libkgetcore.so.5:_ZN10UrlChecker15removeTransfersERK5QListIP15TransferHandlerE
libkgetcore.so.5:_ZN10UrlChecker16checkDestinationERK4QUrlb
libkgetcore.so.5:_ZN10UrlChecker16existingTransferERK4QUrlNS_7UrlTypeEPNS_10UrlWarningE
libkgetcore.so.5:_ZN10UrlChecker16removeDuplicatesER5QListI4QUrlE
libkgetcore.so.5:_ZN10UrlChecker17checkExistingFileERK4QUrlS2_
libkgetcore.so.5:_ZN10UrlChecker17existingTransfersEv
libkgetcore.so.5:_ZN10UrlChecker17hasExistingDialogERK4QUrlNS_7UrlTypeENS_10UrlWarningE
libkgetcore.so.5:_ZN10UrlChecker19existingDestinationERK4QUrlRNS_10UrlWarningE
libkgetcore.so.5:_ZN10UrlChecker20displayErrorMessagesEv
libkgetcore.so.5:_ZN10UrlChecker27hasExistingTransferMessagesERK5QListI4QUrlENS_7UrlTypeE
libkgetcore.so.5:_ZN10UrlChecker5clearEv
libkgetcore.so.5:_ZN10UrlChecker6addUrlERK4QUrl
libkgetcore.so.5:_ZN10UrlChecker7addUrlsERK5QListI4QUrlE
libkgetcore.so.5:_ZN10UrlChecker7destUrlERK4QUrlS2_RK7QString
libkgetcore.so.5:_ZN10UrlChecker7messageERK4QUrlNS_7UrlTypeENS_10UrlWarningE
libkgetcore.so.5:_ZN10UrlChecker7messageERK4QUrlNS_7UrlTypeENS_8UrlErrorE
libkgetcore.so.5:_ZN10UrlChecker7messageERK5QListI4QUrlENS_7UrlTypeENS_10UrlWarningE
libkgetcore.so.5:_ZN10UrlChecker7messageERK5QListI4QUrlENS_7UrlTypeENS_8UrlErrorE
libkgetcore.so.5:_ZN10UrlChecker7setTypeENS_7UrlTypeE
libkgetcore.so.5:_ZN10UrlChecker8checkUrlERK4QUrlNS_7UrlTypeEb
libkgetcore.so.5:_ZN10UrlCheckerC1ENS_7UrlTypeE
libkgetcore.so.5:_ZN10UrlCheckerC2ENS_7UrlTypeE
libkgetcore.so.5:_ZN10UrlCheckerD1Ev
libkgetcore.so.5:_ZN10UrlCheckerD2Ev
libkgetcore.so.5:_ZN11FileDeleter10deleteFileERK4QUrlP7QObjectPKc
libkgetcore.so.5:_ZN11FileDeleter18isFileBeingDeletedERK4QUrl
libkgetcore.so.5:_ZN11FileDeleter7Private10deleteFileERK4QUrlP7QObjectPKc
libkgetcore.so.5:_ZN11FileDeleter7Private10slotResultEP4KJob
libkgetcore.so.5:_ZN11FileDeleter7Private11qt_metacallEN11QMetaObject4CallEiPPv
libkgetcore.so.5:_ZN11FileDeleter7Private11qt_metacastEPKc
libkgetcore.so.5:_ZN11FileDeleter7Private16staticMetaObjectE
libkgetcore.so.5:_ZN11FileDeleter7PrivateC1Ev
libkgetcore.so.5:_ZN11FileDeleter7PrivateC2Ev
libkgetcore.so.5:_ZN11FileDeleter7PrivateD0Ev
libkgetcore.so.5:_ZN11FileDeleter7PrivateD1Ev
libkgetcore.so.5:_ZN11FileDeleter7PrivateD2Ev
libkgetcore.so.5:_ZN11FileDeleterC1Ev
libkgetcore.so.5:_ZN11FileDeleterC2Ev
libkgetcore.so.5:_ZN11FileDeleterD1Ev
libkgetcore.so.5:_ZN11FileDeleterD2Ev
libkgetcore.so.5:_ZN12LinkImporter11addTransferER7QString
libkgetcore.so.5:_ZN12LinkImporter11qt_metacallEN11QMetaObject4CallEiPPv
libkgetcore.so.5:_ZN12LinkImporter11qt_metacastEPKc
libkgetcore.so.5:_ZN12LinkImporter12slotReadFileERK4QUrl
libkgetcore.so.5:_ZN12LinkImporter14checkClipboardERK7QString
libkgetcore.so.5:_ZN12LinkImporter14copyRemoteFileEv
libkgetcore.so.5:_ZN12LinkImporter16staticMetaObjectE
libkgetcore.so.5:_ZN12LinkImporter3runEv
libkgetcore.so.5:_ZN12LinkImporter5errorERK16KLocalizedString
libkgetcore.so.5:_ZN12LinkImporter8progressEi
libkgetcore.so.5:_ZN12LinkImporterC1EP7QObject
libkgetcore.so.5:_ZN12LinkImporterC1ERK4QUrlP7QObject
libkgetcore.so.5:_ZN12LinkImporterC2EP7QObject
libkgetcore.so.5:_ZN12LinkImporterC2ERK4QUrlP7QObject
libkgetcore.so.5:_ZN12LinkImporterD0Ev
libkgetcore.so.5:_ZN12LinkImporterD1Ev
libkgetcore.so.5:_ZN12LinkImporterD2Ev
libkgetcore.so.5:_ZN13TransferGroup11qt_metacallEN11QMetaObject4CallEiPPv
libkgetcore.so.5:_ZN13TransferGroup11qt_metacastEPKc
libkgetcore.so.5:_ZN13TransferGroup11uploadSpeedEv
libkgetcore.so.5:_ZN13TransferGroup12findTransferERK4QUrl
libkgetcore.so.5:_ZN13TransferGroup13downloadSpeedEv
libkgetcore.so.5:_ZN13TransferGroup14setUploadLimitEiN8Transfer10SpeedLimitE
libkgetcore.so.5:_ZN13TransferGroup16setDownloadLimitEiN8Transfer10SpeedLimitE
libkgetcore.so.5:_ZN13TransferGroup16staticMetaObjectE
libkgetcore.so.5:_ZN13TransferGroup19supportsSpeedLimitsEv
libkgetcore.so.5:_ZN13TransferGroup20calculateSpeedLimitsEv
libkgetcore.so.5:_ZN13TransferGroup20calculateUploadLimitEv
libkgetcore.so.5:_ZN13TransferGroup22calculateDownloadLimitEv
libkgetcore.so.5:_ZN13TransferGroup25findTransferByDestinationERK4QUrl
libkgetcore.so.5:_ZN13TransferGroup4loadERK11QDomElement
libkgetcore.so.5:_ZN13TransferGroup4moveEP8TransferS1_
libkgetcore.so.5:_ZN13TransferGroup4saveE11QDomElement
libkgetcore.so.5:_ZN13TransferGroup6appendEP8Transfer
libkgetcore.so.5:_ZN13TransferGroup6appendERK5QListIP8TransferE
libkgetcore.so.5:_ZN13TransferGroup6insertEP8TransferS1_
libkgetcore.so.5:_ZN13TransferGroup6removeEP8Transfer
libkgetcore.so.5:_ZN13TransferGroup6removeERK5QListIP8TransferE
libkgetcore.so.5:_ZN13TransferGroup7prependEP8Transfer
libkgetcore.so.5:_ZN13TransferGroup9setStatusEN8JobQueue6StatusE
libkgetcore.so.5:_ZN13TransferGroupC1EP17TransferTreeModelP9SchedulerRK7QString
libkgetcore.so.5:_ZN13TransferGroupC2EP17TransferTreeModelP9SchedulerRK7QString
libkgetcore.so.5:_ZN13TransferGroupD0Ev
libkgetcore.so.5:_ZN13TransferGroupD1Ev
libkgetcore.so.5:_ZN13TransferGroupD2Ev
libkgetcore.so.5:_ZN14GroupModelItem12groupHandlerEv
libkgetcore.so.5:_ZN14GroupModelItem7isGroupEv
libkgetcore.so.5:_ZN14GroupModelItemC1EP20TransferGroupHandler
libkgetcore.so.5:_ZN14GroupModelItemC2EP20TransferGroupHandler
libkgetcore.so.5:_ZN14GroupModelItemD0Ev
libkgetcore.so.5:_ZN14GroupModelItemD1Ev
libkgetcore.so.5:_ZN14GroupModelItemD2Ev
libkgetcore.so.5:_ZN15MostLocalUrlJob10slotResultEP4KJob
libkgetcore.so.5:_ZN15MostLocalUrlJob11qt_metacallEN11QMetaObject4CallEiPPv
libkgetcore.so.5:_ZN15MostLocalUrlJob11qt_metacastEPKc
libkgetcore.so.5:_ZN15MostLocalUrlJob16staticMetaObjectE
libkgetcore.so.5:_ZN15MostLocalUrlJob3urlEv
libkgetcore.so.5:_ZN15MostLocalUrlJob5startEv
libkgetcore.so.5:_ZN15MostLocalUrlJobC1ERK4QUrl
libkgetcore.so.5:_ZN15MostLocalUrlJobC2ERK4QUrl
libkgetcore.so.5:_ZN15TransferFactory11qt_metacallEN11QMetaObject4CallEiPPv
libkgetcore.so.5:_ZN15TransferFactory11qt_metacastEPKc
libkgetcore.so.5:_ZN15TransferFactory14createTransferERK4QUrlS2_P13TransferGroupP9SchedulerPK11QDomElement
libkgetcore.so.5:_ZN15TransferFactory16staticMetaObjectE
libkgetcore.so.5:_ZN15TransferFactory19createDetailsWidgetEP15TransferHandler
libkgetcore.so.5:_ZN15TransferFactory21createTransferHandlerEP8TransferP9Scheduler
libkgetcore.so.5:_ZN15TransferFactory23createNewTransferDialogERK4QUrlRK7QStringP20TransferGroupHandler
libkgetcore.so.5:_ZN15TransferFactory24createTransferDataSourceERK4QUrlRK11QDomElementP7QObject
libkgetcore.so.5:_ZN15TransferFactory7actionsEP15TransferHandler
libkgetcore.so.5:_ZN15TransferFactoryC1EP7QObjectRK5QListI8QVariantE
libkgetcore.so.5:_ZN15TransferFactoryC2EP7QObjectRK5QListI8QVariantE
libkgetcore.so.5:_ZN15TransferHandler11qt_metacallEN11QMetaObject4CallEiPPv
libkgetcore.so.5:_ZN15TransferHandler11qt_metacastEPKc
libkgetcore.so.5:_ZN15TransferHandler11setSelectedEb
libkgetcore.so.5:_ZN15TransferHandler14contextActionsEv
libkgetcore.so.5:_ZN15TransferHandler14factoryActionsEv
libkgetcore.so.5:_ZN15TransferHandler16staticMetaObjectE
libkgetcore.so.5:_ZN15TransferHandler17resetChangesFlagsEv
libkgetcore.so.5:_ZN15TransferHandler17setTransferChangeEib
libkgetcore.so.5:_ZN15TransferHandler19capabilitiesChangedEv
libkgetcore.so.5:_ZN15TransferHandler20transferChangedEventEPS_i
libkgetcore.so.5:_ZN15TransferHandler4dataEi
libkgetcore.so.5:_ZN15TransferHandler4stopEv
libkgetcore.so.5:_ZN15TransferHandler5startEv
libkgetcore.so.5:_ZN15TransferHandler7destroyEv
libkgetcore.so.5:_ZN15TransferHandlerC1EP8TransferP9Scheduler
libkgetcore.so.5:_ZN15TransferHandlerC2EP8TransferP9Scheduler
libkgetcore.so.5:_ZN15TransferHandlerD0Ev
libkgetcore.so.5:_ZN15TransferHandlerD1Ev
libkgetcore.so.5:_ZN15TransferHandlerD2Ev
libkgetcore.so.5:_ZN17DataSourceFactory10killPutJobEv
libkgetcore.so.5:_ZN17DataSourceFactory10setMirrorsERK5QHashI4QUrl5QPairIbiEE
libkgetcore.so.5:_ZN17DataSourceFactory10slotOffsetEPN3KIO3JobEy
libkgetcore.so.5:_ZN17DataSourceFactory10slotRepairERK5QListIxEy
libkgetcore.so.5:_ZN17DataSourceFactory11qt_metacallEN11QMetaObject4CallEiPPv
libkgetcore.so.5:_ZN17DataSourceFactory11qt_metacastEPKc
libkgetcore.so.5:_ZN17DataSourceFactory11slotPercentEP4KJobm
libkgetcore.so.5:_ZN17DataSourceFactory12changeStatusEN3Job6StatusE
libkgetcore.so.5:_ZN17DataSourceFactory12findFileSizeEv
libkgetcore.so.5:_ZN17DataSourceFactory12removeMirrorERK4QUrl
libkgetcore.so.5:_ZN17DataSourceFactory12speedChangedEv
libkgetcore.so.5:_ZN17DataSourceFactory13newDestResultEP4KJob
libkgetcore.so.5:_ZN17DataSourceFactory13setDoDownloadEb
libkgetcore.so.5:_ZN17DataSourceFactory13slotWriteDataExRK10QByteArrayRb
libkgetcore.so.5:_ZN17DataSourceFactory14assignSegmentsEP18TransferDataSource
libkgetcore.so.5:_ZN17DataSourceFactory14brokenSegmentsEP18TransferDataSourceRK5QPairIiiE
libkgetcore.so.5:_ZN17DataSourceFactory14checkLocalFileEv
libkgetcore.so.5:_ZN17DataSourceFactory14slotUrlChangedERK4QUrlS2_
libkgetcore.so.5:_ZN17DataSourceFactory15finishedSegmentEP18TransferDataSourceib
libkgetcore.so.5:_ZN17DataSourceFactory15slotDataWrittenEPN3KIO3JobEy
libkgetcore.so.5:_ZN17DataSourceFactory15slotRemovedFileEv
libkgetcore.so.5:_ZN17DataSourceFactory16slotFreeSegmentsEP18TransferDataSource5QPairIiiE
libkgetcore.so.5:_ZN17DataSourceFactory16staticMetaObjectE
libkgetcore.so.5:_ZN17DataSourceFactory17setNewDestinationERK4QUrl
libkgetcore.so.5:_ZN17DataSourceFactory17slotFoundFileSizeEP18TransferDataSourceyRK5QPairIiiE
libkgetcore.so.5:_ZN17DataSourceFactory19capabilitiesChangedEv
libkgetcore.so.5:_ZN17DataSourceFactory19slotPutJobDestroyedEP7QObject
libkgetcore.so.5:_ZN17DataSourceFactory20slotFinishedDownloadEP18TransferDataSourcey
libkgetcore.so.5:_ZN17DataSourceFactory22slotUpdateCapabilitiesEv
libkgetcore.so.5:_ZN17DataSourceFactory23dataSourceFactoryChangeEi
libkgetcore.so.5:_ZN17DataSourceFactory3logERK7QStringN8Transfer8LogLevelE
libkgetcore.so.5:_ZN17DataSourceFactory4initEv
libkgetcore.so.5:_ZN17DataSourceFactory4loadEPK11QDomElement
libkgetcore.so.5:_ZN17DataSourceFactory4saveERK11QDomElement
libkgetcore.so.5:_ZN17DataSourceFactory4stopEv
libkgetcore.so.5:_ZN17DataSourceFactory5startEv
libkgetcore.so.5:_ZN17DataSourceFactory6brokenEP18TransferDataSourceNS0_5ErrorE
libkgetcore.so.5:_ZN17DataSourceFactory6deinitEv
libkgetcore.so.5:_ZN17DataSourceFactory6repairEv
libkgetcore.so.5:_ZN17DataSourceFactory8slotOpenEPN3KIO3JobE
libkgetcore.so.5:_ZN17DataSourceFactory8verifierEv
libkgetcore.so.5:_ZN17DataSourceFactory9addMirrorERK4QUrlbi
libkgetcore.so.5:_ZN17DataSourceFactory9addMirrorERK4QUrlbib
libkgetcore.so.5:_ZN17DataSourceFactory9addMirrorERK4QUrli
libkgetcore.so.5:_ZN17DataSourceFactory9signatureEv
libkgetcore.so.5:_ZN17DataSourceFactory9startMoveEv
libkgetcore.so.5:_ZN17DataSourceFactoryC1EP7QObjectRK4QUrlyx
libkgetcore.so.5:_ZN17DataSourceFactoryC2EP7QObjectRK4QUrlyx
libkgetcore.so.5:_ZN17DataSourceFactoryD0Ev
libkgetcore.so.5:_ZN17DataSourceFactoryD1Ev
libkgetcore.so.5:_ZN17DataSourceFactoryD2Ev
libkgetcore.so.5:_ZN17TransferModelItem15transferHandlerEv
libkgetcore.so.5:_ZN17TransferModelItemC1EP15TransferHandler
libkgetcore.so.5:_ZN17TransferModelItemC2EP15TransferHandler
libkgetcore.so.5:_ZN17TransferModelItemD0Ev
libkgetcore.so.5:_ZN17TransferModelItemD1Ev
libkgetcore.so.5:_ZN17TransferModelItemD2Ev
libkgetcore.so.5:_ZN17TransferTreeModel10columnNameEi
libkgetcore.so.5:_ZN17TransferTreeModel10timerEventEP11QTimerEvent
libkgetcore.so.5:_ZN17TransferTreeModel11qt_metacallEN11QMetaObject4CallEiPPv
libkgetcore.so.5:_ZN17TransferTreeModel11qt_metacastEPKc
libkgetcore.so.5:_ZN17TransferTreeModel12addTransfersERK5QListIP8TransferEP13TransferGroup
libkgetcore.so.5:_ZN17TransferTreeModel12delTransfersERK5QListIP8TransferE
libkgetcore.so.5:_ZN17TransferTreeModel12dropMimeDataEPK9QMimeDataN2Qt10DropActionEiiRK11QModelIndex
libkgetcore.so.5:_ZN17TransferTreeModel12findTransferERK4QUrl
libkgetcore.so.5:_ZN17TransferTreeModel12moveTransferEP15TransferHandlerP20TransferGroupHandlerS1_
libkgetcore.so.5:_ZN17TransferTreeModel12moveTransferEP8TransferP13TransferGroupS1_
libkgetcore.so.5:_ZN17TransferTreeModel14transferGroupsEv
libkgetcore.so.5:_ZN17TransferTreeModel15groupAddedEventEP20TransferGroupHandler
libkgetcore.so.5:_ZN17TransferTreeModel15itemFromHandlerEP7Handler
libkgetcore.so.5:_ZN17TransferTreeModel16staticMetaObjectE
libkgetcore.so.5:_ZN17TransferTreeModel17groupRemovedEventEP20TransferGroupHandler
libkgetcore.so.5:_ZN17TransferTreeModel18groupsChangedEventE4QMapIP20TransferGroupHandleriE
libkgetcore.so.5:_ZN17TransferTreeModel18transferMovedEventEP15TransferHandlerP20TransferGroupHandler
libkgetcore.so.5:_ZN17TransferTreeModel19transfersAddedEventE5QListIP15TransferHandlerE
libkgetcore.so.5:_ZN17TransferTreeModel20postDataChangedEventEP15TransferHandler
libkgetcore.so.5:_ZN17TransferTreeModel20postDataChangedEventEP20TransferGroupHandler
libkgetcore.so.5:_ZN17TransferTreeModel21transfersChangedEventE4QMapIP15TransferHandleriE
libkgetcore.so.5:_ZN17TransferTreeModel21transfersRemovedEventERK5QListIP15TransferHandlerE
libkgetcore.so.5:_ZN17TransferTreeModel23itemFromTransferHandlerEP15TransferHandler
libkgetcore.so.5:_ZN17TransferTreeModel25findTransferByDestinationERK4QUrl
libkgetcore.so.5:_ZN17TransferTreeModel28findTransferByDBusObjectPathERK7QString
libkgetcore.so.5:_ZN17TransferTreeModel28itemFromTransferGroupHandlerEP20TransferGroupHandler
libkgetcore.so.5:_ZN17TransferTreeModel30transfersAboutToBeRemovedEventERK5QListIP15TransferHandlerE
libkgetcore.so.5:_ZN17TransferTreeModel6columnEN13TransferGroup11GroupChangeE
libkgetcore.so.5:_ZN17TransferTreeModel6columnEN8Transfer14TransferChangeE
libkgetcore.so.5:_ZN17TransferTreeModel8addGroupEP13TransferGroup
libkgetcore.so.5:_ZN17TransferTreeModel8delGroupEP13TransferGroup
libkgetcore.so.5:_ZN17TransferTreeModel9findGroupERK7QString
libkgetcore.so.5:_ZN17TransferTreeModelC1EP9Scheduler
libkgetcore.so.5:_ZN17TransferTreeModelC2EP9Scheduler
libkgetcore.so.5:_ZN17TransferTreeModelD0Ev
libkgetcore.so.5:_ZN17TransferTreeModelD1Ev
libkgetcore.so.5:_ZN17TransferTreeModelD2Ev
libkgetcore.so.5:_ZN17VerificationModel10removeRowsEiiRK11QModelIndex
libkgetcore.so.5:_ZN17VerificationModel11addChecksumERK7QStringS2_i
libkgetcore.so.5:_ZN17VerificationModel11qt_metacallEN11QMetaObject4CallEiPPv
libkgetcore.so.5:_ZN17VerificationModel11qt_metacastEPKc
libkgetcore.so.5:_ZN17VerificationModel12addChecksumsERK5QHashI7QStringS1_E
libkgetcore.so.5:_ZN17VerificationModel16staticMetaObjectE
libkgetcore.so.5:_ZN17VerificationModel21setVerificationStatusERK7QStringi
libkgetcore.so.5:_ZN17VerificationModel7setDataERK11QModelIndexRK8QVarianti
libkgetcore.so.5:_ZN17VerificationModelC1EP7QObject
libkgetcore.so.5:_ZN17VerificationModelC2EP7QObject
libkgetcore.so.5:_ZN18KGetSaveSizeDialog11qt_metacallEN11QMetaObject4CallEiPPv
libkgetcore.so.5:_ZN18KGetSaveSizeDialog11qt_metacastEPKc
libkgetcore.so.5:_ZN18KGetSaveSizeDialog16staticMetaObjectE
libkgetcore.so.5:_ZN18KGetSaveSizeDialogC1ERK10QByteArrayP7QWidget6QFlagsIN2Qt10WindowTypeEE
libkgetcore.so.5:_ZN18KGetSaveSizeDialogC2ERK10QByteArrayP7QWidget6QFlagsIN2Qt10WindowTypeEE
libkgetcore.so.5:_ZN18KGetSaveSizeDialogD0Ev
libkgetcore.so.5:_ZN18KGetSaveSizeDialogD1Ev
libkgetcore.so.5:_ZN18KGetSaveSizeDialogD2Ev
libkgetcore.so.5:_ZN18TransferDataSource10urlChangedERK4QUrlS2_
libkgetcore.so.5:_ZN18TransferDataSource11qt_metacallEN11QMetaObject4CallEiPPv
libkgetcore.so.5:_ZN18TransferDataSource11qt_metacastEPKc
libkgetcore.so.5:_ZN18TransferDataSource12findFileSizeEx
libkgetcore.so.5:_ZN18TransferDataSource12freeSegmentsEPS_5QPairIiiE
libkgetcore.so.5:_ZN18TransferDataSource13foundFileSizeEPS_yRK5QPairIiiE
libkgetcore.so.5:_ZN18TransferDataSource14brokenSegmentsEPS_5QPairIiiE
libkgetcore.so.5:_ZN18TransferDataSource15finishedSegmentEPS_ib
libkgetcore.so.5:_ZN18TransferDataSource15setCapabilitiesE6QFlagsIN8Transfer10CapabilityEE
libkgetcore.so.5:_ZN18TransferDataSource16finishedDownloadEPS_y
libkgetcore.so.5:_ZN18TransferDataSource16removeConnectionEv
libkgetcore.so.5:_ZN18TransferDataSource16staticMetaObjectE
libkgetcore.so.5:_ZN18TransferDataSource19capabilitiesChangedEv
libkgetcore.so.5:_ZN18TransferDataSource19setParallelSegmentsEi
libkgetcore.so.5:_ZN18TransferDataSource3logERK7QStringN8Transfer8LogLevelE
libkgetcore.so.5:_ZN18TransferDataSource4dataE7QStringS0_
libkgetcore.so.5:_ZN18TransferDataSource4dataERK5QListI4QUrlE
libkgetcore.so.5:_ZN18TransferDataSource4dataExRK10QByteArrayRb
libkgetcore.so.5:_ZN18TransferDataSource5speedEm
libkgetcore.so.5:_ZN18TransferDataSource5splitEv
libkgetcore.so.5:_ZN18TransferDataSource6brokenEPS_NS_5ErrorE
libkgetcore.so.5:_ZN18TransferDataSource8finishedEv
libkgetcore.so.5:_ZN18TransferDataSourceC1ERK4QUrlP7QObject
libkgetcore.so.5:_ZN18TransferDataSourceC2ERK4QUrlP7QObject
libkgetcore.so.5:_ZN18TransferDataSourceD0Ev
libkgetcore.so.5:_ZN18TransferDataSourceD1Ev
libkgetcore.so.5:_ZN18TransferDataSourceD2Ev
libkgetcore.so.5:_ZN19TransferHistoryItem11setDateTimeERK9QDateTime
libkgetcore.so.5:_ZN19TransferHistoryItem7setDestERK7QString
libkgetcore.so.5:_ZN19TransferHistoryItem7setSizeEi
libkgetcore.so.5:_ZN19TransferHistoryItem8setStateEi
libkgetcore.so.5:_ZN19TransferHistoryItem9setSourceERK7QString
libkgetcore.so.5:_ZN19TransferHistoryItemC1ERK8Transfer
libkgetcore.so.5:_ZN19TransferHistoryItemC1ERKS_
libkgetcore.so.5:_ZN19TransferHistoryItemC1Ev
libkgetcore.so.5:_ZN19TransferHistoryItemC2ERK8Transfer
libkgetcore.so.5:_ZN19TransferHistoryItemC2ERKS_
libkgetcore.so.5:_ZN19TransferHistoryItemC2Ev
libkgetcore.so.5:_ZN19TransferHistoryItemaSERKS_
libkgetcore.so.5:_ZN20TransferGroupHandler11qt_metacallEN11QMetaObject4CallEiPPv
libkgetcore.so.5:_ZN20TransferGroupHandler11qt_metacastEPKc
libkgetcore.so.5:_ZN20TransferGroupHandler12changesFlagsEv
libkgetcore.so.5:_ZN20TransferGroupHandler13createActionsEv
libkgetcore.so.5:_ZN20TransferGroupHandler14setGroupChangeEib
libkgetcore.so.5:_ZN20TransferGroupHandler16staticMetaObjectE
libkgetcore.so.5:_ZN20TransferGroupHandler17groupChangedEventEPS_i
libkgetcore.so.5:_ZN20TransferGroupHandler17resetChangesFlagsEv
libkgetcore.so.5:_ZN20TransferGroupHandler4dataEi
libkgetcore.so.5:_ZN20TransferGroupHandler4moveE5QListIP15TransferHandlerES2_
libkgetcore.so.5:_ZN20TransferGroupHandler4stopEv
libkgetcore.so.5:_ZN20TransferGroupHandler5startEv
libkgetcore.so.5:_ZN20TransferGroupHandler7actionsEv
libkgetcore.so.5:_ZN20TransferGroupHandler7indexOfEP15TransferHandler
libkgetcore.so.5:_ZN20TransferGroupHandler7setNameERK7QString
libkgetcore.so.5:_ZN20TransferGroupHandler9transfersEv
libkgetcore.so.5:_ZN20TransferGroupHandlerC1EP9SchedulerP13TransferGroup
libkgetcore.so.5:_ZN20TransferGroupHandlerC2EP9SchedulerP13TransferGroup
libkgetcore.so.5:_ZN20TransferGroupHandlerD0Ev
libkgetcore.so.5:_ZN20TransferGroupHandlerD1Ev
libkgetcore.so.5:_ZN20TransferGroupHandlerD2Ev
libkgetcore.so.5:_ZN20TransferGroupHandlerixEi
libkgetcore.so.5:_ZN20TransferHistoryStore11qt_metacallEN11QMetaObject4CallEiPPv
libkgetcore.so.5:_ZN20TransferHistoryStore11qt_metacastEPKc
libkgetcore.so.5:_ZN20TransferHistoryStore12loadFinishedEv
libkgetcore.so.5:_ZN20TransferHistoryStore12saveFinishedEv
libkgetcore.so.5:_ZN20TransferHistoryStore13elementLoadedEiiRK19TransferHistoryItem
libkgetcore.so.5:_ZN20TransferHistoryStore14deleteFinishedEv
libkgetcore.so.5:_ZN20TransferHistoryStore16staticMetaObjectE
libkgetcore.so.5:_ZN20TransferHistoryStore8getStoreEv
libkgetcore.so.5:_ZN20TransferHistoryStoreC1Ev
libkgetcore.so.5:_ZN20TransferHistoryStoreC2Ev
libkgetcore.so.5:_ZN20TransferHistoryStoreD0Ev
libkgetcore.so.5:_ZN20TransferHistoryStoreD1Ev
libkgetcore.so.5:_ZN20TransferHistoryStoreD2Ev
libkgetcore.so.5:_ZN20VerificationDelegate11qt_metacallEN11QMetaObject4CallEiPPv
libkgetcore.so.5:_ZN20VerificationDelegate11qt_metacastEPKc
libkgetcore.so.5:_ZN20VerificationDelegate16staticMetaObjectE
libkgetcore.so.5:_ZN20VerificationDelegateC1EP7QObject
libkgetcore.so.5:_ZN20VerificationDelegateC2EP7QObject
libkgetcore.so.5:_ZN3Job11qt_metacallEN11QMetaObject4CallEiPPv
libkgetcore.so.5:_ZN3Job11qt_metacastEPKc
libkgetcore.so.5:_ZN3Job12resolveErrorEi
libkgetcore.so.5:_ZN3Job14setStartStatusENS_6StatusE
libkgetcore.so.5:_ZN3Job16staticMetaObjectE
libkgetcore.so.5:_ZN3Job8setErrorERK7QStringRK7QPixmapNS_9ErrorTypeEi
libkgetcore.so.5:_ZN3Job9setPolicyENS_6PolicyE
libkgetcore.so.5:_ZN3Job9setStatusENS_6StatusE
libkgetcore.so.5:_ZN3JobC1EP9SchedulerP8JobQueue
libkgetcore.so.5:_ZN3JobC2EP9SchedulerP8JobQueue
libkgetcore.so.5:_ZN3JobD0Ev
libkgetcore.so.5:_ZN3JobD1Ev
libkgetcore.so.5:_ZN3JobD2Ev
libkgetcore.so.5:_ZN4KGet10loadPluginERK15KPluginMetaData
libkgetcore.so.5:_ZN4KGet11addTransferE4QUrl7QStringS1_S1_b
libkgetcore.so.5:_ZN4KGet11addTransferE5QListI4QUrlE7QStringS3_b
libkgetcore.so.5:_ZN4KGet11delTransferEP15TransferHandlerNS_10DeleteModeE
libkgetcore.so.5:_ZN4KGet11loadPluginsEv
libkgetcore.so.5:_ZN4KGet11m_schedulerE
libkgetcore.so.5:_ZN4KGet11pluginInfosEv
libkgetcore.so.5:_ZN4KGet11renameGroupERK7QStringS2_
libkgetcore.so.5:_ZN4KGet12TransferDataC1ERK4QUrlS3_RK7QStringbPK11QDomElement
libkgetcore.so.5:_ZN4KGet12TransferDataC2ERK4QUrlS3_RK7QStringbPK11QDomElement
libkgetcore.so.5:_ZN4KGet12addTransfersERK5QListI11QDomElementERK7QString
libkgetcore.so.5:_ZN4KGet12allTransfersEv
libkgetcore.so.5:_ZN4KGet12delTransfersERK5QListIP15TransferHandlerENS_10DeleteModeE
libkgetcore.so.5:_ZN4KGet12findTransferERK4QUrl
libkgetcore.so.5:_ZN4KGet12m_jobManagerE
libkgetcore.so.5:_ZN4KGet12m_mainWindowE
libkgetcore.so.5:_ZN4KGet12moveTransferEP15TransferHandlerRK7QString
libkgetcore.so.5:_ZN4KGet13isValidSourceERK4QUrl
libkgetcore.so.5:_ZN4KGet14createTransferERK4QUrlS2_RK7QStringbPK11QDomElement
libkgetcore.so.5:_ZN4KGet14generalDestDirEb
libkgetcore.so.5:_ZN4KGet14safeDeleteFileERK4QUrl
libkgetcore.so.5:_ZN4KGet14selectionModelEv
libkgetcore.so.5:_ZN4KGet14urlInputDialogEv
libkgetcore.so.5:_ZN4KGet15checkSystemTrayEv
libkgetcore.so.5:_ZN4KGet15createTransfersERK5QListINS_12TransferDataEE
libkgetcore.so.5:_ZN4KGet15getValidDestUrlERK4QUrlS2_
libkgetcore.so.5:_ZN4KGet15m_hasConnectionE
libkgetcore.so.5:_ZN4KGet15settingsChangedEv
libkgetcore.so.5:_ZN4KGet16actionCollectionEv
libkgetcore.so.5:_ZN4KGet16m_pluginInfoListE
libkgetcore.so.5:_ZN4KGet16m_selectionModelE
libkgetcore.so.5:_ZN4KGet16schedulerRunningEv
libkgetcore.so.5:_ZN4KGet16showNotificationEP7QWidgetRK7QStringS4_S4_S4_RK6QFlagsIN13KNotification16NotificationFlagEE
libkgetcore.so.5:_ZN4KGet17allTransferGroupsEv
libkgetcore.so.5:_ZN4KGet17finishedTransfersEv
libkgetcore.so.5:_ZN4KGet17matchesExceptionsERK4QUrlRK11QStringList
libkgetcore.so.5:_ZN4KGet17selectedTransfersEv
libkgetcore.so.5:_ZN4KGet18destDirInputDialogEv
libkgetcore.so.5:_ZN4KGet18redownloadTransferEP15TransferHandler
libkgetcore.so.5:_ZN4KGet18transferGroupNamesEv
libkgetcore.so.5:_ZN4KGet19destFileInputDialogE7QStringRKS0_
libkgetcore.so.5:_ZN4KGet19m_transferFactoriesE
libkgetcore.so.5:_ZN4KGet19m_transferTreeModelE
libkgetcore.so.5:_ZN4KGet19setSchedulerRunningEb
libkgetcore.so.5:_ZN4KGet19setSuspendSchedulerEb
libkgetcore.so.5:_ZN4KGet20groupsFromExceptionsERK4QUrl
libkgetcore.so.5:_ZN4KGet20isValidDestDirectoryERK7QString
libkgetcore.so.5:_ZN4KGet20setGlobalUploadLimitEi
libkgetcore.so.5:_ZN4KGet22selectedTransferGroupsEv
libkgetcore.so.5:_ZN4KGet22setGlobalDownloadLimitEi
libkgetcore.so.5:_ZN4KGet23setHasNetworkConnectionEb
libkgetcore.so.5:_ZN4KGet24createTransferDataSourceERK4QUrlRK11QDomElementP7QObject
libkgetcore.so.5:_ZN4KGet26calculateGlobalSpeedLimitsEv
libkgetcore.so.5:_ZN4KGet26calculateGlobalUploadLimitEv
libkgetcore.so.5:_ZN4KGet28calculateGlobalDownloadLimitEv
libkgetcore.so.5:_ZN4KGet4loadE7QString
libkgetcore.so.5:_ZN4KGet4saveE7QStringb
libkgetcore.so.5:_ZN4KGet4selfEP10MainWindow
libkgetcore.so.5:_ZN4KGet5modelEv
libkgetcore.so.5:_ZN4KGet7factoryEP15TransferHandler
libkgetcore.so.5:_ZN4KGet7m_storeE
libkgetcore.so.5:_ZN4KGet8addGroupERK7QString
libkgetcore.so.5:_ZN4KGet8delGroupEP20TransferGroupHandlerb
libkgetcore.so.5:_ZN4KGet9delGroupsE5QListIP20TransferGroupHandlerEb
libkgetcore.so.5:_ZN4KGet9factoriesEv
libkgetcore.so.5:_ZN4KGet9findGroupERK7QString
libkgetcore.so.5:_ZN4KGetC1Ev
libkgetcore.so.5:_ZN4KGetC2Ev
libkgetcore.so.5:_ZN4KGetD1Ev
libkgetcore.so.5:_ZN4KGetD2Ev
libkgetcore.so.5:_ZN6BitSet18getContinuousRangeEPiS0_b
libkgetcore.so.5:_ZN6BitSet4nullE
libkgetcore.so.5:_ZN6BitSet5clearEv
libkgetcore.so.5:_ZN6BitSet6setAllEb
libkgetcore.so.5:_ZN6BitSet8orBitSetERKS_
libkgetcore.so.5:_ZN6BitSetC1EPKhj
libkgetcore.so.5:_ZN6BitSetC1ERKS_
libkgetcore.so.5:_ZN6BitSetC1Ej
libkgetcore.so.5:_ZN6BitSetC2EPKhj
libkgetcore.so.5:_ZN6BitSetC2ERKS_
libkgetcore.so.5:_ZN6BitSetC2Ej
libkgetcore.so.5:_ZN6BitSetD0Ev
libkgetcore.so.5:_ZN6BitSetD1Ev
libkgetcore.so.5:_ZN6BitSetD2Ev
libkgetcore.so.5:_ZN6BitSetaSERKS_
libkgetcore.so.5:_ZN6BitSeteqERKS_
libkgetcore.so.5:_ZN8Download10slotResultEP4KJob
libkgetcore.so.5:_ZN8Download11qt_metacallEN11QMetaObject4CallEiPPv
libkgetcore.so.5:_ZN8Download11qt_metacastEPKc
libkgetcore.so.5:_ZN8Download16staticMetaObjectE
libkgetcore.so.5:_ZN8Download17finishedWithErrorEv
libkgetcore.so.5:_ZN8Download20finishedSuccessfullyE4QUrl10QByteArray
libkgetcore.so.5:_ZN8Download8slotDataEPN3KIO3JobERK10QByteArray
libkgetcore.so.5:_ZN8DownloadC1ERK4QUrlS2_
libkgetcore.so.5:_ZN8DownloadC2ERK4QUrlS2_
libkgetcore.so.5:_ZN8DownloadD0Ev
libkgetcore.so.5:_ZN8DownloadD1Ev
libkgetcore.so.5:_ZN8DownloadD2Ev
libkgetcore.so.5:_ZN8FileItem11appendChildEPS_
libkgetcore.so.5:_ZN8FileItem12checkParentsEN2Qt10CheckStateEP9FileModel
libkgetcore.so.5:_ZN8FileItem13checkChildrenEN2Qt10CheckStateEP9FileModel
libkgetcore.so.5:_ZN8FileItem5childEi
libkgetcore.so.5:_ZN8FileItem6parentEv
libkgetcore.so.5:_ZN8FileItem7addSizeExP9FileModel
libkgetcore.so.5:_ZN8FileItem7setDataEiRK8QVariantP9FileModeli
libkgetcore.so.5:_ZN8FileItemC1ERK7QStringPS_
libkgetcore.so.5:_ZN8FileItemC2ERK7QStringPS_
libkgetcore.so.5:_ZN8FileItemD1Ev
libkgetcore.so.5:_ZN8FileItemD2Ev
libkgetcore.so.5:_ZN8JobQueue11qt_metacallEN11QMetaObject4CallEiPPv
libkgetcore.so.5:_ZN8JobQueue11qt_metacastEPKc
libkgetcore.so.5:_ZN8JobQueue11runningJobsEv
libkgetcore.so.5:_ZN8JobQueue16staticMetaObjectE
libkgetcore.so.5:_ZN8JobQueue4moveEP3JobS1_
libkgetcore.so.5:_ZN8JobQueue6appendEP3Job
libkgetcore.so.5:_ZN8JobQueue6appendERK5QListIP3JobE
libkgetcore.so.5:_ZN8JobQueue6insertEP3JobS1_
libkgetcore.so.5:_ZN8JobQueue6removeE5QListIP3JobE
libkgetcore.so.5:_ZN8JobQueue6removeEP3Job
libkgetcore.so.5:_ZN8JobQueue7prependEP3Job
libkgetcore.so.5:_ZN8JobQueue9setStatusENS_6StatusE
libkgetcore.so.5:_ZN8JobQueueC1EP9Scheduler
libkgetcore.so.5:_ZN8JobQueueC2EP9Scheduler
libkgetcore.so.5:_ZN8JobQueueD0Ev
libkgetcore.so.5:_ZN8JobQueueD1Ev
libkgetcore.so.5:_ZN8JobQueueD2Ev
libkgetcore.so.5:_ZN8Settings4selfEv
libkgetcore.so.5:_ZN8SettingsC1Ev
libkgetcore.so.5:_ZN8SettingsC2Ev
libkgetcore.so.5:_ZN8SettingsD0Ev
libkgetcore.so.5:_ZN8SettingsD1Ev
libkgetcore.so.5:_ZN8SettingsD2Ev
libkgetcore.so.5:_ZN8Transfer10statusTextEN3Job6StatusE
libkgetcore.so.5:_ZN8Transfer11qt_metacallEN11QMetaObject4CallEiPPv
libkgetcore.so.5:_ZN8Transfer11qt_metacastEPKc
libkgetcore.so.5:_ZN8Transfer12setDirectoryERK4QUrl
libkgetcore.so.5:_ZN8Transfer12statusPixmapEN3Job6StatusE
libkgetcore.so.5:_ZN8Transfer14setUploadLimitEiNS_10SpeedLimitE
libkgetcore.so.5:_ZN8Transfer15checkShareRatioEv
libkgetcore.so.5:_ZN8Transfer15setCapabilitiesE6QFlagsINS_10CapabilityEE
libkgetcore.so.5:_ZN8Transfer16setDownloadLimitEiNS_10SpeedLimitE
libkgetcore.so.5:_ZN8Transfer16staticMetaObjectE
libkgetcore.so.5:_ZN8Transfer17setTransferChangeEib
libkgetcore.so.5:_ZN8Transfer19capabilitiesChangedEv
libkgetcore.so.5:_ZN8Transfer20setMaximumShareRatioEd
libkgetcore.so.5:_ZN8Transfer4initEv
libkgetcore.so.5:_ZN8Transfer4loadEPK11QDomElement
libkgetcore.so.5:_ZN8Transfer4saveERK11QDomElement
libkgetcore.so.5:_ZN8Transfer5modelEv
libkgetcore.so.5:_ZN8Transfer6createEv
libkgetcore.so.5:_ZN8Transfer6setLogERK7QStringNS_8LogLevelE
libkgetcore.so.5:_ZN8Transfer7destroyE6QFlagsINS_12DeleteOptionEE
libkgetcore.so.5:_ZN8Transfer7handlerEv
libkgetcore.so.5:_ZN8Transfer9setStatusEN3Job6StatusERK7QStringRK7QPixmap
libkgetcore.so.5:_ZN8TransferC1EP13TransferGroupP15TransferFactoryP9SchedulerRK4QUrlS8_PK11QDomElement
libkgetcore.so.5:_ZN8TransferC2EP13TransferGroupP15TransferFactoryP9SchedulerRK4QUrlS8_PK11QDomElement
libkgetcore.so.5:_ZN8TransferD0Ev
libkgetcore.so.5:_ZN8TransferD1Ev
libkgetcore.so.5:_ZN8TransferD2Ev
libkgetcore.so.5:_ZN8Verifier10isChecksumERK7QStringS2_
libkgetcore.so.5:_ZN8Verifier11addChecksumERK7QStringS2_i
libkgetcore.so.5:_ZN8Verifier11qt_metacallEN11QMetaObject4CallEiPPv
libkgetcore.so.5:_ZN8Verifier11qt_metacastEPKc
libkgetcore.so.5:_ZN8Verifier12addChecksumsERK5QHashI7QStringS1_E
libkgetcore.so.5:_ZN8Verifier12brokenPiecesERK5QListIxEy
libkgetcore.so.5:_ZN8Verifier12changeStatusERK7QStringb
libkgetcore.so.5:_ZN8Verifier13diggestLengthERK7QString
libkgetcore.so.5:_ZN8Verifier14setDestinationERK4QUrl
libkgetcore.so.5:_ZN8Verifier16partialChecksumsERK4QUrlRK7QStringyPb
libkgetcore.so.5:_ZN8Verifier16staticMetaObjectE
libkgetcore.so.5:_ZN8Verifier17cleanChecksumTypeERK7QString
libkgetcore.so.5:_ZN8Verifier19addPartialChecksumsERK7QStringyRK11QStringList
libkgetcore.so.5:_ZN8Verifier25supportedVerficationTypesEv
libkgetcore.so.5:_ZN8Verifier4loadERK11QDomElement
libkgetcore.so.5:_ZN8Verifier4saveERK11QDomElement
libkgetcore.so.5:_ZN8Verifier5modelEv
libkgetcore.so.5:_ZN8Verifier6verifyERK11QModelIndex
libkgetcore.so.5:_ZN8Verifier8checksumERK4QUrlRK7QStringPb
libkgetcore.so.5:_ZN8Verifier8verifiedEb
libkgetcore.so.5:_ZN8VerifierC1ERK4QUrlP7QObject
libkgetcore.so.5:_ZN8VerifierC2ERK4QUrlP7QObject
libkgetcore.so.5:_ZN8VerifierD0Ev
libkgetcore.so.5:_ZN8VerifierD1Ev
libkgetcore.so.5:_ZN8VerifierD2Ev
libkgetcore.so.5:_ZN9FileModel10changeDataEiiP8FileItemb
libkgetcore.so.5:_ZN9FileModel11qt_metacallEN11QMetaObject4CallEiPPv
libkgetcore.so.5:_ZN9FileModel11qt_metacastEPKc
libkgetcore.so.5:_ZN9FileModel12fileFinishedERK4QUrl
libkgetcore.so.5:_ZN9FileModel12renameFailedERK4QUrlS2_
libkgetcore.so.5:_ZN9FileModel12setDirectoryERK4QUrl
libkgetcore.so.5:_ZN9FileModel14setupModelDataERK5QListI4QUrlE
libkgetcore.so.5:_ZN9FileModel15watchCheckStateEv
libkgetcore.so.5:_ZN9FileModel16downloadFinishedERK4QUrl
libkgetcore.so.5:_ZN9FileModel16staticMetaObjectE
libkgetcore.so.5:_ZN9FileModel17checkStateChangedEv
libkgetcore.so.5:_ZN9FileModel19stopWatchCheckStateEv
libkgetcore.so.5:_ZN9FileModel5indexERK4QUrli
libkgetcore.so.5:_ZN9FileModel6getUrlEP8FileItem
libkgetcore.so.5:_ZN9FileModel6getUrlERK11QModelIndex
libkgetcore.so.5:_ZN9FileModel6renameERK11QModelIndexRK7QString
libkgetcore.so.5:_ZN9FileModel6renameERK4QUrlS2_
libkgetcore.so.5:_ZN9FileModel7getItemERK4QUrl
libkgetcore.so.5:_ZN9FileModel7getPathEP8FileItem
libkgetcore.so.5:_ZN9FileModel7setDataERK11QModelIndexRK8QVarianti
libkgetcore.so.5:_ZN9FileModelC1ERK5QListI4QUrlERKS1_P7QObject
libkgetcore.so.5:_ZN9FileModelC2ERK5QListI4QUrlERKS1_P7QObject
libkgetcore.so.5:_ZN9FileModelD0Ev
libkgetcore.so.5:_ZN9FileModelD1Ev
libkgetcore.so.5:_ZN9FileModelD2Ev
libkgetcore.so.5:_ZN9ModelItem10asTransferEv
libkgetcore.so.5:_ZN9ModelItem15emitDataChangedEv
libkgetcore.so.5:_ZN9ModelItem7asGroupEv
libkgetcore.so.5:_ZN9ModelItem7handlerEv
libkgetcore.so.5:_ZN9ModelItem7isGroupEv
libkgetcore.so.5:_ZN9ModelItemC1EP7Handler
libkgetcore.so.5:_ZN9ModelItemC2EP7Handler
libkgetcore.so.5:_ZN9ModelItemD0Ev
libkgetcore.so.5:_ZN9ModelItemD1Ev
libkgetcore.so.5:_ZN9ModelItemD2Ev
libkgetcore.so.5:_ZN9Scheduler10timerEventEP11QTimerEvent
libkgetcore.so.5:_ZN9Scheduler11qt_metacallEN11QMetaObject4CallEiPPv
libkgetcore.so.5:_ZN9Scheduler11qt_metacastEPKc
libkgetcore.so.5:_ZN9Scheduler11updateQueueEP8JobQueue
libkgetcore.so.5:_ZN9Scheduler14setIsSuspendedEb
libkgetcore.so.5:_ZN9Scheduler15jobChangedEventEP3JobNS0_6PolicyE
libkgetcore.so.5:_ZN9Scheduler15jobChangedEventEP3JobNS0_6StatusE
libkgetcore.so.5:_ZN9Scheduler15jobChangedEventEP3JobNS_10JobFailureE
libkgetcore.so.5:_ZN9Scheduler15settingsChangedEv
libkgetcore.so.5:_ZN9Scheduler15shouldBeRunningEP3Job
libkgetcore.so.5:_ZN9Scheduler15updateAllQueuesEv
libkgetcore.so.5:_ZN9Scheduler16staticMetaObjectE
libkgetcore.so.5:_ZN9Scheduler20jobQueueChangedEventEP8JobQueueNS0_6StatusE
libkgetcore.so.5:_ZN9Scheduler21jobQueueAddedJobEventEP8JobQueueP3Job
libkgetcore.so.5:_ZN9Scheduler21jobQueueMovedJobEventEP8JobQueueP3Job
libkgetcore.so.5:_ZN9Scheduler22jobQueueAddedJobsEventEP8JobQueue5QListIP3JobE
libkgetcore.so.5:_ZN9Scheduler23jobQueueRemovedJobEventEP8JobQueueP3Job
libkgetcore.so.5:_ZN9Scheduler23setHasNetworkConnectionEb
libkgetcore.so.5:_ZN9Scheduler24jobQueueRemovedJobsEventEP8JobQueue5QListIP3JobE
libkgetcore.so.5:_ZN9Scheduler4stopEv
libkgetcore.so.5:_ZN9Scheduler5startEv
libkgetcore.so.5:_ZN9Scheduler8addQueueEP8JobQueue
libkgetcore.so.5:_ZN9Scheduler8delQueueEP8JobQueue
libkgetcore.so.5:_ZN9SchedulerC1EP7QObject
libkgetcore.so.5:_ZN9SchedulerC2EP7QObject
libkgetcore.so.5:_ZN9SchedulerD0Ev
libkgetcore.so.5:_ZN9SchedulerD1Ev
libkgetcore.so.5:_ZN9SchedulerD2Ev
libkgetcore.so.5:_ZN9Signature11downloadKeyE7QString
libkgetcore.so.5:_ZN9Signature11fingerprintEv
libkgetcore.so.5:_ZN9Signature11qt_metacallEN11QMetaObject4CallEiPPv
libkgetcore.so.5:_ZN9Signature11qt_metacastEPKc
libkgetcore.so.5:_ZN9Signature12isVerifyableEv
libkgetcore.so.5:_ZN9Signature12setSignatureERK10QByteArrayNS_13SignatureTypeE
libkgetcore.so.5:_ZN9Signature12slotVerifiedERKN5GpgME18VerificationResultE
libkgetcore.so.5:_ZN9Signature14setDestinationERK4QUrl
libkgetcore.so.5:_ZN9Signature16staticMetaObjectE
libkgetcore.so.5:_ZN9Signature18verificationResultEv
libkgetcore.so.5:_ZN9Signature26setAsciiDetatchedSignatureERK7QString
libkgetcore.so.5:_ZN9Signature4loadERK11QDomElement
libkgetcore.so.5:_ZN9Signature4saveERK11QDomElement
libkgetcore.so.5:_ZN9Signature6verifyEv
libkgetcore.so.5:_ZN9Signature8verifiedEi
libkgetcore.so.5:_ZN9Signature9signatureEv
libkgetcore.so.5:_ZN9SignatureC1ERK4QUrlP7QObject
libkgetcore.so.5:_ZN9SignatureC2ERK4QUrlP7QObject
libkgetcore.so.5:_ZN9SignatureD0Ev
libkgetcore.so.5:_ZN9SignatureD1Ev
libkgetcore.so.5:_ZN9SignatureD2Ev
libkgetcore.so.5:_ZNK10KGetPlugin10metaObjectEv
libkgetcore.so.5:_ZNK10UrlChecker11correctUrlsEv
libkgetcore.so.5:_ZNK10UrlChecker14splitErrorUrlsEv
libkgetcore.so.5:_ZNK10UrlChecker4typeEv
libkgetcore.so.5:_ZNK10UrlChecker9errorUrlsEv
libkgetcore.so.5:_ZNK11FileDeleter7Private10metaObjectEv
libkgetcore.so.5:_ZNK11FileDeleter7Private18isFileBeingDeletedERK4QUrl
libkgetcore.so.5:_ZNK12LinkImporter10metaObjectEv
libkgetcore.so.5:_ZNK13TransferGroup10metaObjectEv
libkgetcore.so.5:_ZNK13TransferGroup11uploadLimitEN8Transfer10SpeedLimitE
libkgetcore.so.5:_ZNK13TransferGroup13downloadLimitEN8Transfer10SpeedLimitE
libkgetcore.so.5:_ZNK14GroupModelItem4dataEi
libkgetcore.so.5:_ZNK15MostLocalUrlJob10metaObjectEv
libkgetcore.so.5:_ZNK15MostLocalUrlJob12mostLocalUrlEv
libkgetcore.so.5:_ZNK15TransferFactory10metaObjectEv
libkgetcore.so.5:_ZNK15TransferFactory11displayNameEv
libkgetcore.so.5:_ZNK15TransferFactory11isSupportedERK4QUrl
libkgetcore.so.5:_ZNK15TransferFactory13addsProtocolsEv
libkgetcore.so.5:_ZNK15TransferHandler10isSelectedEv
libkgetcore.so.5:_ZNK15TransferHandler10metaObjectEv
libkgetcore.so.5:_ZNK15TransferHandler11elapsedTimeEv
libkgetcore.so.5:_ZNK15TransferHandler11uploadSpeedEv
libkgetcore.so.5:_ZNK15TransferHandler12capabilitiesEv
libkgetcore.so.5:_ZNK15TransferHandler12changesFlagsEv
libkgetcore.so.5:_ZNK15TransferHandler12uploadedSizeEv
libkgetcore.so.5:_ZNK15TransferHandler13downloadSpeedEv
libkgetcore.so.5:_ZNK15TransferHandler13remainingTimeEv
libkgetcore.so.5:_ZNK15TransferHandler14downloadedSizeEv
libkgetcore.so.5:_ZNK15TransferHandler19averageDownloadSpedEv
libkgetcore.so.5:_ZNK15TransferHandler7percentEv
libkgetcore.so.5:_ZNK15TransferHandler9totalSizeEv
libkgetcore.so.5:_ZNK17DataSourceFactory10metaObjectEv
libkgetcore.so.5:_ZNK17DataSourceFactory12assignNeededEv
libkgetcore.so.5:_ZNK17DataSourceFactory7isValidEv
libkgetcore.so.5:_ZNK17DataSourceFactory7mirrorsEv
libkgetcore.so.5:_ZNK17TransferModelItem4dataEi
libkgetcore.so.5:_ZNK17TransferTreeModel10headerDataEiN2Qt11OrientationEi
libkgetcore.so.5:_ZNK17TransferTreeModel10metaObjectEv
libkgetcore.so.5:_ZNK17TransferTreeModel13itemFromIndexERK11QModelIndex
libkgetcore.so.5:_ZNK17TransferTreeModel20supportedDropActionsEv
libkgetcore.so.5:_ZNK17TransferTreeModel5flagsERK11QModelIndex
libkgetcore.so.5:_ZNK17TransferTreeModel8mimeDataERK5QListI11QModelIndexE
libkgetcore.so.5:_ZNK17TransferTreeModel9mimeTypesEv
libkgetcore.so.5:_ZNK17VerificationModel10headerDataEiN2Qt11OrientationEi
libkgetcore.so.5:_ZNK17VerificationModel10metaObjectEv
libkgetcore.so.5:_ZNK17VerificationModel11columnCountERK11QModelIndex
libkgetcore.so.5:_ZNK17VerificationModel4dataERK11QModelIndexi
libkgetcore.so.5:_ZNK17VerificationModel5flagsERK11QModelIndex
libkgetcore.so.5:_ZNK17VerificationModel8rowCountERK11QModelIndex
libkgetcore.so.5:_ZNK18KGetSaveSizeDialog10metaObjectEv
libkgetcore.so.5:_ZNK18TransferDataSource10metaObjectEv
libkgetcore.so.5:_ZNK18TransferDataSource12capabilitiesEv
libkgetcore.so.5:_ZNK18TransferDataSource12changeNeededEv
libkgetcore.so.5:_ZNK18TransferDataSource15currentSegmentsEv
libkgetcore.so.5:_ZNK18TransferDataSource16assignedSegmentsEv
libkgetcore.so.5:_ZNK18TransferDataSource16parallelSegmentsEv
libkgetcore.so.5:_ZNK18TransferDataSource23countUnfinishedSegmentsEv
libkgetcore.so.5:_ZNK19TransferHistoryItem4destEv
libkgetcore.so.5:_ZNK19TransferHistoryItem4sizeEv
libkgetcore.so.5:_ZNK19TransferHistoryItem5stateEv
libkgetcore.so.5:_ZNK19TransferHistoryItem6sourceEv
libkgetcore.so.5:_ZNK19TransferHistoryItem8dateTimeEv
libkgetcore.so.5:_ZNK19TransferHistoryItemeqERKS_
libkgetcore.so.5:_ZNK20TransferGroupHandler10metaObjectEv
libkgetcore.so.5:_ZNK20TransferHistoryStore10metaObjectEv
libkgetcore.so.5:_ZNK20TransferHistoryStore5itemsEv
libkgetcore.so.5:_ZNK20VerificationDelegate10metaObjectEv
libkgetcore.so.5:_ZNK20VerificationDelegate12createEditorEP7QWidgetRK20QStyleOptionViewItemRK11QModelIndex
libkgetcore.so.5:_ZNK20VerificationDelegate12setModelDataEP7QWidgetP18QAbstractItemModelRK11QModelIndex
libkgetcore.so.5:_ZNK20VerificationDelegate13setEditorDataEP7QWidgetRK11QModelIndex
libkgetcore.so.5:_ZNK20VerificationDelegate20updateEditorGeometryEP7QWidgetRK20QStyleOptionViewItemRK11QModelIndex
libkgetcore.so.5:_ZNK20VerificationDelegate8sizeHintERK20QStyleOptionViewItemRK11QModelIndex
libkgetcore.so.5:_ZNK3Job10metaObjectEv
libkgetcore.so.5:_ZNK6BitSet5allOnEv
libkgetcore.so.5:_ZNK6BitSet6allOffEv
libkgetcore.so.5:_ZNK8Download10metaObjectEv
libkgetcore.so.5:_ZNK8FileItem10childCountEv
libkgetcore.so.5:_ZNK8FileItem11columnCountEv
libkgetcore.so.5:_ZNK8FileItem3rowEv
libkgetcore.so.5:_ZNK8FileItem4dataEii
libkgetcore.so.5:_ZNK8FileItem6isFileEv
libkgetcore.so.5:_ZNK8JobQueue10metaObjectEv
libkgetcore.so.5:_ZNK8JobQueue19maxSimultaneousJobsEv
libkgetcore.so.5:_ZNK8Transfer10metaObjectEv
libkgetcore.so.5:_ZNK8Transfer11elapsedTimeEv
libkgetcore.so.5:_ZNK8Transfer11uploadLimitENS_10SpeedLimitE
libkgetcore.so.5:_ZNK8Transfer13downloadLimitENS_10SpeedLimitE
libkgetcore.so.5:_ZNK8Transfer16availableMirrorsERK4QUrl
libkgetcore.so.5:_ZNK8Transfer20averageDownloadSpeedEv
libkgetcore.so.5:_ZNK8Verifier10metaObjectEv
libkgetcore.so.5:_ZNK8Verifier11destinationEv
libkgetcore.so.5:_ZNK8Verifier12brokenPiecesEv
libkgetcore.so.5:_ZNK8Verifier12isVerifyableERK11QModelIndex
libkgetcore.so.5:_ZNK8Verifier12isVerifyableEv
libkgetcore.so.5:_ZNK8Verifier14dBusObjectPathEv
libkgetcore.so.5:_ZNK8Verifier17availableChecksumENS_16ChecksumStrengthE
libkgetcore.so.5:_ZNK8Verifier18availableChecksumsEv
libkgetcore.so.5:_ZNK8Verifier18partialChunkLengthEv
libkgetcore.so.5:_ZNK8Verifier24availablePartialChecksumENS_16ChecksumStrengthE
libkgetcore.so.5:_ZNK8Verifier6statusEv
libkgetcore.so.5:_ZNK9FileModel10headerDataEiN2Qt11OrientationEi
libkgetcore.so.5:_ZNK9FileModel10metaObjectEv
libkgetcore.so.5:_ZNK9FileModel11columnCountERK11QModelIndex
libkgetcore.so.5:_ZNK9FileModel11fileIndexesEi
libkgetcore.so.5:_ZNK9FileModel4dataERK11QModelIndexi
libkgetcore.so.5:_ZNK9FileModel5flagsERK11QModelIndex
libkgetcore.so.5:_ZNK9FileModel5indexEiiRK11QModelIndex
libkgetcore.so.5:_ZNK9FileModel6isFileERK11QModelIndex
libkgetcore.so.5:_ZNK9FileModel6parentERK11QModelIndex
libkgetcore.so.5:_ZNK9FileModel8rowCountERK11QModelIndex
libkgetcore.so.5:_ZNK9Scheduler10metaObjectEv
libkgetcore.so.5:_ZNK9Scheduler14hasRunningJobsEv
libkgetcore.so.5:_ZNK9Scheduler16countRunningJobsEv
libkgetcore.so.5:_ZNK9Signature10metaObjectEv
libkgetcore.so.5:_ZNK9Signature11destinationEv
libkgetcore.so.5:_ZNK9Signature4typeEv
libkgetcore.so.5:_ZNK9Signature6statusEv
libkgetcore.so.5:_ZThn16_N18KGetSaveSizeDialogD0Ev
libkgetcore.so.5:_ZThn16_N18KGetSaveSizeDialogD1Ev
libkgetcore.so.5:__bss_start
libkgetcore.so.5:_edata
libkgetcore.so.5:_end
