librecad:Converter
librecad:_IO_stdin_used
librecad:_Z10clearZerosdi
librecad:_Z10handleArgsiPPcRK5QListIiE
librecad:_Z11debugHeaderPKcS0_i
librecad:_Z13AddLineOffsetRK9RS_VectorS1_d
librecad:_Z13blockLessThanPK8RS_BlockS1_
librecad:_Z14AddLineOffsetsRK9RS_VectorS1_RKd
librecad:_Z14slotFileExportP10RS_GraphicRK7QStringS3_5QSizeS4_bb
librecad:_Z15DrawPatternLineRKSt6vectorIdSaIdEEidR12QPainterPathR9RS_VectorS7_
librecad:_Z15DrawPatternQuadRKSt6vectorIdSaIdEEidR12QPainterPathR9RS_VectorS7_S7_
librecad:_Z15console_dxf2pdfiPPc
librecad:_Z15console_dxf2pngiPPc
librecad:_Z17qInitResources_uiv
librecad:_Z18GetLinePointAtDistddd
librecad:_Z19qInitResources_mainv
librecad:_Z20addQuadQuadIntersectP18RS_VectorSolutionsRK9RS_VectorS3_S3_S3_S3_S3_
librecad:_Z20getLineLineIntersectRK9RS_VectorS1_S1_S1_
librecad:_Z20qCleanupResources_uiv
librecad:_Z20qInitResources_extuiv
librecad:_Z20qInitResources_iconsv
librecad:_Z22qCleanupResources_mainv
librecad:_Z22qInitResources_actionsv
librecad:_Z23qCleanupResources_extuiv
librecad:_Z23qCleanupResources_iconsv
librecad:_Z23qInitResources_licensesv
librecad:_Z25addQuadraticQuadIntersectP18RS_VectorSolutionsSt6vectorIdSaIdEERK9RS_VectorS6_S6_
librecad:_Z25getQuadraticLineIntersectSt6vectorIdSaIdEERK9RS_VectorS4_
librecad:_Z25qCleanupResources_actionsv
librecad:_Z26qCleanupResources_licensesv
librecad:_Z9GetMatrixmbRKSt6vectorIdSaIdEE
librecad:_ZN10ActionList11qt_metacallEN11QMetaObject4CallEiPPv
librecad:_ZN10ActionList11qt_metacastEPKc
librecad:_ZN10ActionList13addActionItemEP7QAction
librecad:_ZN10ActionList13fromActionMapER4QMapI7QStringP7QActionE
librecad:_ZN10ActionList14activateActionEP15QListWidgetItem
librecad:_ZN10ActionList14fromActionListERK5QListIP7QActionE
librecad:_ZN10ActionList16staticMetaObjectE
librecad:_ZN10ActionListC1EP7QWidget
librecad:_ZN10ActionListC2EP7QWidget
librecad:_ZN10DL_WriterA10strReplaceEPccc
librecad:_ZN10DRW_3Dface8parseDwgEN3DRW7VersionEP9dwgBufferj
librecad:_ZN10DRW_3Dface9parseCodeEiP9dxfReader
librecad:_ZN10DRW_Circle14applyExtrusionEv
librecad:_ZN10DRW_Circle8parseDwgEN3DRW7VersionEP9dwgBufferj
librecad:_ZN10DRW_Circle9parseCodeEiP9dxfReader
librecad:_ZN10DRW_Entity12extrudePointE9DRW_CoordPS0_
librecad:_ZN10DRW_Entity13calculateAxisE9DRW_Coord
librecad:_ZN10DRW_Entity14parseDxfGroupsEiP9dxfReader
librecad:_ZN10DRW_Entity17parseDwgEntHandleEN3DRW7VersionEP9dwgBuffer
librecad:_ZN10DRW_Entity8parseDwgEN3DRW7VersionEP9dwgBufferS3_j
librecad:_ZN10DRW_Entity9parseCodeEiP9dxfReader
librecad:_ZN10DRW_Header10addCommentENSt7__cxx1112basic_stringIcSt11char_traitsIcESaIcEEE
librecad:_ZN10DRW_Header11measurementEi
librecad:_ZN10DRW_Header5writeEP9dxfWriterN3DRW7VersionE
librecad:_ZN10DRW_Header6addIntENSt7__cxx1112basic_stringIcSt11char_traitsIcESaIcEEEii
librecad:_ZN10DRW_Header6addStrENSt7__cxx1112basic_stringIcSt11char_traitsIcESaIcEEES5_i
librecad:_ZN10DRW_Header6getIntENSt7__cxx1112basic_stringIcSt11char_traitsIcESaIcEEEPi
librecad:_ZN10DRW_Header6getStrENSt7__cxx1112basic_stringIcSt11char_traitsIcESaIcEEEPS5_
librecad:_ZN10DRW_Header8addCoordENSt7__cxx1112basic_stringIcSt11char_traitsIcESaIcEEE9DRW_Coordi
librecad:_ZN10DRW_Header8getCoordENSt7__cxx1112basic_stringIcSt11char_traitsIcESaIcEEEP9DRW_Coord
librecad:_ZN10DRW_Header8parseDwgEN3DRW7VersionEP9dwgBufferS3_h
librecad:_ZN10DRW_Header9addDoubleENSt7__cxx1112basic_stringIcSt11char_traitsIcESaIcEEEdi
librecad:_ZN10DRW_Header9getDoubleENSt7__cxx1112basic_stringIcSt11char_traitsIcESaIcEEEPd
librecad:_ZN10DRW_Header9parseCodeEiP9dxfReader
librecad:_ZN10DRW_HeaderC1Ev
librecad:_ZN10DRW_HeaderC2Ev
librecad:_ZN10DRW_Insert8parseDwgEN3DRW7VersionEP9dwgBufferj
librecad:_ZN10DRW_Insert9parseCodeEiP9dxfReader
librecad:_ZN10DRW_Leader8parseDwgEN3DRW7VersionEP9dwgBufferj
librecad:_ZN10DRW_Leader9parseCodeEiP9dxfReader
librecad:_ZN10DRW_Spline8parseDwgEN3DRW7VersionEP9dwgBufferj
librecad:_ZN10DRW_Spline9parseCodeEiP9dxfReader
librecad:_ZN10DRW_Vertex8parseDwgEN3DRW7VersionEP9dwgBufferjd
librecad:_ZN10DRW_Vertex9parseCodeEiP9dxfReader
librecad:_ZN10LC_PenItem11getLineTypeEv
librecad:_ZN10LC_PenItem11setLineTypeEN3RS28LineTypeE
librecad:_ZN10LC_PenItem12getLineWidthEv
librecad:_ZN10LC_PenItem12setColorIconER5QIcon
librecad:_ZN10LC_PenItem12setLineWidthEN3RS29LineWidthE
librecad:_ZN10LC_PenItem15setLineTypeIconER5QIcon
librecad:_ZN10LC_PenItem15setLineTypeNameE7QString
librecad:_ZN10LC_PenItem16setLineWidthIconER5QIcon
librecad:_ZN10LC_PenItem16setLineWidthNameE7QString
librecad:_ZN10LC_PenItem6setPenERK6RS_Pen
librecad:_ZN10LC_PenItem8getColorEv
librecad:_ZN10LC_PenItem8setColorERK8RS_Color
librecad:_ZN10LC_PenItemC1E7QString
librecad:_ZN10LC_PenItemC1E7QStringRK6RS_Pen
librecad:_ZN10LC_PenItemC2E7QString
librecad:_ZN10LC_PenItemC2E7QStringRK6RS_Pen
librecad:_ZN10QG_DlgLine10updateLineEv
librecad:_ZN10QG_DlgLine11qt_metacallEN11QMetaObject4CallEiPPv
librecad:_ZN10QG_DlgLine11qt_metacastEPKc
librecad:_ZN10QG_DlgLine14languageChangeEv
librecad:_ZN10QG_DlgLine16staticMetaObjectE
librecad:_ZN10QG_DlgLine7setLineER7RS_Line
librecad:_ZN10QG_DlgLineC1EP7QWidgetb6QFlagsIN2Qt10WindowTypeEE
librecad:_ZN10QG_DlgLineC2EP7QWidgetb6QFlagsIN2Qt10WindowTypeEE
librecad:_ZN10QG_DlgMove10updateDataEv
librecad:_ZN10QG_DlgMove11qt_metacallEN11QMetaObject4CallEiPPv
librecad:_ZN10QG_DlgMove11qt_metacastEPKc
librecad:_ZN10QG_DlgMove14languageChangeEv
librecad:_ZN10QG_DlgMove16staticMetaObjectE
librecad:_ZN10QG_DlgMove4initEv
librecad:_ZN10QG_DlgMove7destroyEv
librecad:_ZN10QG_DlgMove7setDataEP11RS_MoveData
librecad:_ZN10QG_DlgMoveC1EP7QWidgetb6QFlagsIN2Qt10WindowTypeEE
librecad:_ZN10QG_DlgMoveC2EP7QWidgetb6QFlagsIN2Qt10WindowTypeEE
librecad:_ZN10QG_DlgMoveD0Ev
librecad:_ZN10QG_DlgMoveD1Ev
librecad:_ZN10QG_DlgMoveD2Ev
librecad:_ZN10QG_DlgText10insertCharEv
librecad:_ZN10QG_DlgText10updateTextEv
librecad:_ZN10QG_DlgText11qt_metacallEN11QMetaObject4CallEiPPv
librecad:_ZN10QG_DlgText11qt_metacastEPKc
librecad:_ZN10QG_DlgText12getAlignmentEv
librecad:_ZN10QG_DlgText12insertSymbolEi
librecad:_ZN10QG_DlgText12setAlignmentEi
librecad:_ZN10QG_DlgText14languageChangeEv
librecad:_ZN10QG_DlgText14setAlignmentBCEv
librecad:_ZN10QG_DlgText14setAlignmentBLEv
librecad:_ZN10QG_DlgText14setAlignmentBREv
librecad:_ZN10QG_DlgText14setAlignmentLCEv
librecad:_ZN10QG_DlgText14setAlignmentLLEv
librecad:_ZN10QG_DlgText14setAlignmentLREv
librecad:_ZN10QG_DlgText14setAlignmentMCEv
librecad:_ZN10QG_DlgText14setAlignmentMLEv
librecad:_ZN10QG_DlgText14setAlignmentMREv
librecad:_ZN10QG_DlgText14setAlignmentTCEv
librecad:_ZN10QG_DlgText14setAlignmentTLEv
librecad:_ZN10QG_DlgText14setAlignmentTREv
librecad:_ZN10QG_DlgText15setAlignmentFitEv
librecad:_ZN10QG_DlgText16staticMetaObjectE
librecad:_ZN10QG_DlgText17setAlignmentAlignEv
librecad:_ZN10QG_DlgText18setAlignmentMiddleEv
librecad:_ZN10QG_DlgText19updateUniCharButtonEi
librecad:_ZN10QG_DlgText21updateUniCharComboBoxEi
librecad:_ZN10QG_DlgText4initEv
librecad:_ZN10QG_DlgText4loadERK7QString
librecad:_ZN10QG_DlgText4saveERK7QString
librecad:_ZN10QG_DlgText6rejectEv
librecad:_ZN10QG_DlgText7destroyEv
librecad:_ZN10QG_DlgText7setFontERK7QString
librecad:_ZN10QG_DlgText7setTextER7RS_Textb
librecad:_ZN10QG_DlgText8loadTextEv
librecad:_ZN10QG_DlgText8saveTextEv
librecad:_ZN10QG_DlgTextC1EP7QWidgetb6QFlagsIN2Qt10WindowTypeEE
librecad:_ZN10QG_DlgTextC2EP7QWidgetb6QFlagsIN2Qt10WindowTypeEE
librecad:_ZN10QG_DlgTextD0Ev
librecad:_ZN10QG_DlgTextD1Ev
librecad:_ZN10QG_DlgTextD2Ev
librecad:_ZN10QG_FontBox11fontChangedEP7RS_Font
librecad:_ZN10QG_FontBox11qt_metacallEN11QMetaObject4CallEiPPv
librecad:_ZN10QG_FontBox11qt_metacastEPKc
librecad:_ZN10QG_FontBox15slotFontChangedEi
librecad:_ZN10QG_FontBox16staticMetaObjectE
librecad:_ZN10QG_FontBox4initEv
librecad:_ZN10QG_FontBox7setFontERK7QString
librecad:_ZN10QG_FontBoxC1EP7QWidget
librecad:_ZN10QG_FontBoxC2EP7QWidget
librecad:_ZN10RS_ArcData5resetEv
librecad:_ZN10RS_ArcDataC1ERK9RS_Vectordddb
librecad:_ZN10RS_ArcDataC2ERK9RS_Vectordddb
librecad:_ZN10RS_Ellipse11drawVisibleEP10RS_PainterP14RS_GraphicViewRd
librecad:_ZN10RS_Ellipse11prepareTrimERK9RS_VectorRK18RS_VectorSolutions
librecad:_ZN10RS_Ellipse11setReversedEb
librecad:_ZN10RS_Ellipse12createFrom4PERK18RS_VectorSolutions
librecad:_ZN10RS_Ellipse12getTrimPointERK9RS_VectorS2_
librecad:_ZN10RS_Ellipse12moveEndpointERK9RS_Vector
librecad:_ZN10RS_Ellipse13correctAnglesEv
librecad:_ZN10RS_Ellipse14moveStartpointERK9RS_Vector
librecad:_ZN10RS_Ellipse16calculateBordersEv
librecad:_ZN10RS_Ellipse16switchMajorMinorEv
librecad:_ZN10RS_Ellipse19createFromQuadraticERK12LC_Quadratic
librecad:_ZN10RS_Ellipse19createFromQuadraticERKSt6vectorIdSaIdEE
librecad:_ZN10RS_Ellipse23createFromCenter3PointsERK18RS_VectorSolutions
librecad:_ZN10RS_Ellipse27createInscribeQuadrilateralERKSt6vectorIP7RS_LineSaIS2_EE
librecad:_ZN10RS_Ellipse4drawEP10RS_PainterP14RS_GraphicViewRd
librecad:_ZN10RS_Ellipse4moveERK9RS_Vector
librecad:_ZN10RS_Ellipse5scaleERK9RS_VectorS2_
librecad:_ZN10RS_Ellipse5shearEd
librecad:_ZN10RS_Ellipse6mirrorERK9RS_VectorS2_
librecad:_ZN10RS_Ellipse6rotateERK9RS_Vector
librecad:_ZN10RS_Ellipse6rotateERK9RS_VectorRKd
librecad:_ZN10RS_Ellipse6rotateERK9RS_VectorS2_
librecad:_ZN10RS_Ellipse6rotateERKd
librecad:_ZN10RS_Ellipse7moveRefERK9RS_VectorS2_
librecad:_ZN10RS_Ellipse8setRatioEd
librecad:_ZN10RS_Ellipse9setAngle1Ed
librecad:_ZN10RS_Ellipse9setAngle2Ed
librecad:_ZN10RS_Ellipse9setCenterERK9RS_Vector
librecad:_ZN10RS_Ellipse9setMajorPERK9RS_Vector
librecad:_ZN10RS_EllipseC1EP18RS_EntityContainerRK14RS_EllipseData
librecad:_ZN10RS_EllipseC2EP18RS_EntityContainerRK14RS_EllipseData
librecad:_ZN10RS_Graphic11addVariableERK7QStringRK9RS_Vectori
librecad:_ZN10RS_Graphic11addVariableERK7QStringS2_i
librecad:_ZN10RS_Graphic11addVariableERK7QStringdi
librecad:_ZN10RS_Graphic11addVariableERK7QStringii
librecad:_ZN10RS_Graphic11removeLayerEP8RS_Layer
librecad:_ZN10RS_Graphic11setPagesNumERK7QString
librecad:_ZN10RS_Graphic11setPagesNumEii
librecad:_ZN10RS_Graphic12centerToPageEv
librecad:_ZN10RS_Graphic12getPaperSizeEv
librecad:_ZN10RS_Graphic12loadTemplateERK7QStringN3RS210FormatTypeE
librecad:_ZN10RS_Graphic12setPaperSizeERK9RS_Vector
librecad:_ZN10RS_Graphic13setPaperScaleEd
librecad:_ZN10RS_Graphic14clearVariablesEv
librecad:_ZN10RS_Graphic14countVariablesEv
librecad:_ZN10RS_Graphic14getAngleFormatEv
librecad:_ZN10RS_Graphic14getPaperFormatEPb
librecad:_ZN10RS_Graphic14removeVariableERK7QString
librecad:_ZN10RS_Graphic14setPaperFormatEN3RS211PaperFormatEb
librecad:_ZN10RS_Graphic15getLinearFormatEi
librecad:_ZN10RS_Graphic15getLinearFormatEv
librecad:_ZN10RS_Graphic15getVariableDictEv
librecad:_ZN10RS_Graphic16getPrintAreaSizeEb
librecad:_ZN10RS_Graphic16setCrosshairTypeEN3RS213CrosshairTypeE
librecad:_ZN10RS_Graphic16setIsometricGridEb
librecad:_ZN10RS_Graphic17BackupDrawingFileERK7QString
librecad:_ZN10RS_Graphic17getAnglePrecisionEv
librecad:_ZN10RS_Graphic17isBiggerThanPaperEv
librecad:_ZN10RS_Graphic17setMarginsInUnitsEdddd
librecad:_ZN10RS_Graphic18countLayerEntitiesEP8RS_Layer
librecad:_ZN10RS_Graphic18getLinearPrecisionEv
librecad:_ZN10RS_Graphic19getMarginTopInUnitsEv
librecad:_ZN10RS_Graphic20getMarginLeftInUnitsEv
librecad:_ZN10RS_Graphic21getMarginRightInUnitsEv
librecad:_ZN10RS_Graphic21getPaperInsertionBaseEv
librecad:_ZN10RS_Graphic21setPaperInsertionBaseERK9RS_Vector
librecad:_ZN10RS_Graphic22getMarginBottomInUnitsEv
librecad:_ZN10RS_Graphic4openERK7QStringN3RS210FormatTypeE
librecad:_ZN10RS_Graphic4saveEb
librecad:_ZN10RS_Graphic5cleanEv
librecad:_ZN10RS_Graphic6newDocEv
librecad:_ZN10RS_Graphic6saveAsERK7QStringN3RS210FormatTypeEb
librecad:_ZN10RS_Graphic7setUnitEN3RS24UnitE
librecad:_ZN10RS_Graphic9addEntityEP9RS_Entity
librecad:_ZN10RS_Graphic9fitToPageEv
librecad:_ZN10RS_Graphic9setGridOnEb
librecad:_ZN10RS_GraphicC1EP18RS_EntityContainer
librecad:_ZN10RS_GraphicC2EP18RS_EntityContainer
librecad:_ZN10RS_GraphicD0Ev
librecad:_ZN10RS_GraphicD1Ev
librecad:_ZN10RS_GraphicD2Ev
librecad:_ZN10RS_Painter10drawHandleERK9RS_VectorRK8RS_Colori
librecad:_ZN10RS_Painter13createEllipseER8QPolygonRK9RS_Vectordddddb
librecad:_ZN10RS_Painter8drawRectERK9RS_VectorS2_
librecad:_ZN10RS_Painter9createArcER8QPolygonRK9RS_Vectordddb
librecad:_ZN10RS_Pattern11loadPatternEv
librecad:_ZN10RS_PatternC1ERK7QString
librecad:_ZN10RS_PatternC2ERK7QString
librecad:_ZN10RS_Preview10addAllFromER18RS_EntityContainer
librecad:_ZN10RS_Preview10addCloneOfEP9RS_Entity
librecad:_ZN10RS_Preview16addSelectionFromER18RS_EntityContainer
librecad:_ZN10RS_Preview19addStretchablesFromER18RS_EntityContainerRK9RS_VectorS4_
librecad:_ZN10RS_Preview4drawEP10RS_PainterP14RS_GraphicViewRd
librecad:_ZN10RS_Preview9addEntityEP9RS_Entity
librecad:_ZN10RS_PreviewC1EP18RS_EntityContainer
librecad:_ZN10RS_PreviewC2EP18RS_EntityContainer
librecad:_ZN10RS_Snapper10snapCenterERK9RS_Vector
librecad:_ZN10RS_Snapper10snapMiddleERK9RS_Vector
librecad:_ZN10RS_Snapper11catchEntityEP11QMouseEventN3RS210EntityTypeENS2_12ResolveLevelE
librecad:_ZN10RS_Snapper11catchEntityEP11QMouseEventN3RS212ResolveLevelE
librecad:_ZN10RS_Snapper11catchEntityEP11QMouseEventRK5QListIN3RS210EntityTypeEENS3_12ResolveLevelE
librecad:_ZN10RS_Snapper11catchEntityERK9RS_VectorN3RS210EntityTypeENS3_12ResolveLevelE
librecad:_ZN10RS_Snapper11catchEntityERK9RS_VectorN3RS212ResolveLevelE
librecad:_ZN10RS_Snapper11drawSnapperEv
librecad:_ZN10RS_Snapper11getSnapModeEv
librecad:_ZN10RS_Snapper11hideOptionsEv
librecad:_ZN10RS_Snapper11setSnapModeERK11RS_SnapMode
librecad:_ZN10RS_Snapper11showOptionsEv
librecad:_ZN10RS_Snapper11snapToAngleERK9RS_VectorS2_d
librecad:_ZN10RS_Snapper12snapEndpointERK9RS_Vector
librecad:_ZN10RS_Snapper12snapOnEntityERK9RS_Vector
librecad:_ZN10RS_Snapper13deleteSnapperEv
librecad:_ZN10RS_Snapper16restrictVerticalERK9RS_Vector
librecad:_ZN10RS_Snapper16snapIntersectionERK9RS_Vector
librecad:_ZN10RS_Snapper18restrictHorizontalERK9RS_Vector
librecad:_ZN10RS_Snapper18restrictOrthogonalERK9RS_Vector
librecad:_ZN10RS_Snapper19snapToRelativeAngleEdRK9RS_VectorS2_d
librecad:_ZN10RS_Snapper4initEv
librecad:_ZN10RS_Snapper6finishEv
librecad:_ZN10RS_Snapper7suspendEv
librecad:_ZN10RS_Snapper8snapDistERK9RS_Vector
librecad:_ZN10RS_Snapper8snapFreeEP11QMouseEvent
librecad:_ZN10RS_Snapper8snapFreeERK9RS_Vector
librecad:_ZN10RS_Snapper8snapGridERK9RS_Vector
librecad:_ZN10RS_Snapper9snapPointEP11QMouseEvent
librecad:_ZN10RS_Snapper9snapPointERK9RS_Vectorb
librecad:_ZN10RS_SnapperC1ER18RS_EntityContainerR14RS_GraphicView
librecad:_ZN10RS_SnapperC2ER18RS_EntityContainerR14RS_GraphicView
librecad:_ZN10RS_SnapperD0Ev
librecad:_ZN10RS_SnapperD1Ev
librecad:_ZN10RS_SnapperD2Ev
librecad:_ZN10RS_Utility14doubleToStringEdi
librecad:_ZN10dwgRSCodec10decode239IEPhS0_j
librecad:_ZN10dwgRSCodec10decode251IEPhS0_j
librecad:_ZN11ColorWizard10getFavListEv
librecad:_ZN11ColorWizard11addFavoriteE7QString
librecad:_ZN11ColorWizard11addOrRemoveEv
librecad:_ZN11ColorWizard11qt_metacallEN11QMetaObject4CallEiPPv
librecad:_ZN11ColorWizard11qt_metacastEPKc
librecad:_ZN11ColorWizard14removeFavoriteEv
librecad:_ZN11ColorWizard16requestSelectionEv
librecad:_ZN11ColorWizard16staticMetaObjectE
librecad:_ZN11ColorWizard17handleDoubleClickEP15QListWidgetItem
librecad:_ZN11ColorWizard17invokeColorDialogEv
librecad:_ZN11ColorWizard18colorDoubleClickedE6QColor
librecad:_ZN11ColorWizard18requestColorChangeEv
librecad:_ZN11ColorWizard19requestingSelectionE6QColor
librecad:_ZN11ColorWizard21requestingColorChangeE6QColor
librecad:_ZN11ColorWizardC1EP7QWidget
librecad:_ZN11ColorWizardC2EP7QWidget
librecad:_ZN11ColorWizardD0Ev
librecad:_ZN11ColorWizardD1Ev
librecad:_ZN11ColorWizardD2Ev
librecad:_ZN11DRW_Ellipse10toPolylineEP12DRW_Polylinei
librecad:_ZN11DRW_Ellipse11correctAxisEv
librecad:_ZN11DRW_Ellipse14applyExtrusionEv
librecad:_ZN11DRW_Ellipse8parseDwgEN3DRW7VersionEP9dwgBufferj
librecad:_ZN11DRW_Ellipse9parseCodeEiP9dxfReader
librecad:_ZN11JWWDocument10ReadHeaderEv
librecad:_ZN11JWWDocument10ReadStringB5cxx11Ev
librecad:_ZN11JWWDocument10SaveBich16Ej
librecad:_ZN11JWWDocument10SaveSunpouERK11CDataSunpou
librecad:_ZN11JWWDocument11WriteHeaderEv
librecad:_ZN11JWWDocument11WriteStringENSt7__cxx1112basic_stringIcSt11char_traitsIcESaIcEEE
librecad:_ZN11JWWDocument12SaveDataListERK9CDataList
librecad:_ZN11JWWDocument4ReadEv
librecad:_ZN11JWWDocument4SaveEv
librecad:_ZN11JWWDocument7SaveSenERK8CDataSen
librecad:_ZN11JWWDocument7SaveTenERK8CDataTen
librecad:_ZN11JWWDocument8ReadDataB5cxx11Ei
librecad:_ZN11JWWDocument8SaveEnkoERK9CDataEnko
librecad:_ZN11JWWDocument8SaveMojiERK9CDataMoji
librecad:_ZN11JWWDocument9SaveBlockERK10CDataBlock
librecad:_ZN11JWWDocument9SaveSolidERK10CDataSolid
librecad:_ZN11LC_LineMath12isMeaningfulEd
librecad:_ZN11LC_LineMath13getMeaningfulEdd
librecad:_ZN11LC_LineMath13relativePointERK9RS_Vectordd
librecad:_ZN11LC_LineMath14createParallelERK9RS_VectorS2_d
librecad:_ZN11LC_LineMath15isNotMeaningfulEd
librecad:_ZN11LC_LineMath16getPointPositionERK9RS_VectorS2_S2_
librecad:_ZN11LC_LineMath17areLinesOnSameRayERK9RS_VectorS2_S2_S2_
librecad:_ZN11LC_LineMath17findPointOnCircleEddRK9RS_Vector
librecad:_ZN11LC_LineMath17isMeaningfulAngleEd
librecad:_ZN11LC_LineMath18getMeaningfulAngleEdd
librecad:_ZN11LC_LineMath19getEndOfLineSegmentERK9RS_Vectordd
librecad:_ZN11LC_LineMath19isNonZeroLineLengthERK9RS_VectorS2_
librecad:_ZN11LC_LineMath20isMeaningfulDistanceERK9RS_VectorS2_
librecad:_ZN11LC_LineMath21calculateAngleSegmentERK9RS_VectorS2_S2_dbd
librecad:_ZN11LC_LineMath21getMeaningfulPositiveEdd
librecad:_ZN11LC_LineMath21getNearestPointOnLineEPK7RS_LineRK9RS_Vectorb
librecad:_ZN11LC_LineMath23getIntersectionLineLineERK9RS_VectorS2_S2_S2_
librecad:_ZN11LC_LineMath23isNotMeaningfulDistanceERK9RS_VectorS2_
librecad:_ZN11LC_LineMath24defineActualSegmentAngleEdbRK9RS_VectorS2_
librecad:_ZN11LC_LineMath29getNearestPointOnInfiniteLineERK9RS_VectorS2_S2_
librecad:_ZN11LC_LineMath34calculateEndpointForAngleDirectionEdRK9RS_VectorS2_
librecad:_ZN11LC_LineMath34calculateEndpointForAngleDirectionEdbRK9RS_VectorS2_S2_S2_
librecad:_ZN11LC_Parabola11prepareTrimERK9RS_VectorRK18RS_VectorSolutions
librecad:_ZN11LC_Parabola12getTrimPointERK9RS_VectorS2_
librecad:_ZN11LC_Parabola12moveEndpointERK9RS_Vector
librecad:_ZN11LC_Parabola14moveStartpointERK9RS_Vector
librecad:_ZN11LC_Parabola15revertDirectionEv
librecad:_ZN11LC_Parabola4moveERK9RS_Vector
librecad:_ZN11LC_Parabola5scaleERK9RS_VectorS2_
librecad:_ZN11LC_Parabola5shearEd
librecad:_ZN11LC_Parabola6mirrorERK9RS_VectorS2_
librecad:_ZN11LC_Parabola6rotateERK9RS_VectorRKd
librecad:_ZN11LC_Parabola6rotateERK9RS_VectorS2_
librecad:_ZN11LC_Parabola6updateEv
librecad:_ZN11LC_Parabola7moveRefERK9RS_VectorS2_
librecad:_ZN11LC_ParabolaC1EP18RS_EntityContainerRK15LC_ParabolaData
librecad:_ZN11LC_ParabolaC2EP18RS_EntityContainerRK15LC_ParabolaData
librecad:_ZN11LC_Printing17rsToQtPaperFormatEN3RS211PaperFormatE
librecad:_ZN11MainWindowX11qt_metacallEN11QMetaObject4CallEiPPv
librecad:_ZN11MainWindowX11qt_metacastEPKc
librecad:_ZN11MainWindowX16staticMetaObjectE
librecad:_ZN11MainWindowX17toggleTopDockAreaEb
librecad:_ZN11MainWindowX18sortWidgetsByTitleER5QListIP11QDockWidgetE
librecad:_ZN11MainWindowX18sortWidgetsByTitleER5QListIP8QToolBarE
librecad:_ZN11MainWindowX18toggleLeftDockAreaEb
librecad:_ZN11MainWindowX19toggleRightDockAreaEb
librecad:_ZN11MainWindowX20toggleBottomDockAreaEb
librecad:_ZN11MainWindowX25toggleFloatingDockwidgetsEb
librecad:_ZN11MainWindowXC1EP7QWidget
librecad:_ZN11MainWindowXC2EP7QWidget
librecad:_ZN11QG_ColorBox11qt_metacallEN11QMetaObject4CallEiPPv
librecad:_ZN11QG_ColorBox11qt_metacastEPKc
librecad:_ZN11QG_ColorBox12colorChangedERK8RS_Color
librecad:_ZN11QG_ColorBox13setLayerColorERK8RS_Color
librecad:_ZN11QG_ColorBox14addCustomColorERK8RS_Color
librecad:_ZN11QG_ColorBox16slotColorChangedEi
librecad:_ZN11QG_ColorBox16staticMetaObjectE
librecad:_ZN11QG_ColorBox23addTemporaryCustomColorERK8RS_Color
librecad:_ZN11QG_ColorBox23readCustomColorSettingsEv
librecad:_ZN11QG_ColorBox24writeCustomColorSettingsEv
librecad:_ZN11QG_ColorBox4initEbb
librecad:_ZN11QG_ColorBox8addColorE6QColor7QString
librecad:_ZN11QG_ColorBox8setColorERK8RS_Color
librecad:_ZN11QG_ColorBox9findColorERK8RS_Color
librecad:_ZN11QG_ColorBoxC1EP7QWidgetPKc
librecad:_ZN11QG_ColorBoxC1EbbP7QWidgetPKc
librecad:_ZN11QG_ColorBoxC2EP7QWidgetPKc
librecad:_ZN11QG_ColorBoxC2EbbP7QWidgetPKc
librecad:_ZN11QG_ColorBoxD0Ev
librecad:_ZN11QG_ColorBoxD1Ev
librecad:_ZN11QG_ColorBoxD2Ev
librecad:_ZN11QG_DlgHatch10setPatternERK7QString
librecad:_ZN11QG_DlgHatch11qt_metacallEN11QMetaObject4CallEiPPv
librecad:_ZN11QG_DlgHatch11qt_metacastEPKc
librecad:_ZN11QG_DlgHatch11resizeEventEP12QResizeEvent
librecad:_ZN11QG_DlgHatch11updateHatchEv
librecad:_ZN11QG_DlgHatch12saveSettingsEv
librecad:_ZN11QG_DlgHatch13updatePreviewEv
librecad:_ZN11QG_DlgHatch14languageChangeEv
librecad:_ZN11QG_DlgHatch16staticMetaObjectE
librecad:_ZN11QG_DlgHatch4initEv
librecad:_ZN11QG_DlgHatch6polishEv
librecad:_ZN11QG_DlgHatch8setHatchER8RS_Hatchb
librecad:_ZN11QG_DlgHatch9showEventEP10QShowEvent
librecad:_ZN11QG_DlgHatchC1EP7QWidgetb6QFlagsIN2Qt10WindowTypeEE
librecad:_ZN11QG_DlgHatchC2EP7QWidgetb6QFlagsIN2Qt10WindowTypeEE
librecad:_ZN11QG_DlgHatchD0Ev
librecad:_ZN11QG_DlgHatchD1Ev
librecad:_ZN11QG_DlgHatchD2Ev
librecad:_ZN11QG_DlgImage11changeScaleEv
librecad:_ZN11QG_DlgImage11changeWidthEv
librecad:_ZN11QG_DlgImage11qt_metacallEN11QMetaObject4CallEiPPv
librecad:_ZN11QG_DlgImage11qt_metacastEPKc
librecad:_ZN11QG_DlgImage11updateImageEv
librecad:_ZN11QG_DlgImage12changeHeightEv
librecad:_ZN11QG_DlgImage12setImageFileEv
librecad:_ZN11QG_DlgImage14languageChangeEv
librecad:_ZN11QG_DlgImage16staticMetaObjectE
librecad:_ZN11QG_DlgImage8setImageER8RS_Image
librecad:_ZN11QG_DlgImage9changeDPIEv
librecad:_ZN11QG_DlgImageC1EP7QWidgetb6QFlagsIN2Qt10WindowTypeEE
librecad:_ZN11QG_DlgImageC2EP7QWidgetb6QFlagsIN2Qt10WindowTypeEE
librecad:_ZN11QG_DlgMText10insertCharEv
librecad:_ZN11QG_DlgMText10updateTextEv
librecad:_ZN11QG_DlgMText11eventFilterEP7QObjectP6QEvent
librecad:_ZN11QG_DlgMText11qt_metacallEN11QMetaObject4CallEiPPv
librecad:_ZN11QG_DlgMText11qt_metacastEPKc
librecad:_ZN11QG_DlgMText12getAlignmentEv
librecad:_ZN11QG_DlgMText12insertSymbolEi
librecad:_ZN11QG_DlgMText12setAlignmentEP11QToolButton
librecad:_ZN11QG_DlgMText14defaultChangedEb
librecad:_ZN11QG_DlgMText14languageChangeEv
librecad:_ZN11QG_DlgMText14setAlignmentBCEv
librecad:_ZN11QG_DlgMText14setAlignmentBLEv
librecad:_ZN11QG_DlgMText14setAlignmentBREv
librecad:_ZN11QG_DlgMText14setAlignmentMCEv
librecad:_ZN11QG_DlgMText14setAlignmentMLEv
librecad:_ZN11QG_DlgMText14setAlignmentMREv
librecad:_ZN11QG_DlgMText14setAlignmentTCEv
librecad:_ZN11QG_DlgMText14setAlignmentTLEv
librecad:_ZN11QG_DlgMText14setAlignmentTREv
librecad:_ZN11QG_DlgMText16staticMetaObjectE
librecad:_ZN11QG_DlgMText19updateUniCharButtonEi
librecad:_ZN11QG_DlgMText21updateUniCharComboBoxEi
librecad:_ZN11QG_DlgMText4initEv
librecad:_ZN11QG_DlgMText4loadERK7QString
librecad:_ZN11QG_DlgMText4saveERK7QString
librecad:_ZN11QG_DlgMText6rejectEv
librecad:_ZN11QG_DlgMText7destroyEv
librecad:_ZN11QG_DlgMText7setFontERK7QString
librecad:_ZN11QG_DlgMText7setTextER8RS_MTextb
librecad:_ZN11QG_DlgMText8loadTextEv
librecad:_ZN11QG_DlgMText8saveTextEv
librecad:_ZN11QG_DlgMTextC1EP7QWidgetb6QFlagsIN2Qt10WindowTypeEE
librecad:_ZN11QG_DlgMTextC2EP7QWidgetb6QFlagsIN2Qt10WindowTypeEE
librecad:_ZN11QG_DlgMTextD0Ev
librecad:_ZN11QG_DlgMTextD1Ev
librecad:_ZN11QG_DlgMTextD2Ev
librecad:_ZN11QG_DlgPoint11qt_metacallEN11QMetaObject4CallEiPPv
librecad:_ZN11QG_DlgPoint11qt_metacastEPKc
librecad:_ZN11QG_DlgPoint11updatePointEv
librecad:_ZN11QG_DlgPoint14languageChangeEv
librecad:_ZN11QG_DlgPoint16staticMetaObjectE
librecad:_ZN11QG_DlgPoint8setPointER8RS_Point
librecad:_ZN11QG_DlgPointC1EP7QWidgetb6QFlagsIN2Qt10WindowTypeEE
librecad:_ZN11QG_DlgPointC2EP7QWidgetb6QFlagsIN2Qt10WindowTypeEE
librecad:_ZN11QG_DlgPointD0Ev
librecad:_ZN11QG_DlgPointD1Ev
librecad:_ZN11QG_DlgPointD2Ev
librecad:_ZN11QG_DlgScale10updateDataEv
librecad:_ZN11QG_DlgScale11qt_metacallEN11QMetaObject4CallEiPPv
librecad:_ZN11QG_DlgScale11qt_metacastEPKc
librecad:_ZN11QG_DlgScale14languageChangeEv
librecad:_ZN11QG_DlgScale16onFactorByPointsEv
librecad:_ZN11QG_DlgScale16onFactorXChangedERK7QString
librecad:_ZN11QG_DlgScale16onFactorYChangedERK7QString
librecad:_ZN11QG_DlgScale16staticMetaObjectE
librecad:_ZN11QG_DlgScale18onIsotropicToggledEb
librecad:_ZN11QG_DlgScale4initEv
librecad:_ZN11QG_DlgScale7destroyEv
librecad:_ZN11QG_DlgScale7setDataEP12RS_ScaleData
librecad:_ZN11QG_DlgScaleC1EP7QWidgetb6QFlagsIN2Qt10WindowTypeEE
librecad:_ZN11QG_DlgScaleC2EP7QWidgetb6QFlagsIN2Qt10WindowTypeEE
librecad:_ZN11QG_DlgScaleD0Ev
librecad:_ZN11QG_DlgScaleD1Ev
librecad:_ZN11QG_DlgScaleD2Ev
librecad:_ZN11QG_LayerBox11qt_metacallEN11QMetaObject4CallEiPPv
librecad:_ZN11QG_LayerBox11qt_metacastEPKc
librecad:_ZN11QG_LayerBox12layerChangedEP8RS_Layer
librecad:_ZN11QG_LayerBox16slotLayerChangedEi
librecad:_ZN11QG_LayerBox16staticMetaObjectE
librecad:_ZN11QG_LayerBox4initER12RS_LayerListbb
librecad:_ZN11QG_LayerBox8setLayerER7QString
librecad:_ZN11QG_LayerBox8setLayerER8RS_Layer
librecad:_ZN11QG_LayerBoxC1EP7QWidget
librecad:_ZN11QG_LayerBoxC2EP7QWidget
librecad:_ZN11QG_LayerBoxD0Ev
librecad:_ZN11QG_LayerBoxD1Ev
librecad:_ZN11QG_LayerBoxD2Ev
librecad:_ZN11QG_WidthBox11qt_metacallEN11QMetaObject4CallEiPPv
librecad:_ZN11QG_WidthBox11qt_metacastEPKc
librecad:_ZN11QG_WidthBox12widthChangedEN3RS29LineWidthE
librecad:_ZN11QG_WidthBox13setLayerWidthEN3RS29LineWidthE
librecad:_ZN11QG_WidthBox16slotWidthChangedEi
librecad:_ZN11QG_WidthBox16staticMetaObjectE
librecad:_ZN11QG_WidthBox4initEbb
librecad:_ZN11QG_WidthBox8setWidthEN3RS29LineWidthE
librecad:_ZN11QG_WidthBoxC1EP7QWidgetPKc
librecad:_ZN11QG_WidthBoxC1EbbP7QWidgetPKc
librecad:_ZN11QG_WidthBoxC2EP7QWidgetPKc
librecad:_ZN11QG_WidthBoxC2EbbP7QWidgetPKc
librecad:_ZN11RS_Commands11updateAliasEv
librecad:_ZN11RS_Commands12checkCommandERK7QStringS2_N3RS210ActionTypeE
librecad:_ZN11RS_Commands20msgAvailableCommandsEv
librecad:_ZN11RS_Commands7commandERK7QString
librecad:_ZN11RS_Commands8instanceEv
librecad:_ZN11RS_CommandsC1Ev
librecad:_ZN11RS_CommandsC2Ev
librecad:_ZN11RS_Creation11createBlockEPK12RS_BlockDataRK9RS_Vectorb
librecad:_ZN11RS_Creation11createImageEPK12RS_ImageData
librecad:_ZN11RS_Creation12createInsertEPK13RS_InsertData
librecad:_ZN11RS_Creation13createPolygonERK9RS_VectorS2_i
librecad:_ZN11RS_Creation14createBisectorERK9RS_VectorS2_diP7RS_LineS4_
librecad:_ZN11RS_Creation14createParallelERK9RS_VectordiP9RS_Entity
librecad:_ZN11RS_Creation14createPolygon2ERK9RS_VectorS2_i
librecad:_ZN11RS_Creation14createPolygon3ERK9RS_VectorS2_i
librecad:_ZN11RS_Creation14createTangent1ERK9RS_VectorS2_P9RS_Entity
librecad:_ZN11RS_Creation14createTangent2EP9RS_EntityS1_
librecad:_ZN11RS_Creation17createLineOrthTanERK9RS_VectorP7RS_LineP9RS_Entity
librecad:_ZN11RS_Creation17createParallelArcERK9RS_VectordiP6RS_Arc
librecad:_ZN11RS_Creation18createLineRelAngleERK9RS_VectorP9RS_Entitydd
librecad:_ZN11RS_Creation18createParallelLineERK9RS_VectordiP7RS_Line
librecad:_ZN11RS_Creation19createLibraryInsertER20RS_LibraryInsertData
librecad:_ZN11RS_Creation20createParallelCircleERK9RS_VectordiP9RS_Circle
librecad:_ZN11RS_Creation21createParallelThroughERK9RS_VectoriP9RS_Entity
librecad:_ZN11RS_Creation26createParallelSplinePointsERK9RS_VectordiP15LC_SplinePoints
librecad:_ZN11RS_CreationC1EP18RS_EntityContainerP14RS_GraphicViewb
librecad:_ZN11RS_CreationC2EP18RS_EntityContainerP14RS_GraphicViewb
librecad:_ZN11RS_Document12endUndoCycleEv
librecad:_ZN11RS_DocumentC2EP18RS_EntityContainer
librecad:_ZN11RS_FontList10clearFontsEv
librecad:_ZN11RS_FontList11requestFontERK7QString
librecad:_ZN11RS_FontList14uniqueInstanceE
librecad:_ZN11RS_FontList4initEv
librecad:_ZN11RS_FontList8instanceEv
librecad:_ZN11RS_InfoArea10duplicatedERK9RS_Vector
librecad:_ZN11RS_InfoArea11calcSubAreaERK9RS_VectorS2_
librecad:_ZN11RS_InfoArea16getCircumferenceEv
librecad:_ZN11RS_InfoArea4sizeEv
librecad:_ZN11RS_InfoArea5resetEv
librecad:_ZN11RS_InfoArea7getAreaERK8QPolygon
librecad:_ZN11RS_InfoArea8pop_backEv
librecad:_ZN11RS_InfoArea9calculateEv
librecad:_ZN11RS_InfoArea9push_backERK9RS_Vector
librecad:_ZN11RS_InfoAreaC1Ev
librecad:_ZN11RS_InfoAreaC2Ev
librecad:_ZN11RS_Polyline11endPolylineEv
librecad:_ZN11RS_Polyline11setEndpointERK9RS_Vector
librecad:_ZN11RS_Polyline12createVertexERK9RS_Vectordb
librecad:_ZN11RS_Polyline13appendVertexsERKSt6vectorISt4pairI9RS_VectordESaIS3_EE
librecad:_ZN11RS_Polyline13setStartpointERK9RS_Vector
librecad:_ZN11RS_Polyline15revertDirectionEv
librecad:_ZN11RS_Polyline15updateEndpointsEv
librecad:_ZN11RS_Polyline16removeLastVertexEv
librecad:_ZN11RS_Polyline4drawEP10RS_PainterP14RS_GraphicViewRd
librecad:_ZN11RS_Polyline4moveERK9RS_Vector
librecad:_ZN11RS_Polyline5scaleERK9RS_VectorS2_
librecad:_ZN11RS_Polyline6mirrorERK9RS_VectorS2_
librecad:_ZN11RS_Polyline6offsetERK9RS_VectorRKd
librecad:_ZN11RS_Polyline6rotateERK9RS_VectorRKd
librecad:_ZN11RS_Polyline6rotateERK9RS_VectorS2_
librecad:_ZN11RS_Polyline7moveRefERK9RS_VectorS2_
librecad:_ZN11RS_Polyline7stretchERK9RS_VectorS2_S2_
librecad:_ZN11RS_Polyline8setLayerEP8RS_Layer
librecad:_ZN11RS_Polyline8setLayerERK7QString
librecad:_ZN11RS_Polyline9addEntityEP9RS_Entity
librecad:_ZN11RS_Polyline9addVertexERK9RS_Vectordb
librecad:_ZN11RS_Polyline9setClosedEb
librecad:_ZN11RS_Polyline9setClosedEbd
librecad:_ZN11RS_PolylineC1EP18RS_EntityContainer
librecad:_ZN11RS_PolylineC1EP18RS_EntityContainerRK15RS_PolylineData
librecad:_ZN11RS_PolylineC2EP18RS_EntityContainer
librecad:_ZN11RS_PolylineC2EP18RS_EntityContainerRK15RS_PolylineData
librecad:_ZN11RS_Settings10GroupGuardC1E7QString
librecad:_ZN11RS_Settings10GroupGuardC2E7QString
librecad:_ZN11RS_Settings10GroupGuardD1Ev
librecad:_ZN11RS_Settings10GroupGuardD2Ev
librecad:_ZN11RS_Settings10addToCacheERK7QStringRK8QVariant
librecad:_ZN11RS_Settings10beginGroupE7QString
librecad:_ZN11RS_Settings10writeEntryERK7QStringRK8QVariant
librecad:_ZN11RS_Settings10writeEntryERK7QStringS2_
librecad:_ZN11RS_Settings10writeEntryERK7QStringd
librecad:_ZN11RS_Settings10writeEntryERK7QStringi
librecad:_ZN11RS_Settings12readNumEntryERK7QStringi
librecad:_ZN11RS_Settings14clear_geometryEv
librecad:_ZN11RS_Settings14readEntryCacheERK7QString
librecad:_ZN11RS_Settings15beginGroupGuardE7QString
librecad:_ZN11RS_Settings15save_is_allowedE
librecad:_ZN11RS_Settings18readByteArrayEntryERK7QStringS2_Pb
librecad:_ZN11RS_Settings4initERK7QStringS2_
librecad:_ZN11RS_Settings8endGroupEv
librecad:_ZN11RS_Settings8instanceEv
librecad:_ZN11RS_Settings9clear_allEv
librecad:_ZN11RS_Settings9readEntryERK7QStringS2_Pb
librecad:_ZN11RS_SettingsC1Ev
librecad:_ZN11RS_SettingsC2Ev
librecad:_ZN11RS_SnapMode5clearEv
librecad:_ZN11RS_SnapMode5toIntERKS_
librecad:_ZN11RS_SnapMode7fromIntEj
librecad:_ZN11RS_TextDataC1ERK9RS_VectorS2_ddNS_6VAlignENS_6HAlignENS_14TextGenerationERK7QStringS8_dN3RS210UpdateModeE
librecad:_ZN11RS_TextDataC2ERK9RS_VectorS2_ddNS_6VAlignENS_6HAlignENS_14TextGenerationERK7QStringS8_dN3RS210UpdateModeE
librecad:_ZN11RS_Undoable12setUndoStateEb
librecad:_ZN11RS_Undoable15changeUndoStateEv
librecad:_ZN11dwgReader1512readMetaDataEv
librecad:_ZN11dwgReader1513readDwgBlocksER13DRW_Interface
librecad:_ZN11dwgReader1513readDwgHeaderER10DRW_Header
librecad:_ZN11dwgReader1513readDwgTablesER10DRW_Header
librecad:_ZN11dwgReader1514readDwgClassesEv
librecad:_ZN11dwgReader1514readDwgHandlesEv
librecad:_ZN11dwgReader1514readFileHeaderEv
librecad:_ZN11dwgReader1812parseSysPageEPhj
librecad:_ZN11dwgReader1812readMetaDataEv
librecad:_ZN11dwgReader1813parseDataPageERK14dwgSectionInfo
librecad:_ZN11dwgReader1813readDwgHeaderER10DRW_Header
librecad:_ZN11dwgReader1813readDwgTablesER10DRW_Header
librecad:_ZN11dwgReader1814genMagicNumberEv
librecad:_ZN11dwgReader1814readDwgClassesEv
librecad:_ZN11dwgReader1814readDwgHandlesEv
librecad:_ZN11dwgReader1814readFileHeaderEv
librecad:_ZN11dwgReader188checksumEjPhy
librecad:_ZN11dwgReader2112parseSysPageEyyyyPh
librecad:_ZN11dwgReader2112readMetaDataEv
librecad:_ZN11dwgReader2113parseDataPageERK14dwgSectionInfoPh
librecad:_ZN11dwgReader2113readDwgBlocksER13DRW_Interface
librecad:_ZN11dwgReader2113readDwgHeaderER10DRW_Header
librecad:_ZN11dwgReader2113readDwgTablesER10DRW_Header
librecad:_ZN11dwgReader2114readDwgClassesEv
librecad:_ZN11dwgReader2114readDwgHandlesEv
librecad:_ZN11dwgReader2114readFileHeaderEv
librecad:_ZN11dwgReader2413readDwgHeaderER10DRW_Header
librecad:_ZN11dwgReader2414readDwgClassesEv
librecad:_ZN11dwgReader2414readFileHeaderEv
librecad:_ZN11dwgReader2713readDwgHeaderER10DRW_Header
librecad:_ZN11dwgReader2714readDwgClassesEv
librecad:_ZN11dwgReader2714readFileHeaderEv
librecad:_ZN11print_debug6printBEi
librecad:_ZN11print_debug6printDEd
librecad:_ZN11print_debug6printHEx
librecad:_ZN11print_debug6printIEx
librecad:_ZN11print_debug6printSERKNSt7__cxx1112basic_stringIcSt11char_traitsIcESaIcEEE
librecad:_ZN11print_debug7printHLEiii
librecad:_ZN11print_debug7printPTEddd
librecad:_ZN11print_debug7printUIEy
librecad:_ZN12DRW_Dimstyle8parseDwgEN3DRW7VersionEP9dwgBufferj
librecad:_ZN12DRW_Dimstyle9parseCodeEiP9dxfReader
librecad:_ZN12DRW_ImageDef8parseDwgEN3DRW7VersionEP9dwgBufferj
librecad:_ZN12DRW_ImageDef9parseCodeEiP9dxfReader
librecad:_ZN12DRW_Polyline8parseDwgEN3DRW7VersionEP9dwgBufferj
librecad:_ZN12DRW_Polyline9parseCodeEiP9dxfReader
librecad:_ZN12DRW_Viewport8parseDwgEN3DRW7VersionEP9dwgBufferj
librecad:_ZN12DRW_Viewport9parseCodeEiP9dxfReader
librecad:_ZN12JWWBlockList11GetCDataSenEii
librecad:_ZN12JWWBlockList11GetCDataTenEii
librecad:_ZN12JWWBlockList11GetDataTypeEji
librecad:_ZN12JWWBlockList12AddBlockListER9CDataList
librecad:_ZN12JWWBlockList12GetBlockListEj
librecad:_ZN12JWWBlockList12GetCDataEnkoEii
librecad:_ZN12JWWBlockList12GetCDataMojiEii
librecad:_ZN12JWWBlockList12GetCDataTypeEii
librecad:_ZN12JWWBlockList13GetCDataBlockEii
librecad:_ZN12JWWBlockList13GetCDataSolidEii
librecad:_ZN12JWWBlockList14AddDataListSenER8CDataSen
librecad:_ZN12JWWBlockList14AddDataListTenER8CDataTen
librecad:_ZN12JWWBlockList14GetCDataSunpouEii
librecad:_ZN12JWWBlockList15AddDataListEnkoER9CDataEnko
librecad:_ZN12JWWBlockList15AddDataListMojiER9CDataMoji
librecad:_ZN12JWWBlockList16AddDataListBlockER10CDataBlock
librecad:_ZN12JWWBlockList16AddDataListSolidER10CDataSolid
librecad:_ZN12JWWBlockList16GetDataListCountEj
librecad:_ZN12JWWBlockList17AddDataListSunpouER11CDataSunpou
librecad:_ZN12JWWBlockList17getBlockListCountEv
librecad:_ZN12JWWBlockList4InitEv
librecad:_ZN12JWWBlockList7GetDataEji
librecad:_ZN12JWWBlockListC1Ev
librecad:_ZN12JWWBlockListC2Ev
librecad:_ZN12JWWBlockListD1Ev
librecad:_ZN12JWWBlockListD2Ev
librecad:_ZN12LC_Hyperbola19createFromQuadraticERK12LC_Quadratic
librecad:_ZN12LC_Hyperbola19createFromQuadraticERKSt6vectorIdSaIdEE
librecad:_ZN12LC_Hyperbola5shearEd
librecad:_ZN12LC_HyperbolaC1EP18RS_EntityContainerRK16LC_HyperbolaData
librecad:_ZN12LC_HyperbolaC2EP18RS_EntityContainerRK16LC_HyperbolaData
librecad:_ZN12LC_LoopUtils10LoopSorter13AreaPredicateC1ERKS0_
librecad:_ZN12LC_LoopUtils10LoopSorter13AreaPredicateC2ERKS0_
librecad:_ZN12LC_LoopUtils10LoopSorter13findAncestorsEP18RS_EntityContainer
librecad:_ZN12LC_LoopUtils10LoopSorter4initEv
librecad:_ZN12LC_LoopUtils10LoopSorterC1ESt6vectorISt10unique_ptrI18RS_EntityContainerSt14default_deleteIS3_EESaIS6_EE
librecad:_ZN12LC_LoopUtils10LoopSorterC2ESt6vectorISt10unique_ptrI18RS_EntityContainerSt14default_deleteIS3_EESaIS6_EE
librecad:_ZN12LC_LoopUtils10LoopSorterD1Ev
librecad:_ZN12LC_LoopUtils10LoopSorterD2Ev
librecad:_ZN12LC_LoopUtils10isEnclosedER18RS_EntityContainerR15RS_AtomicEntity
librecad:_ZN12LC_LoopUtils13LoopExtractor7extractEv
librecad:_ZN12LC_LoopUtils13LoopExtractorC1ER18RS_EntityContainer
librecad:_ZN12LC_LoopUtils13LoopExtractorC2ER18RS_EntityContainer
librecad:_ZN12LC_LoopUtils13LoopExtractorD1Ev
librecad:_ZN12LC_LoopUtils13LoopExtractorD2Ev
librecad:_ZN12LC_PenWizard11qt_metacallEN11QMetaObject4CallEiPPv
librecad:_ZN12LC_PenWizard11qt_metacastEPKc
librecad:_ZN12LC_PenWizard12setMdiWindowEP12QC_MDIWindow
librecad:_ZN12LC_PenWizard13selectByColorE6QColor
librecad:_ZN12LC_PenWizard16staticMetaObjectE
librecad:_ZN12LC_PenWizard17setActivePenColorE6QColor
librecad:_ZN12LC_PenWizard19setColorForSelectedE6QColor
librecad:_ZN12LC_PenWizardC1ERK7QStringP7QWidget
librecad:_ZN12LC_PenWizardC2ERK7QStringP7QWidget
librecad:_ZN12LC_Quadratic14rotationMatrixERKd
librecad:_ZN12LC_Quadratic15getIntersectionERKS_S1_
librecad:_ZN12LC_Quadratic4moveERK9RS_Vector
librecad:_ZN12LC_Quadratic5shearEd
librecad:_ZN12LC_Quadratic6rotateERK9RS_VectorRKd
librecad:_ZN12LC_Quadratic6rotateERKd
librecad:_ZN12LC_Quadratic7getQuadEv
librecad:_ZN12LC_Quadratic8setValidEb
librecad:_ZN12LC_Quadratic9constTermEv
librecad:_ZN12LC_Quadratic9getLinearEv
librecad:_ZN12LC_QuadraticC1EPK15RS_AtomicEntityRK9RS_Vector
librecad:_ZN12LC_QuadraticC1EPK15RS_AtomicEntityS2_b
librecad:_ZN12LC_QuadraticC1ERK9RS_VectorS2_
librecad:_ZN12LC_QuadraticC1ERKS_
librecad:_ZN12LC_QuadraticC1ESt6vectorIdSaIdEE
librecad:_ZN12LC_QuadraticC1Ev
librecad:_ZN12LC_QuadraticC2EPK15RS_AtomicEntityRK9RS_Vector
librecad:_ZN12LC_QuadraticC2EPK15RS_AtomicEntityS2_b
librecad:_ZN12LC_QuadraticC2ERK9RS_VectorS2_
librecad:_ZN12LC_QuadraticC2ERKS_
librecad:_ZN12LC_QuadraticC2ESt6vectorIdSaIdEE
librecad:_ZN12LC_QuadraticC2Ev
librecad:_ZN12LC_QuadraticaSERKS_
librecad:_ZN12PdfPrintLoop11qt_metacallEN11QMetaObject4CallEiPPv
librecad:_ZN12PdfPrintLoop11qt_metacastEPKc
librecad:_ZN12PdfPrintLoop16staticMetaObjectE
librecad:_ZN12PdfPrintLoop19printOneDxfToOnePdfERK7QString
librecad:_ZN12PdfPrintLoop20printManyDxfToOnePdfEv
librecad:_ZN12PdfPrintLoop3runEv
librecad:_ZN12PdfPrintLoop8finishedEv
librecad:_ZN12QC_MDIWindow10closeEventEP11QCloseEvent
librecad:_ZN12QC_MDIWindow11qt_metacallEN11QMetaObject4CallEiPPv
librecad:_ZN12QC_MDIWindow11qt_metacastEPKc
librecad:_ZN12QC_MDIWindow11slotFileNewEv
librecad:_ZN12QC_MDIWindow12slotFileOpenERK7QStringN3RS210FormatTypeE
librecad:_ZN12QC_MDIWindow12slotFileSaveERbb
librecad:_ZN12QC_MDIWindow12slotZoomAutoEv
librecad:_ZN12QC_MDIWindow13slotFilePrintEv
librecad:_ZN12QC_MDIWindow14addChildWindowEPS_
librecad:_ZN12QC_MDIWindow14slotFileSaveAsERb
librecad:_ZN12QC_MDIWindow14slotPenChangedERK6RS_Pen
librecad:_ZN12QC_MDIWindow15getChildWindowsEv
librecad:_ZN12QC_MDIWindow15getPrintPreviewEv
librecad:_ZN12QC_MDIWindow15setParentWindowEPS_
librecad:_ZN12QC_MDIWindow16staticMetaObjectE
librecad:_ZN12QC_MDIWindow17removeChildWindowEPS_
librecad:_ZN12QC_MDIWindow19slotFileNewTemplateERK7QStringN3RS210FormatTypeE
librecad:_ZN12QC_MDIWindow9drawCharsEv
librecad:_ZN12QC_MDIWindowC1EP11RS_DocumentP7QWidget6QFlagsIN2Qt10WindowTypeEE
librecad:_ZN12QC_MDIWindowC2EP11RS_DocumentP7QWidget6QFlagsIN2Qt10WindowTypeEE
librecad:_ZN12QC_MDIWindowD0Ev
librecad:_ZN12QC_MDIWindowD1Ev
librecad:_ZN12QC_MDIWindowD2Ev
librecad:_ZN12QG_DlgCircle11qt_metacallEN11QMetaObject4CallEiPPv
librecad:_ZN12QG_DlgCircle11qt_metacastEPKc
librecad:_ZN12QG_DlgCircle12updateCircleEv
librecad:_ZN12QG_DlgCircle14languageChangeEv
librecad:_ZN12QG_DlgCircle16staticMetaObjectE
librecad:_ZN12QG_DlgCircle9setCircleER9RS_Circle
librecad:_ZN12QG_DlgCircleC1EP7QWidgetb6QFlagsIN2Qt10WindowTypeEE
librecad:_ZN12QG_DlgCircleC2EP7QWidgetb6QFlagsIN2Qt10WindowTypeEE
librecad:_ZN12QG_DlgCircleD0Ev
librecad:_ZN12QG_DlgCircleD1Ev
librecad:_ZN12QG_DlgCircleD2Ev
librecad:_ZN12QG_DlgInsert11qt_metacallEN11QMetaObject4CallEiPPv
librecad:_ZN12QG_DlgInsert11qt_metacastEPKc
librecad:_ZN12QG_DlgInsert12updateInsertEv
librecad:_ZN12QG_DlgInsert14languageChangeEv
librecad:_ZN12QG_DlgInsert16staticMetaObjectE
librecad:_ZN12QG_DlgInsert9setInsertER9RS_Insert
librecad:_ZN12QG_DlgInsertC1EP7QWidgetb6QFlagsIN2Qt10WindowTypeEE
librecad:_ZN12QG_DlgInsertC2EP7QWidgetb6QFlagsIN2Qt10WindowTypeEE
librecad:_ZN12QG_DlgInsertD0Ev
librecad:_ZN12QG_DlgInsertD1Ev
librecad:_ZN12QG_DlgInsertD2Ev
librecad:_ZN12QG_DlgMirror10updateDataEv
librecad:_ZN12QG_DlgMirror11qt_metacallEN11QMetaObject4CallEiPPv
librecad:_ZN12QG_DlgMirror11qt_metacastEPKc
librecad:_ZN12QG_DlgMirror14languageChangeEv
librecad:_ZN12QG_DlgMirror16staticMetaObjectE
librecad:_ZN12QG_DlgMirror4initEv
librecad:_ZN12QG_DlgMirror7destroyEv
librecad:_ZN12QG_DlgMirror7setDataEP13RS_MirrorData
librecad:_ZN12QG_DlgMirrorC1EP7QWidgetb6QFlagsIN2Qt10WindowTypeEE
librecad:_ZN12QG_DlgMirrorC2EP7QWidgetb6QFlagsIN2Qt10WindowTypeEE
librecad:_ZN12QG_DlgMirrorD0Ev
librecad:_ZN12QG_DlgMirrorD1Ev
librecad:_ZN12QG_DlgMirrorD2Ev
librecad:_ZN12QG_DlgRotate10updateDataEv
librecad:_ZN12QG_DlgRotate11qt_metacallEN11QMetaObject4CallEiPPv
librecad:_ZN12QG_DlgRotate11qt_metacastEPKc
librecad:_ZN12QG_DlgRotate14languageChangeEv
librecad:_ZN12QG_DlgRotate16staticMetaObjectE
librecad:_ZN12QG_DlgRotate4initEv
librecad:_ZN12QG_DlgRotate7destroyEv
librecad:_ZN12QG_DlgRotate7setDataEP13RS_RotateData
librecad:_ZN12QG_DlgRotateC1EP7QWidgetb6QFlagsIN2Qt10WindowTypeEE
librecad:_ZN12QG_DlgRotateC2EP7QWidgetb6QFlagsIN2Qt10WindowTypeEE
librecad:_ZN12QG_DlgRotateD0Ev
librecad:_ZN12QG_DlgRotateD1Ev
librecad:_ZN12QG_DlgRotateD2Ev
librecad:_ZN12QG_DlgSpline11qt_metacallEN11QMetaObject4CallEiPPv
librecad:_ZN12QG_DlgSpline11qt_metacastEPKc
librecad:_ZN12QG_DlgSpline12updateSplineEv
librecad:_ZN12QG_DlgSpline14languageChangeEv
librecad:_ZN12QG_DlgSpline16staticMetaObjectE
librecad:_ZN12QG_DlgSpline9setSplineER9RS_Spline
librecad:_ZN12QG_DlgSplineC1EP7QWidgetb6QFlagsIN2Qt10WindowTypeEE
librecad:_ZN12QG_DlgSplineC2EP7QWidgetb6QFlagsIN2Qt10WindowTypeEE
librecad:_ZN12QG_ScrollBar11qt_metacallEN11QMetaObject4CallEiPPv
librecad:_ZN12QG_ScrollBar11qt_metacastEPKc
librecad:_ZN12QG_ScrollBar16staticMetaObjectE
librecad:_ZN12QG_WidgetPen11qt_metacallEN11QMetaObject4CallEiPPv
librecad:_ZN12QG_WidgetPen11qt_metacastEPKc
librecad:_ZN12QG_WidgetPen12focusInEventEP11QFocusEvent
librecad:_ZN12QG_WidgetPen13focusOutEventEP11QFocusEvent
librecad:_ZN12QG_WidgetPen14languageChangeEv
librecad:_ZN12QG_WidgetPen16isColorUnchangedEv
librecad:_ZN12QG_WidgetPen16isWidthUnchangedEv
librecad:_ZN12QG_WidgetPen16staticMetaObjectE
librecad:_ZN12QG_WidgetPen19isLineTypeUnchangedEv
librecad:_ZN12QG_WidgetPen6getPenEv
librecad:_ZN12QG_WidgetPen6setPenE6RS_PenP8RS_LayerRK7QString
librecad:_ZN12QG_WidgetPen6setPenE6RS_PenP8RS_LayerbRK7QString
librecad:_ZN12QG_WidgetPen6setPenE6RS_PenbbRK7QString
librecad:_ZN12QG_WidgetPen6setPenEP9RS_EntityP8RS_LayerRK7QString
librecad:_ZN12QG_WidgetPenC1EP7QWidget6QFlagsIN2Qt10WindowTypeEE
librecad:_ZN12QG_WidgetPenC2EP7QWidget6QFlagsIN2Qt10WindowTypeEE
librecad:_ZN12QG_WidgetPenD0Ev
librecad:_ZN12QG_WidgetPenD1Ev
librecad:_ZN12QG_WidgetPenD2Ev
librecad:_ZN12RS_BlockDataC1ERK7QStringRK9RS_Vectorb
librecad:_ZN12RS_BlockDataC2ERK7QStringRK9RS_Vectorb
librecad:_ZN12RS_BlockList11addListenerEP20RS_BlockListListener
librecad:_ZN12RS_BlockList11setModifiedEb
librecad:_ZN12RS_BlockList14removeListenerEP20RS_BlockListListener
librecad:_ZN12RS_BlockList15addNotificationEv
librecad:_ZN12RS_BlockList2atEi
librecad:_ZN12RS_BlockList3addEP8RS_Blockb
librecad:_ZN12RS_BlockList3endEv
librecad:_ZN12RS_BlockList4findERK7QString
librecad:_ZN12RS_BlockList5beginEv
librecad:_ZN12RS_BlockList5clearEv
librecad:_ZN12RS_BlockList6removeEP8RS_Block
librecad:_ZN12RS_BlockList6renameEP8RS_BlockRK7QString
librecad:_ZN12RS_BlockList6toggleEP8RS_Block
librecad:_ZN12RS_BlockList6toggleERK7QString
librecad:_ZN12RS_BlockList7newNameERK7QString
librecad:_ZN12RS_BlockList8activateEP8RS_Block
librecad:_ZN12RS_BlockList8activateERK7QString
librecad:_ZN12RS_BlockList9freezeAllEb
librecad:_ZN12RS_BlockList9getActiveEv
librecad:_ZN12RS_BlockListC1Eb
librecad:_ZN12RS_BlockListC2Eb
librecad:_ZN12RS_Clipboard10getGraphicEv
librecad:_ZN12RS_Clipboard10nextEntityEv
librecad:_ZN12RS_Clipboard11countBlocksEv
librecad:_ZN12RS_Clipboard11countLayersEv
librecad:_ZN12RS_Clipboard11firstEntityEv
librecad:_ZN12RS_Clipboard5clearEv
librecad:_ZN12RS_Clipboard5countEv
librecad:_ZN12RS_Clipboard7blockAtEi
librecad:_ZN12RS_Clipboard7layerAtEi
librecad:_ZN12RS_Clipboard8addBlockEP8RS_Block
librecad:_ZN12RS_Clipboard8addLayerEP8RS_Layer
librecad:_ZN12RS_Clipboard8entityAtEj
librecad:_ZN12RS_Clipboard8hasBlockERK7QString
librecad:_ZN12RS_Clipboard8hasLayerERK7QString
librecad:_ZN12RS_Clipboard8instanceEv
librecad:_ZN12RS_Clipboard9addEntityEP9RS_Entity
librecad:_ZN12RS_ClipboardC1Ev
librecad:_ZN12RS_ClipboardC2Ev
librecad:_ZN12RS_DimLinear16getMeasuredLabelEv
librecad:_ZN12RS_DimLinear24hasEndpointsWithinWindowERK9RS_VectorS2_
librecad:_ZN12RS_DimLinear4moveERK9RS_Vector
librecad:_ZN12RS_DimLinear5scaleERK9RS_VectorS2_
librecad:_ZN12RS_DimLinear6mirrorERK9RS_VectorS2_
librecad:_ZN12RS_DimLinear6rotateERK9RS_VectorRKd
librecad:_ZN12RS_DimLinear6rotateERK9RS_VectorS2_
librecad:_ZN12RS_DimLinear7moveRefERK9RS_VectorS2_
librecad:_ZN12RS_DimLinear7stretchERK9RS_VectorS2_S2_
librecad:_ZN12RS_DimLinear8setAngleEd
librecad:_ZN12RS_DimLinear9updateDimEb
librecad:_ZN12RS_DimLinearC1EP18RS_EntityContainerRK16RS_DimensionDataRK16RS_DimLinearData
librecad:_ZN12RS_DimLinearC2EP18RS_EntityContainerRK16RS_DimensionDataRK16RS_DimLinearData
librecad:_ZN12RS_DimRadial16getMeasuredLabelEv
librecad:_ZN12RS_DimRadial4moveERK9RS_Vector
librecad:_ZN12RS_DimRadial5scaleERK9RS_VectorS2_
librecad:_ZN12RS_DimRadial6mirrorERK9RS_VectorS2_
librecad:_ZN12RS_DimRadial6rotateERK9RS_VectorRKd
librecad:_ZN12RS_DimRadial6rotateERK9RS_VectorS2_
librecad:_ZN12RS_DimRadial7moveRefERK9RS_VectorS2_
librecad:_ZN12RS_DimRadial9updateDimEb
librecad:_ZN12RS_DimRadialC1EP18RS_EntityContainerRK16RS_DimensionDataRK16RS_DimRadialData
librecad:_ZN12RS_DimRadialC2EP18RS_EntityContainerRK16RS_DimensionDataRK16RS_DimRadialData
librecad:_ZN12RS_Dimension11getTickSizeEv
librecad:_ZN12RS_Dimension12getArrowSizeEv
librecad:_ZN12RS_Dimension12getTextColorEv
librecad:_ZN12RS_Dimension12getTextStyleEv
librecad:_ZN12RS_Dimension13getTextHeightEv
librecad:_ZN12RS_Dimension14getFixedLengthEv
librecad:_ZN12RS_Dimension15getGeneralScaleEv
librecad:_ZN12RS_Dimension15stripZerosAngleE7QStringi
librecad:_ZN12RS_Dimension16getFixedLengthOnEv
librecad:_ZN12RS_Dimension16getGeneralFactorEv
librecad:_ZN12RS_Dimension16stripZerosLinearE7QStringi
librecad:_ZN12RS_Dimension18getGraphicVariableERK7QStringdi
librecad:_ZN12RS_Dimension19getDimensionLineGapEv
librecad:_ZN12RS_Dimension21getDimensionLineColorEv
librecad:_ZN12RS_Dimension21getDimensionLineWidthEv
librecad:_ZN12RS_Dimension21getExtensionLineColorEv
librecad:_ZN12RS_Dimension21getExtensionLineWidthEv
librecad:_ZN12RS_Dimension22getExtensionLineOffsetEv
librecad:_ZN12RS_Dimension23getInsideHorizontalTextEv
librecad:_ZN12RS_Dimension25getExtensionLineExtensionEv
librecad:_ZN12RS_Dimension25updateCreateDimensionLineERK9RS_VectorS2_bbb
librecad:_ZN12RS_Dimension29getIntersectionsLineContainerEPK7RS_LinePK18RS_EntityContainerb
librecad:_ZN12RS_Dimension36updateCreateAlignedTextDimensionLineERK9RS_VectorS2_bbb
librecad:_ZN12RS_Dimension39updateCreateHorizontalTextDimensionLineERK9RS_VectorS2_bbb
librecad:_ZN12RS_Dimension4moveERK9RS_Vector
librecad:_ZN12RS_Dimension5scaleERK9RS_VectorS2_
librecad:_ZN12RS_Dimension6mirrorERK9RS_VectorS2_
librecad:_ZN12RS_Dimension6rotateERK9RS_VectorRKd
librecad:_ZN12RS_Dimension6rotateERK9RS_VectorS2_
librecad:_ZN12RS_Dimension8getLabelEb
librecad:_ZN12RS_Dimension8setLabelERK7QString
librecad:_ZN12RS_DimensionC2EP18RS_EntityContainerRK16RS_DimensionData
librecad:_ZN12RS_FilterCXF10fileExportER10RS_GraphicRK7QStringN3RS210FormatTypeE
librecad:_ZN12RS_FilterCXF10fileImportER10RS_GraphicRK7QStringN3RS210FormatTypeE
librecad:_ZN12RS_FilterCXF6streamERSt14basic_ofstreamIcSt11char_traitsIcEEd
librecad:_ZN12RS_FilterCXFC1Ev
librecad:_ZN12RS_FilterCXFC2Ev
librecad:_ZN12RS_FilterJWW10addCommentEPKc
librecad:_ZN12RS_FilterJWW10addEllipseERK14DL_EllipseData
librecad:_ZN12RS_FilterJWW10fileExportER10RS_GraphicRK7QStringN3RS210FormatTypeE
librecad:_ZN12RS_FilterJWW10fileImportER10RS_GraphicRK7QStringN3RS210FormatTypeE
librecad:_ZN12RS_FilterJWW10writeAppidER10DL_WriterAPKc
librecad:_ZN12RS_FilterJWW10writeBlockER10DL_WriterAP8RS_Block
librecad:_ZN12RS_FilterJWW10writeHatchER10DL_WriterAP8RS_HatchRK13DL_Attributes
librecad:_ZN12RS_FilterJWW10writeImageER10DL_WriterAP8RS_ImageRK13DL_Attributes
librecad:_ZN12RS_FilterJWW10writeLayerER10DL_WriterAP8RS_Layer
librecad:_ZN12RS_FilterJWW10writePointER10DL_WriterAP8RS_PointRK13DL_Attributes
librecad:_ZN12RS_FilterJWW10writeSolidER10DL_WriterAP8RS_SolidRK13DL_Attributes
librecad:_ZN12RS_FilterJWW11addDimAlignERK16DL_DimensionDataRK17DL_DimAlignedData
librecad:_ZN12RS_FilterJWW11addPolylineERK15DL_PolylineData
librecad:_ZN12RS_FilterJWW11toDxfStringERK7QString
librecad:_ZN12RS_FilterJWW11writeCircleER10DL_WriterAP9RS_CircleRK13DL_Attributes
librecad:_ZN12RS_FilterJWW11writeEntityER10DL_WriterAP9RS_Entity
librecad:_ZN12RS_FilterJWW11writeEntityER10DL_WriterAP9RS_EntityRK13DL_Attributes
librecad:_ZN12RS_FilterJWW11writeInsertER10DL_WriterAP9RS_InsertRK13DL_Attributes
librecad:_ZN12RS_FilterJWW11writeLeaderER10DL_WriterAP9RS_LeaderRK13DL_Attributes
librecad:_ZN12RS_FilterJWW11writeSplineER10DL_WriterAP9RS_SplineRK13DL_Attributes
librecad:_ZN12RS_FilterJWW12addDimLinearERK16DL_DimensionDataRK16DL_DimLinearData
librecad:_ZN12RS_FilterJWW12addDimRadialERK16DL_DimensionDataRK16DL_DimRadialData
librecad:_ZN12RS_FilterJWW12addHatchEdgeERK16DL_HatchEdgeData
librecad:_ZN12RS_FilterJWW12addHatchLoopERK16DL_HatchLoopData
librecad:_ZN12RS_FilterJWW12numberToUnitEi
librecad:_ZN12RS_FilterJWW12unitToNumberEN3RS24UnitE
librecad:_ZN12RS_FilterJWW12writeEllipseER10DL_WriterAP10RS_EllipseRK13DL_Attributes
librecad:_ZN12RS_FilterJWW13addDimAngularERK16DL_DimensionDataRK17DL_DimAngularData
librecad:_ZN12RS_FilterJWW13addMTextChunkEPKc
librecad:_ZN12RS_FilterJWW13colorToNumberERK8RS_Color
librecad:_ZN12RS_FilterJWW13numberToColorEib
librecad:_ZN12RS_FilterJWW13numberToWidthEi
librecad:_ZN12RS_FilterJWW13widthToNumberEN3RS29LineWidthE
librecad:_ZN12RS_FilterJWW13writeImageDefER10DL_WriterAP8RS_Image
librecad:_ZN12RS_FilterJWW13writeLineTypeER10DL_WriterAN3RS28LineTypeE
librecad:_ZN12RS_FilterJWW13writePolylineER10DL_WriterAP11RS_PolylineRK13DL_Attributes
librecad:_ZN12RS_FilterJWW14addDimOrdinateERK16DL_DimensionDataRK18DL_DimOrdinateData
librecad:_ZN12RS_FilterJWW14getDXFEncodingEv
librecad:_ZN12RS_FilterJWW14lineTypeToNameEN3RS28LineTypeE
librecad:_ZN12RS_FilterJWW14nameToLineTypeERK7QString
librecad:_ZN12RS_FilterJWW14setVariableIntEPKcii
librecad:_ZN12RS_FilterJWW14toNativeStringEPKcRK7QString
librecad:_ZN12RS_FilterJWW14writeDimensionER10DL_WriterAP12RS_DimensionRK13DL_Attributes
librecad:_ZN12RS_FilterJWW14writeVariablesER10DL_WriterA
librecad:_ZN12RS_FilterJWW15addControlPointERK19DL_ControlPointData
librecad:_ZN12RS_FilterJWW15addDimAngular3PERK16DL_DimensionDataRK19DL_DimAngular3PData
librecad:_ZN12RS_FilterJWW15addDimDiametricERK16DL_DimensionDataRK19DL_DimDiametricData
librecad:_ZN12RS_FilterJWW15addLeaderVertexERK19DL_LeaderVertexData
librecad:_ZN12RS_FilterJWW17convDimensionDataERK16DL_DimensionData
librecad:_ZN12RS_FilterJWW17setVariableDoubleEPKcdi
librecad:_ZN12RS_FilterJWW17setVariableStringEPKcS1_i
librecad:_ZN12RS_FilterJWW17setVariableVectorEPKcdddi
librecad:_ZN12RS_FilterJWW17writeSplinePointsER10DL_WriterAP15LC_SplinePointsRK13DL_Attributes
librecad:_ZN12RS_FilterJWW19angleFormatToNumberEN3RS211AngleFormatE
librecad:_ZN12RS_FilterJWW19getEntityAttributesEP9RS_Entity
librecad:_ZN12RS_FilterJWW19numberToAngleFormatEi
librecad:_ZN12RS_FilterJWW19setEntityAttributesEP9RS_EntityRK13DL_Attributes
librecad:_ZN12RS_FilterJWW19writeAtomicEntitiesER10DL_WriterAP18RS_EntityContainerRK13DL_AttributesN3RS212ResolveLevelE
librecad:_ZN12RS_FilterJWW20writeEntityContainerER10DL_WriterAP18RS_EntityContainerRK13DL_Attributes
librecad:_ZN12RS_FilterJWW24isVariableTwoDimensionalERK7QString
librecad:_ZN12RS_FilterJWW6addArcERK10DL_ArcData
librecad:_ZN12RS_FilterJWW7addLineERK11DL_LineData
librecad:_ZN12RS_FilterJWW7addTextERK11DL_TextData
librecad:_ZN12RS_FilterJWW8addBlockERK12DL_BlockData
librecad:_ZN12RS_FilterJWW8addHatchERK12DL_HatchData
librecad:_ZN12RS_FilterJWW8addImageERK12DL_ImageData
librecad:_ZN12RS_FilterJWW8addLayerERK12DL_LayerData
librecad:_ZN12RS_FilterJWW8addMTextERK12DL_MTextData
librecad:_ZN12RS_FilterJWW8addPointERK12DL_PointData
librecad:_ZN12RS_FilterJWW8endBlockEv
librecad:_ZN12RS_FilterJWW8writeArcER10DL_WriterAP6RS_ArcRK13DL_Attributes
librecad:_ZN12RS_FilterJWW9add3dFaceERK12DL_TraceData
librecad:_ZN12RS_FilterJWW9addCircleERK13DL_CircleData
librecad:_ZN12RS_FilterJWW9addInsertERK13DL_InsertData
librecad:_ZN12RS_FilterJWW9addLeaderERK13DL_LeaderData
librecad:_ZN12RS_FilterJWW9addSplineERK13DL_SplineData
librecad:_ZN12RS_FilterJWW9addVertexERK13DL_VertexData
librecad:_ZN12RS_FilterJWW9endEntityEv
librecad:_ZN12RS_FilterJWW9linkImageERK15DL_ImageDefData
librecad:_ZN12RS_FilterJWW9writeLineER10DL_WriterAP7RS_LineRK13DL_Attributes
librecad:_ZN12RS_FilterJWW9writeTextER10DL_WriterAP8RS_MTextRK13DL_Attributes
librecad:_ZN12RS_FilterJWWC1Ev
librecad:_ZN12RS_FilterJWWC2Ev
librecad:_ZN12RS_FilterJWWD0Ev
librecad:_ZN12RS_FilterJWWD1Ev
librecad:_ZN12RS_FilterJWWD2Ev
librecad:_ZN12RS_FilterLFF10fileExportER10RS_GraphicRK7QStringN3RS210FormatTypeE
librecad:_ZN12RS_FilterLFF10fileImportER10RS_GraphicRK7QStringN3RS210FormatTypeE
librecad:_ZN12RS_FilterLFF6streamERSt14basic_ofstreamIcSt11char_traitsIcEEd
librecad:_ZN12RS_FilterLFFC1Ev
librecad:_ZN12RS_FilterLFFC2Ev
librecad:_ZN12RS_HatchDataC1EbddRK7QString
librecad:_ZN12RS_HatchDataC2EbddRK7QString
librecad:_ZN12RS_ImageDataC1EiRK9RS_VectorS2_S2_S2_RK7QStringiii
librecad:_ZN12RS_ImageDataC2EiRK9RS_VectorS2_S2_S2_RK7QStringiii
librecad:_ZN12RS_LayerDataC1ERK7QStringRK6RS_Penbb
librecad:_ZN12RS_LayerDataC2ERK7QStringRK6RS_Penbb
librecad:_ZN12RS_LayerList10toggleLockEP8RS_Layer
librecad:_ZN12RS_LayerList11addListenerEP20RS_LayerListListener
librecad:_ZN12RS_LayerList11setModifiedEb
librecad:_ZN12RS_LayerList11togglePrintEP8RS_Layer
librecad:_ZN12RS_LayerList12setLockMultiE5QListIP8RS_LayerES3_
librecad:_ZN12RS_LayerList13setPrintMultiE5QListIP8RS_LayerES3_
librecad:_ZN12RS_LayerList14removeListenerEP20RS_LayerListListener
librecad:_ZN12RS_LayerList14setFreezeMultiE5QListIP8RS_LayerES3_
librecad:_ZN12RS_LayerList15toggleLockMultiE5QListIP8RS_LayerE
librecad:_ZN12RS_LayerList16fireLayerToggledEv
librecad:_ZN12RS_LayerList16togglePrintMultiE5QListIP8RS_LayerE
librecad:_ZN12RS_LayerList17toggleFreezeMultiE5QListIP8RS_LayerE
librecad:_ZN12RS_LayerList18toggleConstructionEP8RS_Layer
librecad:_ZN12RS_LayerList19slotUpdateLayerListEv
librecad:_ZN12RS_LayerList20setConstructionMultiE5QListIP8RS_LayerES3_
librecad:_ZN12RS_LayerList23toggleConstructionMultiE5QListIP8RS_LayerE
librecad:_ZN12RS_LayerList3addEP8RS_Layer
librecad:_ZN12RS_LayerList3endEv
librecad:_ZN12RS_LayerList4editEP8RS_LayerRKS0_
librecad:_ZN12RS_LayerList4findERK7QString
librecad:_ZN12RS_LayerList4sortEv
librecad:_ZN12RS_LayerList5beginEv
librecad:_ZN12RS_LayerList5clearEv
librecad:_ZN12RS_LayerList6removeEP8RS_Layer
librecad:_ZN12RS_LayerList6toggleEP8RS_Layer
librecad:_ZN12RS_LayerList6toggleERK7QString
librecad:_ZN12RS_LayerList7lockAllEb
librecad:_ZN12RS_LayerList8activateEP8RS_Layerb
librecad:_ZN12RS_LayerList8activateERK7QStringb
librecad:_ZN12RS_LayerList8fireEditEP8RS_Layer
librecad:_ZN12RS_LayerList8getIndexEP8RS_Layer
librecad:_ZN12RS_LayerList8getIndexERK7QString
librecad:_ZN12RS_LayerList9freezeAllEb
librecad:_ZN12RS_LayerListC1Ev
librecad:_ZN12RS_LayerListC2Ev
librecad:_ZN12RS_MTextDataC1ERK9RS_VectorddNS_6VAlignENS_6HAlignENS_21MTextDrawingDirectionENS_21MTextLineSpacingStyleEdRK7QStringS9_dN3RS210UpdateModeE
librecad:_ZN12RS_MTextDataC2ERK9RS_VectorddNS_6VAlignENS_6HAlignENS_21MTextDrawingDirectionENS_21MTextLineSpacingStyleEdRK7QStringS9_dN3RS210UpdateModeE
librecad:_ZN12RS_PainterQt10disablePenEv
librecad:_ZN12RS_PainterQt10drawArcMacERK9RS_Vectordddb
librecad:_ZN12RS_PainterQt10drawCircleERK9RS_Vectord
librecad:_ZN12RS_PainterQt10drawSplineERK9RS_SplineRK14RS_GraphicView
librecad:_ZN12RS_PainterQt11drawEllipseERK9RS_Vectordddddb
librecad:_ZN12RS_PainterQt11drawPolygonERK8QPolygonN2Qt8FillRuleE
librecad:_ZN12RS_PainterQt11setClipRectEiiii
librecad:_ZN12RS_PainterQt12drawPolylineERK11RS_PolylineRK14RS_GraphicView
librecad:_ZN12RS_PainterQt12fillTriangleERK9RS_VectorS2_S2_
librecad:_ZN12RS_PainterQt13drawGridPointERK9RS_Vector
librecad:_ZN12RS_PainterQt13resetClippingEv
librecad:_ZN12RS_PainterQt16drawSplinePointsERK19LC_SplinePointsData
librecad:_ZN12RS_PainterQt5eraseEv
librecad:_ZN12RS_PainterQt6lineToEii
librecad:_ZN12RS_PainterQt6moveToEii
librecad:_ZN12RS_PainterQt6setPenERK6RS_Pen
librecad:_ZN12RS_PainterQt6setPenERK8RS_Color
librecad:_ZN12RS_PainterQt6setPenEiii
librecad:_ZN12RS_PainterQt7drawArcERK9RS_Vectordddb
librecad:_ZN12RS_PainterQt7drawImgER6QImageRK9RS_VectorS4_S4_S4_
librecad:_ZN12RS_PainterQt8drawLineERK9RS_VectorS2_
librecad:_ZN12RS_PainterQt8drawPathERK12QPainterPath
librecad:_ZN12RS_PainterQt8drawTextERK5QRectRK7QStringPS0_
librecad:_ZN12RS_PainterQt8fillRectERK6QRectFRK6QBrush
librecad:_ZN12RS_PainterQt8fillRectERK6QRectFRK8RS_Color
librecad:_ZN12RS_PainterQt8fillRectEiiiiRK8RS_Color
librecad:_ZN12RS_PainterQt8getRsPenEv
librecad:_ZN12RS_PainterQt8setBrushERK6QBrush
librecad:_ZN12RS_PainterQt8setBrushERK8RS_Color
librecad:_ZN12RS_PainterQt9drawPointERK9RS_Vectorii
librecad:_ZN12RS_PainterQt9drawTextHEiiiiRK7QString
librecad:_ZN12RS_PainterQt9drawTextVEiiiiRK7QString
librecad:_ZN12RS_PainterQtC1EP12QPaintDevice
librecad:_ZN12RS_PainterQtC2EP12QPaintDevice
librecad:_ZN12RS_PasteDataC1E9RS_VectorddbRK7QString
librecad:_ZN12RS_PasteDataC2E9RS_VectorddbRK7QString
librecad:_ZN12RS_Selection11selectLayerEP9RS_Entity
librecad:_ZN12RS_Selection11selectLayerERK7QStringb
librecad:_ZN12RS_Selection12selectSingleEP9RS_Entity
librecad:_ZN12RS_Selection12selectWindowEN3RS210EntityTypeERK9RS_VectorS4_bb
librecad:_ZN12RS_Selection13selectContourEP9RS_Entity
librecad:_ZN12RS_Selection15invertSelectionEv
librecad:_ZN12RS_Selection17selectIntersectedERK9RS_VectorS2_b
librecad:_ZN12RS_Selection9selectAllEb
librecad:_ZN12RS_SelectionC1ER18RS_EntityContainerP14RS_GraphicView
librecad:_ZN12RS_SelectionC2ER18RS_EntityContainerP14RS_GraphicView
librecad:_ZN12RS_SolidDataC1ERK9RS_VectorS2_S2_
librecad:_ZN12RS_SolidDataC1ERK9RS_VectorS2_S2_S2_
librecad:_ZN12RS_SolidDataC1Ev
librecad:_ZN12RS_SolidDataC2ERK9RS_VectorS2_S2_
librecad:_ZN12RS_SolidDataC2ERK9RS_VectorS2_S2_S2_
librecad:_ZN12RS_SolidDataC2Ev
librecad:_ZN12RS_UndoCycle11addUndoableEP11RS_Undoable
librecad:_ZN12RS_UndoCycle14removeUndoableEP11RS_Undoable
librecad:_ZN12RS_UndoCycle15changeUndoStateEv
librecad:_ZN12RS_UndoCycle4sizeEv
librecad:_ZN13ColorComboBox11qt_metacallEN11QMetaObject4CallEiPPv
librecad:_ZN13ColorComboBox11qt_metacastEPKc
librecad:_ZN13ColorComboBox16staticMetaObjectE
librecad:_ZN13ColorComboBoxC1EP7QWidget
librecad:_ZN13ColorComboBoxC2EP7QWidget
librecad:_ZN13DRW_ConvTable6toUtf8ERKNSt7__cxx1112basic_stringIcSt11char_traitsIcESaIcEEE
librecad:_ZN13DRW_ConvTable8fromUtf8ERKNSt7__cxx1112basic_stringIcSt11char_traitsIcESaIcEEE
librecad:_ZN13DRW_ConvUTF166toUtf8ERKNSt7__cxx1112basic_stringIcSt11char_traitsIcESaIcEEE
librecad:_ZN13DRW_ConvUTF168fromUtf8ERKNSt7__cxx1112basic_stringIcSt11char_traitsIcESaIcEEE
librecad:_ZN13DRW_Converter10decodeTextB5cxx11Ei
librecad:_ZN13DRW_Converter10encodeTextERKNSt7__cxx1112basic_stringIcSt11char_traitsIcESaIcEEE
librecad:_ZN13DRW_Converter6toUtf8ERKNSt7__cxx1112basic_stringIcSt11char_traitsIcESaIcEEE
librecad:_ZN13DRW_Converter9decodeNumERKNSt7__cxx1112basic_stringIcSt11char_traitsIcESaIcEEEPi
librecad:_ZN13DRW_Converter9encodeNumB5cxx11Ei
librecad:_ZN13DRW_DimRadial8parseDwgEN3DRW7VersionEP9dwgBufferj
librecad:_ZN13DRW_Dimension8parseDwgEN3DRW7VersionEP9dwgBufferS3_j
librecad:_ZN13DRW_Dimension8parseDwgEN3DRW7VersionEP9dwgBufferj
librecad:_ZN13DRW_Dimension9parseCodeEiP9dxfReader
librecad:_ZN13DRW_TextCodec10setVersionEN3DRW7VersionEb
librecad:_ZN13DRW_TextCodec10setVersionERKNSt7__cxx1112basic_stringIcSt11char_traitsIcESaIcEEEb
librecad:_ZN13DRW_TextCodec11setCodePageERKNSt7__cxx1112basic_stringIcSt11char_traitsIcESaIcEEEb
librecad:_ZN13DRW_TextCodec15correctCodePageERKNSt7__cxx1112basic_stringIcSt11char_traitsIcESaIcEEE
librecad:_ZN13DRW_TextCodec6toUtf8ERKNSt7__cxx1112basic_stringIcSt11char_traitsIcESaIcEEE
librecad:_ZN13DRW_TextCodec8fromUtf8ERKNSt7__cxx1112basic_stringIcSt11char_traitsIcESaIcEEE
librecad:_ZN13DRW_TextCodecC1Ev
librecad:_ZN13DRW_TextCodecC2Ev
librecad:_ZN13DRW_TextCodecD1Ev
librecad:_ZN13DRW_TextCodecD2Ev
librecad:_ZN13DRW_Textstyle8parseDwgEN3DRW7VersionEP9dwgBufferj
librecad:_ZN13DRW_Textstyle9parseCodeEiP9dxfReader
librecad:_ZN13LC_DimArcDataC1ERKS_
librecad:_ZN13LC_DimArcDataC1EddRK9RS_VectorS2_S2_
librecad:_ZN13LC_DimArcDataC2ERKS_
librecad:_ZN13LC_DimArcDataC2EddRK9RS_VectorS2_S2_
librecad:_ZN13LC_DockWidget11add_actionsERK5QListIP7QActionEii
librecad:_ZN13LC_DockWidget11qt_metacallEN11QMetaObject4CallEiPPv
librecad:_ZN13LC_DockWidget11qt_metacastEPKc
librecad:_ZN13LC_DockWidget16staticMetaObjectE
librecad:_ZN13LC_DockWidgetC1EP7QWidget
librecad:_ZN13LC_DockWidgetC2EP7QWidget
librecad:_ZN13LC_FlexLayout11setGeometryERK5QRect
librecad:_ZN13LC_FlexLayout14fillFromLayoutEP7QLayout
librecad:_ZN13LC_FlexLayout6takeAtEi
librecad:_ZN13LC_FlexLayout7addItemEP11QLayoutItem
librecad:_ZN13LC_FlexLayoutC1EP7QWidgetiii
librecad:_ZN13LC_FlexLayoutC1Eiiii
librecad:_ZN13LC_FlexLayoutC2EP7QWidgetiii
librecad:_ZN13LC_FlexLayoutC2Eiiii
librecad:_ZN13LC_FlexLayoutD0Ev
librecad:_ZN13LC_FlexLayoutD1Ev
librecad:_ZN13LC_FlexLayoutD2Ev
librecad:_ZN13Plugin_Entity10moveRotateERK7QPointFS2_dN3DPI11DispositionE
librecad:_ZN13Plugin_Entity10updateDataEP5QHashIi8QVariantE
librecad:_ZN13Plugin_Entity12intColor2strEi
librecad:_ZN13Plugin_Entity13getEntityTypeEv
librecad:_ZN13Plugin_Entity15getPolylineDataEP5QListI15Plug_VertexDataE
librecad:_ZN13Plugin_Entity18updatePolylineDataEP5QListI15Plug_VertexDataE
librecad:_ZN13Plugin_Entity4moveE7QPointFN3DPI11DispositionE
librecad:_ZN13Plugin_Entity5scaleE7QPointFS0_N3DPI11DispositionE
librecad:_ZN13Plugin_Entity6rotateE7QPointFdN3DPI11DispositionE
librecad:_ZN13Plugin_Entity7getDataEP5QHashIi8QVariantE
librecad:_ZN13Plugin_EntityC1EP18RS_EntityContainerN3DPI5ETYPEE
librecad:_ZN13Plugin_EntityC1EP9RS_EntityP20Doc_plugin_interface
librecad:_ZN13Plugin_EntityC2EP18RS_EntityContainerN3DPI5ETYPEE
librecad:_ZN13Plugin_EntityC2EP9RS_EntityP20Doc_plugin_interface
librecad:_ZN13Plugin_EntityD0Ev
librecad:_ZN13Plugin_EntityD1Ev
librecad:_ZN13Plugin_EntityD2Ev
librecad:_ZN13QG_ArcOptions11qt_metacallEN11QMetaObject4CallEiPPv
librecad:_ZN13QG_ArcOptions11qt_metacastEPKc
librecad:_ZN13QG_ArcOptions12saveSettingsEv
librecad:_ZN13QG_ArcOptions14languageChangeEv
librecad:_ZN13QG_ArcOptions15updateDirectionEb
librecad:_ZN13QG_ArcOptions16staticMetaObjectE
librecad:_ZN13QG_ArcOptions9setActionEP18RS_ActionInterfaceb
librecad:_ZN13QG_ArcOptionsC1EP7QWidget6QFlagsIN2Qt10WindowTypeEE
librecad:_ZN13QG_ArcOptionsC2EP7QWidget6QFlagsIN2Qt10WindowTypeEE
librecad:_ZN13QG_ArcOptionsD0Ev
librecad:_ZN13QG_ArcOptionsD1Ev
librecad:_ZN13QG_ArcOptionsD2Ev
librecad:_ZN13QG_BlockModel12setBlockListEP12RS_BlockList
librecad:_ZN13QG_BlockModel8getBlockEi
librecad:_ZN13QG_BlockModel8getIndexEP8RS_Block
librecad:_ZN13QG_BlockModelC1EP7QObject
librecad:_ZN13QG_BlockModelC2EP7QObject
librecad:_ZN13QG_DimOptions10insertSignERK7QString
librecad:_ZN13QG_DimOptions11qt_metacallEN11QMetaObject4CallEiPPv
librecad:_ZN13QG_DimOptions11qt_metacastEPKc
librecad:_ZN13QG_DimOptions11updateLabelEv
librecad:_ZN13QG_DimOptions12saveSettingsEv
librecad:_ZN13QG_DimOptions14languageChangeEv
librecad:_ZN13QG_DimOptions16staticMetaObjectE
librecad:_ZN13QG_DimOptions9setActionEP18RS_ActionInterfaceb
librecad:_ZN13QG_DimOptionsC1EP7QWidget6QFlagsIN2Qt10WindowTypeEE
librecad:_ZN13QG_DimOptionsC2EP7QWidget6QFlagsIN2Qt10WindowTypeEE
librecad:_ZN13QG_DimOptionsD0Ev
librecad:_ZN13QG_DimOptionsD1Ev
librecad:_ZN13QG_DimOptionsD2Ev
librecad:_ZN13QG_DlgEllipse10setEllipseER10RS_Ellipse
librecad:_ZN13QG_DlgEllipse11qt_metacallEN11QMetaObject4CallEiPPv
librecad:_ZN13QG_DlgEllipse11qt_metacastEPKc
librecad:_ZN13QG_DlgEllipse13updateEllipseEv
librecad:_ZN13QG_DlgEllipse14languageChangeEv
librecad:_ZN13QG_DlgEllipse16staticMetaObjectE
librecad:_ZN13QG_DlgEllipseC1EP7QWidgetb6QFlagsIN2Qt10WindowTypeEE
librecad:_ZN13QG_DlgEllipseC2EP7QWidgetb6QFlagsIN2Qt10WindowTypeEE
librecad:_ZN13QG_DlgEllipseD0Ev
librecad:_ZN13QG_DlgEllipseD1Ev
librecad:_ZN13QG_DlgEllipseD2Ev
librecad:_ZN13QG_DlgInitial11qt_metacallEN11QMetaObject4CallEiPPv
librecad:_ZN13QG_DlgInitial11qt_metacastEPKc
librecad:_ZN13QG_DlgInitial14languageChangeEv
librecad:_ZN13QG_DlgInitial16staticMetaObjectE
librecad:_ZN13QG_DlgInitial2okEv
librecad:_ZN13QG_DlgInitial4initEv
librecad:_ZN13QG_DlgInitial7setTextERK7QString
librecad:_ZN13QG_DlgInitial9setPixmapERK7QPixmap
librecad:_ZN13QG_DlgInitialC1EP7QWidgetb6QFlagsIN2Qt10WindowTypeEE
librecad:_ZN13QG_DlgInitialC2EP7QWidgetb6QFlagsIN2Qt10WindowTypeEE
librecad:_ZN13QG_DlgRotate210updateDataEv
librecad:_ZN13QG_DlgRotate211qt_metacallEN11QMetaObject4CallEiPPv
librecad:_ZN13QG_DlgRotate211qt_metacastEPKc
librecad:_ZN13QG_DlgRotate214languageChangeEv
librecad:_ZN13QG_DlgRotate216staticMetaObjectE
librecad:_ZN13QG_DlgRotate24initEv
librecad:_ZN13QG_DlgRotate27destroyEv
librecad:_ZN13QG_DlgRotate27setDataEP14RS_Rotate2Data
librecad:_ZN13QG_DlgRotate2C1EP7QWidgetb6QFlagsIN2Qt10WindowTypeEE
librecad:_ZN13QG_DlgRotate2C2EP7QWidgetb6QFlagsIN2Qt10WindowTypeEE
librecad:_ZN13QG_DlgRotate2D0Ev
librecad:_ZN13QG_DlgRotate2D1Ev
librecad:_ZN13QG_DlgRotate2D2Ev
librecad:_ZN13QG_ExitDialog11qt_metacallEN11QMetaObject4CallEiPPv
librecad:_ZN13QG_ExitDialog11qt_metacastEPKc
librecad:_ZN13QG_ExitDialog11slotSaveAllEv
librecad:_ZN13QG_ExitDialog14languageChangeEv
librecad:_ZN13QG_ExitDialog14setShowSaveAllEb
librecad:_ZN13QG_ExitDialog16staticMetaObjectE
librecad:_ZN13QG_ExitDialog4initEv
librecad:_ZN13QG_ExitDialog7clickedEP15QAbstractButton
librecad:_ZN13QG_ExitDialog7setTextERK7QString
librecad:_ZN13QG_ExitDialog8setForceEb
librecad:_ZN13QG_ExitDialog8setTitleERK7QString
librecad:_ZN13QG_ExitDialog8slotSaveEv
librecad:_ZN13QG_ExitDialogC1EP7QWidgetb6QFlagsIN2Qt10WindowTypeEE
librecad:_ZN13QG_ExitDialogC2EP7QWidgetb6QFlagsIN2Qt10WindowTypeEE
librecad:_ZN13QG_ExitDialogD0Ev
librecad:_ZN13QG_ExitDialogD1Ev
librecad:_ZN13QG_ExitDialogD2Ev
librecad:_ZN13QG_FileDialog11getOpenFileEPN3RS210FormatTypeE
librecad:_ZN13QG_FileDialog11getSaveFileEPN3RS210FormatTypeERK7QString
librecad:_ZN13QG_FileDialog15getOpenFileNameEP7QWidgetPN3RS210FormatTypeE
librecad:_ZN13QG_FileDialog15getSaveFileNameEP7QWidgetPN3RS210FormatTypeE
librecad:_ZN13QG_FileDialogC1EP7QWidget6QFlagsIN2Qt10WindowTypeEENS_8FileTypeE
librecad:_ZN13QG_FileDialogC2EP7QWidget6QFlagsIN2Qt10WindowTypeEENS_8FileTypeE
librecad:_ZN13QG_LayerModel12setLayerListEP12RS_LayerList
librecad:_ZN13QG_LayerModelC1EP7QObject
librecad:_ZN13QG_LayerModelC2EP7QObject
librecad:_ZN13QG_PatternBox10getPatternEv
librecad:_ZN13QG_PatternBox10setPatternERK7QString
librecad:_ZN13QG_PatternBox11qt_metacallEN11QMetaObject4CallEiPPv
librecad:_ZN13QG_PatternBox11qt_metacastEPKc
librecad:_ZN13QG_PatternBox14patternChangedEv
librecad:_ZN13QG_PatternBox16staticMetaObjectE
librecad:_ZN13QG_PatternBox18slotPatternChangedEi
librecad:_ZN13QG_PatternBox4initEv
librecad:_ZN13QG_PatternBoxC1EP7QWidget
librecad:_ZN13QG_PatternBoxC2EP7QWidget
librecad:_ZN13QG_PatternBoxD0Ev
librecad:_ZN13QG_PatternBoxD1Ev
librecad:_ZN13QG_PatternBoxD2Ev
librecad:_ZN13QG_PenToolBar10penChangedE6RS_Pen
librecad:_ZN13QG_PenToolBar11layerEditedEP8RS_Layer
librecad:_ZN13QG_PenToolBar11qt_metacallEN11QMetaObject4CallEiPPv
librecad:_ZN13QG_PenToolBar11qt_metacastEPKc
librecad:_ZN13QG_PenToolBar11setLineTypeEN3RS28LineTypeE
librecad:_ZN13QG_PenToolBar13setLayerColorE8RS_Colorb
librecad:_ZN13QG_PenToolBar13setLayerWidthEN3RS29LineWidthEb
librecad:_ZN13QG_PenToolBar14emitPenChangedEv
librecad:_ZN13QG_PenToolBar14layerActivatedEP8RS_Layer
librecad:_ZN13QG_PenToolBar16setLayerLineTypeEN3RS28LineTypeEb
librecad:_ZN13QG_PenToolBar16slotColorChangedERK8RS_Color
librecad:_ZN13QG_PenToolBar16slotWidthChangedEN3RS29LineWidthE
librecad:_ZN13QG_PenToolBar16staticMetaObjectE
librecad:_ZN13QG_PenToolBar19slotLineTypeChangedEN3RS28LineTypeE
librecad:_ZN13QG_PenToolBar8setColorE8RS_Color
librecad:_ZN13QG_PenToolBar8setWidthEN3RS29LineWidthE
librecad:_ZN13QG_PenToolBarC1ERK7QStringP7QWidget
librecad:_ZN13QG_PenToolBarC2ERK7QStringP7QWidget
librecad:_ZN13QG_PenToolBarD0Ev
librecad:_ZN13QG_PenToolBarD1Ev
librecad:_ZN13QG_PenToolBarD2Ev
librecad:_ZN13RS_CircleDataC1ERK9RS_Vectord
librecad:_ZN13RS_CircleDataC2ERK9RS_Vectord
librecad:_ZN13RS_DimAligned14updateDimPointEv
librecad:_ZN13RS_DimAligned16getMeasuredLabelEv
librecad:_ZN13RS_DimAligned24hasEndpointsWithinWindowERK9RS_VectorS2_
librecad:_ZN13RS_DimAligned4moveERK9RS_Vector
librecad:_ZN13RS_DimAligned5scaleERK9RS_VectorS2_
librecad:_ZN13RS_DimAligned6mirrorERK9RS_VectorS2_
librecad:_ZN13RS_DimAligned6rotateERK9RS_VectorRKd
librecad:_ZN13RS_DimAligned6rotateERK9RS_VectorS2_
librecad:_ZN13RS_DimAligned7moveRefERK9RS_VectorS2_
librecad:_ZN13RS_DimAligned7stretchERK9RS_VectorS2_S2_
librecad:_ZN13RS_DimAligned9updateDimEb
librecad:_ZN13RS_DimAlignedC1EP18RS_EntityContainerRK16RS_DimensionDataRK17RS_DimAlignedData
librecad:_ZN13RS_DimAlignedC2EP18RS_EntityContainerRK16RS_DimensionDataRK17RS_DimAlignedData
librecad:_ZN13RS_DimAngular12fixDimensionEv
librecad:_ZN13RS_DimAngular13calcDimensionEv
librecad:_ZN13RS_DimAngular13extensionLineERK19RS_ConstructionLineRK9RS_VectorS5_S5_RK17LC_DimAngularVarsRK6RS_Pen
librecad:_ZN13RS_DimAngular16getMeasuredLabelEv
librecad:_ZN13RS_DimAngular4moveERK9RS_Vector
librecad:_ZN13RS_DimAngular5arrowERK9RS_VectorddbRK17LC_DimAngularVarsRK6RS_Pen
librecad:_ZN13RS_DimAngular5scaleERK9RS_VectorS2_
librecad:_ZN13RS_DimAngular6mirrorERK9RS_VectorS2_
librecad:_ZN13RS_DimAngular6rotateERK9RS_VectorRKd
librecad:_ZN13RS_DimAngular6rotateERK9RS_VectorS2_
librecad:_ZN13RS_DimAngular6updateEv
librecad:_ZN13RS_DimAngular9updateDimEb
librecad:_ZN13RS_DimAngularC1EP18RS_EntityContainerRK16RS_DimensionDataRK17RS_DimAngularData
librecad:_ZN13RS_DimAngularC2EP18RS_EntityContainerRK16RS_DimensionDataRK17RS_DimAngularData
librecad:_ZN13RS_FilterDXF110fileExportER10RS_GraphicRK7QStringN3RS210FormatTypeE
librecad:_ZN13RS_FilterDXF110fileImportER10RS_GraphicRK7QStringN3RS210FormatTypeE
librecad:_ZN13RS_FilterDXF110getBufLineEv
librecad:_ZN13RS_FilterDXF111copyBufFromEPKci
librecad:_ZN13RS_FilterDXF111gotoBufLineEPc
librecad:_ZN13RS_FilterDXF111mtCompFloatEddd
librecad:_ZN13RS_FilterDXF111separateBufEcccc
librecad:_ZN13RS_FilterDXF112getBufLineChEv
librecad:_ZN13RS_FilterDXF113numberToWidthEi
librecad:_ZN13RS_FilterDXF113removeCommentEcc
librecad:_ZN13RS_FilterDXF113widthToNumberEN3RS29LineWidthE
librecad:_ZN13RS_FilterDXF114readFromBufferEv
librecad:_ZN13RS_FilterDXF116readFileInBufferEPci
librecad:_ZN13RS_FilterDXF116readFileInBufferEi
librecad:_ZN13RS_FilterDXF117gotoBufLineStringEPc
librecad:_ZN13RS_FilterDXF118strDecodeDxfStringER7QString
librecad:_ZN13RS_FilterDXF120replaceBinaryBytesByEc
librecad:_ZN13RS_FilterDXF15resetEv
librecad:_ZN13RS_FilterDXF17setBufPEi
librecad:_ZN13RS_FilterDXF18dos2unixEv
librecad:_ZN13RS_FilterDXF19delBufferEv
librecad:_ZN13RS_FilterDXF19resetBufPEv
librecad:_ZN13RS_FilterDXF1C1Ev
librecad:_ZN13RS_FilterDXF1C2Ev
librecad:_ZN13RS_InsertDataC1ERK7QString9RS_VectorS3_diiS3_P12RS_BlockListN3RS210UpdateModeE
librecad:_ZN13RS_InsertDataC2ERK7QString9RS_VectorS3_diiS3_P12RS_BlockListN3RS210UpdateModeE
librecad:_ZN13RS_OverlayBox4drawEP10RS_PainterP14RS_GraphicViewRd
librecad:_ZN13RS_OverlayBoxC1EP18RS_EntityContainerRK17RS_OverlayBoxData
librecad:_ZN13RS_OverlayBoxC2EP18RS_EntityContainerRK17RS_OverlayBoxData
librecad:_ZN13RS_SplineDataC1Eib
librecad:_ZN13RS_SplineDataC2Eib
librecad:_ZN13WidgetCreator11qt_metacallEN11QMetaObject4CallEiPPv
librecad:_ZN13WidgetCreator11qt_metacastEPKc
librecad:_ZN13WidgetCreator11setCategoryE7QString
librecad:_ZN13WidgetCreator12createWidgetEv
librecad:_ZN13WidgetCreator13destroyWidgetEv
librecad:_ZN13WidgetCreator13getWidgetNameEv
librecad:_ZN13WidgetCreator13requestUpdateEv
librecad:_ZN13WidgetCreator14hasBeenCreatedERK7QString
librecad:_ZN13WidgetCreator14widgetToAssignE7QString
librecad:_ZN13WidgetCreator14widgetToCreateE7QString
librecad:_ZN13WidgetCreator14widgetToUpdateE7QString
librecad:_ZN13WidgetCreator15addChosenActionEP15QListWidgetItem
librecad:_ZN13WidgetCreator15addChosenActionEv
librecad:_ZN13WidgetCreator15widgetToDestroyE7QString
librecad:_ZN13WidgetCreator16addCustomWidgetsERK7QString
librecad:_ZN13WidgetCreator16getChosenActionsEv
librecad:_ZN13WidgetCreator16staticMetaObjectE
librecad:_ZN13WidgetCreator17requestAssignmentEv
librecad:_ZN13WidgetCreator18removeChosenActionEP15QListWidgetItem
librecad:_ZN13WidgetCreator18removeChosenActionEv
librecad:_ZN13WidgetCreator8setListsE7QString
librecad:_ZN13WidgetCreator9addButtonEP11QPushButton
librecad:_ZN13WidgetCreatorC1EP7QWidgetR4QMapI7QStringP7QActionES2_IS3_P12QActionGroupEb
librecad:_ZN13WidgetCreatorC2EP7QWidgetR4QMapI7QStringP7QActionES2_IS3_P12QActionGroupEb
librecad:_ZN13WidgetCreatorD0Ev
librecad:_ZN13WidgetCreatorD1Ev
librecad:_ZN13WidgetCreatorD2Ev
librecad:_ZN13dwgCharStream4readEPhy
librecad:_ZN13dwgCharStream6setPosEy
librecad:_ZN13dwgCompressor10decompByteEj
librecad:_ZN13dwgCompressor10decompGoodE
librecad:_ZN13dwgCompressor10decompSizeE
librecad:_ZN13dwgCompressor11CopyOrder21E
librecad:_ZN13dwgCompressor11buffersGoodEv
librecad:_ZN13dwgCompressor11copyBlock21Ej
librecad:_ZN13dwgCompressor11litLength18Ev
librecad:_ZN13dwgCompressor11litLength21Eh
librecad:_ZN13dwgCompressor12decompBufferE
librecad:_ZN13dwgCompressor12decompress18EPhS0_yy
librecad:_ZN13dwgCompressor12decompress21EPhS0_yy
librecad:_ZN13dwgCompressor12decrypt18HdrEPhyy
librecad:_ZN13dwgCompressor13compressedIncEi
librecad:_ZN13dwgCompressor13compressedPosE
librecad:_ZN13dwgCompressor13twoByteOffsetEPj
librecad:_ZN13dwgCompressor14CopyOrder21_01E
librecad:_ZN13dwgCompressor14CopyOrder21_02E
librecad:_ZN13dwgCompressor14CopyOrder21_03E
librecad:_ZN13dwgCompressor14CopyOrder21_04E
librecad:_ZN13dwgCompressor14CopyOrder21_05E
librecad:_ZN13dwgCompressor14CopyOrder21_06E
librecad:_ZN13dwgCompressor14CopyOrder21_07E
librecad:_ZN13dwgCompressor14CopyOrder21_08E
librecad:_ZN13dwgCompressor14CopyOrder21_09E
librecad:_ZN13dwgCompressor14CopyOrder21_10E
librecad:_ZN13dwgCompressor14CopyOrder21_11E
librecad:_ZN13dwgCompressor14CopyOrder21_12E
librecad:_ZN13dwgCompressor14CopyOrder21_13E
librecad:_ZN13dwgCompressor14CopyOrder21_14E
librecad:_ZN13dwgCompressor14CopyOrder21_15E
librecad:_ZN13dwgCompressor14CopyOrder21_16E
librecad:_ZN13dwgCompressor14CopyOrder21_17E
librecad:_ZN13dwgCompressor14CopyOrder21_18E
librecad:_ZN13dwgCompressor14CopyOrder21_19E
librecad:_ZN13dwgCompressor14CopyOrder21_20E
librecad:_ZN13dwgCompressor14CopyOrder21_21E
librecad:_ZN13dwgCompressor14CopyOrder21_22E
librecad:_ZN13dwgCompressor14CopyOrder21_23E
librecad:_ZN13dwgCompressor14CopyOrder21_24E
librecad:_ZN13dwgCompressor14CopyOrder21_25E
librecad:_ZN13dwgCompressor14CopyOrder21_26E
librecad:_ZN13dwgCompressor14CopyOrder21_27E
librecad:_ZN13dwgCompressor14CopyOrder21_28E
librecad:_ZN13dwgCompressor14CopyOrder21_29E
librecad:_ZN13dwgCompressor14CopyOrder21_30E
librecad:_ZN13dwgCompressor14CopyOrder21_31E
librecad:_ZN13dwgCompressor14CopyOrder21_32E
librecad:_ZN13dwgCompressor14compressedByteEj
librecad:_ZN13dwgCompressor14compressedByteEv
librecad:_ZN13dwgCompressor14compressedGoodE
librecad:_ZN13dwgCompressor14compressedSizeE
librecad:_ZN13dwgCompressor15copyCompBytes21Ej
librecad:_ZN13dwgCompressor16compressedBufferE
librecad:_ZN13dwgCompressor16compressedHiByteEv
librecad:_ZN13dwgCompressor18readInstructions21ERhRjS1_
librecad:_ZN13dwgCompressor21longCompressionOffsetEv
librecad:_ZN13dwgCompressor23long20CompressionOffsetEv
librecad:_ZN13dwgCompressor9decompPosE
librecad:_ZN13dwgCompressor9decompSetEh
librecad:_ZN13dwgFileStream4readEPhy
librecad:_ZN13dwgFileStream6setPosEy
librecad:_ZN14ComboBoxOption11qt_metacallEN11QMetaObject4CallEiPPv
librecad:_ZN14ComboBoxOption11qt_metacastEPKc
librecad:_ZN14ComboBoxOption12optionToSaveE7QString
librecad:_ZN14ComboBoxOption14setButtonStateEi
librecad:_ZN14ComboBoxOption14setOptionsListERK11QStringList
librecad:_ZN14ComboBoxOption16setCurrentOptionERK7QString
librecad:_ZN14ComboBoxOption16staticMetaObjectE
librecad:_ZN14ComboBoxOption22saveIndexAndEmitOptionEv
librecad:_ZN14ComboBoxOption8setTitleERK7QString
librecad:_ZN14ComboBoxOptionC1EP7QWidget
librecad:_ZN14ComboBoxOptionC2EP7QWidget
librecad:_ZN14ComboBoxOptionD0Ev
librecad:_ZN14ComboBoxOptionD1Ev
librecad:_ZN14ComboBoxOptionD2Ev
librecad:_ZN14DRW_DimAligned8parseDwgEN3DRW7VersionEP9dwgBufferj
librecad:_ZN14DRW_DimAngular8parseDwgEN3DRW7VersionEP9dwgBufferj
librecad:_ZN14DRW_LWPolyline14applyExtrusionEv
librecad:_ZN14DRW_LWPolyline8parseDwgEN3DRW7VersionEP9dwgBufferj
librecad:_ZN14DRW_LWPolyline9parseCodeEiP9dxfReader
librecad:_ZN14DRW_ObjControl8parseDwgEN3DRW7VersionEP9dwgBufferj
librecad:_ZN14DRW_TableEntry8parseDwgEN3DRW7VersionEP9dwgBufferS3_j
librecad:_ZN14DRW_TableEntry9parseCodeEiP9dxfReader
librecad:_ZN14LC_Application11qt_metacallEN11QMetaObject4CallEiPPv
librecad:_ZN14LC_Application11qt_metacastEPKc
librecad:_ZN14LC_Application16staticMetaObjectE
librecad:_ZN14LC_Application5eventEP6QEvent
librecad:_ZN14LC_ApplicationC1ERiPPc
librecad:_ZN14LC_ApplicationC2ERiPPc
librecad:_ZN14LC_DlgParabola11qt_metacallEN11QMetaObject4CallEiPPv
librecad:_ZN14LC_DlgParabola11qt_metacastEPKc
librecad:_ZN14LC_DlgParabola11setParabolaER11LC_Parabola
librecad:_ZN14LC_DlgParabola12updatePointsEv
librecad:_ZN14LC_DlgParabola14languageChangeEv
librecad:_ZN14LC_DlgParabola14updateParabolaEv
librecad:_ZN14LC_DlgParabola16staticMetaObjectE
librecad:_ZN14LC_DlgParabolaC1EP7QWidgetb6QFlagsIN2Qt10WindowTypeEE
librecad:_ZN14LC_DlgParabolaC2EP7QWidgetb6QFlagsIN2Qt10WindowTypeEE
librecad:_ZN14LC_DlgParabolaD0Ev
librecad:_ZN14LC_DlgParabolaD1Ev
librecad:_ZN14LC_DlgParabolaD2Ev
librecad:_ZN14LC_LineOptions10onSetAngleEv
librecad:_ZN14LC_LineOptions10onXClickedEb
librecad:_ZN14LC_LineOptions10onYClickedEb
librecad:_ZN14LC_LineOptions11doSetActionEP18RS_ActionInterfaceb
librecad:_ZN14LC_LineOptions11qt_metacallEN11QMetaObject4CallEiPPv
librecad:_ZN14LC_LineOptions11qt_metacastEPKc
librecad:_ZN14LC_LineOptions14doSaveSettingsEv
librecad:_ZN14LC_LineOptions14languageChangeEv
librecad:_ZN14LC_LineOptions14onAngleClickedEb
librecad:_ZN14LC_LineOptions14onPointClickedEb
librecad:_ZN14LC_LineOptions16staticMetaObjectE
librecad:_ZN14LC_LineOptions19setupAngleRelatedUIEb
librecad:_ZN14LC_LineOptions20checkActionRttiValidEN3RS210ActionTypeE
librecad:_ZN14LC_LineOptions22onAngleRelativeClickedEb
librecad:_ZN14LC_LineOptions23setAngleToActionAndViewERK7QStringb
librecad:_ZN14LC_LineOptions27getSettingsOptionNamePrefixEv
librecad:_ZN14LC_LineOptions28setXDirectionToActionAndViewEb
librecad:_ZN14LC_LineOptions28setYDirectionToActionAndViewEb
librecad:_ZN14LC_LineOptions31setAngleRelativeToActionAndViewEb
librecad:_ZN14LC_LineOptions32setAngleDirectionToActionAndViewEb
librecad:_ZN14LC_LineOptions32setPointDirectionToActionAndViewEb
librecad:_ZN14LC_LineOptions4redoEv
librecad:_ZN14LC_LineOptions4undoEv
librecad:_ZN14LC_LineOptions5startEv
librecad:_ZN14LC_LineOptions8polylineEv
librecad:_ZN14LC_LineOptions9closeLineEv
librecad:_ZN14LC_LineOptionsC1EP7QWidget6QFlagsIN2Qt10WindowTypeEE
librecad:_ZN14LC_LineOptionsC2EP7QWidget6QFlagsIN2Qt10WindowTypeEE
librecad:_ZN14LC_LineOptionsD0Ev
librecad:_ZN14LC_LineOptionsD1Ev
librecad:_ZN14LC_LineOptionsD2Ev
librecad:_ZN14LC_MakerCamSVG10writeBlockEP8RS_Block
librecad:_ZN14LC_MakerCamSVG10writeImageEP8RS_Image
librecad:_ZN14LC_MakerCamSVG10writeLayerEP11RS_DocumentP8RS_Layer
librecad:_ZN14LC_MakerCamSVG10writePointEP8RS_Point
librecad:_ZN14LC_MakerCamSVG11writeBlocksEP11RS_Document
librecad:_ZN14LC_MakerCamSVG11writeCircleEP9RS_Circle
librecad:_ZN14LC_MakerCamSVG11writeEntityEP9RS_Entity
librecad:_ZN14LC_MakerCamSVG11writeInsertEP9RS_Insert
librecad:_ZN14LC_MakerCamSVG11writeLayersEP11RS_Document
librecad:_ZN14LC_MakerCamSVG11writeSplineEP9RS_Spline
librecad:_ZN14LC_MakerCamSVG12writeEllipseEP10RS_Ellipse
librecad:_ZN14LC_MakerCamSVG13writeEntitiesEP11RS_DocumentP8RS_Layer
librecad:_ZN14LC_MakerCamSVG13writePolylineEP11RS_Polyline
librecad:_ZN14LC_MakerCamSVG14resultAsStringB5cxx11Ev
librecad:_ZN14LC_MakerCamSVG17writeCubicBeziersERKSt6vectorI9RS_VectorSaIS1_EEb
librecad:_ZN14LC_MakerCamSVG17writeSplinepointsEP15LC_SplinePoints
librecad:_ZN14LC_MakerCamSVG21calcCubicBezierPointsERKSt6vectorI9RS_VectorSaIS1_EEb
librecad:_ZN14LC_MakerCamSVG21writeQuadraticBeziersERKSt6vectorI9RS_VectorSaIS1_EEb
librecad:_ZN14LC_MakerCamSVG25calcQuadraticBezierPointsERKSt6vectorI9RS_VectorSaIS1_EEb
librecad:_ZN14LC_MakerCamSVG5writeEP10RS_Graphic
librecad:_ZN14LC_MakerCamSVG6numXmlB5cxx11Ed
librecad:_ZN14LC_MakerCamSVG8generateEP10RS_Graphic
librecad:_ZN14LC_MakerCamSVG8writeArcEP6RS_Arc
librecad:_ZN14LC_MakerCamSVG9calcAlphaEd
librecad:_ZN14LC_MakerCamSVG9writeLineEP7RS_Line
librecad:_ZN14LC_MakerCamSVGC1ESt10unique_ptrI21LC_XMLWriterInterfaceSt14default_deleteIS1_EEbbbbbbdd
librecad:_ZN14LC_MakerCamSVGC2ESt10unique_ptrI21LC_XMLWriterInterfaceSt14default_deleteIS1_EEbbbbbbdd
librecad:_ZN14LC_SimpleTests11qt_metacallEN11QMetaObject4CallEiPPv
librecad:_ZN14LC_SimpleTests11qt_metacastEPKc
librecad:_ZN14LC_SimpleTests14slotTestMath01Ev
librecad:_ZN14LC_SimpleTests15slotTestUnicodeEv
librecad:_ZN14LC_SimpleTests16slotTestDumpUndoEv
librecad:_ZN14LC_SimpleTests16staticMetaObjectE
librecad:_ZN14LC_SimpleTests17slotTestResize640Ev
librecad:_ZN14LC_SimpleTests17slotTestResize800Ev
librecad:_ZN14LC_SimpleTests18slotTestInsertTextEv
librecad:_ZN14LC_SimpleTests18slotTestResize1024Ev
librecad:_ZN14LC_SimpleTests19slotTestInsertBlockEv
librecad:_ZN14LC_SimpleTests19slotTestInsertImageEv
librecad:_ZN14LC_SimpleTests19slotTestInsertMTextEv
librecad:_ZN14LC_SimpleTests20slotTestDrawFreehandEv
librecad:_ZN14LC_SimpleTests20slotTestDumpEntitiesEP18RS_EntityContainer
librecad:_ZN14LC_SimpleTests21slotTestInsertEllipseEv
librecad:_ZN14LC_SimpleTests21slotTestUpdateInsertsEv
librecad:_ZN14LC_SimpleTestsC1EP7QWidget
librecad:_ZN14LC_SimpleTestsC2EP7QWidget
librecad:_ZN14LC_StarOptions11doSetActionEP18RS_ActionInterfaceb
librecad:_ZN14LC_StarOptions11qt_metacallEN11QMetaObject4CallEiPPv
librecad:_ZN14LC_StarOptions11qt_metacastEPKc
librecad:_ZN14LC_StarOptions14doSaveSettingsEv
librecad:_ZN14LC_StarOptions15onNumberChangedEi
librecad:_ZN14LC_StarOptions16staticMetaObjectE
librecad:_ZN14LC_StarOptions17onPolylineClickedEb
librecad:_ZN14LC_StarOptions18onSymmetricClickedEb
librecad:_ZN14LC_StarOptions20checkActionRttiValidEN3RS210ActionTypeE
librecad:_ZN14LC_StarOptions20onRadiusInnerClickedEb
librecad:_ZN14LC_StarOptions20onRadiusOuterClickedEb
librecad:_ZN14LC_StarOptions23setNumberToModelAndViewEi
librecad:_ZN14LC_StarOptions26setSymmetricToModelAndViewEb
librecad:_ZN14LC_StarOptions27getSettingsOptionNamePrefixEv
librecad:_ZN14LC_StarOptions28onRadiusInnerEditingFinishedEv
librecad:_ZN14LC_StarOptions28onRadiusOuterEditingFinishedEv
librecad:_ZN14LC_StarOptions28setRadiusInnerToModelAndViewERK7QString
librecad:_ZN14LC_StarOptions28setRadiusOuterToModelAndViewERK7QString
librecad:_ZN14LC_StarOptions29setUsePolylineToActionAndViewEb
librecad:_ZN14LC_StarOptions35setRadiusInnerEnabledToModelAndViewEb
librecad:_ZN14LC_StarOptions35setRadiusOuterEnabledToModelAndViewEb
librecad:_ZN14LC_StarOptionsC1EP7QWidget
librecad:_ZN14LC_StarOptionsC2EP7QWidget
librecad:_ZN14LC_StarOptionsD0Ev
librecad:_ZN14LC_StarOptionsD1Ev
librecad:_ZN14LC_StarOptionsD2Ev
librecad:_ZN14LC_UndoSection11addUndoableEP11RS_Undoable
librecad:_ZN14LC_UndoSectionC1EP11RS_Documentb
librecad:_ZN14LC_UndoSectionC2EP11RS_Documentb
librecad:_ZN14LC_UndoSectionD1Ev
librecad:_ZN14LC_UndoSectionD2Ev
librecad:_ZN14LG_DimzerosBox11qt_metacallEN11QMetaObject4CallEiPPv
librecad:_ZN14LG_DimzerosBox11qt_metacastEPKc
librecad:_ZN14LG_DimzerosBox13convertDimZinEib
librecad:_ZN14LG_DimzerosBox16staticMetaObjectE
librecad:_ZN14LG_DimzerosBox7getDataEv
librecad:_ZN14LG_DimzerosBox7setDataEi
librecad:_ZN14LG_DimzerosBox9setLinearEv
librecad:_ZN14LG_DimzerosBoxC1EP7QWidget
librecad:_ZN14LG_DimzerosBoxC2EP7QWidget
librecad:_ZN14LG_DimzerosBoxD0Ev
librecad:_ZN14LG_DimzerosBoxD1Ev
librecad:_ZN14LG_DimzerosBoxD2Ev
librecad:_ZN14QG_BlockDialog11qt_metacallEN11QMetaObject4CallEiPPv
librecad:_ZN14QG_BlockDialog11qt_metacastEPKc
librecad:_ZN14QG_BlockDialog12getBlockDataEv
librecad:_ZN14QG_BlockDialog12setBlockListEP12RS_BlockList
librecad:_ZN14QG_BlockDialog14languageChangeEv
librecad:_ZN14QG_BlockDialog16staticMetaObjectE
librecad:_ZN14QG_BlockDialog6cancelEv
librecad:_ZN14QG_BlockDialog8validateEv
librecad:_ZN14QG_BlockDialogC1EP7QWidgetb6QFlagsIN2Qt10WindowTypeEE
librecad:_ZN14QG_BlockDialogC2EP7QWidgetb6QFlagsIN2Qt10WindowTypeEE
librecad:_ZN14QG_BlockWidget10blockAddedEP8RS_Block
librecad:_ZN14QG_BlockWidget11qt_metacallEN11QMetaObject4CallEiPPv
librecad:_ZN14QG_BlockWidget11qt_metacastEPKc
librecad:_ZN14QG_BlockWidget13activateBlockEP8RS_Block
librecad:_ZN14QG_BlockWidget13keyPressEventEP9QKeyEvent
librecad:_ZN14QG_BlockWidget13slotActivatedE11QModelIndex
librecad:_ZN14QG_BlockWidget16contextMenuEventEP17QContextMenuEvent
librecad:_ZN14QG_BlockWidget16staticMetaObjectE
librecad:_ZN14QG_BlockWidget17restoreSelectionsEv
librecad:_ZN14QG_BlockWidget19slotUpdateBlockListEv
librecad:_ZN14QG_BlockWidget20slotSelectionChangedERK14QItemSelectionS2_
librecad:_ZN14QG_BlockWidget6escapeEv
librecad:_ZN14QG_BlockWidget6updateEv
librecad:_ZN14QG_BlockWidgetC1EP16QG_ActionHandlerP7QWidgetPKc6QFlagsIN2Qt10WindowTypeEE
librecad:_ZN14QG_BlockWidgetC2EP16QG_ActionHandlerP7QWidgetPKc6QFlagsIN2Qt10WindowTypeEE
librecad:_ZN14QG_CommandEdit10tabPressedEv
librecad:_ZN14QG_CommandEdit11qt_metacallEN11QMetaObject4CallEiPPv
librecad:_ZN14QG_CommandEdit11qt_metacastEPKc
librecad:_ZN14QG_CommandEdit12filterCliCalERK7QString
librecad:_ZN14QG_CommandEdit12focusInEventEP11QFocusEvent
librecad:_ZN14QG_CommandEdit12processInputE7QString
librecad:_ZN14QG_CommandEdit12spacePressedEv
librecad:_ZN14QG_CommandEdit13focusOutEventEP11QFocusEvent
librecad:_ZN14QG_CommandEdit13keyPressEventEP9QKeyEvent
librecad:_ZN14QG_CommandEdit13modifiedPasteEv
librecad:_ZN14QG_CommandEdit15processVariableE7QString
librecad:_ZN14QG_CommandEdit15readCommandFileERK7QString
librecad:_ZN14QG_CommandEdit16isForeignCommandE7QString
librecad:_ZN14QG_CommandEdit16staticMetaObjectE
librecad:_ZN14QG_CommandEdit18evaluateExpressionE7QString
librecad:_ZN14QG_CommandEdit20clearCommandsHistoryEv
librecad:_ZN14QG_CommandEdit5eventEP6QEvent
librecad:_ZN14QG_CommandEdit6escapeEv
librecad:_ZN14QG_CommandEdit7commandE7QString
librecad:_ZN14QG_CommandEdit7focusInEv
librecad:_ZN14QG_CommandEdit7keycodeE7QString
librecad:_ZN14QG_CommandEdit7messageE7QString
librecad:_ZN14QG_CommandEdit8focusOutEv
librecad:_ZN14QG_CommandEditC1EP7QWidget
librecad:_ZN14QG_CommandEditC2EP7QWidget
librecad:_ZN14QG_DlgPolyline11qt_metacallEN11QMetaObject4CallEiPPv
librecad:_ZN14QG_DlgPolyline11qt_metacastEPKc
librecad:_ZN14QG_DlgPolyline11setPolylineER11RS_Polyline
librecad:_ZN14QG_DlgPolyline14languageChangeEv
librecad:_ZN14QG_DlgPolyline14updatePolylineEv
librecad:_ZN14QG_DlgPolyline16staticMetaObjectE
librecad:_ZN14QG_DlgPolylineC1EP7QWidgetb6QFlagsIN2Qt10WindowTypeEE
librecad:_ZN14QG_DlgPolylineC2EP7QWidgetb6QFlagsIN2Qt10WindowTypeEE
librecad:_ZN14QG_DlgPolylineD0Ev
librecad:_ZN14QG_DlgPolylineD1Ev
librecad:_ZN14QG_DlgPolylineD2Ev
librecad:_ZN14QG_GraphicView10enterEventEP6QEvent
librecad:_ZN14QG_GraphicView10leaveEventEP6QEvent
librecad:_ZN14QG_GraphicView10paintEventEP11QPaintEvent
librecad:_ZN14QG_GraphicView10wheelEventEP11QWheelEvent
librecad:_ZN14QG_GraphicView11autoPanStepEv
librecad:_ZN14QG_GraphicView11destroyMenuERK7QString
librecad:_ZN14QG_GraphicView11qt_metacallEN11QMetaObject4CallEiPPv
librecad:_ZN14QG_GraphicView11qt_metacastEPKc
librecad:_ZN14QG_GraphicView11resizeEventEP12QResizeEvent
librecad:_ZN14QG_GraphicView11tabletEventEP12QTabletEvent
librecad:_ZN14QG_GraphicView12focusInEventEP11QFocusEvent
librecad:_ZN14QG_GraphicView13addScrollbarsEv
librecad:_ZN14QG_GraphicView13focusOutEventEP11QFocusEvent
librecad:_ZN14QG_GraphicView13hasScrollbarsEv
librecad:_ZN14QG_GraphicView13keyPressEventEP9QKeyEvent
librecad:_ZN14QG_GraphicView13setBackgroundERK8RS_Color
librecad:_ZN14QG_GraphicView13slotHScrolledEi
librecad:_ZN14QG_GraphicView13slotVScrolledEi
librecad:_ZN14QG_GraphicView14layerActivatedEP8RS_Layer
librecad:_ZN14QG_GraphicView14mouseMoveEventEP11QMouseEvent
librecad:_ZN14QG_GraphicView14setMouseCursorEN3RS210CursorTypeE
librecad:_ZN14QG_GraphicView15keyReleaseEventEP9QKeyEvent
librecad:_ZN14QG_GraphicView15mousePressEventEP11QMouseEvent
librecad:_ZN14QG_GraphicView15setAntialiasingEb
librecad:_ZN14QG_GraphicView15setCursorHidingEb
librecad:_ZN14QG_GraphicView16getPixmapForViewERSt10unique_ptrI7QPixmapSt14default_deleteIS1_EE
librecad:_ZN14QG_GraphicView16staticMetaObjectE
librecad:_ZN14QG_GraphicView17gridStatusChangedE7QString
librecad:_ZN14QG_GraphicView17mouseReleaseEventEP11QMouseEvent
librecad:_ZN14QG_GraphicView17setCurrentQActionEP7QAction
librecad:_ZN14QG_GraphicView17startAutoPanTimerEP11QMouseEvent
librecad:_ZN14QG_GraphicView17xbutton1_releasedEv
librecad:_ZN14QG_GraphicView18addEditEntityEntryEP11QMouseEventR5QMenu
librecad:_ZN14QG_GraphicView18adjustZoomControlsEv
librecad:_ZN14QG_GraphicView20adjustOffsetControlsEv
librecad:_ZN14QG_GraphicView21mouseDoubleClickEventEP11QMouseEvent
librecad:_ZN14QG_GraphicView22updateGridStatusWidgetE7QString
librecad:_ZN14QG_GraphicView5eventEP6QEvent
librecad:_ZN14QG_GraphicView6redrawEN3RS212RedrawMethodE
librecad:_ZN14QG_GraphicView7setMenuERK7QStringP5QMenu
librecad:_ZN14QG_GraphicView9setOffsetEii
librecad:_ZN14QG_GraphicViewC1EP7QWidget6QFlagsIN2Qt10WindowTypeEEP11RS_Document
librecad:_ZN14QG_GraphicViewC2EP7QWidget6QFlagsIN2Qt10WindowTypeEEP11RS_Document
librecad:_ZN14QG_GraphicViewD0Ev
librecad:_ZN14QG_GraphicViewD1Ev
librecad:_ZN14QG_GraphicViewD2Ev
librecad:_ZN14QG_LayerDialog11qt_metacallEN11QMetaObject4CallEiPPv
librecad:_ZN14QG_LayerDialog11qt_metacastEPKc
librecad:_ZN14QG_LayerDialog11updateLayerEv
librecad:_ZN14QG_LayerDialog12getQLineEditEv
librecad:_ZN14QG_LayerDialog12setEditLayerEb
librecad:_ZN14QG_LayerDialog12setLayerListEP12RS_LayerList
librecad:_ZN14QG_LayerDialog14languageChangeEv
librecad:_ZN14QG_LayerDialog16staticMetaObjectE
librecad:_ZN14QG_LayerDialog4initEv
librecad:_ZN14QG_LayerDialog8setLayerEP8RS_Layer
librecad:_ZN14QG_LayerDialog8validateEv
librecad:_ZN14QG_LayerDialogC1EP7QWidget7QStringb6QFlagsIN2Qt10WindowTypeEE
librecad:_ZN14QG_LayerDialogC2EP7QWidget7QStringb6QFlagsIN2Qt10WindowTypeEE
librecad:_ZN14QG_LayerWidget10layerAddedEP8RS_Layer
librecad:_ZN14QG_LayerWidget11qt_metacallEN11QMetaObject4CallEiPPv
librecad:_ZN14QG_LayerWidget11qt_metacastEPKc
librecad:_ZN14QG_LayerWidget12setLayerListEP12RS_LayerListb
librecad:_ZN14QG_LayerWidget13activateLayerEP8RS_Layerb
librecad:_ZN14QG_LayerWidget13activateLayerEi
librecad:_ZN14QG_LayerWidget13keyPressEventEP9QKeyEvent
librecad:_ZN14QG_LayerWidget13slotActivatedE11QModelIndex
librecad:_ZN14QG_LayerWidget16contextMenuEventEP17QContextMenuEvent
librecad:_ZN14QG_LayerWidget16staticMetaObjectE
librecad:_ZN14QG_LayerWidget17restoreSelectionsEv
librecad:_ZN14QG_LayerWidget19slotUpdateLayerListEv
librecad:_ZN14QG_LayerWidget20slotSelectionChangedERK14QItemSelectionS2_
librecad:_ZN14QG_LayerWidget6escapeEv
librecad:_ZN14QG_LayerWidget6updateEv
librecad:_ZN14QG_LayerWidgetC1EP16QG_ActionHandlerP7QWidgetPKc6QFlagsIN2Qt10WindowTypeEE
librecad:_ZN14QG_LayerWidgetC2EP16QG_ActionHandlerP7QWidgetPKc6QFlagsIN2Qt10WindowTypeEE
librecad:_ZN14QG_LineOptions11qt_metacallEN11QMetaObject4CallEiPPv
librecad:_ZN14QG_LineOptions11qt_metacastEPKc
librecad:_ZN14QG_LineOptions14languageChangeEv
librecad:_ZN14QG_LineOptions16staticMetaObjectE
librecad:_ZN14QG_LineOptions4redoEv
librecad:_ZN14QG_LineOptions4undoEv
librecad:_ZN14QG_LineOptions5closeEv
librecad:_ZN14QG_LineOptions9setActionEP18RS_ActionInterface
librecad:_ZN14QG_LineOptionsC1EP7QWidget6QFlagsIN2Qt10WindowTypeEE
librecad:_ZN14QG_LineOptionsC2EP7QWidget6QFlagsIN2Qt10WindowTypeEE
librecad:_ZN14QG_LineOptionsD0Ev
librecad:_ZN14QG_LineOptionsD1Ev
librecad:_ZN14QG_LineOptionsD2Ev
librecad:_ZN14QG_LineTypeBox11qt_metacallEN11QMetaObject4CallEiPPv
librecad:_ZN14QG_LineTypeBox11qt_metacastEPKc
librecad:_ZN14QG_LineTypeBox11setLineTypeEN3RS28LineTypeE
librecad:_ZN14QG_LineTypeBox15lineTypeChangedEN3RS28LineTypeE
librecad:_ZN14QG_LineTypeBox16setLayerLineTypeEN3RS28LineTypeE
librecad:_ZN14QG_LineTypeBox16staticMetaObjectE
librecad:_ZN14QG_LineTypeBox19slotLineTypeChangedEi
librecad:_ZN14QG_LineTypeBox4initEbb
librecad:_ZN14QG_LineTypeBoxC1EP7QWidget
librecad:_ZN14QG_LineTypeBoxC1EbbP7QWidgetPKc
librecad:_ZN14QG_LineTypeBoxC2EP7QWidget
librecad:_ZN14QG_LineTypeBoxC2EbbP7QWidgetPKc
librecad:_ZN14QG_LineTypeBoxD0Ev
librecad:_ZN14QG_LineTypeBoxD1Ev
librecad:_ZN14QG_LineTypeBoxD2Ev
librecad:_ZN14QG_MouseWidget11qt_metacallEN11QMetaObject4CallEiPPv
librecad:_ZN14QG_MouseWidget11qt_metacastEPKc
librecad:_ZN14QG_MouseWidget14languageChangeEv
librecad:_ZN14QG_MouseWidget16staticMetaObjectE
librecad:_ZN14QG_MouseWidget7setHelpERK7QStringS2_
librecad:_ZN14QG_MouseWidgetC1EP7QWidgetPKc6QFlagsIN2Qt10WindowTypeEE
librecad:_ZN14QG_MouseWidgetC2EP7QWidgetPKc6QFlagsIN2Qt10WindowTypeEE
librecad:_ZN14QG_MouseWidgetD0Ev
librecad:_ZN14QG_MouseWidgetD1Ev
librecad:_ZN14QG_MouseWidgetD2Ev
librecad:_ZN14QG_RecentFiles11qt_metacallEN11QMetaObject4CallEiPPv
librecad:_ZN14QG_RecentFiles11qt_metacastEPKc
librecad:_ZN14QG_RecentFiles16staticMetaObjectE
librecad:_ZN14QG_RecentFiles21updateRecentFilesMenuEv
librecad:_ZN14QG_RecentFiles3addERK7QString
librecad:_ZN14QG_RecentFiles8addFilesEP5QMenu
librecad:_ZN14QG_RecentFilesC1EP7QObjecti
librecad:_ZN14QG_RecentFilesC2EP7QObjecti
librecad:_ZN14QG_RecentFilesD0Ev
librecad:_ZN14QG_RecentFilesD1Ev
librecad:_ZN14QG_RecentFilesD2Ev
librecad:_ZN14QG_SnapToolBar11qt_metacallEN11QMetaObject4CallEiPPv
librecad:_ZN14QG_SnapToolBar11qt_metacastEPKc
librecad:_ZN14QG_SnapToolBar12saveSnapModeEv
librecad:_ZN14QG_SnapToolBar15actionTriggeredEv
librecad:_ZN14QG_SnapToolBar16setActionHandlerEP16QG_ActionHandler
librecad:_ZN14QG_SnapToolBar16staticMetaObjectE
librecad:_ZN14QG_SnapToolBar19slotRestrictNothingEb
librecad:_ZN14QG_SnapToolBar21setLockedRelativeZeroEb
librecad:_ZN14QG_SnapToolBar22slotRestrictOrthogonalEb
librecad:_ZN14QG_SnapToolBar25slotUnsetSnapMiddleManualEv
librecad:_ZN14QG_SnapToolBar27slotEnableRelativeZeroSnapsEb
librecad:_ZN14QG_SnapToolBar8setSnapsERK11RS_SnapMode
librecad:_ZN14QG_SnapToolBarC1EP7QWidgetP16QG_ActionHandlerP21LC_ActionGroupManager
librecad:_ZN14QG_SnapToolBarC2EP7QWidgetP16QG_ActionHandlerP21LC_ActionGroupManager
librecad:_ZN14QG_TextOptions10updateTextEv
librecad:_ZN14QG_TextOptions11qt_metacallEN11QMetaObject4CallEiPPv
librecad:_ZN14QG_TextOptions11qt_metacastEPKc
librecad:_ZN14QG_TextOptions11updateAngleEv
librecad:_ZN14QG_TextOptions14languageChangeEv
librecad:_ZN14QG_TextOptions16staticMetaObjectE
librecad:_ZN14QG_TextOptions9setActionEP18RS_ActionInterfaceb
librecad:_ZN14QG_TextOptionsC1EP7QWidget6QFlagsIN2Qt10WindowTypeEE
librecad:_ZN14QG_TextOptionsC2EP7QWidget6QFlagsIN2Qt10WindowTypeEE
librecad:_ZN14QG_TextOptionsD0Ev
librecad:_ZN14QG_TextOptionsD1Ev
librecad:_ZN14QG_TextOptionsD2Ev
librecad:_ZN14RS_ActionOrder11qt_metacallEN11QMetaObject4CallEiPPv
librecad:_ZN14RS_ActionOrder11qt_metacastEPKc
librecad:_ZN14RS_ActionOrder14mouseMoveEventEP11QMouseEvent
librecad:_ZN14RS_ActionOrder16staticMetaObjectE
librecad:_ZN14RS_ActionOrder17mouseReleaseEventEP11QMouseEvent
librecad:_ZN14RS_ActionOrder17updateMouseCursorEv
librecad:_ZN14RS_ActionOrder22updateMouseButtonHintsEv
librecad:_ZN14RS_ActionOrder4initEi
librecad:_ZN14RS_ActionOrder7triggerEv
librecad:_ZN14RS_ActionOrderC1ER18RS_EntityContainerR14RS_GraphicViewN3RS210ActionTypeE
librecad:_ZN14RS_ActionOrderC2ER18RS_EntityContainerR14RS_GraphicViewN3RS210ActionTypeE
librecad:_ZN14RS_FilterDXFRW10addCommentEPKc
librecad:_ZN14RS_FilterDXFRW10addEllipseERK11DRW_Ellipse
librecad:_ZN14RS_FilterDXFRW10fileExportER10RS_GraphicRK7QStringN3RS210FormatTypeE
librecad:_ZN14RS_FilterDXFRW10fileImportER10RS_GraphicRK7QStringN3RS210FormatTypeE
librecad:_ZN14RS_FilterDXFRW10writeAppIdEv
librecad:_ZN14RS_FilterDXFRW10writeHatchEP8RS_Hatch
librecad:_ZN14RS_FilterDXFRW10writeImageEP8RS_Image
librecad:_ZN14RS_FilterDXFRW10writeMTextEP8RS_MText
librecad:_ZN14RS_FilterDXFRW10writePointEP8RS_Point
librecad:_ZN14RS_FilterDXFRW10writeSolidEP8RS_Solid
librecad:_ZN14RS_FilterDXFRW11addDimAlignEPK14DRW_DimAligned
librecad:_ZN14RS_FilterDXFRW11addDimStyleERK12DRW_Dimstyle
librecad:_ZN14RS_FilterDXFRW11addPolylineERK12DRW_Polyline
librecad:_ZN14RS_FilterDXFRW11toDxfStringERK7QString
librecad:_ZN14RS_FilterDXFRW11writeBlocksEv
librecad:_ZN14RS_FilterDXFRW11writeCircleEP9RS_Circle
librecad:_ZN14RS_FilterDXFRW11writeEntityEP9RS_Entity
librecad:_ZN14RS_FilterDXFRW11writeHeaderER10DRW_Header
librecad:_ZN14RS_FilterDXFRW11writeInsertEP9RS_Insert
librecad:_ZN14RS_FilterDXFRW11writeLTypesEv
librecad:_ZN14RS_FilterDXFRW11writeLayersEv
librecad:_ZN14RS_FilterDXFRW11writeLeaderEP9RS_Leader
librecad:_ZN14RS_FilterDXFRW11writeSplineEP9RS_Spline
librecad:_ZN14RS_FilterDXFRW11writeVportsEv
librecad:_ZN14RS_FilterDXFRW12addDimLinearEPK13DRW_DimLinear
librecad:_ZN14RS_FilterDXFRW12addDimRadialEPK13DRW_DimRadial
librecad:_ZN14RS_FilterDXFRW12numberToUnitEi
librecad:_ZN14RS_FilterDXFRW12unitToNumberEN3RS24UnitE
librecad:_ZN14RS_FilterDXFRW12writeEllipseEP10RS_Ellipse
librecad:_ZN14RS_FilterDXFRW12writeObjectsEv
librecad:_ZN14RS_FilterDXFRW13addDimAngularEPK14DRW_DimAngular
librecad:_ZN14RS_FilterDXFRW13addLWPolylineERK14DRW_LWPolyline
librecad:_ZN14RS_FilterDXFRW13colorToNumberERK8RS_ColorPi
librecad:_ZN14RS_FilterDXFRW13numberToColorEi
librecad:_ZN14RS_FilterDXFRW13numberToWidthEN11DRW_LW_Conv9lineWidthE
librecad:_ZN14RS_FilterDXFRW13prepareBlocksEv
librecad:_ZN14RS_FilterDXFRW13printDwgErrorEi
librecad:_ZN14RS_FilterDXFRW13widthToNumberEN3RS29LineWidthE
librecad:_ZN14RS_FilterDXFRW13writeEntitiesEv
librecad:_ZN14RS_FilterDXFRW13writePolylineEP11RS_Polyline
librecad:_ZN14RS_FilterDXFRW14addDimOrdinateEPK15DRW_DimOrdinate
librecad:_ZN14RS_FilterDXFRW14lineTypeToNameEN3RS28LineTypeE
librecad:_ZN14RS_FilterDXFRW14nameToLineTypeERK7QString
librecad:_ZN14RS_FilterDXFRW14toNativeStringERK7QString
librecad:_ZN14RS_FilterDXFRW14writeDimensionEP12RS_Dimension
librecad:_ZN14RS_FilterDXFRW14writeDimstylesEv
librecad:_ZN14RS_FilterDXFRW15addDimAngular3PEPK16DRW_DimAngular3p
librecad:_ZN14RS_FilterDXFRW15addDimDiametricEPK16DRW_DimDiametric
librecad:_ZN14RS_FilterDXFRW15addPlotSettingsEPK16DRW_PlotSettings
librecad:_ZN14RS_FilterDXFRW15printDwgVersionEi
librecad:_ZN14RS_FilterDXFRW15writeLWPolylineEP11RS_Polyline
librecad:_ZN14RS_FilterDXFRW15writeTextstylesEv
librecad:_ZN14RS_FilterDXFRW17convDimensionDataEPK13DRW_Dimension
librecad:_ZN14RS_FilterDXFRW17writeBlockRecordsEv
librecad:_ZN14RS_FilterDXFRW17writeSplinePointsEP15LC_SplinePoints
librecad:_ZN14RS_FilterDXFRW19angleFormatToNumberEN3RS211AngleFormatE
librecad:_ZN14RS_FilterDXFRW19getEntityAttributesEP10DRW_EntityPK9RS_Entity
librecad:_ZN14RS_FilterDXFRW19numberToAngleFormatEi
librecad:_ZN14RS_FilterDXFRW19setEntityAttributesEP9RS_EntityPK10DRW_Entity
librecad:_ZN14RS_FilterDXFRW24isVariableTwoDimensionalERK7QString
librecad:_ZN14RS_FilterDXFRW6addArcERK7DRW_Arc
librecad:_ZN14RS_FilterDXFRW6addRayERK7DRW_Ray
librecad:_ZN14RS_FilterDXFRW7addLineERK8DRW_Line
librecad:_ZN14RS_FilterDXFRW7addTextERK8DRW_Text
librecad:_ZN14RS_FilterDXFRW8addBlockERK9DRW_Block
librecad:_ZN14RS_FilterDXFRW8addHatchEPK9DRW_Hatch
librecad:_ZN14RS_FilterDXFRW8addImageEPK9DRW_Image
librecad:_ZN14RS_FilterDXFRW8addLayerERK9DRW_Layer
librecad:_ZN14RS_FilterDXFRW8addMTextERK9DRW_MText
librecad:_ZN14RS_FilterDXFRW8addPointERK9DRW_Point
librecad:_ZN14RS_FilterDXFRW8addSolidERK9DRW_Solid
librecad:_ZN14RS_FilterDXFRW8addTraceERK9DRW_Trace
librecad:_ZN14RS_FilterDXFRW8addVportERK9DRW_Vport
librecad:_ZN14RS_FilterDXFRW8addXlineERK9DRW_Xline
librecad:_ZN14RS_FilterDXFRW8endBlockEv
librecad:_ZN14RS_FilterDXFRW8setBlockEi
librecad:_ZN14RS_FilterDXFRW8writeArcEP6RS_Arc
librecad:_ZN14RS_FilterDXFRW9add3dFaceERK10DRW_3Dface
librecad:_ZN14RS_FilterDXFRW9addCircleERK10DRW_Circle
librecad:_ZN14RS_FilterDXFRW9addHeaderEPK10DRW_Header
librecad:_ZN14RS_FilterDXFRW9addInsertERK10DRW_Insert
librecad:_ZN14RS_FilterDXFRW9addLeaderEPK10DRW_Leader
librecad:_ZN14RS_FilterDXFRW9addSplineEPK10DRW_Spline
librecad:_ZN14RS_FilterDXFRW9linkImageEPK12DRW_ImageDef
librecad:_ZN14RS_FilterDXFRW9writeLineEP7RS_Line
librecad:_ZN14RS_FilterDXFRW9writeTextEP7RS_Text
librecad:_ZN14RS_FilterDXFRWC1Ev
librecad:_ZN14RS_FilterDXFRWC2Ev
librecad:_ZN14RS_FilterDXFRWD0Ev
librecad:_ZN14RS_FilterDXFRWD1Ev
librecad:_ZN14RS_FilterDXFRWD2Ev
librecad:_ZN14RS_GraphicView10drawEntityEP10RS_PainterP9RS_Entity
librecad:_ZN14RS_GraphicView10drawEntityEP10RS_PainterP9RS_EntityRd
librecad:_ZN14RS_GraphicView10drawEntityEP9RS_Entity
librecad:_ZN14RS_GraphicView10drawEntityEP9RS_EntityRd
librecad:_ZN14RS_GraphicView10drawLayer1EP10RS_Painter
librecad:_ZN14RS_GraphicView10drawLayer2EP10RS_Painter
librecad:_ZN14RS_GraphicView10drawLayer3EP10RS_Painter
librecad:_ZN14RS_GraphicView10freezeZoomEb
librecad:_ZN14RS_GraphicView10getPatternEN3RS28LineTypeE
librecad:_ZN14RS_GraphicView10setBordersEiiii
librecad:_ZN14RS_GraphicView10setFactorXEd
librecad:_ZN14RS_GraphicView10setFactorYEd
librecad:_ZN14RS_GraphicView10setOffsetXEi
librecad:_ZN14RS_GraphicView10setOffsetYEi
librecad:_ZN14RS_GraphicView10setPanningEb
librecad:_ZN14RS_GraphicView10zoomScrollEN3RS29DirectionE
librecad:_ZN14RS_GraphicView10zoomWindowE9RS_VectorS0_b
librecad:_ZN14RS_GraphicView11drawOverlayEP10RS_Painter
librecad:_ZN14RS_GraphicView11qt_metacallEN11QMetaObject4CallEiPPv
librecad:_ZN14RS_GraphicView11qt_metacastEPKc
librecad:_ZN14RS_GraphicView11restoreViewEv
librecad:_ZN14RS_GraphicView11setPrintingEb
librecad:_ZN14RS_GraphicView12commandEventEP15RS_CommandEvent
librecad:_ZN14RS_GraphicView12deleteEntityEP9RS_Entity
librecad:_ZN14RS_GraphicView12drawMetaGridEP10RS_Painter
librecad:_ZN14RS_GraphicView12setContainerEP18RS_EntityContainer
librecad:_ZN14RS_GraphicView12setDraftModeEb
librecad:_ZN14RS_GraphicView12setGridColorERK8RS_Color
librecad:_ZN14RS_GraphicView12zoomPreviousEv
librecad:_ZN14RS_GraphicView13centerOffsetXEv
librecad:_ZN14RS_GraphicView13centerOffsetYEv
librecad:_ZN14RS_GraphicView13drawDraftSignEP10RS_Painter
librecad:_ZN14RS_GraphicView13setBackgroundERK8RS_Color
librecad:_ZN14RS_GraphicView14killAllActionsEv
librecad:_ZN14RS_GraphicView14setHandleColorERK8RS_Color
librecad:_ZN14RS_GraphicView15drawEntityPlainEP10RS_PainterP9RS_Entity
librecad:_ZN14RS_GraphicView15drawEntityPlainEP10RS_PainterP9RS_EntityRd
librecad:_ZN14RS_GraphicView15setPenForEntityEP10RS_PainterP9RS_EntityRd
librecad:_ZN14RS_GraphicView15setPrintPreviewEb
librecad:_ZN14RS_GraphicView15setRelativeZeroERK9RS_Vector
librecad:_ZN14RS_GraphicView15setTypeToSelectEN3RS210EntityTypeE
librecad:_ZN14RS_GraphicView16drawAbsoluteZeroEP10RS_Painter
librecad:_ZN14RS_GraphicView16drawRelativeZeroEP10RS_Painter
librecad:_ZN14RS_GraphicView16getCurrentActionEv
librecad:_ZN14RS_GraphicView16getDefaultActionEv
librecad:_ZN14RS_GraphicView16lockRelativeZeroEb
librecad:_ZN14RS_GraphicView16moveRelativeZeroERK9RS_Vector
librecad:_ZN14RS_GraphicView16setCrosshairTypeEN3RS213CrosshairTypeE
librecad:_ZN14RS_GraphicView16setCurrentActionEP18RS_ActionInterface
librecad:_ZN14RS_GraphicView16setDefaultActionEP18RS_ActionInterface
librecad:_ZN14RS_GraphicView16setMetaGridColorERK8RS_Color
librecad:_ZN14RS_GraphicView16setSelectedColorERK8RS_Color
librecad:_ZN14RS_GraphicView16staticMetaObjectE
librecad:_ZN14RS_GraphicView17killSelectActionsEv
librecad:_ZN14RS_GraphicView17setEndHandleColorERK8RS_Color
librecad:_ZN14RS_GraphicView18setDefaultSnapModeE11RS_SnapMode
librecad:_ZN14RS_GraphicView18setSnapRestrictionEN3RS215SnapRestrictionE
librecad:_ZN14RS_GraphicView19getOverlayContainerEN3RS215OverlayGraphicsE
librecad:_ZN14RS_GraphicView19previous_zoom_stateEb
librecad:_ZN14RS_GraphicView19setHighlightedColorERK8RS_Color
librecad:_ZN14RS_GraphicView19setStartHandleColorERK8RS_Color
librecad:_ZN14RS_GraphicView20setRelativeZeroColorERK8RS_Color
librecad:_ZN14RS_GraphicView21drawEntityHighlightedEP9RS_Entityb
librecad:_ZN14RS_GraphicView21drawWindow_DEPRECATEDE9RS_VectorS0_
librecad:_ZN14RS_GraphicView21enableCoordinateInputEv
librecad:_ZN14RS_GraphicView21relative_zero_changedERK9RS_Vector
librecad:_ZN14RS_GraphicView22disableCoordinateInputEv
librecad:_ZN14RS_GraphicView26setRelativeZeroHiddenStateEb
librecad:_ZN14RS_GraphicView4backEv
librecad:_ZN14RS_GraphicView5enterEv
librecad:_ZN14RS_GraphicView6zoomInEdRK9RS_Vector
librecad:_ZN14RS_GraphicView7centerXEd
librecad:_ZN14RS_GraphicView7centerYEd
librecad:_ZN14RS_GraphicView7cleanUpEv
librecad:_ZN14RS_GraphicView7zoomInXEd
librecad:_ZN14RS_GraphicView7zoomInYEd
librecad:_ZN14RS_GraphicView7zoomOutEdRK9RS_Vector
librecad:_ZN14RS_GraphicView7zoomPanEii
librecad:_ZN14RS_GraphicView8drawGridEP10RS_Painter
librecad:_ZN14RS_GraphicView8saveViewEv
librecad:_ZN14RS_GraphicView8zoomAutoEbb
librecad:_ZN14RS_GraphicView8zoomOutXEd
librecad:_ZN14RS_GraphicView8zoomOutYEd
librecad:_ZN14RS_GraphicView8zoomPageEv
librecad:_ZN14RS_GraphicView9drawPaperEP10RS_Painter
librecad:_ZN14RS_GraphicView9setFactorEd
librecad:_ZN14RS_GraphicView9setOffsetEii
librecad:_ZN14RS_GraphicView9zoomAutoYEb
librecad:_ZN14RS_GraphicViewC2EP7QWidget6QFlagsIN2Qt10WindowTypeEE
librecad:_ZN14RS_GraphicViewD0Ev
librecad:_ZN14RS_GraphicViewD1Ev
librecad:_ZN14RS_GraphicViewD2Ev
librecad:_ZN14RS_Information11isDimensionEN3RS210EntityTypeE
librecad:_ZN14RS_Information11isTrimmableEP9RS_Entity
librecad:_ZN14RS_Information11isTrimmableEP9RS_EntityS1_
librecad:_ZN14RS_Information15getIntersectionEPK9RS_EntityS2_b
librecad:_ZN14RS_Information19createQuadrilateralERK18RS_EntityContainer
librecad:_ZN14RS_Information20isPointInsideContourERK9RS_VectorP18RS_EntityContainerPb
librecad:_ZN14RS_Information21getIntersectionArcArcEPK9RS_EntityS2_
librecad:_ZN14RS_Information22getIntersectionLineArcEPK9RS_EntityS2_
librecad:_ZN14RS_Information23getIntersectionLineLineEPK9RS_EntityS2_
librecad:_ZN14RS_Information25getIntersectionArcEllipseEP6RS_ArcP10RS_Ellipse
librecad:_ZN14RS_Information26getIntersectionEllipseLineEP7RS_LineP10RS_Ellipse
librecad:_ZN14RS_Information28getIntersectionCircleEllipseEP9RS_CircleP10RS_Ellipse
librecad:_ZN14RS_Information29getIntersectionEllipseEllipseEPK10RS_EllipseS2_
librecad:_ZN14RS_InformationC1ER18RS_EntityContainer
librecad:_ZN14RS_InformationC2ER18RS_EntityContainer
librecad:_ZN14RS_OverlayLine4drawEP10RS_PainterP14RS_GraphicViewRd
librecad:_ZN14RS_OverlayLineC1EP18RS_EntityContainerRK11RS_LineData
librecad:_ZN14RS_OverlayLineC2EP18RS_EntityContainerRK11RS_LineData
librecad:_ZN14RS_PatternList14requestPatternERK7QString
librecad:_ZN14RS_PatternList4initEv
librecad:_ZN14RS_PatternList8instanceEv
librecad:_ZN14RS_PatternListD1Ev
librecad:_ZN14RS_PatternListD2Ev
librecad:_ZN14TextFileViewer11qt_metacallEN11QMetaObject4CallEiPPv
librecad:_ZN14TextFileViewer11qt_metacastEPKc
librecad:_ZN14TextFileViewer16staticMetaObjectE
librecad:_ZN14TextFileViewer7addFileE7QStringS0_
librecad:_ZN14TextFileViewer7setFileE7QString
librecad:_ZN14TextFileViewer8loadFileEP15QListWidgetItem
librecad:_ZN14TextFileViewerC1EP7QWidget
librecad:_ZN14TextFileViewerC2EP7QWidget
librecad:_ZN14TextFileViewerD0Ev
librecad:_ZN14TextFileViewerD1Ev
librecad:_ZN14TextFileViewerD2Ev
librecad:_ZN14dxfReaderAscii10readBinaryEv
librecad:_ZN14dxfReaderAscii10readDoubleEv
librecad:_ZN14dxfReaderAscii10readStringEPNSt7__cxx1112basic_stringIcSt11char_traitsIcESaIcEEE
librecad:_ZN14dxfReaderAscii10readStringEv
librecad:_ZN14dxfReaderAscii8readBoolEv
librecad:_ZN14dxfReaderAscii8readCodeEPi
librecad:_ZN14dxfReaderAscii9readInt16Ev
librecad:_ZN14dxfReaderAscii9readInt32Ev
librecad:_ZN14dxfReaderAscii9readInt64Ev
librecad:_ZN14dxfWriterAscii10writeInt16Eii
librecad:_ZN14dxfWriterAscii10writeInt32Eii
librecad:_ZN14dxfWriterAscii10writeInt64Eiy
librecad:_ZN14dxfWriterAscii11writeDoubleEid
librecad:_ZN14dxfWriterAscii11writeStringEiNSt7__cxx1112basic_stringIcSt11char_traitsIcESaIcEEE
librecad:_ZN14dxfWriterAscii9writeBoolEib
librecad:_ZN14dxfWriterAsciiC1EPSt14basic_ofstreamIcSt11char_traitsIcEE
librecad:_ZN14dxfWriterAsciiC2EPSt14basic_ofstreamIcSt11char_traitsIcEE
librecad:_ZN15DRW_DimOrdinate8parseDwgEN3DRW7VersionEP9dwgBufferj
librecad:_ZN15LC_ActionDimArc11hideOptionsEv
librecad:_ZN15LC_ActionDimArc11qt_metacallEN11QMetaObject4CallEiPPv
librecad:_ZN15LC_ActionDimArc11qt_metacastEPKc
librecad:_ZN15LC_ActionDimArc11showOptionsEv
librecad:_ZN15LC_ActionDimArc12commandEventEP15RS_CommandEvent
librecad:_ZN15LC_ActionDimArc14mouseMoveEventEP11QMouseEvent
librecad:_ZN15LC_ActionDimArc15coordinateEventEP18RS_CoordinateEvent
librecad:_ZN15LC_ActionDimArc16staticMetaObjectE
librecad:_ZN15LC_ActionDimArc17mouseReleaseEventEP11QMouseEvent
librecad:_ZN15LC_ActionDimArc20getAvailableCommandsEv
librecad:_ZN15LC_ActionDimArc22updateMouseButtonHintsEv
librecad:_ZN15LC_ActionDimArc5resetEv
librecad:_ZN15LC_ActionDimArc7triggerEv
librecad:_ZN15LC_ActionDimArc9setRadiusERK9RS_Vector
librecad:_ZN15LC_ActionDimArcC1ER18RS_EntityContainerR14RS_GraphicView
librecad:_ZN15LC_ActionDimArcC2ER18RS_EntityContainerR14RS_GraphicView
librecad:_ZN15LC_ActionDimArcD0Ev
librecad:_ZN15LC_ActionDimArcD1Ev
librecad:_ZN15LC_ActionDimArcD2Ev
librecad:_ZN15LC_CrashHandler7installEv
librecad:_ZN15LC_CrossOptions11doSetActionEP18RS_ActionInterfaceb
librecad:_ZN15LC_CrossOptions11qt_metacallEN11QMetaObject4CallEiPPv
librecad:_ZN15LC_CrossOptions11qt_metacastEPKc
librecad:_ZN15LC_CrossOptions14doSaveSettingsEv
librecad:_ZN15LC_CrossOptions14languageChangeEv
librecad:_ZN15LC_CrossOptions16staticMetaObjectE
librecad:_ZN15LC_CrossOptions18onModeIndexChangedEi
librecad:_ZN15LC_CrossOptions18onXEditingFinishedEv
librecad:_ZN15LC_CrossOptions18onYEditingFinishedEv
librecad:_ZN15LC_CrossOptions19setXToActionAndViewERK7QString
librecad:_ZN15LC_CrossOptions19setYToActionAndViewERK7QString
librecad:_ZN15LC_CrossOptions20checkActionRttiValidEN3RS210ActionTypeE
librecad:_ZN15LC_CrossOptions22onAngleEditingFinishedEv
librecad:_ZN15LC_CrossOptions22setModeToActionAndViewEi
librecad:_ZN15LC_CrossOptions23setAngleToActionAndViewERK7QString
librecad:_ZN15LC_CrossOptions27getSettingsOptionNamePrefixEv
librecad:_ZN15LC_CrossOptionsC1EP7QWidget
librecad:_ZN15LC_CrossOptionsC2EP7QWidget
librecad:_ZN15LC_CrossOptionsD0Ev
librecad:_ZN15LC_CrossOptionsD1Ev
librecad:_ZN15LC_CrossOptionsD2Ev
librecad:_ZN15LC_ParabolaData11From4PointsERKSt6vectorI9RS_VectorSaIS1_EE
librecad:_ZN15LC_ParabolaData19CalculatePrimitivesEv
librecad:_ZN15LC_ParabolaData21FromEndPointsTangentsERKSt5arrayI9RS_VectorLm2EES4_
librecad:_ZN15LC_ParabolaDataC1ESt5arrayI9RS_VectorLm3EE
librecad:_ZN15LC_ParabolaDataC2ESt5arrayI9RS_VectorLm3EE
librecad:_ZN15LC_SplinePoints10drawSimpleEP10RS_PainterP14RS_GraphicView
librecad:_ZN15LC_SplinePoints11drawPatternEP10RS_PainterP14RS_GraphicViewRdPK18RS_LineTypePattern
librecad:_ZN15LC_SplinePoints12offsetSplineERK9RS_VectorRKd
librecad:_ZN15LC_SplinePoints15addControlPointERK9RS_Vector
librecad:_ZN15LC_SplinePoints15getBoundingRectERK9RS_VectorS2_S2_
librecad:_ZN15LC_SplinePoints15getIntersectionEPK9RS_EntityS2_
librecad:_ZN15LC_SplinePoints15removeLastPointEv
librecad:_ZN15LC_SplinePoints15revertDirectionEv
librecad:_ZN15LC_SplinePoints16UpdateQuadExtentERK9RS_VectorS2_S2_
librecad:_ZN15LC_SplinePoints16addQuadIntersectEP18RS_VectorSolutionsRK9RS_VectorS4_S4_
librecad:_ZN15LC_SplinePoints16calculateBordersEv
librecad:_ZN15LC_SplinePoints16getLineIntersectERK9RS_VectorS2_
librecad:_ZN15LC_SplinePoints19UpdateControlPointsEv
librecad:_ZN15LC_SplinePoints21getQuadraticIntersectEPK9RS_Entity
librecad:_ZN15LC_SplinePoints24getSplinePointsIntersectEPS_
librecad:_ZN15LC_SplinePoints3cutERK9RS_Vector
librecad:_ZN15LC_SplinePoints4drawEP10RS_PainterP14RS_GraphicViewRd
librecad:_ZN15LC_SplinePoints4moveERK9RS_Vector
librecad:_ZN15LC_SplinePoints5scaleERK9RS_VectorS2_
librecad:_ZN15LC_SplinePoints5shearEd
librecad:_ZN15LC_SplinePoints6mirrorERK9RS_VectorS2_
librecad:_ZN15LC_SplinePoints6offsetERK9RS_VectorRKd
librecad:_ZN15LC_SplinePoints6rotateERK9RS_VectorRKd
librecad:_ZN15LC_SplinePoints6rotateERK9RS_VectorS2_
librecad:_ZN15LC_SplinePoints6updateEv
librecad:_ZN15LC_SplinePoints7getDataEv
librecad:_ZN15LC_SplinePoints7moveRefERK9RS_VectorS2_
librecad:_ZN15LC_SplinePoints8addPointERK9RS_Vector
librecad:_ZN15LC_SplinePoints9offsetCutERK9RS_VectorRKd
librecad:_ZN15LC_SplinePoints9setClosedEb
librecad:_ZN15LC_SplinePointsC1EP18RS_EntityContainer19LC_SplinePointsData
librecad:_ZN15LC_SplinePointsC2EP18RS_EntityContainer19LC_SplinePointsData
librecad:_ZN15QC_ActionGetEnt10setMessageE7QString
librecad:_ZN15QC_ActionGetEnt11getSelectedEP20Doc_plugin_interface
librecad:_ZN15QC_ActionGetEnt11qt_metacallEN11QMetaObject4CallEiPPv
librecad:_ZN15QC_ActionGetEnt11qt_metacastEPKc
librecad:_ZN15QC_ActionGetEnt13keyPressEventEP9QKeyEvent
librecad:_ZN15QC_ActionGetEnt16staticMetaObjectE
librecad:_ZN15QC_ActionGetEnt17mouseReleaseEventEP11QMouseEvent
librecad:_ZN15QC_ActionGetEnt17updateMouseCursorEv
librecad:_ZN15QC_ActionGetEnt22updateMouseButtonHintsEv
librecad:_ZN15QC_ActionGetEnt7triggerEv
librecad:_ZN15QC_ActionGetEntC1ER18RS_EntityContainerR14RS_GraphicView
librecad:_ZN15QC_ActionGetEntC2ER18RS_EntityContainerR14RS_GraphicView
librecad:_ZN15QG_BevelOptions10updateDataEv
librecad:_ZN15QG_BevelOptions11qt_metacallEN11QMetaObject4CallEiPPv
librecad:_ZN15QG_BevelOptions11qt_metacastEPKc
librecad:_ZN15QG_BevelOptions12saveSettingsEv
librecad:_ZN15QG_BevelOptions14languageChangeEv
librecad:_ZN15QG_BevelOptions16staticMetaObjectE
librecad:_ZN15QG_BevelOptions9setActionEP18RS_ActionInterfaceb
librecad:_ZN15QG_BevelOptionsC1EP7QWidget6QFlagsIN2Qt10WindowTypeEE
librecad:_ZN15QG_BevelOptionsC2EP7QWidget6QFlagsIN2Qt10WindowTypeEE
librecad:_ZN15QG_BevelOptionsD0Ev
librecad:_ZN15QG_BevelOptionsD1Ev
librecad:_ZN15QG_BevelOptionsD2Ev
librecad:_ZN15QG_DlgDimLinear11qt_metacallEN11QMetaObject4CallEiPPv
librecad:_ZN15QG_DlgDimLinear11qt_metacastEPKc
librecad:_ZN15QG_DlgDimLinear14languageChangeEv
librecad:_ZN15QG_DlgDimLinear16staticMetaObjectE
librecad:_ZN15QG_DlgDimLinear6setDimER12RS_DimLinear
librecad:_ZN15QG_DlgDimLinear9updateDimEv
librecad:_ZN15QG_DlgDimLinearC1EP7QWidgetb6QFlagsIN2Qt10WindowTypeEE
librecad:_ZN15QG_DlgDimLinearC2EP7QWidgetb6QFlagsIN2Qt10WindowTypeEE
librecad:_ZN15QG_DlgDimLinearD0Ev
librecad:_ZN15QG_DlgDimLinearD1Ev
librecad:_ZN15QG_DlgDimLinearD2Ev
librecad:_ZN15QG_DlgDimension11qt_metacallEN11QMetaObject4CallEiPPv
librecad:_ZN15QG_DlgDimension11qt_metacastEPKc
librecad:_ZN15QG_DlgDimension14languageChangeEv
librecad:_ZN15QG_DlgDimension16staticMetaObjectE
librecad:_ZN15QG_DlgDimension6setDimER12RS_Dimension
librecad:_ZN15QG_DlgDimension9updateDimEv
librecad:_ZN15QG_DlgDimensionC1EP7QWidgetb6QFlagsIN2Qt10WindowTypeEE
librecad:_ZN15QG_DlgDimensionC2EP7QWidgetb6QFlagsIN2Qt10WindowTypeEE
librecad:_ZN15QG_DlgDimensionD0Ev
librecad:_ZN15QG_DlgDimensionD1Ev
librecad:_ZN15QG_DlgDimensionD2Ev
librecad:_ZN15QG_ImageOptions10updateDataEv
librecad:_ZN15QG_ImageOptions11qt_metacallEN11QMetaObject4CallEiPPv
librecad:_ZN15QG_ImageOptions11qt_metacastEPKc
librecad:_ZN15QG_ImageOptions12saveSettingsEv
librecad:_ZN15QG_ImageOptions12updateFactorEv
librecad:_ZN15QG_ImageOptions14languageChangeEv
librecad:_ZN15QG_ImageOptions16staticMetaObjectE
librecad:_ZN15QG_ImageOptions9setActionEP18RS_ActionInterfaceb
librecad:_ZN15QG_ImageOptions9updateDPIEv
librecad:_ZN15QG_ImageOptionsC1EP7QWidget6QFlagsIN2Qt10WindowTypeEE
librecad:_ZN15QG_ImageOptionsC2EP7QWidget6QFlagsIN2Qt10WindowTypeEE
librecad:_ZN15QG_ImageOptionsD0Ev
librecad:_ZN15QG_ImageOptionsD1Ev
librecad:_ZN15QG_ImageOptionsD2Ev
librecad:_ZN15QG_MTextOptions10updateTextEv
librecad:_ZN15QG_MTextOptions11qt_metacallEN11QMetaObject4CallEiPPv
librecad:_ZN15QG_MTextOptions11qt_metacastEPKc
librecad:_ZN15QG_MTextOptions11updateAngleEv
librecad:_ZN15QG_MTextOptions14languageChangeEv
librecad:_ZN15QG_MTextOptions16staticMetaObjectE
librecad:_ZN15QG_MTextOptions9setActionEP18RS_ActionInterfaceb
librecad:_ZN15QG_MTextOptionsC1EP7QWidget6QFlagsIN2Qt10WindowTypeEE
librecad:_ZN15QG_MTextOptionsC2EP7QWidget6QFlagsIN2Qt10WindowTypeEE
librecad:_ZN15QG_MTextOptionsD0Ev
librecad:_ZN15QG_MTextOptionsD1Ev
librecad:_ZN15QG_MTextOptionsD2Ev
librecad:_ZN15QG_RoundOptions10updateDataEv
librecad:_ZN15QG_RoundOptions11qt_metacallEN11QMetaObject4CallEiPPv
librecad:_ZN15QG_RoundOptions11qt_metacastEPKc
librecad:_ZN15QG_RoundOptions12saveSettingsEv
librecad:_ZN15QG_RoundOptions14languageChangeEv
librecad:_ZN15QG_RoundOptions16staticMetaObjectE
librecad:_ZN15QG_RoundOptions9setActionEP18RS_ActionInterfaceb
librecad:_ZN15QG_RoundOptionsC1EP7QWidget6QFlagsIN2Qt10WindowTypeEE
librecad:_ZN15QG_RoundOptionsC2EP7QWidget6QFlagsIN2Qt10WindowTypeEE
librecad:_ZN15QG_RoundOptionsD0Ev
librecad:_ZN15QG_RoundOptionsD1Ev
librecad:_ZN15QG_RoundOptionsD2Ev
librecad:_ZN15RS_ActionSelect11qt_metacallEN11QMetaObject4CallEiPPv
librecad:_ZN15RS_ActionSelect11qt_metacastEPKc
librecad:_ZN15RS_ActionSelect13countSelectedEv
librecad:_ZN15RS_ActionSelect13keyPressEventEP9QKeyEvent
librecad:_ZN15RS_ActionSelect16staticMetaObjectE
librecad:_ZN15RS_ActionSelect17mouseReleaseEventEP11QMouseEvent
librecad:_ZN15RS_ActionSelect17updateMouseCursorEv
librecad:_ZN15RS_ActionSelect22updateMouseButtonHintsEv
librecad:_ZN15RS_ActionSelect4initEi
librecad:_ZN15RS_ActionSelect6resumeEv
librecad:_ZN15RS_ActionSelectC1EP16QG_ActionHandlerR18RS_EntityContainerR14RS_GraphicViewN3RS210ActionTypeE5QListINS6_10EntityTypeEE
librecad:_ZN15RS_ActionSelectC2EP16QG_ActionHandlerR18RS_EntityContainerR14RS_GraphicViewN3RS210ActionTypeE5QListINS6_10EntityTypeEE
librecad:_ZN15RS_ActionZoomIn11qt_metacallEN11QMetaObject4CallEiPPv
librecad:_ZN15RS_ActionZoomIn11qt_metacastEPKc
librecad:_ZN15RS_ActionZoomIn16staticMetaObjectE
librecad:_ZN15RS_ActionZoomIn4initEi
librecad:_ZN15RS_ActionZoomIn7triggerEv
librecad:_ZN15RS_ActionZoomInC1ER18RS_EntityContainerR14RS_GraphicViewN3RS213ZoomDirectionENS4_4AxisEPK9RS_Vectord
librecad:_ZN15RS_ActionZoomInC2ER18RS_EntityContainerR14RS_GraphicViewN3RS213ZoomDirectionENS4_4AxisEPK9RS_Vectord
librecad:_ZN15RS_ActionZoomInD0Ev
librecad:_ZN15RS_ActionZoomInD1Ev
librecad:_ZN15RS_ActionZoomInD2Ev
librecad:_ZN15RS_AtomicEntity11prepareTrimERK9RS_VectorRK18RS_VectorSolutions
librecad:_ZN15RS_AtomicEntity12getTrimPointERK9RS_VectorS2_
librecad:_ZN15RS_AtomicEntity12moveEndpointERK9RS_Vector
librecad:_ZN15RS_AtomicEntity12trimEndpointERK9RS_Vector
librecad:_ZN15RS_AtomicEntity14moveStartpointERK9RS_Vector
librecad:_ZN15RS_AtomicEntity14trimStartpointERK9RS_Vector
librecad:_ZN15RS_AtomicEntity15moveSelectedRefERK9RS_VectorS2_
librecad:_ZN15RS_AtomicEntity15revertDirectionEv
librecad:_ZN15RS_AtomicEntity19setEndpointSelectedEb
librecad:_ZN15RS_AtomicEntity21setStartpointSelectedEb
librecad:_ZN15RS_AtomicEntity6offsetERK9RS_VectorRKd
librecad:_ZN15RS_AtomicEntity7reverseEv
librecad:_ZN15RS_AtomicEntityC2EP18RS_EntityContainer
librecad:_ZN15RS_DimDiametric16getMeasuredLabelEv
librecad:_ZN15RS_DimDiametric4moveERK9RS_Vector
librecad:_ZN15RS_DimDiametric5scaleERK9RS_VectorS2_
librecad:_ZN15RS_DimDiametric6mirrorERK9RS_VectorS2_
librecad:_ZN15RS_DimDiametric6rotateERK9RS_VectorRKd
librecad:_ZN15RS_DimDiametric6rotateERK9RS_VectorS2_
librecad:_ZN15RS_DimDiametric7moveRefERK9RS_VectorS2_
librecad:_ZN15RS_DimDiametric9updateDimEb
librecad:_ZN15RS_DimDiametricC1EP18RS_EntityContainerRK16RS_DimensionDataRK19RS_DimDiametricData
librecad:_ZN15RS_DimDiametricC2EP18RS_EntityContainerRK16RS_DimensionDataRK19RS_DimDiametricData
librecad:_ZN15RS_EventHandler10setQActionEP7QAction
librecad:_ZN15RS_EventHandler11qt_metacallEN11QMetaObject4CallEiPPv
librecad:_ZN15RS_EventHandler11qt_metacastEPKc
librecad:_ZN15RS_EventHandler11setSnapModeE11RS_SnapMode
librecad:_ZN15RS_EventHandler12commandEventEP15RS_CommandEvent
librecad:_ZN15RS_EventHandler13keyPressEventEP9QKeyEvent
librecad:_ZN15RS_EventHandler14killAllActionsEv
librecad:_ZN15RS_EventHandler14mouseMoveEventEP11QMouseEvent
librecad:_ZN15RS_EventHandler15inSelectionModeEv
librecad:_ZN15RS_EventHandler15keyReleaseEventEP9QKeyEvent
librecad:_ZN15RS_EventHandler15mouseEnterEventEv
librecad:_ZN15RS_EventHandler15mouseLeaveEventEv
librecad:_ZN15RS_EventHandler15mousePressEventEP11QMouseEvent
librecad:_ZN15RS_EventHandler15setRelativeZeroERK9RS_Vector
librecad:_ZN15RS_EventHandler16getCurrentActionEv
librecad:_ZN15RS_EventHandler16setCurrentActionEP18RS_ActionInterface
librecad:_ZN15RS_EventHandler16setDefaultActionEP18RS_ActionInterface
librecad:_ZN15RS_EventHandler16staticMetaObjectE
librecad:_ZN15RS_EventHandler17killSelectActionsEv
librecad:_ZN15RS_EventHandler17mouseReleaseEventEP11QMouseEvent
librecad:_ZN15RS_EventHandler18setSnapRestrictionEN3RS215SnapRestrictionE
librecad:_ZN15RS_EventHandler21enableCoordinateInputEv
librecad:_ZN15RS_EventHandler22disableCoordinateInputEv
librecad:_ZN15RS_EventHandler4backEv
librecad:_ZN15RS_EventHandler5enterEv
librecad:_ZN15RS_EventHandler7cleanUpEv
librecad:_ZN15RS_EventHandler9hasActionEv
librecad:_ZN15RS_EventHandlerC1EP7QObject
librecad:_ZN15RS_EventHandlerC2EP7QObject
librecad:_ZN15RS_EventHandlerD0Ev
librecad:_ZN15RS_EventHandlerD1Ev
librecad:_ZN15RS_EventHandlerD2Ev
librecad:_ZN15RS_Modification10copyBlocksEP9RS_Entity
librecad:_ZN15RS_Modification10copyEntityEP9RS_EntityRK9RS_Vectorb
librecad:_ZN15RS_Modification10copyLayersEP9RS_Entity
librecad:_ZN15RS_Modification10moveRotateER17RS_MoveRotateData
librecad:_ZN15RS_Modification10trimAmountERK9RS_VectorP15RS_AtomicEntityd
librecad:_ZN15RS_Modification11pasteEntityEP9RS_EntityP18RS_EntityContainer
librecad:_ZN15RS_Modification11pasteLayersEP10RS_Graphic
librecad:_ZN15RS_Modification12polylineTrimER11RS_PolylineR15RS_AtomicEntityS3_
librecad:_ZN15RS_Modification14addNewEntitiesERSt6vectorIP9RS_EntitySaIS2_EE
librecad:_ZN15RS_Modification14pasteContainerEP9RS_EntityP18RS_EntityContainer5QHashI7QStringS5_E9RS_Vector
librecad:_ZN15RS_Modification15addPolylineNodeER11RS_PolylineRK15RS_AtomicEntityRK9RS_Vector
librecad:_ZN15RS_Modification15revertDirectionEv
librecad:_ZN15RS_Modification16changeAttributesER17RS_AttributesData
librecad:_ZN15RS_Modification16changeAttributesER17RS_AttributesDataP18RS_EntityContainer
librecad:_ZN15RS_Modification17deselectOriginalsEb
librecad:_ZN15RS_Modification18deletePolylineNodeER11RS_PolylineRK9RS_Vector
librecad:_ZN15RS_Modification22explodeTextIntoLettersEP7RS_TextRSt6vectorIP9RS_EntitySaIS4_EE
librecad:_ZN15RS_Modification22explodeTextIntoLettersEP8RS_MTextRSt6vectorIP9RS_EntitySaIS4_EE
librecad:_ZN15RS_Modification22explodeTextIntoLettersEv
librecad:_ZN15RS_Modification26deletePolylineNodesBetweenER11RS_PolylineR15RS_AtomicEntityRK9RS_VectorS6_
librecad:_ZN15RS_Modification3cutERK9RS_VectorP15RS_AtomicEntity
librecad:_ZN15RS_Modification4copyERK9RS_Vectorb
librecad:_ZN15RS_Modification4moveER11RS_MoveData
librecad:_ZN15RS_Modification4trimERK9RS_VectorP15RS_AtomicEntityS2_P9RS_Entityb
librecad:_ZN15RS_Modification5bevelERK9RS_VectorP15RS_AtomicEntityS2_S4_R12RS_BevelData
librecad:_ZN15RS_Modification5pasteERK12RS_PasteDataP10RS_Graphic
librecad:_ZN15RS_Modification5roundERK9RS_VectorS2_P15RS_AtomicEntityS2_S4_R12RS_RoundData
librecad:_ZN15RS_Modification5scaleER12RS_ScaleData
librecad:_ZN15RS_Modification6mirrorER13RS_MirrorData
librecad:_ZN15RS_Modification6offsetERK13RS_OffsetData
librecad:_ZN15RS_Modification6removeEv
librecad:_ZN15RS_Modification6rotateER13RS_RotateData
librecad:_ZN15RS_Modification7explodeEb
librecad:_ZN15RS_Modification7moveRefER14RS_MoveRefData
librecad:_ZN15RS_Modification7rotate2ER14RS_Rotate2Data
librecad:_ZN15RS_Modification7stretchERK9RS_VectorS2_S2_
librecad:_ZN15RS_ModificationC1ER18RS_EntityContainerP14RS_GraphicViewb
librecad:_ZN15RS_ModificationC2ER18RS_EntityContainerP14RS_GraphicViewb
librecad:_ZN15RS_PolylineDataC1ERK9RS_VectorS2_b
librecad:_ZN15RS_PolylineDataC2ERK9RS_VectorS2_b
librecad:_ZN15RS_VariableDict3addERK7QStringRK9RS_Vectori
librecad:_ZN15RS_VariableDict3addERK7QStringS2_i
librecad:_ZN15RS_VariableDict3addERK7QStringdi
librecad:_ZN15RS_VariableDict3addERK7QStringii
librecad:_ZN15RS_VariableDict5clearEv
librecad:_ZN15RS_VariableDict6removeERK7QString
librecad:_ZN15dxfReaderBinary10readBinaryEv
librecad:_ZN15dxfReaderBinary10readDoubleEv
librecad:_ZN15dxfReaderBinary10readStringEPNSt7__cxx1112basic_stringIcSt11char_traitsIcESaIcEEE
librecad:_ZN15dxfReaderBinary10readStringEv
librecad:_ZN15dxfReaderBinary8readBoolEv
librecad:_ZN15dxfReaderBinary8readCodeEPi
librecad:_ZN15dxfReaderBinary9readInt16Ev
librecad:_ZN15dxfReaderBinary9readInt32Ev
librecad:_ZN15dxfReaderBinary9readInt64Ev
librecad:_ZN15dxfWriterBinary10writeInt16Eii
librecad:_ZN15dxfWriterBinary10writeInt32Eii
librecad:_ZN15dxfWriterBinary10writeInt64Eiy
librecad:_ZN15dxfWriterBinary11writeDoubleEid
librecad:_ZN15dxfWriterBinary11writeStringEiNSt7__cxx1112basic_stringIcSt11char_traitsIcESaIcEEE
librecad:_ZN15dxfWriterBinary9writeBoolEib
librecad:_ZN16DRW_Block_Record8parseDwgEN3DRW7VersionEP9dwgBufferj
librecad:_ZN16DRW_Conv932Table6toUtf8ERKNSt7__cxx1112basic_stringIcSt11char_traitsIcESaIcEEE
librecad:_ZN16DRW_Conv932Table8fromUtf8ERKNSt7__cxx1112basic_stringIcSt11char_traitsIcESaIcEEE
librecad:_ZN16DRW_Conv932TableC1Ev
librecad:_ZN16DRW_Conv932TableC2Ev
librecad:_ZN16DRW_DimAngular3p8parseDwgEN3DRW7VersionEP9dwgBufferj
librecad:_ZN16DRW_DimDiametric8parseDwgEN3DRW7VersionEP9dwgBufferj
librecad:_ZN16DRW_PlotSettings8parseDwgEN3DRW7VersionEP9dwgBufferj
librecad:_ZN16DRW_PlotSettings9parseCodeEiP9dxfReader
librecad:_ZN16LC_ActionFactory11qt_metacallEN11QMetaObject4CallEiPPv
librecad:_ZN16LC_ActionFactory11qt_metacastEPKc
librecad:_ZN16LC_ActionFactory13commonActionsER4QMapI7QStringP7QActionEP21LC_ActionGroupManager
librecad:_ZN16LC_ActionFactory16staticMetaObjectE
librecad:_ZN16LC_ActionFactory19fillActionContainerER4QMapI7QStringP7QActionEP21LC_ActionGroupManager
librecad:_ZN16LC_ActionFactoryC1EP20QC_ApplicationWindowP16QG_ActionHandler
librecad:_ZN16LC_ActionFactoryC2EP20QC_ApplicationWindowP16QG_ActionHandler
librecad:_ZN16LC_ActionPenPick11qt_metacallEN11QMetaObject4CallEiPPv
librecad:_ZN16LC_ActionPenPick11qt_metacastEPKc
librecad:_ZN16LC_ActionPenPick14mouseMoveEventEP11QMouseEvent
librecad:_ZN16LC_ActionPenPick16staticMetaObjectE
librecad:_ZN16LC_ActionPenPick17mouseReleaseEventEP11QMouseEvent
librecad:_ZN16LC_ActionPenPick17updateMouseCursorEv
librecad:_ZN16LC_ActionPenPick18removeHighlightingEv
librecad:_ZN16LC_ActionPenPick20applyPenToPenToolBarEP9RS_Entity
librecad:_ZN16LC_ActionPenPick22updateMouseButtonHintsEv
librecad:_ZN16LC_ActionPenPick4initEi
librecad:_ZN16LC_ActionPenPick6finishEb
librecad:_ZN16LC_ActionPenPick7triggerEv
librecad:_ZN16LC_ActionPenPickC1ER18RS_EntityContainerR14RS_GraphicViewb
librecad:_ZN16LC_ActionPenPickC2ER18RS_EntityContainerR14RS_GraphicViewb
librecad:_ZN16LC_CentralWidget10getMdiAreaEv
librecad:_ZN16LC_CentralWidget11qt_metacallEN11QMetaObject4CallEiPPv
librecad:_ZN16LC_CentralWidget11qt_metacastEPKc
librecad:_ZN16LC_CentralWidget16staticMetaObjectE
librecad:_ZN16LC_CentralWidgetC1EP7QWidget
librecad:_ZN16LC_CentralWidgetC2EP7QWidget
librecad:_ZN16LC_DeviceOptions11qt_metacallEN11QMetaObject4CallEiPPv
librecad:_ZN16LC_DeviceOptions11qt_metacastEPKc
librecad:_ZN16LC_DeviceOptions16staticMetaObjectE
librecad:_ZN16LC_DeviceOptions4saveEv
librecad:_ZN16LC_DeviceOptionsC1EP7QWidget
librecad:_ZN16LC_DeviceOptionsC2EP7QWidget
librecad:_ZN16LC_DeviceOptionsD0Ev
librecad:_ZN16LC_DeviceOptionsD1Ev
librecad:_ZN16LC_DeviceOptionsD2Ev
librecad:_ZN16LC_HyperbolaDataC1ERK9RS_VectorS2_S2_
librecad:_ZN16LC_HyperbolaDataC1ERK9RS_VectorS2_dddb
librecad:_ZN16LC_HyperbolaDataC2ERK9RS_VectorS2_S2_
librecad:_ZN16LC_HyperbolaDataC2ERK9RS_VectorS2_dddb
librecad:_ZN16LC_LayerDialogEx11qt_metacallEN11QMetaObject4CallEiPPv
librecad:_ZN16LC_LayerDialogEx11qt_metacastEPKc
librecad:_ZN16LC_LayerDialogEx12disableNamesEv
librecad:_ZN16LC_LayerDialogEx12getLayerNameEv
librecad:_ZN16LC_LayerDialogEx12setLayerNameE7QString
librecad:_ZN16LC_LayerDialogEx12setLayerTypeEi
librecad:_ZN16LC_LayerDialogEx13setParentPathE7QString
librecad:_ZN16LC_LayerDialogEx14languageChangeEv
librecad:_ZN16LC_LayerDialogEx16layerTypeChangedEv
librecad:_ZN16LC_LayerDialogEx16staticMetaObjectE
librecad:_ZN16LC_LayerDialogEx18getEditedLayerTypeEv
librecad:_ZN16LC_LayerDialogEx22allowChangingLayerTypeEb
librecad:_ZN16LC_LayerDialogEx23checkForDuplicatedNamesERK11QStringList
librecad:_ZN16LC_LayerDialogEx4initEv
librecad:_ZN16LC_LayerDialogEx6getPenEv
librecad:_ZN16LC_LayerDialogEx7setModeEi
librecad:_ZN16LC_LayerDialogEx8setLayerEP8RS_Layer
librecad:_ZN16LC_LayerDialogEx8validateEv
librecad:_ZN16LC_LayerDialogExC1EP7QWidget7QStringP17LC_LayerTreeModelP16LC_LayerTreeItemP12RS_LayerList
librecad:_ZN16LC_LayerDialogExC2EP7QWidget7QStringP17LC_LayerTreeModelP16LC_LayerTreeItemP12RS_LayerList
librecad:_ZN16LC_LayerTreeItem10invalidateEv
librecad:_ZN16LC_LayerTreeItem11appendChildEPS_
librecad:_ZN16LC_LayerTreeItem12setLayerTypeEi
librecad:_ZN16LC_LayerTreeItem12sortChildrenEv
librecad:_ZN16LC_LayerTreeItem13collectLayersER5QListIP8RS_LayerEP24LC_LayerTreeItemAcceptorb
librecad:_ZN16LC_LayerTreeItem14getPrimaryItemEv
librecad:_ZN16LC_LayerTreeItem14hasChildOfTypeEi
librecad:_ZN16LC_LayerTreeItem14isConstructionEv
librecad:_ZN16LC_LayerTreeItem14isDescendantOfEPS_
librecad:_ZN16LC_LayerTreeItem14setPrimaryItemEPS_
librecad:_ZN16LC_LayerTreeItem16createLayerChildER7QStringP8RS_Layer
librecad:_ZN16LC_LayerTreeItem16hasChildWithNameER7QStringi
librecad:_ZN16LC_LayerTreeItem16markAsActivePathEv
librecad:_ZN16LC_LayerTreeItem17findItemWithLayerEP8RS_Layer
librecad:_ZN16LC_LayerTreeItem17rebuildActivePathEP8RS_Layer
librecad:_ZN16LC_LayerTreeItem19collectPathToParentER5QListIPS_Eb
librecad:_ZN16LC_LayerTreeItem21findPrimaryLayerChildER7QString
librecad:_ZN16LC_LayerTreeItem23getOrCreateVirtualChildER7QString
librecad:_ZN16LC_LayerTreeItem25collectDescendantChildrenER5QListIPS_EP24LC_LayerTreeItemAcceptorb
librecad:_ZN16LC_LayerTreeItem47updateCalculatedFlagsForDescendentVirtualLayersEv
librecad:_ZN16LC_LayerTreeItem5childEi
librecad:_ZN16LC_LayerTreeItem6parentEv
librecad:_ZN16LC_LayerTreeItem7getNameEv
librecad:_ZN16LC_LayerTreeItem7isPrintEv
librecad:_ZN16LC_LayerTreeItem8getLayerEv
librecad:_ZN16LC_LayerTreeItem8isLockedEv
librecad:_ZN16LC_LayerTreeItem9isVisibleEv
librecad:_ZN16LC_LayerTreeItemC1EPS_
librecad:_ZN16LC_LayerTreeItemC1ER7QStringP8RS_LayerPS_
librecad:_ZN16LC_LayerTreeItemC2EPS_
librecad:_ZN16LC_LayerTreeItemC2ER7QStringP8RS_LayerPS_
librecad:_ZN16LC_LayerTreeItemD1Ev
librecad:_ZN16LC_LayerTreeItemD2Ev
librecad:_ZN16LC_LayerTreeView14dragEnterEventEP15QDragEnterEvent
librecad:_ZN16LC_LayerTreeView14dragLeaveEventEP15QDragLeaveEvent
librecad:_ZN16LC_LayerTreeView14expandChildrenERK11QModelIndex
librecad:_ZN16LC_LayerTreeView16applyExpandStateER11QStringList11QModelIndex
librecad:_ZN16LC_LayerTreeView22saveTreeExpansionStateEv
librecad:_ZN16LC_LayerTreeView25restoreTreeExpansionStateE11QStringList
librecad:_ZN16LC_LayerTreeView5setupEP17LC_LayerTreeModel
librecad:_ZN16LC_LayerTreeView9dropEventEP10QDropEvent
librecad:_ZN16LC_LayerTreeViewC1EP7QWidget
librecad:_ZN16LC_LayerTreeViewC2EP7QWidget
librecad:_ZN16LC_WidgetFactory11createMenusEP8QMenuBar
librecad:_ZN16LC_WidgetFactory11qt_metacallEN11QMetaObject4CallEiPPv
librecad:_ZN16LC_WidgetFactory11qt_metacastEPKc
librecad:_ZN16LC_WidgetFactory16staticMetaObjectE
librecad:_ZN16LC_WidgetFactory17createCADToolbarsEv
librecad:_ZN16LC_WidgetFactory17createLeftSidebarEii
librecad:_ZN16LC_WidgetFactory18createRightSidebarEP16QG_ActionHandler
librecad:_ZN16LC_WidgetFactory22createStandardToolbarsEP16QG_ActionHandler
librecad:_ZN16LC_WidgetFactory23createCategoriesToolbarEv
librecad:_ZN16LC_WidgetFactoryC1EP20QC_ApplicationWindowR4QMapI7QStringP7QActionEP21LC_ActionGroupManager
librecad:_ZN16LC_WidgetFactoryC2EP20QC_ApplicationWindowR4QMapI7QStringP7QActionEP21LC_ActionGroupManager
librecad:_ZN16QC_DialogFactory20closeEditBlockWindowEP8RS_Block
librecad:_ZN16QC_DialogFactory22requestEditBlockWindowEP12RS_BlockList
librecad:_ZN16QC_DialogFactoryC1EP7QWidgetP8QToolBar
librecad:_ZN16QC_DialogFactoryC2EP7QWidgetP8QToolBar
librecad:_ZN16QG_ActionHandler10slotDimArcEv
librecad:_ZN16QG_ActionHandler10slotZoomInEv
librecad:_ZN16QG_ActionHandler10toggleLockEP8RS_Layer
librecad:_ZN16QG_ActionHandler11qt_metacallEN11QMetaObject4CallEiPPv
librecad:_ZN16QG_ActionHandler11qt_metacastEPKc
librecad:_ZN16QG_ActionHandler11slotDrawArcEv
librecad:_ZN16QG_ActionHandler11slotEditCutEv
librecad:_ZN16QG_ActionHandler11slotPenCopyEv
librecad:_ZN16QG_ActionHandler11slotPenPickEv
librecad:_ZN16QG_ActionHandler11slotZoomOutEv
librecad:_ZN16QG_ActionHandler11slotZoomPanEv
librecad:_ZN16QG_ActionHandler11togglePrintEP8RS_Layer
librecad:_ZN16QG_ActionHandler12disableSnapsEv
librecad:_ZN16QG_ActionHandler12set_documentEP11RS_Document
librecad:_ZN16QG_ActionHandler12slotDrawLineEv
librecad:_ZN16QG_ActionHandler12slotDrawStarEv
librecad:_ZN16QG_ActionHandler12slotDrawTextEv
librecad:_ZN16QG_ActionHandler12slotEditCopyEv
librecad:_ZN16QG_ActionHandler12slotEditRedoEv
librecad:_ZN16QG_ActionHandler12slotEditUndoEv
librecad:_ZN16QG_ActionHandler12slotFileOpenEv
librecad:_ZN16QG_ActionHandler12slotInfoAreaEv
librecad:_ZN16QG_ActionHandler12slotInfoDistEv
librecad:_ZN16QG_ActionHandler12slotOrderTopEv
librecad:_ZN16QG_ActionHandler12slotPenApplyEv
librecad:_ZN16QG_ActionHandler12slotSetSnapsERK11RS_SnapMode
librecad:_ZN16QG_ActionHandler12slotSnapDistEv
librecad:_ZN16QG_ActionHandler12slotSnapFreeEv
librecad:_ZN16QG_ActionHandler12slotSnapGridEv
librecad:_ZN16QG_ActionHandler12slotZoomAutoEv
librecad:_ZN16QG_ActionHandler13slotBlocksAddEv
librecad:_ZN16QG_ActionHandler13slotDimLeaderEv
librecad:_ZN16QG_ActionHandler13slotDimLinearEv
librecad:_ZN16QG_ActionHandler13slotDimRadialEv
librecad:_ZN16QG_ActionHandler13slotDrawArc3PEv
librecad:_ZN16QG_ActionHandler13slotDrawHatchEv
librecad:_ZN16QG_ActionHandler13slotDrawImageEv
librecad:_ZN16QG_ActionHandler13slotDrawMTextEv
librecad:_ZN16QG_ActionHandler13slotDrawPointEv
librecad:_ZN16QG_ActionHandler13slotEditPasteEv
librecad:_ZN16QG_ActionHandler13slotInfoAngleEv
librecad:_ZN16QG_ActionHandler13slotInfoDist2Ev
librecad:_ZN16QG_ActionHandler13slotLayersAddEv
librecad:_ZN16QG_ActionHandler13slotModifyCutEv
librecad:_ZN16QG_ActionHandler13slotSelectAllEv
librecad:_ZN16QG_ActionHandler14killAllActionsEv
librecad:_ZN16QG_ActionHandler14slotBlocksEditEv
librecad:_ZN16QG_ActionHandler14slotBlocksSaveEv
librecad:_ZN16QG_ActionHandler14slotDimAlignedEv
librecad:_ZN16QG_ActionHandler14slotDimAngularEv
librecad:_ZN16QG_ActionHandler14slotDrawCircleEv
librecad:_ZN16QG_ActionHandler14slotDrawSplineEv
librecad:_ZN16QG_ActionHandler14slotFileSaveAsEv
librecad:_ZN16QG_ActionHandler14slotInfoInsideEv
librecad:_ZN16QG_ActionHandler14slotLayersEditEv
librecad:_ZN16QG_ActionHandler14slotModifyMoveEv
librecad:_ZN16QG_ActionHandler14slotModifyTrimEv
librecad:_ZN16QG_ActionHandler14slotOrderLowerEv
librecad:_ZN16QG_ActionHandler14slotOrderRaiseEv
librecad:_ZN16QG_ActionHandler14slotSnapCenterEv
librecad:_ZN16QG_ActionHandler14slotSnapMiddleEv
librecad:_ZN16QG_ActionHandler14slotZoomRedrawEv
librecad:_ZN16QG_ActionHandler14slotZoomWindowEv
librecad:_ZN16QG_ActionHandler15slotDeselectAllEv
librecad:_ZN16QG_ActionHandler15slotModifyBevelEv
librecad:_ZN16QG_ActionHandler15slotModifyRoundEv
librecad:_ZN16QG_ActionHandler15slotModifyScaleEv
librecad:_ZN16QG_ActionHandler15slotModifyTrim2Ev
librecad:_ZN16QG_ActionHandler15slotOrderBottomEv
librecad:_ZN16QG_ActionHandler15slotPolylineAddEv
librecad:_ZN16QG_ActionHandler15slotPolylineDelEv
librecad:_ZN16QG_ActionHandler15slotSelectLayerEv
librecad:_ZN16QG_ActionHandler16getCurrentActionEv
librecad:_ZN16QG_ActionHandler16setCurrentActionEN3RS210ActionTypeE
librecad:_ZN16QG_ActionHandler16set_snap_toolbarEP14QG_SnapToolBar
librecad:_ZN16QG_ActionHandler16slotBlocksCreateEv
librecad:_ZN16QG_ActionHandler16slotBlocksInsertEv
librecad:_ZN16QG_ActionHandler16slotBlocksRemoveEv
librecad:_ZN16QG_ActionHandler16slotDimDiametricEv
librecad:_ZN16QG_ActionHandler16slotDimLinearHorEv
librecad:_ZN16QG_ActionHandler16slotDimLinearVerEv
librecad:_ZN16QG_ActionHandler16slotDrawCircle2PEv
librecad:_ZN16QG_ActionHandler16slotDrawCircle3PEv
librecad:_ZN16QG_ActionHandler16slotDrawCircleCREv
librecad:_ZN16QG_ActionHandler16slotDrawLineFreeEv
librecad:_ZN16QG_ActionHandler16slotDrawPolylineEv
librecad:_ZN16QG_ActionHandler16slotLayersRemoveEv
librecad:_ZN16QG_ActionHandler16slotModifyDeleteEv
librecad:_ZN16QG_ActionHandler16slotModifyEntityEv
librecad:_ZN16QG_ActionHandler16slotModifyMirrorEv
librecad:_ZN16QG_ActionHandler16slotModifyOffsetEv
librecad:_ZN16QG_ActionHandler16slotModifyRotateEv
librecad:_ZN16QG_ActionHandler16slotPolylineTrimEv
librecad:_ZN16QG_ActionHandler16slotSelectInvertEv
librecad:_ZN16QG_ActionHandler16slotSelectSingleEv
librecad:_ZN16QG_ActionHandler16slotSelectWindowEv
librecad:_ZN16QG_ActionHandler16slotSnapEndpointEv
librecad:_ZN16QG_ActionHandler16slotSnapOnEntityEv
librecad:_ZN16QG_ActionHandler16slotZoomPreviousEv
librecad:_ZN16QG_ActionHandler16staticMetaObjectE
librecad:_ZN16QG_ActionHandler16toggleVisibilityEP8RS_Layer
librecad:_ZN16QG_ActionHandler17killSelectActionsEv
librecad:_ZN16QG_ActionHandler17slotBlocksExplodeEv
librecad:_ZN16QG_ActionHandler17slotDrawCircle2PREv
librecad:_ZN16QG_ActionHandler17slotDrawLineAngleEv
librecad:_ZN16QG_ActionHandler17slotDrawLineSnakeEv
librecad:_ZN16QG_ActionHandler17slotLayersLockAllEv
librecad:_ZN16QG_ActionHandler17slotModifyLineGapEv
librecad:_ZN16QG_ActionHandler17slotModifyRotate2Ev
librecad:_ZN16QG_ActionHandler17slotModifyStretchEv
librecad:_ZN16QG_ActionHandler17slotRedockWidgetsEv
librecad:_ZN16QG_ActionHandler17slotSelectContourEv
librecad:_ZN16QG_ActionHandler18commandLineActionsEN3RS210ActionTypeE
librecad:_ZN16QG_ActionHandler18getSnapRestrictionEv
librecad:_ZN16QG_ActionHandler18slotDeselectWindowEv
librecad:_ZN16QG_ActionHandler18slotDrawCircleTan2Ev
librecad:_ZN16QG_ActionHandler18slotDrawCircleTan3Ev
librecad:_ZN16QG_ActionHandler18slotDrawLinePointsEv
librecad:_ZN16QG_ActionHandler18slotDrawLineSnakeXEv
librecad:_ZN16QG_ActionHandler18slotDrawLineSnakeYEv
librecad:_ZN16QG_ActionHandler18slotDrawParabolaFDEv
librecad:_ZN16QG_ActionHandler18slotModifyLineJoinEv
librecad:_ZN16QG_ActionHandler18slotOptionsDrawingEv
librecad:_ZN16QG_ActionHandler18slotPolylineAppendEv
librecad:_ZN16QG_ActionHandler18toggleConstructionEP8RS_Layer
librecad:_ZN16QG_ActionHandler19disableRestrictionsEv
librecad:_ZN16QG_ActionHandler19slotBlocksFreezeAllEv
librecad:_ZN16QG_ActionHandler19slotDrawArcParallelEv
librecad:_ZN16QG_ActionHandler19slotDrawCircleByArcEv
librecad:_ZN16QG_ActionHandler19slotDrawCircleCrossEv
librecad:_ZN16QG_ActionHandler19slotDrawEllipseAxisEv
librecad:_ZN16QG_ActionHandler19slotDrawLineHorVertEv
librecad:_ZN16QG_ActionHandler19slotDrawLineOrthTanEv
librecad:_ZN16QG_ActionHandler19slotDrawLinePolygonEv
librecad:_ZN16QG_ActionHandler19slotFileNewTemplateEv
librecad:_ZN16QG_ActionHandler19slotInfoTotalLengthEv
librecad:_ZN16QG_ActionHandler19slotLayersFreezeAllEv
librecad:_ZN16QG_ActionHandler19slotLayersUnlockAllEv
librecad:_ZN16QG_ActionHandler19slotModifyDuplicateEv
librecad:_ZN16QG_ActionHandler19slotPenPickResolvedEv
librecad:_ZN16QG_ActionHandler19slotPolylineSegmentEv
librecad:_ZN16QG_ActionHandler19slotRestrictNothingEv
librecad:_ZN16QG_ActionHandler19slotSetRelativeZeroEv
librecad:_ZN16QG_ActionHandler20getAvailableCommandsEv
librecad:_ZN16QG_ActionHandler20slotBlocksAttributesEv
librecad:_ZN16QG_ActionHandler20slotBlocksToggleViewEv
librecad:_ZN16QG_ActionHandler20slotDrawLineAngleRelEv
librecad:_ZN16QG_ActionHandler20slotDrawLineBisectorEv
librecad:_ZN16QG_ActionHandler20slotDrawLineParallelEv
librecad:_ZN16QG_ActionHandler20slotDrawLinePolygon2Ev
librecad:_ZN16QG_ActionHandler20slotDrawLinePolygon3Ev
librecad:_ZN16QG_ActionHandler20slotDrawLineRelAngleEv
librecad:_ZN16QG_ActionHandler20slotDrawLineTangent1Ev
librecad:_ZN16QG_ActionHandler20slotDrawLineTangent2Ev
librecad:_ZN16QG_ActionHandler20slotDrawLineVerticalEv
librecad:_ZN16QG_ActionHandler20slotDrawSplinePointsEv
librecad:_ZN16QG_ActionHandler20slotLayersToggleLockEv
librecad:_ZN16QG_ActionHandler20slotLayersToggleViewEv
librecad:_ZN16QG_ActionHandler20slotLockRelativeZeroEb
librecad:_ZN16QG_ActionHandler20slotModifyAttributesEv
librecad:_ZN16QG_ActionHandler20slotModifyDeleteFreeEv
librecad:_ZN16QG_ActionHandler20slotModifyMoveRotateEv
librecad:_ZN16QG_ActionHandler20slotModifyTrimAmountEv
librecad:_ZN16QG_ActionHandler20slotPenSyncFromLayerEv
librecad:_ZN16QG_ActionHandler20slotRestrictVerticalEv
librecad:_ZN16QG_ActionHandler20slotSnapIntersectionEv
librecad:_ZN16QG_ActionHandler20slotSnapMiddleManualEv
librecad:_ZN16QG_ActionHandler21slotBlocksDefreezeAllEv
librecad:_ZN16QG_ActionHandler21slotDrawArcTangentialEv
librecad:_ZN16QG_ActionHandler21slotDrawCircleTan1_2PEv
librecad:_ZN16QG_ActionHandler21slotDrawCircleTan2_1PEv
librecad:_ZN16QG_ActionHandler21slotDrawLineRectangleEv
librecad:_ZN16QG_ActionHandler21slotLayersDefreezeAllEv
librecad:_ZN16QG_ActionHandler21slotLayersTogglePrintEv
librecad:_ZN16QG_ActionHandler21slotModifyBreakDivideEv
librecad:_ZN16QG_ActionHandler21slotModifyDeleteQuickEv
librecad:_ZN16QG_ActionHandler21slotModifyExplodeTextEv
librecad:_ZN16QG_ActionHandler21slotSelectIntersectedEv
librecad:_ZN16QG_ActionHandler22slotDrawCircleInscribeEv
librecad:_ZN16QG_ActionHandler22slotDrawCircleParallelEv
librecad:_ZN16QG_ActionHandler22slotDrawEllipse4PointsEv
librecad:_ZN16QG_ActionHandler22slotDrawEllipseArcAxisEv
librecad:_ZN16QG_ActionHandler22slotDrawLineHorizontalEv
librecad:_ZN16QG_ActionHandler22slotDrawLineOrthogonalEv
librecad:_ZN16QG_ActionHandler22slotEditKillAllActionsEv
librecad:_ZN16QG_ActionHandler22slotFileExportMakerCamEv
librecad:_ZN16QG_ActionHandler22slotPolylineDelBetweenEv
librecad:_ZN16QG_ActionHandler22slotRestrictHorizontalEv
librecad:_ZN16QG_ActionHandler22slotRestrictOrthogonalEv
librecad:_ZN16QG_ActionHandler23slotDeselectIntersectedEv
librecad:_ZN16QG_ActionHandler23slotDrawEllipseInscribeEv
librecad:_ZN16QG_ActionHandler23slotDrawParabola4PointsEv
librecad:_ZN16QG_ActionHandler23slotDrawSliceDivideLineEv
librecad:_ZN16QG_ActionHandler23slotLayersExportVisibleEv
librecad:_ZN16QG_ActionHandler23slotPolylineEquidistantEv
librecad:_ZN16QG_ActionHandler24slotDrawEllipseFociPointEv
librecad:_ZN16QG_ActionHandler24slotDrawLineOrthogonalToEv
librecad:_ZN16QG_ActionHandler24slotDrawLineRectangleRelEv
librecad:_ZN16QG_ActionHandler24slotLayersExportSelectedEv
librecad:_ZN16QG_ActionHandler25slotDrawLineOrthogonalRelEv
librecad:_ZN16QG_ActionHandler25slotDrawSliceDivideCircleEv
librecad:_ZN16QG_ActionHandler25slotModifyRevertDirectionEv
librecad:_ZN16QG_ActionHandler26slotSnapIntersectionManualEv
librecad:_ZN16QG_ActionHandler27slotDrawLineParallelThroughEv
librecad:_ZN16QG_ActionHandler27slotDrawLineRectangle1PointEv
librecad:_ZN16QG_ActionHandler28slotDrawEllipseCenter3PointsEv
librecad:_ZN16QG_ActionHandler28slotDrawLineRectangle2PointsEv
librecad:_ZN16QG_ActionHandler28slotLayersToggleConstructionEv
librecad:_ZN16QG_ActionHandler28slotToolRegenerateDimensionsEv
librecad:_ZN16QG_ActionHandler7commandERK7QString
librecad:_ZN16QG_ActionHandler7keycodeERK7QString
librecad:_ZN16QG_ActionHandler8getSnapsEv
librecad:_ZN16QG_ActionHandler8set_viewEP14RS_GraphicView
librecad:_ZN16QG_ActionHandlerC1EP7QObject
librecad:_ZN16QG_ActionHandlerC2EP7QObject
librecad:_ZN16QG_CircleOptions11qt_metacallEN11QMetaObject4CallEiPPv
librecad:_ZN16QG_CircleOptions11qt_metacastEPKc
librecad:_ZN16QG_CircleOptions12saveSettingsEv
librecad:_ZN16QG_CircleOptions12updateRadiusERK7QString
librecad:_ZN16QG_CircleOptions14languageChangeEv
librecad:_ZN16QG_CircleOptions16staticMetaObjectE
librecad:_ZN16QG_CircleOptions9setActionEP18RS_ActionInterfaceb
librecad:_ZN16QG_CircleOptionsC1EP7QWidget6QFlagsIN2Qt10WindowTypeEE
librecad:_ZN16QG_CircleOptionsC2EP7QWidget6QFlagsIN2Qt10WindowTypeEE
librecad:_ZN16QG_CircleOptionsD0Ev
librecad:_ZN16QG_CircleOptionsD1Ev
librecad:_ZN16QG_CircleOptionsD2Ev
librecad:_ZN16QG_CommandWidget10setCommandERK7QString
librecad:_ZN16QG_CommandWidget10tabPressedEv
librecad:_ZN16QG_CommandWidget11eventFilterEP7QObjectP6QEvent
librecad:_ZN16QG_CommandWidget11qt_metacallEN11QMetaObject4CallEiPPv
librecad:_ZN16QG_CommandWidget11qt_metacastEPKc
librecad:_ZN16QG_CommandWidget12spacePressedEv
librecad:_ZN16QG_CommandWidget13appendHistoryERK7QString
librecad:_ZN16QG_CommandWidget13handleCommandE7QString
librecad:_ZN16QG_CommandWidget13handleKeycodeE7QString
librecad:_ZN16QG_CommandWidget13setNormalModeEv
librecad:_ZN16QG_CommandWidget14getRootCommandERK11QStringListRK7QString
librecad:_ZN16QG_CommandWidget14languageChangeEv
librecad:_ZN16QG_CommandWidget14setCommandModeEv
librecad:_ZN16QG_CommandWidget14setKeycodeModeEb
librecad:_ZN16QG_CommandWidget16setActionHandlerEP16QG_ActionHandler
librecad:_ZN16QG_CommandWidget16staticMetaObjectE
librecad:_ZN16QG_CommandWidget17chooseCommandFileEv
librecad:_ZN16QG_CommandWidget22dockingButtonTriggeredEb
librecad:_ZN16QG_CommandWidget6escapeEv
librecad:_ZN16QG_CommandWidget8setFocusEv
librecad:_ZN16QG_CommandWidgetC1EP7QWidgetPKc6QFlagsIN2Qt10WindowTypeEE
librecad:_ZN16QG_CommandWidgetC2EP7QWidgetPKc6QFlagsIN2Qt10WindowTypeEE
librecad:_ZN16QG_CommandWidgetD0Ev
librecad:_ZN16QG_CommandWidgetD1Ev
librecad:_ZN16QG_CommandWidgetD2Ev
librecad:_ZN16QG_DialogFactory11extToFormatERK7QString
librecad:_ZN16QG_DialogFactory14commandMessageERK7QString
librecad:_ZN16QG_DialogFactory14requestOptionsEP18RS_ActionInterfacebb
librecad:_ZN16QG_DialogFactory15setOptionWidgetEP8QToolBar
librecad:_ZN16QG_DialogFactory16addOptionsWidgetEP7QWidget
librecad:_ZN16QG_DialogFactory16displayBlockNameERK7QStringRKb
librecad:_ZN16QG_DialogFactory17requestArcOptionsEP18RS_ActionInterfacebb
librecad:_ZN16QG_DialogFactory17requestMoveDialogER11RS_MoveData
librecad:_ZN16QG_DialogFactory17requestTextDialogEP7RS_Text
librecad:_ZN16QG_DialogFactory17updateMouseWidgetERK7QStringS2_
librecad:_ZN16QG_DialogFactory18requestHatchDialogEP8RS_Hatch
librecad:_ZN16QG_DialogFactory18requestLineOptionsEP18RS_ActionInterfaceb
librecad:_ZN16QG_DialogFactory18requestMTextDialogEP8RS_MText
librecad:_ZN16QG_DialogFactory18requestScaleDialogER12RS_ScaleData
librecad:_ZN16QG_DialogFactory18requestTextOptionsEP18RS_ActionInterfacebb
librecad:_ZN16QG_DialogFactory19requestBevelOptionsEP18RS_ActionInterfacebb
librecad:_ZN16QG_DialogFactory19requestImageOptionsEP18RS_ActionInterfacebb
librecad:_ZN16QG_DialogFactory19requestMTextOptionsEP18RS_ActionInterfacebb
librecad:_ZN16QG_DialogFactory19requestMirrorDialogER13RS_MirrorData
librecad:_ZN16QG_DialogFactory19requestRotateDialogER13RS_RotateData
librecad:_ZN16QG_DialogFactory19requestRoundOptionsEP18RS_ActionInterfacebb
librecad:_ZN16QG_DialogFactory20requestCircleOptionsEP18RS_ActionInterfacebb
librecad:_ZN16QG_DialogFactory20requestInsertOptionsEP18RS_ActionInterfacebb
librecad:_ZN16QG_DialogFactory20requestRotate2DialogER14RS_Rotate2Data
librecad:_ZN16QG_DialogFactory20requestSplineOptionsEP18RS_ActionInterfacebb
librecad:_ZN16QG_DialogFactory20requestWarningDialogERK7QString
librecad:_ZN16QG_DialogFactory21requestNewBlockDialogEP12RS_BlockList
librecad:_ZN16QG_DialogFactory21requestNewLayerDialogEP12RS_LayerList
librecad:_ZN16QG_DialogFactory21updateSelectionWidgetEid
librecad:_ZN16QG_DialogFactory22requestEditLayerDialogEP12RS_LayerList
librecad:_ZN16QG_DialogFactory22requestImageOpenDialogEv
librecad:_ZN16QG_DialogFactory22requestPolylineOptionsEP18RS_ActionInterfacebb
librecad:_ZN16QG_DialogFactory22requestSnapDistOptionsERdb
librecad:_ZN16QG_DialogFactory22updateCoordinateWidgetERK9RS_VectorS2_b
librecad:_ZN16QG_DialogFactory23requestAttributesDialogER17RS_AttributesDataR12RS_LayerList
librecad:_ZN16QG_DialogFactory23requestDimLinearOptionsEP18RS_ActionInterfacebb
librecad:_ZN16QG_DialogFactory23requestDimensionOptionsEP18RS_ActionInterfacebb
librecad:_ZN16QG_DialogFactory23requestFileSaveAsDialogERK7QStringS2_S2_PS0_
librecad:_ZN16QG_DialogFactory23requestLineAngleOptionsEP18RS_ActionInterfacebb
librecad:_ZN16QG_DialogFactory23requestMoveRotateDialogER17RS_MoveRotateData
librecad:_ZN16QG_DialogFactory24requestCircleTan2OptionsEP18RS_ActionInterfacebb
librecad:_ZN16QG_DialogFactory24requestMoveRotateOptionsEP18RS_ActionInterfacebb
librecad:_ZN16QG_DialogFactory24requestSnapMiddleOptionsERib
librecad:_ZN16QG_DialogFactory24requestTrimAmountOptionsEP18RS_ActionInterfacebb
librecad:_ZN16QG_DialogFactory25requestBlockRemovalDialogEP12RS_BlockList
librecad:_ZN16QG_DialogFactory25requestLayerRemovalDialogEP12RS_LayerList
librecad:_ZN16QG_DialogFactory25requestLinePolygonOptionsEP18RS_ActionInterfacebb
librecad:_ZN16QG_DialogFactory25requestModifyEntityDialogEP9RS_Entity
librecad:_ZN16QG_DialogFactory26requestLineBisectorOptionsEP18RS_ActionInterfacebb
librecad:_ZN16QG_DialogFactory26requestLineParallelOptionsEP18RS_ActionInterfacebb
librecad:_ZN16QG_DialogFactory26requestLinePolygon2OptionsEP18RS_ActionInterfacebb
librecad:_ZN16QG_DialogFactory26requestLineRelAngleOptionsEP18RS_ActionInterfacebb
librecad:_ZN16QG_DialogFactory26requestModifyOffsetOptionsERdb
librecad:_ZN16QG_DialogFactory26requestPrintPreviewOptionsEP18RS_ActionInterfacebb
librecad:_ZN16QG_DialogFactory26updateArcTangentialOptionsEdb
librecad:_ZN16QG_DialogFactory27requestArcTangentialOptionsEP18RS_ActionInterfacebb
librecad:_ZN16QG_DialogFactory27requestLibraryInsertOptionsEP18RS_ActionInterfacebb
librecad:_ZN16QG_DialogFactory27requestOptionsDrawingDialogER10RS_Graphic
librecad:_ZN16QG_DialogFactory27requestOptionsGeneralDialogEv
librecad:_ZN16QG_DialogFactory28requestBlockAttributesDialogEP12RS_BlockList
librecad:_ZN16QG_DialogFactory28requestOptionsMakerCamDialogEv
librecad:_ZN16QG_DialogFactory33requestLineParallelThroughOptionsEP18RS_ActionInterfacebb
librecad:_ZN16QG_DialogFactory33requestPolylineEquidistantOptionsEP18RS_ActionInterfacebb
librecad:_ZN16QG_DialogFactory34requestSelectedBlocksRemovalDialogEP12RS_BlockList
librecad:_ZN16QG_DialogFactory34requestSelectedLayersRemovalDialogEP12RS_LayerList
librecad:_ZN16QG_DialogFactoryC1EP7QWidgetP8QToolBar
librecad:_ZN16QG_DialogFactoryC2EP7QWidgetP8QToolBar
librecad:_ZN16QG_DialogFactoryD0Ev
librecad:_ZN16QG_DialogFactoryD1Ev
librecad:_ZN16QG_DialogFactoryD2Ev
librecad:_ZN16QG_DlgAttributes10updateDataEv
librecad:_ZN16QG_DlgAttributes11qt_metacallEN11QMetaObject4CallEiPPv
librecad:_ZN16QG_DlgAttributes11qt_metacastEPKc
librecad:_ZN16QG_DlgAttributes14languageChangeEv
librecad:_ZN16QG_DlgAttributes16staticMetaObjectE
librecad:_ZN16QG_DlgAttributes7setDataEP17RS_AttributesDataR12RS_LayerList
librecad:_ZN16QG_DlgAttributesC1EP7QWidgetb6QFlagsIN2Qt10WindowTypeEE
librecad:_ZN16QG_DlgAttributesC2EP7QWidgetb6QFlagsIN2Qt10WindowTypeEE
librecad:_ZN16QG_DlgAttributesD0Ev
librecad:_ZN16QG_DlgAttributesD1Ev
librecad:_ZN16QG_DlgAttributesD2Ev
librecad:_ZN16QG_DlgMoveRotate10updateDataEv
librecad:_ZN16QG_DlgMoveRotate11qt_metacallEN11QMetaObject4CallEiPPv
librecad:_ZN16QG_DlgMoveRotate11qt_metacastEPKc
librecad:_ZN16QG_DlgMoveRotate14languageChangeEv
librecad:_ZN16QG_DlgMoveRotate16staticMetaObjectE
librecad:_ZN16QG_DlgMoveRotate4initEv
librecad:_ZN16QG_DlgMoveRotate7destroyEv
librecad:_ZN16QG_DlgMoveRotate7setDataEP17RS_MoveRotateData
librecad:_ZN16QG_DlgMoveRotateC1EP7QWidgetb6QFlagsIN2Qt10WindowTypeEE
librecad:_ZN16QG_DlgMoveRotateC2EP7QWidgetb6QFlagsIN2Qt10WindowTypeEE
librecad:_ZN16QG_DlgMoveRotateD0Ev
librecad:_ZN16QG_DlgMoveRotateD1Ev
librecad:_ZN16QG_DlgMoveRotateD2Ev
librecad:_ZN16QG_InsertOptions10updateDataEv
librecad:_ZN16QG_InsertOptions11qt_metacallEN11QMetaObject4CallEiPPv
librecad:_ZN16QG_InsertOptions11qt_metacastEPKc
librecad:_ZN16QG_InsertOptions12saveSettingsEv
librecad:_ZN16QG_InsertOptions14languageChangeEv
librecad:_ZN16QG_InsertOptions16staticMetaObjectE
librecad:_ZN16QG_InsertOptions9setActionEP18RS_ActionInterfaceb
librecad:_ZN16QG_InsertOptionsC1EP7QWidget6QFlagsIN2Qt10WindowTypeEE
librecad:_ZN16QG_InsertOptionsC2EP7QWidget6QFlagsIN2Qt10WindowTypeEE
librecad:_ZN16QG_InsertOptionsD0Ev
librecad:_ZN16QG_InsertOptionsD1Ev
librecad:_ZN16QG_InsertOptionsD2Ev
librecad:_ZN16QG_LibraryWidget10appendTreeEP13QStandardItem7QString
librecad:_ZN16QG_LibraryWidget10expandViewE11QModelIndex
librecad:_ZN16QG_LibraryWidget10getItemDirEP13QStandardItem
librecad:_ZN16QG_LibraryWidget11getItemPathEP13QStandardItem
librecad:_ZN16QG_LibraryWidget11qt_metacallEN11QMetaObject4CallEiPPv
librecad:_ZN16QG_LibraryWidget11qt_metacastEPKc
librecad:_ZN16QG_LibraryWidget12collapseViewE11QModelIndex
librecad:_ZN16QG_LibraryWidget13keyPressEventEP9QKeyEvent
librecad:_ZN16QG_LibraryWidget13updatePreviewE11QModelIndex
librecad:_ZN16QG_LibraryWidget15getPathToPixmapERK7QStringS2_S2_
librecad:_ZN16QG_LibraryWidget16setActionHandlerEP16QG_ActionHandler
librecad:_ZN16QG_LibraryWidget16staticMetaObjectE
librecad:_ZN16QG_LibraryWidget6escapeEv
librecad:_ZN16QG_LibraryWidget6insertEv
librecad:_ZN16QG_LibraryWidget7getIconERK7QStringS2_S2_
librecad:_ZN16QG_LibraryWidget7refreshEv
librecad:_ZN16QG_LibraryWidget8scanTreeEv
librecad:_ZN16QG_LibraryWidget9buildTreeEv
librecad:_ZN16QG_LibraryWidgetC1EP7QWidgetPKc6QFlagsIN2Qt10WindowTypeEE
librecad:_ZN16QG_LibraryWidgetC2EP7QWidgetPKc6QFlagsIN2Qt10WindowTypeEE
librecad:_ZN16QG_LibraryWidgetD0Ev
librecad:_ZN16QG_LibraryWidgetD1Ev
librecad:_ZN16QG_LibraryWidgetD2Ev
librecad:_ZN16QG_SplineOptions11qt_metacallEN11QMetaObject4CallEiPPv
librecad:_ZN16QG_SplineOptions11qt_metacastEPKc
librecad:_ZN16QG_SplineOptions12saveSettingsEv
librecad:_ZN16QG_SplineOptions14languageChangeEv
librecad:_ZN16QG_SplineOptions16staticMetaObjectE
librecad:_ZN16QG_SplineOptions4undoEv
librecad:_ZN16QG_SplineOptions9setActionEP18RS_ActionInterfaceb
librecad:_ZN16QG_SplineOptions9setClosedEb
librecad:_ZN16QG_SplineOptions9setDegreeERK7QString
librecad:_ZN16QG_SplineOptionsC1EP7QWidget6QFlagsIN2Qt10WindowTypeEE
librecad:_ZN16QG_SplineOptionsC2EP7QWidget6QFlagsIN2Qt10WindowTypeEE
librecad:_ZN16QG_SplineOptionsD0Ev
librecad:_ZN16QG_SplineOptionsD1Ev
librecad:_ZN16QG_SplineOptionsD2Ev
librecad:_ZN16RS_ActionDefault11qt_metacallEN11QMetaObject4CallEiPPv
librecad:_ZN16RS_ActionDefault11qt_metacastEPKc
librecad:_ZN16RS_ActionDefault12commandEventEP15RS_CommandEvent
librecad:_ZN16RS_ActionDefault13keyPressEventEP9QKeyEvent
librecad:_ZN16RS_ActionDefault14mouseMoveEventEP11QMouseEvent
librecad:_ZN16RS_ActionDefault15getTypeToSelectEv
librecad:_ZN16RS_ActionDefault15highlightEntityEP9RS_Entity
librecad:_ZN16RS_ActionDefault15keyReleaseEventEP9QKeyEvent
librecad:_ZN16RS_ActionDefault15mousePressEventEP11QMouseEvent
librecad:_ZN16RS_ActionDefault16staticMetaObjectE
librecad:_ZN16RS_ActionDefault17clearHighLightingEv
librecad:_ZN16RS_ActionDefault17mouseReleaseEventEP11QMouseEvent
librecad:_ZN16RS_ActionDefault17updateMouseCursorEv
librecad:_ZN16RS_ActionDefault20getAvailableCommandsEv
librecad:_ZN16RS_ActionDefault22updateMouseButtonHintsEv
librecad:_ZN16RS_ActionDefault24highlightHoveredEntitiesEP11QMouseEvent
librecad:_ZN16RS_ActionDefault4initEi
librecad:_ZN16RS_ActionDefault6resumeEv
librecad:_ZN16RS_ActionDefault7suspendEv
librecad:_ZN16RS_ActionDefaultC1ER18RS_EntityContainerR14RS_GraphicView
librecad:_ZN16RS_ActionDefaultC2ER18RS_EntityContainerR14RS_GraphicView
librecad:_ZN16RS_ActionDefaultD0Ev
librecad:_ZN16RS_ActionDefaultD1Ev
librecad:_ZN16RS_ActionDefaultD2Ev
librecad:_ZN16RS_ActionDrawArc11hideOptionsEv
librecad:_ZN16RS_ActionDrawArc11qt_metacallEN11QMetaObject4CallEiPPv
librecad:_ZN16RS_ActionDrawArc11qt_metacastEPKc
librecad:_ZN16RS_ActionDrawArc11showOptionsEv
librecad:_ZN16RS_ActionDrawArc12commandEventEP15RS_CommandEvent
librecad:_ZN16RS_ActionDrawArc14mouseMoveEventEP11QMouseEvent
librecad:_ZN16RS_ActionDrawArc15coordinateEventEP18RS_CoordinateEvent
librecad:_ZN16RS_ActionDrawArc16staticMetaObjectE
librecad:_ZN16RS_ActionDrawArc17mouseReleaseEventEP11QMouseEvent
librecad:_ZN16RS_ActionDrawArc17updateMouseCursorEv
librecad:_ZN16RS_ActionDrawArc20getAvailableCommandsEv
librecad:_ZN16RS_ActionDrawArc22updateMouseButtonHintsEv
librecad:_ZN16RS_ActionDrawArc4initEi
librecad:_ZN16RS_ActionDrawArc5resetEv
librecad:_ZN16RS_ActionDrawArc7triggerEv
librecad:_ZN16RS_ActionDrawArcC1ER18RS_EntityContainerR14RS_GraphicView
librecad:_ZN16RS_ActionDrawArcC2ER18RS_EntityContainerR14RS_GraphicView
librecad:_ZN16RS_ActionDrawArcD0Ev
librecad:_ZN16RS_ActionDrawArcD1Ev
librecad:_ZN16RS_ActionDrawArcD2Ev
librecad:_ZN16RS_ActionFileNew11qt_metacallEN11QMetaObject4CallEiPPv
librecad:_ZN16RS_ActionFileNew11qt_metacastEPKc
librecad:_ZN16RS_ActionFileNew16staticMetaObjectE
librecad:_ZN16RS_ActionFileNew4initEi
librecad:_ZN16RS_ActionFileNew7triggerEv
librecad:_ZN16RS_ActionFileNewC1ER18RS_EntityContainerR14RS_GraphicView
librecad:_ZN16RS_ActionFileNewC2ER18RS_EntityContainerR14RS_GraphicView
librecad:_ZN16RS_ActionZoomPan11qt_metacallEN11QMetaObject4CallEiPPv
librecad:_ZN16RS_ActionZoomPan11qt_metacastEPKc
librecad:_ZN16RS_ActionZoomPan14mouseMoveEventEP11QMouseEvent
librecad:_ZN16RS_ActionZoomPan15mousePressEventEP11QMouseEvent
librecad:_ZN16RS_ActionZoomPan16staticMetaObjectE
librecad:_ZN16RS_ActionZoomPan17mouseReleaseEventEP11QMouseEvent
librecad:_ZN16RS_ActionZoomPan17updateMouseCursorEv
librecad:_ZN16RS_ActionZoomPan22updateMouseButtonHintsEv
librecad:_ZN16RS_ActionZoomPan4initEi
librecad:_ZN16RS_ActionZoomPan6finishEb
librecad:_ZN16RS_ActionZoomPan7triggerEv
librecad:_ZN16RS_ActionZoomPanC1ER18RS_EntityContainerR14RS_GraphicView
librecad:_ZN16RS_ActionZoomPanC2ER18RS_EntityContainerR14RS_GraphicView
librecad:_ZN16RS_DialogFactory14commandMessageERK7QString
librecad:_ZN16RS_DialogFactory16getFactoryObjectEv
librecad:_ZN16RS_DialogFactory16setFactoryObjectEP25RS_DialogFactoryInterface
librecad:_ZN16RS_DialogFactory8instanceEv
librecad:_ZN16RS_DialogFactoryC1Ev
librecad:_ZN16RS_DialogFactoryC2Ev
librecad:_ZN16RS_DimLinearDataC1ERK9RS_VectorS2_dd
librecad:_ZN16RS_DimLinearDataC1Ev
librecad:_ZN16RS_DimLinearDataC2ERK9RS_VectorS2_dd
librecad:_ZN16RS_DimLinearDataC2Ev
librecad:_ZN16RS_DimRadialDataC1ERK9RS_Vectord
librecad:_ZN16RS_DimRadialDataC1Ev
librecad:_ZN16RS_DimRadialDataC2ERK9RS_Vectord
librecad:_ZN16RS_DimRadialDataC2Ev
librecad:_ZN16RS_DimensionDataC1ERK9RS_VectorS2_N12RS_MTextData6VAlignENS3_6HAlignENS3_21MTextLineSpacingStyleEd7QStringS7_d
librecad:_ZN16RS_DimensionDataC1Ev
librecad:_ZN16RS_DimensionDataC2ERK9RS_VectorS2_N12RS_MTextData6VAlignENS3_6HAlignENS3_21MTextLineSpacingStyleEd7QStringS7_d
librecad:_ZN16RS_DimensionDataC2Ev
librecad:_ZN16TwoStackedLabels11qt_metacallEN11QMetaObject4CallEiPPv
librecad:_ZN16TwoStackedLabels11qt_metacastEPKc
librecad:_ZN16TwoStackedLabels11setTopLabelERK7QString
librecad:_ZN16TwoStackedLabels14setBottomLabelERK7QString
librecad:_ZN16TwoStackedLabels16staticMetaObjectE
librecad:_ZN16TwoStackedLabelsC1EP7QWidget
librecad:_ZN16TwoStackedLabelsC2EP7QWidget
librecad:_ZN17DRW_ConvDBCSTable6toUtf8ERKNSt7__cxx1112basic_stringIcSt11char_traitsIcESaIcEEE
librecad:_ZN17DRW_ConvDBCSTable8fromUtf8ERKNSt7__cxx1112basic_stringIcSt11char_traitsIcESaIcEEE
librecad:_ZN17LC_ActionDrawStar11qt_metacallEN11QMetaObject4CallEiPPv
librecad:_ZN17LC_ActionDrawStar11qt_metacastEPKc
librecad:_ZN17LC_ActionDrawStar11setPolylineEb
librecad:_ZN17LC_ActionDrawStar12setSymmetricEb
librecad:_ZN17LC_ActionDrawStar13setRaysNumberEi
librecad:_ZN17LC_ActionDrawStar14setRadiusInnerEd
librecad:_ZN17LC_ActionDrawStar14setRadiusOuterEd
librecad:_ZN17LC_ActionDrawStar15setInnerRoundedEb
librecad:_ZN17LC_ActionDrawStar15setOuterRoundedEb
librecad:_ZN17LC_ActionDrawStar16doProcessCommandEP15RS_CommandEventRK7QString
librecad:_ZN17LC_ActionDrawStar16staticMetaObjectE
librecad:_ZN17LC_ActionDrawStar17doCheckMayTriggerEv
librecad:_ZN17LC_ActionDrawStar17onCoordinateEventERK9RS_Vectorbi
librecad:_ZN17LC_ActionDrawStar19createOptionsWidgetEv
librecad:_ZN17LC_ActionDrawStar19createShapePolylineER9RS_VectorR5QListIP9RS_EntityEib
librecad:_ZN17LC_ActionDrawStar20getAvailableCommandsEv
librecad:_ZN17LC_ActionDrawStar21doCheckMayDrawPreviewEP11QMouseEventi
librecad:_ZN17LC_ActionDrawStar22updateMouseButtonHintsEv
librecad:_ZN17LC_ActionDrawStar24doPreparePreviewEntitiesEP11QMouseEventR9RS_VectorR5QListIP9RS_EntityEi
librecad:_ZN17LC_ActionDrawStar24doPrepareTriggerEntitiesER5QListIP9RS_EntityE
librecad:_ZN17LC_ActionDrawStar25addPolylineToEntitiesListEP11RS_PolylineR5QListIP9RS_EntityEb
librecad:_ZN17LC_ActionDrawStar26doOnLeftMouseButtonReleaseEP11QMouseEventiRK9RS_Vector
librecad:_ZN17LC_ActionDrawStar27doInitialSnapToRelativeZeroE9RS_Vector
librecad:_ZN17LC_ActionDrawStar39doGetStatusForInitialSnapToRelativeZeroEv
librecad:_ZN17LC_ActionDrawStar6doBackEP11QMouseEventi
librecad:_ZN17LC_ActionDrawStarC1ER18RS_EntityContainerR14RS_GraphicView
librecad:_ZN17LC_ActionDrawStarC2ER18RS_EntityContainerR14RS_GraphicView
librecad:_ZN17LC_ActionPenApply11qt_metacallEN11QMetaObject4CallEiPPv
librecad:_ZN17LC_ActionPenApply11qt_metacastEPKc
librecad:_ZN17LC_ActionPenApply14mouseMoveEventEP11QMouseEvent
librecad:_ZN17LC_ActionPenApply16staticMetaObjectE
librecad:_ZN17LC_ActionPenApply17mouseReleaseEventEP11QMouseEvent
librecad:_ZN17LC_ActionPenApply17updateMouseCursorEv
librecad:_ZN17LC_ActionPenApply18removeHighlightingEv
librecad:_ZN17LC_ActionPenApply22updateMouseButtonHintsEv
librecad:_ZN17LC_ActionPenApply4initEi
librecad:_ZN17LC_ActionPenApply6finishEb
librecad:_ZN17LC_ActionPenApply7triggerEv
librecad:_ZN17LC_ActionPenApplyC1ER18RS_EntityContainerR14RS_GraphicViewb
librecad:_ZN17LC_ActionPenApplyC2ER18RS_EntityContainerR14RS_GraphicViewb
librecad:_ZN17LC_DimAngularVarsC1ERKS_
librecad:_ZN17LC_DimAngularVarsC1Edddddd
librecad:_ZN17LC_DimAngularVarsC2ERKS_
librecad:_ZN17LC_DimAngularVarsC2Edddddd
librecad:_ZN17LC_LayerTreeModel11qt_metacallEN11QMetaObject4CallEiPPv
librecad:_ZN17LC_LayerTreeModel11qt_metacastEPKc
librecad:_ZN17LC_LayerTreeModel11setFlatModeEb
librecad:_ZN17LC_LayerTreeModel12rebuildModelER5QListIP8RS_LayerES2_
librecad:_ZN17LC_LayerTreeModel12renameLayersE5QListIP16LC_LayerTreeItemER7QStringS5_
librecad:_ZN17LC_LayerTreeModel12setLayerListEP12RS_LayerList
librecad:_ZN17LC_LayerTreeModel13collectLayersEP24LC_LayerTreeItemAcceptor
librecad:_ZN17LC_LayerTreeModel13convertToTypeER11QModelIndexi
librecad:_ZN17LC_LayerTreeModel15doConvertToTypeEP16LC_LayerTreeItemi
librecad:_ZN17LC_LayerTreeModel15emitDataChangedEv
librecad:_ZN17LC_LayerTreeModel15restoreNamePartE7QStringi
librecad:_ZN17LC_LayerTreeModel16createLayersCopyER11QModelIndex
librecad:_ZN17LC_LayerTreeModel16staticMetaObjectE
librecad:_ZN17LC_LayerTreeModel17findNewUniqueNameEP16LC_LayerTreeItemR7QStringS3_S3_i
librecad:_ZN17LC_LayerTreeModel17setupDisplayNamesEP16LC_LayerTreeItem
librecad:_ZN17LC_LayerTreeModel18copyChildrenLayersEP16LC_LayerTreeItemiR5QHashIP8RS_LayerS4_E
librecad:_ZN17LC_LayerTreeModel18doCreateLayersCopyEP16LC_LayerTreeItembi
librecad:_ZN17LC_LayerTreeModel18performReStructureEP16LC_LayerTreeItemS1_
librecad:_ZN17LC_LayerTreeModel18prepareLayerRenameER5QListIP16LC_LayerTreeItemER7QStringS6_
librecad:_ZN17LC_LayerTreeModel18renamePrimaryLayerEP16LC_LayerTreeItem7QStringi
librecad:_ZN17LC_LayerTreeModel18renameVirtualLayerEP16LC_LayerTreeItemR7QString
librecad:_ZN17LC_LayerTreeModel18setFilteringRegexpER7QStringb
librecad:_ZN17LC_LayerTreeModel19createFullLayerNameEP16LC_LayerTreeItemR7QStringib
librecad:_ZN17LC_LayerTreeModel20createFirstLayerCopyER5QHashIP8RS_LayerS2_EP16LC_LayerTreeItemi
librecad:_ZN17LC_LayerTreeModel20createItemPathStringEP16LC_LayerTreeItembbR7QString
librecad:_ZN17LC_LayerTreeModel22getPersistentIndexListEv
librecad:_ZN17LC_LayerTreeModel23doCreateChildLayersCopyER5QHashIP8RS_LayerS2_EP16LC_LayerTreeItemR7QStringS8_
librecad:_ZN17LC_LayerTreeModel24createFirstCopiedItemNewEP16LC_LayerTreeItemi
librecad:_ZN17LC_LayerTreeModel24generateLayersPathStringE5QListIP16LC_LayerTreeItemEbR7QString
librecad:_ZN17LC_LayerTreeModel24getCurrentlyDraggingItemEv
librecad:_ZN17LC_LayerTreeModel24setCurrentlyDraggingItemEP16LC_LayerTreeItem
librecad:_ZN17LC_LayerTreeModel25proceedActiveLayerChangedEP12RS_LayerList
librecad:_ZN17LC_LayerTreeModel26doGenerateLayersPathStringER5QListIP16LC_LayerTreeItemEbR7QStringS6_
librecad:_ZN17LC_LayerTreeModel30getLayersListForRenamedPrimaryEP16LC_LayerTreeItemR7QStringi
librecad:_ZN17LC_LayerTreeModel31generateLayersDisplayPathStringEP16LC_LayerTreeItem
librecad:_ZN17LC_LayerTreeModel32doGetPrimaryLayerRenameLayersMapEP16LC_LayerTreeItemR7QStringi
librecad:_ZN17LC_LayerTreeModel32doGetVirtualLayerRenameLayersMapEP16LC_LayerTreeItemR7QString
librecad:_ZN17LC_LayerTreeModel35getLayersListForRenamedVirtualLayerEP16LC_LayerTreeItemR7QString
librecad:_ZN17LC_LayerTreeModel5resetEv
librecad:_ZN17LC_LayerTreeModelC1EP7QObjectP24LC_LayerTreeModelOptions
librecad:_ZN17LC_LayerTreeModelC2EP7QObjectP24LC_LayerTreeModelOptions
librecad:_ZN17LC_PenPaletteData10itemEditedEP10LC_PenItem
librecad:_ZN17LC_PenPaletteData10removeItemEP10LC_PenItem
librecad:_ZN17LC_PenPaletteData11qt_metacallEN11QMetaObject4CallEiPPv
librecad:_ZN17LC_PenPaletteData11qt_metacastEPKc
librecad:_ZN17LC_PenPaletteData13getItemsCountEv
librecad:_ZN17LC_PenPaletteData14emitDataChangeEv
librecad:_ZN17LC_PenPaletteData15modelDataChangeEv
librecad:_ZN17LC_PenPaletteData16createNewPenItemE7QString
librecad:_ZN17LC_PenPaletteData16findItemWithNameER7QString
librecad:_ZN17LC_PenPaletteData16staticMetaObjectE
librecad:_ZN17LC_PenPaletteData17createDefaultPensEv
librecad:_ZN17LC_PenPaletteData22toStringRepresentationEP10LC_PenItem
librecad:_ZN17LC_PenPaletteData24fromStringRepresentationER7QString
librecad:_ZN17LC_PenPaletteData25doCreateNewDefaultPenItemE7QStringN3RS28LineTypeENS1_9LineWidthE8RS_Color
librecad:_ZN17LC_PenPaletteData7addItemEP10LC_PenItem
librecad:_ZN17LC_PenPaletteData9getItemAtEi
librecad:_ZN17LC_PenPaletteData9loadItemsEv
librecad:_ZN17LC_PenPaletteData9saveItemsEv
librecad:_ZN17LC_PenPaletteDataC1EP20LC_PenPaletteOptions
librecad:_ZN17LC_PenPaletteDataC2EP20LC_PenPaletteOptions
librecad:_ZN17LC_PenPaletteDataD0Ev
librecad:_ZN17LC_PenPaletteDataD1Ev
librecad:_ZN17LC_PenPaletteDataD2Ev
librecad:_ZN17QC_ActionGetPoint10setMessageE7QString
librecad:_ZN17QC_ActionGetPoint11qt_metacallEN11QMetaObject4CallEiPPv
librecad:_ZN17QC_ActionGetPoint11qt_metacastEPKc
librecad:_ZN17QC_ActionGetPoint12setBasepointEP7QPointF
librecad:_ZN17QC_ActionGetPoint14mouseMoveEventEP11QMouseEvent
librecad:_ZN17QC_ActionGetPoint15coordinateEventEP18RS_CoordinateEvent
librecad:_ZN17QC_ActionGetPoint16staticMetaObjectE
librecad:_ZN17QC_ActionGetPoint17mouseReleaseEventEP11QMouseEvent
librecad:_ZN17QC_ActionGetPoint17updateMouseCursorEv
librecad:_ZN17QC_ActionGetPoint22updateMouseButtonHintsEv
librecad:_ZN17QC_ActionGetPoint7triggerEv
librecad:_ZN17QC_ActionGetPoint8getPointEP7QPointF
librecad:_ZN17QC_ActionGetPointC1ER18RS_EntityContainerR14RS_GraphicView
librecad:_ZN17QC_ActionGetPointC2ER18RS_EntityContainerR14RS_GraphicView
librecad:_ZN17QC_ActionGetPointD0Ev
librecad:_ZN17QC_ActionGetPointD1Ev
librecad:_ZN17QC_ActionGetPointD2Ev
librecad:_ZN17QG_CommandHistory11qt_metacallEN11QMetaObject4CallEiPPv
librecad:_ZN17QG_CommandHistory11qt_metacastEPKc
librecad:_ZN17QG_CommandHistory15slotTextChangedEv
librecad:_ZN17QG_CommandHistory16staticMetaObjectE
librecad:_ZN17QG_CommandHistory17mouseReleaseEventEP11QMouseEvent
librecad:_ZN17QG_CommandHistoryC1EP7QWidget
librecad:_ZN17QG_CommandHistoryC2EP7QWidget
librecad:_ZN17RS_ActionDrawLine10addHistoryENS_13HistoryActionERK9RS_VectorS3_i
librecad:_ZN17RS_ActionDrawLine11hideOptionsEv
librecad:_ZN17RS_ActionDrawLine11qt_metacallEN11QMetaObject4CallEiPPv
librecad:_ZN17RS_ActionDrawLine11qt_metacastEPKc
librecad:_ZN17RS_ActionDrawLine11showOptionsEv
librecad:_ZN17RS_ActionDrawLine12commandEventEP15RS_CommandEvent
librecad:_ZN17RS_ActionDrawLine14mouseMoveEventEP11QMouseEvent
librecad:_ZN17RS_ActionDrawLine15coordinateEventEP18RS_CoordinateEvent
librecad:_ZN17RS_ActionDrawLine16staticMetaObjectE
librecad:_ZN17RS_ActionDrawLine17mouseReleaseEventEP11QMouseEvent
librecad:_ZN17RS_ActionDrawLine17updateMouseCursorEv
librecad:_ZN17RS_ActionDrawLine20getAvailableCommandsEv
librecad:_ZN17RS_ActionDrawLine22updateMouseButtonHintsEv
librecad:_ZN17RS_ActionDrawLine4initEi
librecad:_ZN17RS_ActionDrawLine4nextEv
librecad:_ZN17RS_ActionDrawLine4redoEv
librecad:_ZN17RS_ActionDrawLine4undoEv
librecad:_ZN17RS_ActionDrawLine5closeEv
librecad:_ZN17RS_ActionDrawLine5resetEv
librecad:_ZN17RS_ActionDrawLine6Points5indexEi
librecad:_ZN17RS_ActionDrawLine7triggerEv
librecad:_ZN17RS_ActionDrawLineC1ER18RS_EntityContainerR14RS_GraphicView
librecad:_ZN17RS_ActionDrawLineC2ER18RS_EntityContainerR14RS_GraphicView
librecad:_ZN17RS_ActionDrawLineD0Ev
librecad:_ZN17RS_ActionDrawLineD1Ev
librecad:_ZN17RS_ActionDrawLineD2Ev
librecad:_ZN17RS_ActionDrawText11hideOptionsEv
librecad:_ZN17RS_ActionDrawText11qt_metacallEN11QMetaObject4CallEiPPv
librecad:_ZN17RS_ActionDrawText11qt_metacastEPKc
librecad:_ZN17RS_ActionDrawText11showOptionsEv
librecad:_ZN17RS_ActionDrawText12commandEventEP15RS_CommandEvent
librecad:_ZN17RS_ActionDrawText14mouseMoveEventEP11QMouseEvent
librecad:_ZN17RS_ActionDrawText14preparePreviewEv
librecad:_ZN17RS_ActionDrawText15coordinateEventEP18RS_CoordinateEvent
librecad:_ZN17RS_ActionDrawText16staticMetaObjectE
librecad:_ZN17RS_ActionDrawText17mouseReleaseEventEP11QMouseEvent
librecad:_ZN17RS_ActionDrawText17updateMouseCursorEv
librecad:_ZN17RS_ActionDrawText20getAvailableCommandsEv
librecad:_ZN17RS_ActionDrawText22updateMouseButtonHintsEv
librecad:_ZN17RS_ActionDrawText4initEi
librecad:_ZN17RS_ActionDrawText5resetEv
librecad:_ZN17RS_ActionDrawText7setTextERK7QString
librecad:_ZN17RS_ActionDrawText7triggerEv
librecad:_ZN17RS_ActionDrawText8setAngleEd
librecad:_ZN17RS_ActionDrawTextC1ER18RS_EntityContainerR14RS_GraphicView
librecad:_ZN17RS_ActionDrawTextC2ER18RS_EntityContainerR14RS_GraphicView
librecad:_ZN17RS_ActionDrawTextD0Ev
librecad:_ZN17RS_ActionDrawTextD1Ev
librecad:_ZN17RS_ActionDrawTextD2Ev
librecad:_ZN17RS_ActionEditCopy11qt_metacallEN11QMetaObject4CallEiPPv
librecad:_ZN17RS_ActionEditCopy11qt_metacastEPKc
librecad:_ZN17RS_ActionEditCopy14mouseMoveEventEP11QMouseEvent
librecad:_ZN17RS_ActionEditCopy15coordinateEventEP18RS_CoordinateEvent
librecad:_ZN17RS_ActionEditCopy16staticMetaObjectE
librecad:_ZN17RS_ActionEditCopy17mouseReleaseEventEP11QMouseEvent
librecad:_ZN17RS_ActionEditCopy17updateMouseCursorEv
librecad:_ZN17RS_ActionEditCopy22updateMouseButtonHintsEv
librecad:_ZN17RS_ActionEditCopy4initEi
librecad:_ZN17RS_ActionEditCopy7triggerEv
librecad:_ZN17RS_ActionEditCopyC1EbR18RS_EntityContainerR14RS_GraphicView
librecad:_ZN17RS_ActionEditCopyC2EbR18RS_EntityContainerR14RS_GraphicView
librecad:_ZN17RS_ActionEditCopyD0Ev
librecad:_ZN17RS_ActionEditCopyD1Ev
librecad:_ZN17RS_ActionEditCopyD2Ev
librecad:_ZN17RS_ActionEditUndo11qt_metacallEN11QMetaObject4CallEiPPv
librecad:_ZN17RS_ActionEditUndo11qt_metacastEPKc
librecad:_ZN17RS_ActionEditUndo16staticMetaObjectE
librecad:_ZN17RS_ActionEditUndo4initEi
librecad:_ZN17RS_ActionEditUndo7triggerEv
librecad:_ZN17RS_ActionEditUndoC1EbR18RS_EntityContainerR14RS_GraphicView
librecad:_ZN17RS_ActionEditUndoC2EbR18RS_EntityContainerR14RS_GraphicView
librecad:_ZN17RS_ActionFileOpen11qt_metacallEN11QMetaObject4CallEiPPv
librecad:_ZN17RS_ActionFileOpen11qt_metacastEPKc
librecad:_ZN17RS_ActionFileOpen16staticMetaObjectE
librecad:_ZN17RS_ActionFileOpen4initEi
librecad:_ZN17RS_ActionFileOpen7triggerEv
librecad:_ZN17RS_ActionFileOpenC1ER18RS_EntityContainerR14RS_GraphicView
librecad:_ZN17RS_ActionFileOpenC2ER18RS_EntityContainerR14RS_GraphicView
librecad:_ZN17RS_ActionFileSave11qt_metacallEN11QMetaObject4CallEiPPv
librecad:_ZN17RS_ActionFileSave11qt_metacastEPKc
librecad:_ZN17RS_ActionFileSave16staticMetaObjectE
librecad:_ZN17RS_ActionFileSave4initEi
librecad:_ZN17RS_ActionFileSave7triggerEv
librecad:_ZN17RS_ActionFileSaveC1ER18RS_EntityContainerR14RS_GraphicView
librecad:_ZN17RS_ActionFileSaveC2ER18RS_EntityContainerR14RS_GraphicView
librecad:_ZN17RS_ActionInfoArea11qt_metacallEN11QMetaObject4CallEiPPv
librecad:_ZN17RS_ActionInfoArea11qt_metacastEPKc
librecad:_ZN17RS_ActionInfoArea14mouseMoveEventEP11QMouseEvent
librecad:_ZN17RS_ActionInfoArea15coordinateEventEP18RS_CoordinateEvent
librecad:_ZN17RS_ActionInfoArea16staticMetaObjectE
librecad:_ZN17RS_ActionInfoArea17mouseReleaseEventEP11QMouseEvent
librecad:_ZN17RS_ActionInfoArea17updateMouseCursorEv
librecad:_ZN17RS_ActionInfoArea22updateMouseButtonHintsEv
librecad:_ZN17RS_ActionInfoArea4initEi
librecad:_ZN17RS_ActionInfoArea7displayEv
librecad:_ZN17RS_ActionInfoArea7triggerEv
librecad:_ZN17RS_ActionInfoAreaC1ER18RS_EntityContainerR14RS_GraphicView
librecad:_ZN17RS_ActionInfoAreaC2ER18RS_EntityContainerR14RS_GraphicView
librecad:_ZN17RS_ActionInfoAreaD0Ev
librecad:_ZN17RS_ActionInfoAreaD1Ev
librecad:_ZN17RS_ActionInfoAreaD2Ev
librecad:_ZN17RS_ActionInfoDist11qt_metacallEN11QMetaObject4CallEiPPv
librecad:_ZN17RS_ActionInfoDist11qt_metacastEPKc
librecad:_ZN17RS_ActionInfoDist14mouseMoveEventEP11QMouseEvent
librecad:_ZN17RS_ActionInfoDist15coordinateEventEP18RS_CoordinateEvent
librecad:_ZN17RS_ActionInfoDist16staticMetaObjectE
librecad:_ZN17RS_ActionInfoDist17mouseReleaseEventEP11QMouseEvent
librecad:_ZN17RS_ActionInfoDist17updateMouseCursorEv
librecad:_ZN17RS_ActionInfoDist22updateMouseButtonHintsEv
librecad:_ZN17RS_ActionInfoDist4initEi
librecad:_ZN17RS_ActionInfoDist7triggerEv
librecad:_ZN17RS_ActionInfoDistC1ER18RS_EntityContainerR14RS_GraphicView
librecad:_ZN17RS_ActionInfoDistC2ER18RS_EntityContainerR14RS_GraphicView
librecad:_ZN17RS_ActionInfoDistD0Ev
librecad:_ZN17RS_ActionInfoDistD1Ev
librecad:_ZN17RS_ActionInfoDistD2Ev
librecad:_ZN17RS_ActionZoomAuto11qt_metacallEN11QMetaObject4CallEiPPv
librecad:_ZN17RS_ActionZoomAuto11qt_metacastEPKc
librecad:_ZN17RS_ActionZoomAuto16staticMetaObjectE
librecad:_ZN17RS_ActionZoomAuto4initEi
librecad:_ZN17RS_ActionZoomAuto7triggerEv
librecad:_ZN17RS_ActionZoomAutoC1ER18RS_EntityContainerR14RS_GraphicViewb
librecad:_ZN17RS_ActionZoomAutoC2ER18RS_EntityContainerR14RS_GraphicViewb
librecad:_ZN17RS_DimAlignedDataC1ERK9RS_VectorS2_
librecad:_ZN17RS_DimAlignedDataC1Ev
librecad:_ZN17RS_DimAlignedDataC2ERK9RS_VectorS2_
librecad:_ZN17RS_DimAlignedDataC2Ev
librecad:_ZN17RS_DimAngularDataC1ERK9RS_VectorS2_S2_S2_
librecad:_ZN17RS_DimAngularDataC1ERKS_
librecad:_ZN17RS_DimAngularDataC1Ev
librecad:_ZN17RS_DimAngularDataC2ERK9RS_VectorS2_S2_S2_
librecad:_ZN17RS_DimAngularDataC2ERKS_
librecad:_ZN17RS_DimAngularDataC2Ev
librecad:_ZN18LC_ActionDrawCross11qt_metacallEN11QMetaObject4CallEiPPv
librecad:_ZN18LC_ActionDrawCross11qt_metacastEPKc
librecad:_ZN18LC_ActionDrawCross14doAfterTriggerEv
librecad:_ZN18LC_ActionDrawCross15coordinateEventEP18RS_CoordinateEvent
librecad:_ZN18LC_ActionDrawCross16doGetMouseCursorEi
librecad:_ZN18LC_ActionDrawCross16staticMetaObjectE
librecad:_ZN18LC_ActionDrawCross17doCheckMayTriggerEv
librecad:_ZN18LC_ActionDrawCross19createOptionsWidgetEv
librecad:_ZN18LC_ActionDrawCross21doCheckMayDrawPreviewEP11QMouseEventi
librecad:_ZN18LC_ActionDrawCross22updateMouseButtonHintsEv
librecad:_ZN18LC_ActionDrawCross23doCheckMayTriggerOnInitEi
librecad:_ZN18LC_ActionDrawCross24doPreparePreviewEntitiesEP11QMouseEventR9RS_VectorR5QListIP9RS_EntityEi
librecad:_ZN18LC_ActionDrawCross24doPrepareTriggerEntitiesER5QListIP9RS_EntityE
librecad:_ZN18LC_ActionDrawCross25doCreateEntitiesOnTriggerEP9RS_EntityR5QListIS1_E
librecad:_ZN18LC_ActionDrawCross26doOnLeftMouseButtonReleaseEP11QMouseEventiRK9RS_Vector
librecad:_ZN18LC_ActionDrawCross29doGetRelativeZeroAfterTriggerEv
librecad:_ZN18LC_ActionDrawCross37isAcceptSelectedEntityToTriggerOnInitEP9RS_Entity
librecad:_ZN18LC_ActionDrawCrossC1ER18RS_EntityContainerR14RS_GraphicView
librecad:_ZN18LC_ActionDrawCrossC2ER18RS_EntityContainerR14RS_GraphicView
librecad:_ZN18LC_ActionDrawCrossD0Ev
librecad:_ZN18LC_ActionDrawCrossD1Ev
librecad:_ZN18LC_ActionDrawCrossD2Ev
librecad:_ZN18LC_DlgSplinePoints11qt_metacallEN11QMetaObject4CallEiPPv
librecad:_ZN18LC_DlgSplinePoints11qt_metacastEPKc
librecad:_ZN18LC_DlgSplinePoints12updatePointsEv
librecad:_ZN18LC_DlgSplinePoints12updateSplineEv
librecad:_ZN18LC_DlgSplinePoints14languageChangeEv
librecad:_ZN18LC_DlgSplinePoints16staticMetaObjectE
librecad:_ZN18LC_DlgSplinePoints9setSplineER15LC_SplinePoints
librecad:_ZN18LC_DlgSplinePointsC1EP7QWidgetb6QFlagsIN2Qt10WindowTypeEE
librecad:_ZN18LC_DlgSplinePointsC2EP7QWidgetb6QFlagsIN2Qt10WindowTypeEE
librecad:_ZN18LC_DlgSplinePointsD0Ev
librecad:_ZN18LC_DlgSplinePointsD1Ev
librecad:_ZN18LC_DlgSplinePointsD2Ev
librecad:_ZN18LC_LayerTreeWidget10layerAddedEP8RS_Layer
librecad:_ZN18LC_LayerTreeWidget11expandItemsEi
librecad:_ZN18LC_LayerTreeWidget11layerEditedEP8RS_Layer
librecad:_ZN18LC_LayerTreeWidget11onDropEventE11QModelIndexNS_21DropIndicatorPositionE
librecad:_ZN18LC_LayerTreeWidget11qt_metacallEN11QMetaObject4CallEiPPv
librecad:_ZN18LC_LayerTreeWidget11qt_metacastEPKc
librecad:_ZN18LC_LayerTreeWidget12initTreeViewEv
librecad:_ZN18LC_LayerTreeWidget12layerRemovedEP8RS_Layer
librecad:_ZN18LC_LayerTreeWidget12layerToggledEP8RS_Layer
librecad:_ZN18LC_LayerTreeWidget12setLayerListEP12RS_LayerList
librecad:_ZN18LC_LayerTreeWidget13activateLayerEP8RS_Layer
librecad:_ZN18LC_LayerTreeWidget13hideAllLayersEv
librecad:_ZN18LC_LayerTreeWidget13initTreeModelEv
librecad:_ZN18LC_LayerTreeWidget13keyPressEventEP9QKeyEvent
librecad:_ZN18LC_LayerTreeWidget13lockAllLayersEv
librecad:_ZN18LC_LayerTreeWidget13showAllLayersEv
librecad:_ZN18LC_LayerTreeWidget14doRemoveLayersER5QListIP8RS_LayerE
librecad:_ZN18LC_LayerTreeWidget14initButtonsBarEv
librecad:_ZN18LC_LayerTreeWidget14layerActivatedEP8RS_Layer
librecad:_ZN18LC_LayerTreeWidget14printAllLayersEv
librecad:_ZN18LC_LayerTreeWidget14toggleFlatViewEv
librecad:_ZN18LC_LayerTreeWidget15createLayerCopyEv
librecad:_ZN18LC_LayerTreeWidget15editActiveLayerEv
librecad:_ZN18LC_LayerTreeWidget15expandAllLayersEv
librecad:_ZN18LC_LayerTreeWidget15slotTreeClickedE11QModelIndex
librecad:_ZN18LC_LayerTreeWidget15unlockAllLayersEv
librecad:_ZN18LC_LayerTreeWidget16deselectEntitiesEP8RS_Layer
librecad:_ZN18LC_LayerTreeWidget16layerToggledLockEP8RS_Layer
librecad:_ZN18LC_LayerTreeWidget16noPrintAllLayersEv
librecad:_ZN18LC_LayerTreeWidget16onDragEnterEventE11QModelIndex
librecad:_ZN18LC_LayerTreeWidget16staticMetaObjectE
librecad:_ZN18LC_LayerTreeWidget17collapseAllLayersEv
librecad:_ZN18LC_LayerTreeWidget17editSelectedLayerEv
librecad:_ZN18LC_LayerTreeWidget17layerToggledPrintEP8RS_Layer
librecad:_ZN18LC_LayerTreeWidget17removeEmptyLayersEv
librecad:_ZN18LC_LayerTreeWidget18doCreateLayersCopyE11QModelIndexb
librecad:_ZN18LC_LayerTreeWidget18doRemoveLayerItemsER5QListIP16LC_LayerTreeItemE
librecad:_ZN18LC_LayerTreeWidget18removeActiveLayersEv
librecad:_ZN18LC_LayerTreeWidget18renameVirtualLayerEv
librecad:_ZN18LC_LayerTreeWidget19copyLayerAttributesEP8RS_LayerS1_
librecad:_ZN18LC_LayerTreeWidget19onCustomContextMenuERK6QPoint
librecad:_ZN18LC_LayerTreeWidget19showActiveLayerOnlyEv
librecad:_ZN18LC_LayerTreeWidget20createLayerDuplicateEv
librecad:_ZN18LC_LayerTreeWidget20getSelectedItemIndexEv
librecad:_ZN18LC_LayerTreeWidget20invokeLayerAddDialogEP16LC_LayerTreeItemi
librecad:_ZN18LC_LayerTreeWidget20invokeSettingsDialogEv
librecad:_ZN18LC_LayerTreeWidget20manageLayersLockFlagER5QListIP8RS_LayerES4_b
librecad:_ZN18LC_LayerTreeWidget20moveSelectionToLayerEv
librecad:_ZN18LC_LayerTreeWidget20selectLayersEntitiesEv
librecad:_ZN18LC_LayerTreeWidget20updateToolBarButtonsEv
librecad:_ZN18LC_LayerTreeWidget21manageLayersPrintFlagER5QListIP8RS_LayerES4_b
librecad:_ZN18LC_LayerTreeWidget21slotTreeDoubleClickedE11QModelIndex
librecad:_ZN18LC_LayerTreeWidget22doMoveSelectionToLayerEP16LC_LayerTreeItembb
librecad:_ZN18LC_LayerTreeWidget22doSelectLayersEntitiesER5QListIP8RS_LayerE
librecad:_ZN18LC_LayerTreeWidget22duplicateLayerEntitiesEP8RS_LayerS1_
librecad:_ZN18LC_LayerTreeWidget23collapseSecondaryLayersEv
librecad:_ZN18LC_LayerTreeWidget24convertLayerTypeToNormalEv
librecad:_ZN18LC_LayerTreeWidget24doRemoveLayersFromSourceEP16LC_LayerTreeItemb
librecad:_ZN18LC_LayerTreeWidget24layerToggledConstructionEP8RS_Layer
librecad:_ZN18LC_LayerTreeWidget24slotFilteringMaskChangedEv
librecad:_ZN18LC_LayerTreeWidget25duplicateSelectionToLayerEv
librecad:_ZN18LC_LayerTreeWidget25invokeLayersRemovalDialogER11QStringList
librecad:_ZN18LC_LayerTreeWidget26manageLayersVisibilityFlagER5QListIP8RS_LayerES4_b
librecad:_ZN18LC_LayerTreeWidget27hideOtherThanSelectedLayersEv
librecad:_ZN18LC_LayerTreeWidget27removeLayersForSelectedItemEv
librecad:_ZN18LC_LayerTreeWidget28addChildLayerForSelectedItemEv
librecad:_ZN18LC_LayerTreeWidget28collectLayersForSelectedItemEv
librecad:_ZN18LC_LayerTreeWidget28initFilterAndSettingsSectionEv
librecad:_ZN18LC_LayerTreeWidget28manageLayersConstructionFlagER5QListIP8RS_LayerES4_b
librecad:_ZN18LC_LayerTreeWidget28removeChildLayersForSelectedEv
librecad:_ZN18LC_LayerTreeWidget29convertLayerTypeToDimensionalEv
librecad:_ZN18LC_LayerTreeWidget29deselectEntitiesOnLockedLayerEP8RS_Layer
librecad:_ZN18LC_LayerTreeWidget29invokeLayerEditOrRenameDialogEP16LC_LayerTreeItemb
librecad:_ZN18LC_LayerTreeWidget31convertLayerTypeToInformationalEv
librecad:_ZN18LC_LayerTreeWidget31toggleSecondaryLayersVisibilityEv
librecad:_ZN18LC_LayerTreeWidget33addDimensionalLayerForActiveLayerEv
librecad:_ZN18LC_LayerTreeWidget34addDimensionalLayerForSelectedItemEv
librecad:_ZN18LC_LayerTreeWidget34doAddSecondaryLevelForSelectedItemEi
librecad:_ZN18LC_LayerTreeWidget35doConvertSelectedItemLayerToNewTypeEi
librecad:_ZN18LC_LayerTreeWidget36addInformationalLayerForSelectedItemEv
librecad:_ZN18LC_LayerTreeWidget37convertLayerTypeToAlternativePositionEv
librecad:_ZN18LC_LayerTreeWidget43moveOrDuplicateSelectionToSelectedItemLayerEbRK7QString
librecad:_ZN18LC_LayerTreeWidget45addAddAlternativePositionLayerForSelectedItemEv
librecad:_ZN18LC_LayerTreeWidget6escapeEv
librecad:_ZN18LC_LayerTreeWidget6updateEv
librecad:_ZN18LC_LayerTreeWidget8addLayerEv
librecad:_ZN18LC_LayerTreeWidgetC1EP16QG_ActionHandlerP7QWidgetPKc6QFlagsIN2Qt10WindowTypeEE
librecad:_ZN18LC_LayerTreeWidgetC2EP16QG_ActionHandlerP7QWidgetPKc6QFlagsIN2Qt10WindowTypeEE
librecad:_ZN18LC_LineJoinOptions11doSetActionEP18RS_ActionInterfaceb
librecad:_ZN18LC_LineJoinOptions11qt_metacallEN11QMetaObject4CallEiPPv
librecad:_ZN18LC_LineJoinOptions11qt_metacastEPKc
librecad:_ZN18LC_LineJoinOptions14doSaveSettingsEv
librecad:_ZN18LC_LineJoinOptions14languageChangeEv
librecad:_ZN18LC_LineJoinOptions16staticMetaObjectE
librecad:_ZN18LC_LineJoinOptions20checkActionRttiValidEN3RS210ActionTypeE
librecad:_ZN18LC_LineJoinOptions20onUsePolylineClickedEb
librecad:_ZN18LC_LineJoinOptions24onRemoveOriginalsClickedEb
librecad:_ZN18LC_LineJoinOptions27getSettingsOptionNamePrefixEv
librecad:_ZN18LC_LineJoinOptions28onEdgeModelLine1IndexChangedEi
librecad:_ZN18LC_LineJoinOptions28onEdgeModelLine2IndexChangedEi
librecad:_ZN18LC_LineJoinOptions29setUsePolylineToActionAndViewEb
librecad:_ZN18LC_LineJoinOptions30onAttributesSourceIndexChangedEi
librecad:_ZN18LC_LineJoinOptions31setEdgeModeLine1ToActionAndViewEi
librecad:_ZN18LC_LineJoinOptions31setEdgeModeLine2ToActionAndViewEi
librecad:_ZN18LC_LineJoinOptions33setRemoveOriginalsToActionAndViewEb
librecad:_ZN18LC_LineJoinOptions34setAttributesSourceToActionAndViewEi
librecad:_ZN18LC_LineJoinOptionsC1EP7QWidget
librecad:_ZN18LC_LineJoinOptionsC2EP7QWidget
librecad:_ZN18LC_LineJoinOptionsD0Ev
librecad:_ZN18LC_LineJoinOptionsD1Ev
librecad:_ZN18LC_LineJoinOptionsD2Ev
librecad:_ZN18LC_PenInfoRegistry11hasLineTypeEi
librecad:_ZN18LC_PenInfoRegistry12hasLineWidthEi
librecad:_ZN18LC_PenInfoRegistry15registerLCColorE6QColor7QString
librecad:_ZN18LC_PenInfoRegistry16isUnchangedColorERK8RS_Color
librecad:_ZN18LC_PenInfoRegistry17registerLineTypesEv
librecad:_ZN18LC_PenInfoRegistry18doRegisterLineTypeEPKcS1_N3RS28LineTypeE
librecad:_ZN18LC_PenInfoRegistry18registerColorNamesEv
librecad:_ZN18LC_PenInfoRegistry18registerLineWidthsEv
librecad:_ZN18LC_PenInfoRegistry19doRegisterLineWidthEPKcS1_N3RS29LineWidthE
librecad:_ZN18LC_PenInfoRegistry20createUnchangedColorEv
librecad:_ZN18LC_PenInfoRegistry22getInternalColorStringERK8RS_Color
librecad:_ZN18LC_PenInfoRegistry26getColorFromInternalStringER7QString
librecad:_ZN18LC_PenInfoRegistry8instanceEv
librecad:_ZN18LC_PenInfoRegistryC1Ev
librecad:_ZN18LC_PenInfoRegistryC2Ev
librecad:_ZN18LC_PenInfoRegistryD1Ev
librecad:_ZN18LC_PenInfoRegistryD2Ev
librecad:_ZN18LC_PenPaletteModel10itemEditedEP10LC_PenItem
librecad:_ZN18LC_PenPaletteModel10removeItemEP10LC_PenItem
librecad:_ZN18LC_PenPaletteModel11modelChangeEv
librecad:_ZN18LC_PenPaletteModel11qt_metacallEN11QMetaObject4CallEiPPv
librecad:_ZN18LC_PenPaletteModel11qt_metacastEPKc
librecad:_ZN18LC_PenPaletteModel12setActivePenEP10LC_PenItem
librecad:_ZN18LC_PenPaletteModel13createNewItemE7QString
librecad:_ZN18LC_PenPaletteModel14findPenForNameER7QString
librecad:_ZN18LC_PenPaletteModel15emitModelChangeEv
librecad:_ZN18LC_PenPaletteModel15getItemForIndexE11QModelIndex
librecad:_ZN18LC_PenPaletteModel16staticMetaObjectE
librecad:_ZN18LC_PenPaletteModel18setFilteringRegexpER7QString
librecad:_ZN18LC_PenPaletteModel19setupItemForDisplayEP10LC_PenItem
librecad:_ZN18LC_PenPaletteModel6updateEb
librecad:_ZN18LC_PenPaletteModel7addItemEP10LC_PenItem
librecad:_ZN18LC_PenPaletteModelC1EP20LC_PenPaletteOptionsP17LC_PenPaletteDataP7QObject
librecad:_ZN18LC_PenPaletteModelC2EP20LC_PenPaletteOptionsP17LC_PenPaletteDataP7QObject
librecad:_ZN18LC_PenPaletteModelD0Ev
librecad:_ZN18LC_PenPaletteModelD1Ev
librecad:_ZN18LC_PenPaletteModelD2Ev
librecad:_ZN18QC_ActionGetSelect10setMessageE7QString
librecad:_ZN18QC_ActionGetSelect11qt_metacallEN11QMetaObject4CallEiPPv
librecad:_ZN18QC_ActionGetSelect11qt_metacastEPKc
librecad:_ZN18QC_ActionGetSelect13keyPressEventEP9QKeyEvent
librecad:_ZN18QC_ActionGetSelect16staticMetaObjectE
librecad:_ZN18QC_ActionGetSelect16unselectEntitiesEv
librecad:_ZN18QC_ActionGetSelect17mouseReleaseEventEP11QMouseEvent
librecad:_ZN18QC_ActionGetSelect17updateMouseCursorEv
librecad:_ZN18QC_ActionGetSelect22updateMouseButtonHintsEv
librecad:_ZN18QC_ActionGetSelect4initEi
librecad:_ZN18QC_ActionGetSelectC1EN3RS210EntityTypeER18RS_EntityContainerR14RS_GraphicView
librecad:_ZN18QC_ActionGetSelectC1ER18RS_EntityContainerR14RS_GraphicView
librecad:_ZN18QC_ActionGetSelectC2EN3RS210EntityTypeER18RS_EntityContainerR14RS_GraphicView
librecad:_ZN18QC_ActionGetSelectC2ER18RS_EntityContainerR14RS_GraphicView
librecad:_ZN18QC_ActionGetSelectD0Ev
librecad:_ZN18QC_ActionGetSelectD1Ev
librecad:_ZN18QC_ActionGetSelectD2Ev
librecad:_ZN18QG_ActiveLayerName11qt_metacallEN11QMetaObject4CallEiPPv
librecad:_ZN18QG_ActiveLayerName11qt_metacastEPKc
librecad:_ZN18QG_ActiveLayerName16staticMetaObjectE
librecad:_ZN18QG_ActiveLayerName18activeLayerChangedERK7QString
librecad:_ZN18QG_ActiveLayerNameC1EP7QWidget
librecad:_ZN18QG_ActiveLayerNameC2EP7QWidget
librecad:_ZN18QG_PolylineOptions10updateModeEi
librecad:_ZN18QG_PolylineOptions11qt_metacallEN11QMetaObject4CallEiPPv
librecad:_ZN18QG_PolylineOptions11qt_metacastEPKc
librecad:_ZN18QG_PolylineOptions11updateAngleERK7QString
librecad:_ZN18QG_PolylineOptions12updateRadiusERK7QString
librecad:_ZN18QG_PolylineOptions14languageChangeEv
librecad:_ZN18QG_PolylineOptions15updateDirectionEb
librecad:_ZN18QG_PolylineOptions16staticMetaObjectE
librecad:_ZN18QG_PolylineOptions4undoEv
librecad:_ZN18QG_PolylineOptions5closeEv
librecad:_ZN18QG_PolylineOptions7destroyEv
librecad:_ZN18QG_PolylineOptions9setActionEP18RS_ActionInterfaceb
librecad:_ZN18QG_PolylineOptionsC1EP7QWidget6QFlagsIN2Qt10WindowTypeEE
librecad:_ZN18QG_PolylineOptionsC2EP7QWidget6QFlagsIN2Qt10WindowTypeEE
librecad:_ZN18QG_PolylineOptionsD0Ev
librecad:_ZN18QG_PolylineOptionsD1Ev
librecad:_ZN18QG_PolylineOptionsD2Ev
librecad:_ZN18QG_SelectionWidget11qt_metacallEN11QMetaObject4CallEiPPv
librecad:_ZN18QG_SelectionWidget11qt_metacastEPKc
librecad:_ZN18QG_SelectionWidget12flashAuxDataERK7QStringS2_RKjRKb
librecad:_ZN18QG_SelectionWidget13removeAuxDataEv
librecad:_ZN18QG_SelectionWidget14languageChangeEv
librecad:_ZN18QG_SelectionWidget14setTotalLengthEd
librecad:_ZN18QG_SelectionWidget16staticMetaObjectE
librecad:_ZN18QG_SelectionWidget9setNumberEi
librecad:_ZN18QG_SelectionWidgetC1EP7QWidgetPKc6QFlagsIN2Qt10WindowTypeEE
librecad:_ZN18QG_SelectionWidgetC2EP7QWidgetPKc6QFlagsIN2Qt10WindowTypeEE
librecad:_ZN18QG_SelectionWidgetD0Ev
librecad:_ZN18QG_SelectionWidgetD1Ev
librecad:_ZN18QG_SelectionWidgetD2Ev
librecad:_ZN18QG_SnapDistOptions10updateDistERK7QString
librecad:_ZN18QG_SnapDistOptions11qt_metacallEN11QMetaObject4CallEiPPv
librecad:_ZN18QG_SnapDistOptions11qt_metacastEPKc
librecad:_ZN18QG_SnapDistOptions12saveSettingsEv
librecad:_ZN18QG_SnapDistOptions14languageChangeEv
librecad:_ZN18QG_SnapDistOptions16staticMetaObjectE
librecad:_ZN18QG_SnapDistOptions7setDistERdb
librecad:_ZN18QG_SnapDistOptionsC1EP7QWidget6QFlagsIN2Qt10WindowTypeEE
librecad:_ZN18QG_SnapDistOptionsC2EP7QWidget6QFlagsIN2Qt10WindowTypeEE
librecad:_ZN18QG_SnapDistOptionsD0Ev
librecad:_ZN18QG_SnapDistOptionsD1Ev
librecad:_ZN18QG_SnapDistOptionsD2Ev
librecad:_ZN18RS_ActionBlocksAdd11qt_metacallEN11QMetaObject4CallEiPPv
librecad:_ZN18RS_ActionBlocksAdd11qt_metacastEPKc
librecad:_ZN18RS_ActionBlocksAdd16staticMetaObjectE
librecad:_ZN18RS_ActionBlocksAdd4initEi
librecad:_ZN18RS_ActionBlocksAdd7triggerEv
librecad:_ZN18RS_ActionBlocksAddC1ER18RS_EntityContainerR14RS_GraphicView
librecad:_ZN18RS_ActionBlocksAddC2ER18RS_EntityContainerR14RS_GraphicView
librecad:_ZN18RS_ActionDimLeader11qt_metacallEN11QMetaObject4CallEiPPv
librecad:_ZN18RS_ActionDimLeader11qt_metacastEPKc
librecad:_ZN18RS_ActionDimLeader12commandEventEP15RS_CommandEvent
librecad:_ZN18RS_ActionDimLeader13keyPressEventEP9QKeyEvent
librecad:_ZN18RS_ActionDimLeader14mouseMoveEventEP11QMouseEvent
librecad:_ZN18RS_ActionDimLeader15coordinateEventEP18RS_CoordinateEvent
librecad:_ZN18RS_ActionDimLeader16staticMetaObjectE
librecad:_ZN18RS_ActionDimLeader17mouseReleaseEventEP11QMouseEvent
librecad:_ZN18RS_ActionDimLeader17updateMouseCursorEv
librecad:_ZN18RS_ActionDimLeader22updateMouseButtonHintsEv
librecad:_ZN18RS_ActionDimLeader4initEi
librecad:_ZN18RS_ActionDimLeader5resetEv
librecad:_ZN18RS_ActionDimLeader7triggerEv
librecad:_ZN18RS_ActionDimLeaderC1ER18RS_EntityContainerR14RS_GraphicView
librecad:_ZN18RS_ActionDimLeaderC2ER18RS_EntityContainerR14RS_GraphicView
librecad:_ZN18RS_ActionDimLeaderD0Ev
librecad:_ZN18RS_ActionDimLeaderD1Ev
librecad:_ZN18RS_ActionDimLeaderD2Ev
librecad:_ZN18RS_ActionDimLinear11hideOptionsEv
librecad:_ZN18RS_ActionDimLinear11qt_metacallEN11QMetaObject4CallEiPPv
librecad:_ZN18RS_ActionDimLinear11qt_metacastEPKc
librecad:_ZN18RS_ActionDimLinear11showOptionsEv
librecad:_ZN18RS_ActionDimLinear12commandEventEP15RS_CommandEvent
librecad:_ZN18RS_ActionDimLinear14mouseMoveEventEP11QMouseEvent
librecad:_ZN18RS_ActionDimLinear14preparePreviewEv
librecad:_ZN18RS_ActionDimLinear15coordinateEventEP18RS_CoordinateEvent
librecad:_ZN18RS_ActionDimLinear16staticMetaObjectE
librecad:_ZN18RS_ActionDimLinear17mouseReleaseEventEP11QMouseEvent
librecad:_ZN18RS_ActionDimLinear20getAvailableCommandsEv
librecad:_ZN18RS_ActionDimLinear22updateMouseButtonHintsEv
librecad:_ZN18RS_ActionDimLinear5resetEv
librecad:_ZN18RS_ActionDimLinear7triggerEv
librecad:_ZN18RS_ActionDimLinear8setAngleEd
librecad:_ZN18RS_ActionDimLinearC1ER18RS_EntityContainerR14RS_GraphicViewdbN3RS210ActionTypeE
librecad:_ZN18RS_ActionDimLinearC2ER18RS_EntityContainerR14RS_GraphicViewdbN3RS210ActionTypeE
librecad:_ZN18RS_ActionDimLinearD0Ev
librecad:_ZN18RS_ActionDimLinearD1Ev
librecad:_ZN18RS_ActionDimLinearD2Ev
librecad:_ZN18RS_ActionDimRadial11hideOptionsEv
librecad:_ZN18RS_ActionDimRadial11qt_metacallEN11QMetaObject4CallEiPPv
librecad:_ZN18RS_ActionDimRadial11qt_metacastEPKc
librecad:_ZN18RS_ActionDimRadial11showOptionsEv
librecad:_ZN18RS_ActionDimRadial12commandEventEP15RS_CommandEvent
librecad:_ZN18RS_ActionDimRadial14mouseMoveEventEP11QMouseEvent
librecad:_ZN18RS_ActionDimRadial14preparePreviewEv
librecad:_ZN18RS_ActionDimRadial15coordinateEventEP18RS_CoordinateEvent
librecad:_ZN18RS_ActionDimRadial16staticMetaObjectE
librecad:_ZN18RS_ActionDimRadial17mouseReleaseEventEP11QMouseEvent
librecad:_ZN18RS_ActionDimRadial20getAvailableCommandsEv
librecad:_ZN18RS_ActionDimRadial22updateMouseButtonHintsEv
librecad:_ZN18RS_ActionDimRadial5resetEv
librecad:_ZN18RS_ActionDimRadial7triggerEv
librecad:_ZN18RS_ActionDimRadialC1ER18RS_EntityContainerR14RS_GraphicView
librecad:_ZN18RS_ActionDimRadialC2ER18RS_EntityContainerR14RS_GraphicView
librecad:_ZN18RS_ActionDimRadialD0Ev
librecad:_ZN18RS_ActionDimRadialD1Ev
librecad:_ZN18RS_ActionDimRadialD2Ev
librecad:_ZN18RS_ActionDimension11hideOptionsEv
librecad:_ZN18RS_ActionDimension11qt_metacallEN11QMetaObject4CallEiPPv
librecad:_ZN18RS_ActionDimension11qt_metacastEPKc
librecad:_ZN18RS_ActionDimension11setDiameterEb
librecad:_ZN18RS_ActionDimension11showOptionsEv
librecad:_ZN18RS_ActionDimension16staticMetaObjectE
librecad:_ZN18RS_ActionDimension17isDimensionActionEN3RS210ActionTypeE
librecad:_ZN18RS_ActionDimension17updateMouseCursorEv
librecad:_ZN18RS_ActionDimension4initEi
librecad:_ZN18RS_ActionDimension5resetEv
librecad:_ZN18RS_ActionDimension7setTextERK7QString
librecad:_ZN18RS_ActionDimension7setTol1ERK7QString
librecad:_ZN18RS_ActionDimension7setTol2ERK7QString
librecad:_ZN18RS_ActionDimension8setLabelERK7QString
librecad:_ZN18RS_ActionDimensionC1EPKcR18RS_EntityContainerR14RS_GraphicView
librecad:_ZN18RS_ActionDimensionC2EPKcR18RS_EntityContainerR14RS_GraphicView
librecad:_ZN18RS_ActionDimensionD0Ev
librecad:_ZN18RS_ActionDimensionD1Ev
librecad:_ZN18RS_ActionDimensionD2Ev
librecad:_ZN18RS_ActionDrawArc3P11qt_metacallEN11QMetaObject4CallEiPPv
librecad:_ZN18RS_ActionDrawArc3P11qt_metacastEPKc
librecad:_ZN18RS_ActionDrawArc3P12commandEventEP15RS_CommandEvent
librecad:_ZN18RS_ActionDrawArc3P14mouseMoveEventEP11QMouseEvent
librecad:_ZN18RS_ActionDrawArc3P14preparePreviewEv
librecad:_ZN18RS_ActionDrawArc3P15coordinateEventEP18RS_CoordinateEvent
librecad:_ZN18RS_ActionDrawArc3P16staticMetaObjectE
librecad:_ZN18RS_ActionDrawArc3P17mouseReleaseEventEP11QMouseEvent
librecad:_ZN18RS_ActionDrawArc3P17updateMouseCursorEv
librecad:_ZN18RS_ActionDrawArc3P20getAvailableCommandsEv
librecad:_ZN18RS_ActionDrawArc3P22updateMouseButtonHintsEv
librecad:_ZN18RS_ActionDrawArc3P4initEi
librecad:_ZN18RS_ActionDrawArc3P5resetEv
librecad:_ZN18RS_ActionDrawArc3P7triggerEv
librecad:_ZN18RS_ActionDrawArc3PC1ER18RS_EntityContainerR14RS_GraphicView
librecad:_ZN18RS_ActionDrawArc3PC2ER18RS_EntityContainerR14RS_GraphicView
librecad:_ZN18RS_ActionDrawArc3PD0Ev
librecad:_ZN18RS_ActionDrawArc3PD1Ev
librecad:_ZN18RS_ActionDrawArc3PD2Ev
librecad:_ZN18RS_ActionDrawHatch11qt_metacallEN11QMetaObject4CallEiPPv
librecad:_ZN18RS_ActionDrawHatch11qt_metacastEPKc
librecad:_ZN18RS_ActionDrawHatch11setShowAreaEb
librecad:_ZN18RS_ActionDrawHatch14mouseMoveEventEP11QMouseEvent
librecad:_ZN18RS_ActionDrawHatch16staticMetaObjectE
librecad:_ZN18RS_ActionDrawHatch17mouseReleaseEventEP11QMouseEvent
librecad:_ZN18RS_ActionDrawHatch17updateMouseCursorEv
librecad:_ZN18RS_ActionDrawHatch22updateMouseButtonHintsEv
librecad:_ZN18RS_ActionDrawHatch4initEi
librecad:_ZN18RS_ActionDrawHatch7triggerEv
librecad:_ZN18RS_ActionDrawHatchC1ER18RS_EntityContainerR14RS_GraphicView
librecad:_ZN18RS_ActionDrawHatchC2ER18RS_EntityContainerR14RS_GraphicView
librecad:_ZN18RS_ActionDrawHatchD0Ev
librecad:_ZN18RS_ActionDrawHatchD1Ev
librecad:_ZN18RS_ActionDrawHatchD2Ev
librecad:_ZN18RS_ActionDrawImage11hideOptionsEv
librecad:_ZN18RS_ActionDrawImage11qt_metacallEN11QMetaObject4CallEiPPv
librecad:_ZN18RS_ActionDrawImage11qt_metacastEPKc
librecad:_ZN18RS_ActionDrawImage11showOptionsEv
librecad:_ZN18RS_ActionDrawImage12commandEventEP15RS_CommandEvent
librecad:_ZN18RS_ActionDrawImage14mouseMoveEventEP11QMouseEvent
librecad:_ZN18RS_ActionDrawImage15coordinateEventEP18RS_CoordinateEvent
librecad:_ZN18RS_ActionDrawImage16staticMetaObjectE
librecad:_ZN18RS_ActionDrawImage17mouseReleaseEventEP11QMouseEvent
librecad:_ZN18RS_ActionDrawImage17updateMouseCursorEv
librecad:_ZN18RS_ActionDrawImage20getAvailableCommandsEv
librecad:_ZN18RS_ActionDrawImage22updateMouseButtonHintsEv
librecad:_ZN18RS_ActionDrawImage4initEi
librecad:_ZN18RS_ActionDrawImage5resetEv
librecad:_ZN18RS_ActionDrawImage7triggerEv
librecad:_ZN18RS_ActionDrawImageC1ER18RS_EntityContainerR14RS_GraphicView
librecad:_ZN18RS_ActionDrawImageC2ER18RS_EntityContainerR14RS_GraphicView
librecad:_ZN18RS_ActionDrawImageD0Ev
librecad:_ZN18RS_ActionDrawImageD1Ev
librecad:_ZN18RS_ActionDrawImageD2Ev
librecad:_ZN18RS_ActionDrawMText11hideOptionsEv
librecad:_ZN18RS_ActionDrawMText11qt_metacallEN11QMetaObject4CallEiPPv
librecad:_ZN18RS_ActionDrawMText11qt_metacastEPKc
librecad:_ZN18RS_ActionDrawMText11showOptionsEv
librecad:_ZN18RS_ActionDrawMText12commandEventEP15RS_CommandEvent
librecad:_ZN18RS_ActionDrawMText14mouseMoveEventEP11QMouseEvent
librecad:_ZN18RS_ActionDrawMText14preparePreviewEv
librecad:_ZN18RS_ActionDrawMText15coordinateEventEP18RS_CoordinateEvent
librecad:_ZN18RS_ActionDrawMText16staticMetaObjectE
librecad:_ZN18RS_ActionDrawMText17mouseReleaseEventEP11QMouseEvent
librecad:_ZN18RS_ActionDrawMText17updateMouseCursorEv
librecad:_ZN18RS_ActionDrawMText20getAvailableCommandsEv
librecad:_ZN18RS_ActionDrawMText22updateMouseButtonHintsEv
librecad:_ZN18RS_ActionDrawMText4initEi
librecad:_ZN18RS_ActionDrawMText5resetEv
librecad:_ZN18RS_ActionDrawMText7getTextEv
librecad:_ZN18RS_ActionDrawMText7setTextERK7QString
librecad:_ZN18RS_ActionDrawMText7triggerEv
librecad:_ZN18RS_ActionDrawMText8getAngleEv
librecad:_ZN18RS_ActionDrawMText8setAngleEd
librecad:_ZN18RS_ActionDrawMTextC1ER18RS_EntityContainerR14RS_GraphicView
librecad:_ZN18RS_ActionDrawMTextC2ER18RS_EntityContainerR14RS_GraphicView
librecad:_ZN18RS_ActionDrawMTextD0Ev
librecad:_ZN18RS_ActionDrawMTextD1Ev
librecad:_ZN18RS_ActionDrawMTextD2Ev
librecad:_ZN18RS_ActionDrawPoint11qt_metacallEN11QMetaObject4CallEiPPv
librecad:_ZN18RS_ActionDrawPoint11qt_metacastEPKc
librecad:_ZN18RS_ActionDrawPoint12commandEventEP15RS_CommandEvent
librecad:_ZN18RS_ActionDrawPoint14mouseMoveEventEP11QMouseEvent
librecad:_ZN18RS_ActionDrawPoint15coordinateEventEP18RS_CoordinateEvent
librecad:_ZN18RS_ActionDrawPoint16staticMetaObjectE
librecad:_ZN18RS_ActionDrawPoint17mouseReleaseEventEP11QMouseEvent
librecad:_ZN18RS_ActionDrawPoint17updateMouseCursorEv
librecad:_ZN18RS_ActionDrawPoint20getAvailableCommandsEv
librecad:_ZN18RS_ActionDrawPoint22updateMouseButtonHintsEv
librecad:_ZN18RS_ActionDrawPoint7triggerEv
librecad:_ZN18RS_ActionDrawPointC1ER18RS_EntityContainerR14RS_GraphicView
librecad:_ZN18RS_ActionDrawPointC2ER18RS_EntityContainerR14RS_GraphicView
librecad:_ZN18RS_ActionDrawPointD0Ev
librecad:_ZN18RS_ActionDrawPointD1Ev
librecad:_ZN18RS_ActionDrawPointD2Ev
librecad:_ZN18RS_ActionEditPaste11qt_metacallEN11QMetaObject4CallEiPPv
librecad:_ZN18RS_ActionEditPaste11qt_metacastEPKc
librecad:_ZN18RS_ActionEditPaste14mouseMoveEventEP11QMouseEvent
librecad:_ZN18RS_ActionEditPaste15coordinateEventEP18RS_CoordinateEvent
librecad:_ZN18RS_ActionEditPaste16staticMetaObjectE
librecad:_ZN18RS_ActionEditPaste17mouseReleaseEventEP11QMouseEvent
librecad:_ZN18RS_ActionEditPaste17updateMouseCursorEv
librecad:_ZN18RS_ActionEditPaste22updateMouseButtonHintsEv
librecad:_ZN18RS_ActionEditPaste4initEi
librecad:_ZN18RS_ActionEditPaste7triggerEv
librecad:_ZN18RS_ActionEditPasteC1ER18RS_EntityContainerR14RS_GraphicView
librecad:_ZN18RS_ActionEditPasteC2ER18RS_EntityContainerR14RS_GraphicView
librecad:_ZN18RS_ActionEditPasteD0Ev
librecad:_ZN18RS_ActionEditPasteD1Ev
librecad:_ZN18RS_ActionEditPasteD2Ev
librecad:_ZN18RS_ActionInfoAngle11qt_metacallEN11QMetaObject4CallEiPPv
librecad:_ZN18RS_ActionInfoAngle11qt_metacastEPKc
librecad:_ZN18RS_ActionInfoAngle16staticMetaObjectE
librecad:_ZN18RS_ActionInfoAngle17mouseReleaseEventEP11QMouseEvent
librecad:_ZN18RS_ActionInfoAngle17updateMouseCursorEv
librecad:_ZN18RS_ActionInfoAngle22updateMouseButtonHintsEv
librecad:_ZN18RS_ActionInfoAngle4initEi
librecad:_ZN18RS_ActionInfoAngle7triggerEv
librecad:_ZN18RS_ActionInfoAngleC1ER18RS_EntityContainerR14RS_GraphicView
librecad:_ZN18RS_ActionInfoAngleC2ER18RS_EntityContainerR14RS_GraphicView
librecad:_ZN18RS_ActionInfoAngleD0Ev
librecad:_ZN18RS_ActionInfoAngleD1Ev
librecad:_ZN18RS_ActionInfoAngleD2Ev
librecad:_ZN18RS_ActionInfoDist211qt_metacallEN11QMetaObject4CallEiPPv
librecad:_ZN18RS_ActionInfoDist211qt_metacastEPKc
librecad:_ZN18RS_ActionInfoDist214mouseMoveEventEP11QMouseEvent
librecad:_ZN18RS_ActionInfoDist215coordinateEventEP18RS_CoordinateEvent
librecad:_ZN18RS_ActionInfoDist216staticMetaObjectE
librecad:_ZN18RS_ActionInfoDist217mouseReleaseEventEP11QMouseEvent
librecad:_ZN18RS_ActionInfoDist217updateMouseCursorEv
librecad:_ZN18RS_ActionInfoDist222updateMouseButtonHintsEv
librecad:_ZN18RS_ActionInfoDist24initEi
librecad:_ZN18RS_ActionInfoDist27triggerEv
librecad:_ZN18RS_ActionInfoDist2C1ER18RS_EntityContainerR14RS_GraphicView
librecad:_ZN18RS_ActionInfoDist2C2ER18RS_EntityContainerR14RS_GraphicView
librecad:_ZN18RS_ActionInfoDist2D0Ev
librecad:_ZN18RS_ActionInfoDist2D1Ev
librecad:_ZN18RS_ActionInfoDist2D2Ev
librecad:_ZN18RS_ActionInterface11hideOptionsEv
librecad:_ZN18RS_ActionInterface11qt_metacallEN11QMetaObject4CallEiPPv
librecad:_ZN18RS_ActionInterface11qt_metacastEPKc
librecad:_ZN18RS_ActionInterface11setFinishedEv
librecad:_ZN18RS_ActionInterface11showOptionsEv
librecad:_ZN18RS_ActionInterface12checkCommandERK7QStringS2_N3RS210ActionTypeE
librecad:_ZN18RS_ActionInterface12commandEventEP15RS_CommandEvent
librecad:_ZN18RS_ActionInterface13keyPressEventEP9QKeyEvent
librecad:_ZN18RS_ActionInterface13setActionTypeEN3RS210ActionTypeE
librecad:_ZN18RS_ActionInterface13updateOptionsEv
librecad:_ZN18RS_ActionInterface14mouseMoveEventEP11QMouseEvent
librecad:_ZN18RS_ActionInterface14setPredecessorEPS_
librecad:_ZN18RS_ActionInterface15coordinateEventEP18RS_CoordinateEvent
librecad:_ZN18RS_ActionInterface15keyReleaseEventEP9QKeyEvent
librecad:_ZN18RS_ActionInterface15mousePressEventEP11QMouseEvent
librecad:_ZN18RS_ActionInterface15updateOptionsUIEi
librecad:_ZN18RS_ActionInterface16staticMetaObjectE
librecad:_ZN18RS_ActionInterface17mouseReleaseEventEP11QMouseEvent
librecad:_ZN18RS_ActionInterface17updateMouseCursorEv
librecad:_ZN18RS_ActionInterface19createOptionsWidgetEv
librecad:_ZN18RS_ActionInterface20getAvailableCommandsEv
librecad:_ZN18RS_ActionInterface20msgAvailableCommandsEv
librecad:_ZN18RS_ActionInterface22updateMouseButtonHintsEv
librecad:_ZN18RS_ActionInterface4initEi
librecad:_ZN18RS_ActionInterface6finishEb
librecad:_ZN18RS_ActionInterface6resumeEv
librecad:_ZN18RS_ActionInterface7commandERK7QString
librecad:_ZN18RS_ActionInterface7getNameEv
librecad:_ZN18RS_ActionInterface7setNameEPKc
librecad:_ZN18RS_ActionInterface7suspendEv
librecad:_ZN18RS_ActionInterface7triggerEv
librecad:_ZN18RS_ActionInterface9setStatusEi
librecad:_ZN18RS_ActionInterfaceC1EPKcR18RS_EntityContainerR14RS_GraphicViewN3RS210ActionTypeE
librecad:_ZN18RS_ActionInterfaceC2EPKcR18RS_EntityContainerR14RS_GraphicViewN3RS210ActionTypeE
librecad:_ZN18RS_ActionInterfaceD0Ev
librecad:_ZN18RS_ActionInterfaceD1Ev
librecad:_ZN18RS_ActionInterfaceD2Ev
librecad:_ZN18RS_ActionLayersAdd11qt_metacallEN11QMetaObject4CallEiPPv
librecad:_ZN18RS_ActionLayersAdd11qt_metacastEPKc
librecad:_ZN18RS_ActionLayersAdd16staticMetaObjectE
librecad:_ZN18RS_ActionLayersAdd4initEi
librecad:_ZN18RS_ActionLayersAdd7triggerEv
librecad:_ZN18RS_ActionLayersAddC1ER18RS_EntityContainerR14RS_GraphicView
librecad:_ZN18RS_ActionLayersAddC2ER18RS_EntityContainerR14RS_GraphicView
librecad:_ZN18RS_ActionModifyCut11qt_metacallEN11QMetaObject4CallEiPPv
librecad:_ZN18RS_ActionModifyCut11qt_metacastEPKc
librecad:_ZN18RS_ActionModifyCut14mouseMoveEventEP11QMouseEvent
librecad:_ZN18RS_ActionModifyCut16staticMetaObjectE
librecad:_ZN18RS_ActionModifyCut17mouseReleaseEventEP11QMouseEvent
librecad:_ZN18RS_ActionModifyCut17updateMouseCursorEv
librecad:_ZN18RS_ActionModifyCut22updateMouseButtonHintsEv
librecad:_ZN18RS_ActionModifyCut4initEi
librecad:_ZN18RS_ActionModifyCut7triggerEv
librecad:_ZN18RS_ActionModifyCutC1ER18RS_EntityContainerR14RS_GraphicView
librecad:_ZN18RS_ActionModifyCutC2ER18RS_EntityContainerR14RS_GraphicView
librecad:_ZN18RS_ActionModifyCutD0Ev
librecad:_ZN18RS_ActionModifyCutD1Ev
librecad:_ZN18RS_ActionModifyCutD2Ev
librecad:_ZN18RS_ActionSelectAll11qt_metacallEN11QMetaObject4CallEiPPv
librecad:_ZN18RS_ActionSelectAll11qt_metacastEPKc
librecad:_ZN18RS_ActionSelectAll16staticMetaObjectE
librecad:_ZN18RS_ActionSelectAll4initEi
librecad:_ZN18RS_ActionSelectAll7triggerEv
librecad:_ZN18RS_ActionSelectAllC1ER18RS_EntityContainerR14RS_GraphicViewb
librecad:_ZN18RS_ActionSelectAllC2ER18RS_EntityContainerR14RS_GraphicViewb
librecad:_ZN18RS_ActionZoomAutoY11qt_metacallEN11QMetaObject4CallEiPPv
librecad:_ZN18RS_ActionZoomAutoY11qt_metacastEPKc
librecad:_ZN18RS_ActionZoomAutoY16staticMetaObjectE
librecad:_ZN18RS_ActionZoomAutoY4initEi
librecad:_ZN18RS_ActionZoomAutoY7triggerEv
librecad:_ZN18RS_ActionZoomAutoYC1ER18RS_EntityContainerR14RS_GraphicView
librecad:_ZN18RS_ActionZoomAutoYC2ER18RS_EntityContainerR14RS_GraphicView
librecad:_ZN18RS_EntityContainer10findEntityEPK9RS_Entity
librecad:_ZN18RS_EntityContainer10moveEntityEiR5QListIP9RS_EntityE
librecad:_ZN18RS_EntityContainer10setVisibleEb
librecad:_ZN18RS_EntityContainer11setEntityAtEiP9RS_Entity
librecad:_ZN18RS_EntityContainer11setSelectedEb
librecad:_ZN18RS_EntityContainer12addRectangleERK9RS_VectorS2_
librecad:_ZN18RS_EntityContainer12appendEntityEP9RS_Entity
librecad:_ZN18RS_EntityContainer12insertEntityEiP9RS_Entity
librecad:_ZN18RS_EntityContainer12removeEntityEP9RS_Entity
librecad:_ZN18RS_EntityContainer12selectWindowEN3RS210EntityTypeE9RS_VectorS2_bb
librecad:_ZN18RS_EntityContainer13adjustBordersEP9RS_Entity
librecad:_ZN18RS_EntityContainer13countSelectedEbRK5QListIN3RS210EntityTypeEE
librecad:_ZN18RS_EntityContainer13getEntityListEv
librecad:_ZN18RS_EntityContainer13prependEntityEP9RS_Entity
librecad:_ZN18RS_EntityContainer13renameInsertsERK7QStringS2_
librecad:_ZN18RS_EntityContainer13updateInsertsEv
librecad:_ZN18RS_EntityContainer13updateSplinesEv
librecad:_ZN18RS_EntityContainer14setHighlightedEb
librecad:_ZN18RS_EntityContainer14toggleSelectedEv
librecad:_ZN18RS_EntityContainer15moveSelectedRefERK9RS_VectorS2_
librecad:_ZN18RS_EntityContainer15revertDirectionEv
librecad:_ZN18RS_EntityContainer16calculateBordersEv
librecad:_ZN18RS_EntityContainer16optimizeContoursEv
librecad:_ZN18RS_EntityContainer16updateDimensionsEb
librecad:_ZN18RS_EntityContainer19totalSelectedLengthEv
librecad:_ZN18RS_EntityContainer22forcedCalculateBordersEv
librecad:_ZN18RS_EntityContainer22getNearestIntersectionERK9RS_VectorPd
librecad:_ZN18RS_EntityContainer24hasEndpointsWithinWindowERK9RS_VectorS2_
librecad:_ZN18RS_EntityContainer29getNearestVirtualIntersectionERK9RS_VectorRKdPd
librecad:_ZN18RS_EntityContainer3endEv
librecad:_ZN18RS_EntityContainer4drawEP10RS_PainterP14RS_GraphicViewRd
librecad:_ZN18RS_EntityContainer4moveERK9RS_Vector
librecad:_ZN18RS_EntityContainer5beginEv
librecad:_ZN18RS_EntityContainer5clearEv
librecad:_ZN18RS_EntityContainer5scaleERK9RS_VectorS2_
librecad:_ZN18RS_EntityContainer5shearEd
librecad:_ZN18RS_EntityContainer6detachEv
librecad:_ZN18RS_EntityContainer6mirrorERK9RS_VectorS2_
librecad:_ZN18RS_EntityContainer6rotateERK9RS_VectorRKd
librecad:_ZN18RS_EntityContainer6rotateERK9RS_VectorS2_
librecad:_ZN18RS_EntityContainer6updateEv
librecad:_ZN18RS_EntityContainer7moveRefERK9RS_VectorS2_
librecad:_ZN18RS_EntityContainer7stretchERK9RS_VectorS2_S2_
librecad:_ZN18RS_EntityContainer8entityAtEi
librecad:_ZN18RS_EntityContainer8reparentEPS_
librecad:_ZN18RS_EntityContainer9addEntityEP9RS_Entity
librecad:_ZN18RS_EntityContainerC1EPS_b
librecad:_ZN18RS_EntityContainerC2EPS_b
librecad:_ZN18RS_EntityContainerD0Ev
librecad:_ZN18RS_EntityContainerD1Ev
librecad:_ZN18RS_EntityContainerD2Ev
librecad:_ZN18RS_LineTypePattern10getPatternEN3RS28LineTypeE
librecad:_ZN18RS_LineTypePatternC1ERKSt16initializer_listIdE
librecad:_ZN18RS_LineTypePatternC2ERKSt16initializer_listIdE
librecad:_ZN18RS_VectorSolutions10setTangentEb
librecad:_ZN18RS_VectorSolutions18getClosestDistanceERK9RS_Vectori
librecad:_ZN18RS_VectorSolutions2atEm
librecad:_ZN18RS_VectorSolutions3endEv
librecad:_ZN18RS_VectorSolutions3setEmRK9RS_Vector
librecad:_ZN18RS_VectorSolutions4backEv
librecad:_ZN18RS_VectorSolutions4moveERK9RS_Vector
librecad:_ZN18RS_VectorSolutions5allocEm
librecad:_ZN18RS_VectorSolutions5beginEv
librecad:_ZN18RS_VectorSolutions5clearEv
librecad:_ZN18RS_VectorSolutions5scaleERK9RS_Vector
librecad:_ZN18RS_VectorSolutions5scaleERK9RS_VectorS2_
librecad:_ZN18RS_VectorSolutions6resizeEm
librecad:_ZN18RS_VectorSolutions6rotateERK9RS_Vector
librecad:_ZN18RS_VectorSolutions6rotateERK9RS_VectorS2_
librecad:_ZN18RS_VectorSolutions6rotateERK9RS_Vectord
librecad:_ZN18RS_VectorSolutions6rotateEd
librecad:_ZN18RS_VectorSolutions8removeAtEm
librecad:_ZN18RS_VectorSolutions9push_backERK9RS_Vector
librecad:_ZN18RS_VectorSolutions9push_backERKS_
librecad:_ZN18RS_VectorSolutionsC1ESt16initializer_listI9RS_VectorE
librecad:_ZN18RS_VectorSolutionsC1ESt6vectorI9RS_VectorSaIS1_EE
librecad:_ZN18RS_VectorSolutionsC1Ei
librecad:_ZN18RS_VectorSolutionsC1Ev
librecad:_ZN18RS_VectorSolutionsC2ESt16initializer_listI9RS_VectorE
librecad:_ZN18RS_VectorSolutionsC2ESt6vectorI9RS_VectorSaIS1_EE
librecad:_ZN18RS_VectorSolutionsC2Ei
librecad:_ZN18RS_VectorSolutionsC2Ev
librecad:_ZN18RS_VectorSolutionsixEm
librecad:_ZN19LC_DuplicateOptions11doSetActionEP18RS_ActionInterfaceb
librecad:_ZN19LC_DuplicateOptions11qt_metacallEN11QMetaObject4CallEiPPv
librecad:_ZN19LC_DuplicateOptions11qt_metacastEPKc
librecad:_ZN19LC_DuplicateOptions14doSaveSettingsEv
librecad:_ZN19LC_DuplicateOptions16onInPlaceClickedEb
librecad:_ZN19LC_DuplicateOptions16staticMetaObjectE
librecad:_ZN19LC_DuplicateOptions20checkActionRttiValidEN3RS210ActionTypeE
librecad:_ZN19LC_DuplicateOptions20getSettingsGroupNameEv
librecad:_ZN19LC_DuplicateOptions21onPenModeIndexChangedEi
librecad:_ZN19LC_DuplicateOptions23onLayerModeIndexChangedEi
librecad:_ZN19LC_DuplicateOptions24onOffsetXEditingFinishedEv
librecad:_ZN19LC_DuplicateOptions24onOffsetYEditingFinishedEv
librecad:_ZN19LC_DuplicateOptions25setOffsetXToActionAndViewERK7QString
librecad:_ZN19LC_DuplicateOptions25setOffsetYToActionAndViewERK7QString
librecad:_ZN19LC_DuplicateOptions25setPenModeToActionAndViewEi
librecad:_ZN19LC_DuplicateOptions27getSettingsOptionNamePrefixEv
librecad:_ZN19LC_DuplicateOptions28setLayerModeToActionAndeViewEi
librecad:_ZN19LC_DuplicateOptions34setInPlaceDuplicateToActionAndViewEb
librecad:_ZN19LC_DuplicateOptionsC1EP7QWidget
librecad:_ZN19LC_DuplicateOptionsC2EP7QWidget
librecad:_ZN19LC_DuplicateOptionsD0Ev
librecad:_ZN19LC_DuplicateOptionsD1Ev
librecad:_ZN19LC_DuplicateOptionsD2Ev
librecad:_ZN19LC_ModifyGapOptions11doSetActionEP18RS_ActionInterfaceb
librecad:_ZN19LC_ModifyGapOptions11qt_metacallEN11QMetaObject4CallEiPPv
librecad:_ZN19LC_ModifyGapOptions11qt_metacastEPKc
librecad:_ZN19LC_ModifyGapOptions14doSaveSettingsEv
librecad:_ZN19LC_ModifyGapOptions14languageChangeEv
librecad:_ZN19LC_ModifyGapOptions16onFreeGapClickedEb
librecad:_ZN19LC_ModifyGapOptions16staticMetaObjectE
librecad:_ZN19LC_ModifyGapOptions20checkActionRttiValidEN3RS210ActionTypeE
librecad:_ZN19LC_ModifyGapOptions20getSettingsGroupNameEv
librecad:_ZN19LC_ModifyGapOptions21onSizeEditingFinishedEv
librecad:_ZN19LC_ModifyGapOptions25onDistanceEditingFinishedEv
librecad:_ZN19LC_ModifyGapOptions25onGapSnapModeIndexChangedEi
librecad:_ZN19LC_ModifyGapOptions25setGapSizeToActionAndViewERK7QString
librecad:_ZN19LC_ModifyGapOptions25setGapSnapToActionAndViewEi
librecad:_ZN19LC_ModifyGapOptions26onLineSnapModeIndexChangedEi
librecad:_ZN19LC_ModifyGapOptions26setLineSnapToActionAndViewEi
librecad:_ZN19LC_ModifyGapOptions27getSettingsOptionNamePrefixEv
librecad:_ZN19LC_ModifyGapOptions27setGapIsFreeToActionAndViewEb
librecad:_ZN19LC_ModifyGapOptions30setSnapDistanceToActionAndViewERK7QString
librecad:_ZN19LC_ModifyGapOptionsC1EP7QWidget
librecad:_ZN19LC_ModifyGapOptionsC2EP7QWidget
librecad:_ZN19LC_ModifyGapOptionsD0Ev
librecad:_ZN19LC_ModifyGapOptionsD1Ev
librecad:_ZN19LC_ModifyGapOptionsD2Ev
librecad:_ZN19LC_PenPaletteWidget11qt_metacallEN11QMetaObject4CallEiPPv
librecad:_ZN19LC_PenPaletteWidget11qt_metacastEPKc
librecad:_ZN19LC_PenPaletteWidget11updateModelEv
librecad:_ZN19LC_PenPaletteWidget12setLayerListEP12RS_LayerList
librecad:_ZN19LC_PenPaletteWidget12setMdiWindowEP12QC_MDIWindow
librecad:_ZN19LC_PenPaletteWidget13doDoubleClickEv
librecad:_ZN19LC_PenPaletteWidget13initPenEditorEv
librecad:_ZN19LC_PenPaletteWidget13initTableViewEv
librecad:_ZN19LC_PenPaletteWidget13keyPressEventEP9QKeyEvent
librecad:_ZN19LC_PenPaletteWidget14onModelChangedEv
librecad:_ZN19LC_PenPaletteWidget14onTableClickedE11QModelIndex
librecad:_ZN19LC_PenPaletteWidget15doRemovePenItemEP10LC_PenItem
librecad:_ZN19LC_PenPaletteWidget16doRemovePenItemsER5QListIP10LC_PenItemE
librecad:_ZN19LC_PenPaletteWidget16staticMetaObjectE
librecad:_ZN19LC_PenPaletteWidget17createPenByEditorERK6RS_Pen
librecad:_ZN19LC_PenPaletteWidget17filterMaskChangedEv
librecad:_ZN19LC_PenPaletteWidget18createPenByPenItemER6RS_PenP10LC_PenItem
librecad:_ZN19LC_PenPaletteWidget18getSelectedPenItemEv
librecad:_ZN19LC_PenPaletteWidget18onPenEditorChangedEv
librecad:_ZN19LC_PenPaletteWidget19editSelectedPenItemEv
librecad:_ZN19LC_PenPaletteWidget19getSelectedPenItemsEv
librecad:_ZN19LC_PenPaletteWidget19invokeOptionsDialogEb
librecad:_ZN19LC_PenPaletteWidget19removeActivePenItemEv
librecad:_ZN19LC_PenPaletteWidget20doFillPenEditorByPenE6RS_Pen
librecad:_ZN19LC_PenPaletteWidget20getSelectedItemIndexEv
librecad:_ZN19LC_PenPaletteWidget20initFilteringSectionEv
librecad:_ZN19LC_PenPaletteWidget21createOrUpdatePenItemEv
librecad:_ZN19LC_PenPaletteWidget21markEditingPenChangedEb
librecad:_ZN19LC_PenPaletteWidget21removeSelectedPenItemEv
librecad:_ZN19LC_PenPaletteWidget22fillPenEditorByPenItemEP10LC_PenItem
librecad:_ZN19LC_PenPaletteWidget22removeSelectedPenItemsEv
librecad:_ZN19LC_PenPaletteWidget23invokeItemRemovalDialogER7QString
librecad:_ZN19LC_PenPaletteWidget23onPenEditorColorChangedEi
librecad:_ZN19LC_PenPaletteWidget23onPenEditorWidthChangedEi
librecad:_ZN19LC_PenPaletteWidget23onTableRowDoubleClickedEv
librecad:_ZN19LC_PenPaletteWidget23onTableSelectionChangedERK14QItemSelectionS2_
librecad:_ZN19LC_PenPaletteWidget24onPersistentItemsChangedEv
librecad:_ZN19LC_PenPaletteWidget25applyEditorPenToSelectionEv
librecad:_ZN19LC_PenPaletteWidget26applyEditorPenToPenToolBarEv
librecad:_ZN19LC_PenPaletteWidget26fillPenEditorByActiveLayerEv
librecad:_ZN19LC_PenPaletteWidget26onPenEditorLineTypeChangedEi
librecad:_ZN19LC_PenPaletteWidget27applyEditorPenToActiveLayerEv
librecad:_ZN19LC_PenPaletteWidget27applySelectedPenToSelectionEv
librecad:_ZN19LC_PenPaletteWidget27doSelectEntitiesByPenEditorEbb
librecad:_ZN19LC_PenPaletteWidget28fillPenEditorByPenToolBarPenEv
librecad:_ZN19LC_PenPaletteWidget28invokeItemMultiRemovalDialogER5QListIP10LC_PenItemE
librecad:_ZN19LC_PenPaletteWidget29onTableViewContextMenuInvokedERK6QPoint
librecad:_ZN19LC_PenPaletteWidget29showEntitySelectionInfoDialogEv
librecad:_ZN19LC_PenPaletteWidget29updatePenToolbarByActiveLayerEv
librecad:_ZN19LC_PenPaletteWidget31doApplyPenAttributesToSelectionEN3RS28LineTypeENS0_9LineWidthE8RS_Colorb
librecad:_ZN19LC_PenPaletteWidget31doFillPenEditorBySelectedEntityEb
librecad:_ZN19LC_PenPaletteWidget31invokeUnableToSavePenDataDialogEv
librecad:_ZN19LC_PenPaletteWidget32applySelectedPenItemToPenToolBarEv
librecad:_ZN19LC_PenPaletteWidget32doUpdatePenEditorByPenAttributesERK8RS_ColorRN3RS29LineWidthERNS3_8LineTypeE
librecad:_ZN19LC_PenPaletteWidget33applySelectedPenItemToActiveLayerEv
librecad:_ZN19LC_PenPaletteWidget33doSelectEntitiesBySelectedPenItemEbb
librecad:_ZN19LC_PenPaletteWidget39fillPenEditorBySelectedEntityDrawingPenEv
librecad:_ZN19LC_PenPaletteWidget39selectEntitiesWithDrawingPenByPenEditorEv
librecad:_ZN19LC_PenPaletteWidget42fillPenEditorBySelectedEntityAttributesPenEv
librecad:_ZN19LC_PenPaletteWidget42selectEntitiesWithAttributesPenByPenEditorEv
librecad:_ZN19LC_PenPaletteWidget45selectEntitiesWithDrawingPenBySelectedPenItemEv
librecad:_ZN19LC_PenPaletteWidget48selectEntitiesWithAttributesPenBySelectedPenItemEv
librecad:_ZN19LC_PenPaletteWidget6escapeEv
librecad:_ZN19LC_PenPaletteWidgetC1ERK7QStringP7QWidget
librecad:_ZN19LC_PenPaletteWidgetC2ERK7QStringP7QWidget
librecad:_ZN19LC_SplinePointsDataC1Ebb
librecad:_ZN19LC_SplinePointsDataC2Ebb
librecad:_ZN19QG_CoordinateWidget10setGraphicEP10RS_Graphic
librecad:_ZN19QG_CoordinateWidget11qt_metacallEN11QMetaObject4CallEiPPv
librecad:_ZN19QG_CoordinateWidget11qt_metacastEPKc
librecad:_ZN19QG_CoordinateWidget14languageChangeEv
librecad:_ZN19QG_CoordinateWidget14setCoordinatesERK9RS_VectorS2_b
librecad:_ZN19QG_CoordinateWidget14setCoordinatesEddddb
librecad:_ZN19QG_CoordinateWidget16staticMetaObjectE
librecad:_ZN19QG_CoordinateWidgetC1EP7QWidgetPKc6QFlagsIN2Qt10WindowTypeEE
librecad:_ZN19QG_CoordinateWidgetC2EP7QWidgetPKc6QFlagsIN2Qt10WindowTypeEE
librecad:_ZN19QG_CoordinateWidgetD0Ev
librecad:_ZN19QG_CoordinateWidgetD1Ev
librecad:_ZN19QG_CoordinateWidgetD2Ev
librecad:_ZN19QG_DimLinearOptions11qt_metacallEN11QMetaObject4CallEiPPv
librecad:_ZN19QG_DimLinearOptions11qt_metacastEPKc
librecad:_ZN19QG_DimLinearOptions11updateAngleERK7QString
librecad:_ZN19QG_DimLinearOptions12saveSettingsEv
librecad:_ZN19QG_DimLinearOptions14languageChangeEv
librecad:_ZN19QG_DimLinearOptions16staticMetaObjectE
librecad:_ZN19QG_DimLinearOptions6setHorEv
librecad:_ZN19QG_DimLinearOptions6setVerEv
librecad:_ZN19QG_DimLinearOptions9setActionEP18RS_ActionInterfaceb
librecad:_ZN19QG_DimLinearOptionsC1EP7QWidget6QFlagsIN2Qt10WindowTypeEE
librecad:_ZN19QG_DimLinearOptionsC2EP7QWidget6QFlagsIN2Qt10WindowTypeEE
librecad:_ZN19QG_DimLinearOptionsD0Ev
librecad:_ZN19QG_DimLinearOptionsD1Ev
librecad:_ZN19QG_DimLinearOptionsD2Ev
librecad:_ZN19QG_LineAngleOptions11qt_metacallEN11QMetaObject4CallEiPPv
librecad:_ZN19QG_LineAngleOptions11qt_metacastEPKc
librecad:_ZN19QG_LineAngleOptions11updateAngleERK7QString
librecad:_ZN19QG_LineAngleOptions12saveSettingsEv
librecad:_ZN19QG_LineAngleOptions12updateLengthERK7QString
librecad:_ZN19QG_LineAngleOptions14languageChangeEv
librecad:_ZN19QG_LineAngleOptions15updateSnapPointEi
librecad:_ZN19QG_LineAngleOptions16staticMetaObjectE
librecad:_ZN19QG_LineAngleOptions9setActionEP18RS_ActionInterfaceb
librecad:_ZN19QG_LineAngleOptionsC1EP7QWidget6QFlagsIN2Qt10WindowTypeEE
librecad:_ZN19QG_LineAngleOptionsC2EP7QWidget6QFlagsIN2Qt10WindowTypeEE
librecad:_ZN19QG_LineAngleOptionsD0Ev
librecad:_ZN19QG_LineAngleOptionsD1Ev
librecad:_ZN19QG_LineAngleOptionsD2Ev
librecad:_ZN19RS_ActionBlocksEdit11qt_metacallEN11QMetaObject4CallEiPPv
librecad:_ZN19RS_ActionBlocksEdit11qt_metacastEPKc
librecad:_ZN19RS_ActionBlocksEdit16staticMetaObjectE
librecad:_ZN19RS_ActionBlocksEdit4initEi
librecad:_ZN19RS_ActionBlocksEdit7triggerEv
librecad:_ZN19RS_ActionBlocksEditC1ER18RS_EntityContainerR14RS_GraphicView
librecad:_ZN19RS_ActionBlocksEditC2ER18RS_EntityContainerR14RS_GraphicView
librecad:_ZN19RS_ActionBlocksSave11qt_metacallEN11QMetaObject4CallEiPPv
librecad:_ZN19RS_ActionBlocksSave11qt_metacastEPKc
librecad:_ZN19RS_ActionBlocksSave16staticMetaObjectE
librecad:_ZN19RS_ActionBlocksSave4initEi
librecad:_ZN19RS_ActionBlocksSave7triggerEv
librecad:_ZN19RS_ActionBlocksSave8addBlockEP9RS_InsertP10RS_Graphic
librecad:_ZN19RS_ActionBlocksSaveC1ER18RS_EntityContainerR14RS_GraphicView
librecad:_ZN19RS_ActionBlocksSaveC2ER18RS_EntityContainerR14RS_GraphicView
librecad:_ZN19RS_ActionDimAligned11hideOptionsEv
librecad:_ZN19RS_ActionDimAligned11qt_metacallEN11QMetaObject4CallEiPPv
librecad:_ZN19RS_ActionDimAligned11qt_metacastEPKc
librecad:_ZN19RS_ActionDimAligned11showOptionsEv
librecad:_ZN19RS_ActionDimAligned12commandEventEP15RS_CommandEvent
librecad:_ZN19RS_ActionDimAligned14mouseMoveEventEP11QMouseEvent
librecad:_ZN19RS_ActionDimAligned14preparePreviewEv
librecad:_ZN19RS_ActionDimAligned15coordinateEventEP18RS_CoordinateEvent
librecad:_ZN19RS_ActionDimAligned16staticMetaObjectE
librecad:_ZN19RS_ActionDimAligned17mouseReleaseEventEP11QMouseEvent
librecad:_ZN19RS_ActionDimAligned20getAvailableCommandsEv
librecad:_ZN19RS_ActionDimAligned22updateMouseButtonHintsEv
librecad:_ZN19RS_ActionDimAligned5resetEv
librecad:_ZN19RS_ActionDimAligned7triggerEv
librecad:_ZN19RS_ActionDimAlignedC1ER18RS_EntityContainerR14RS_GraphicView
librecad:_ZN19RS_ActionDimAlignedC2ER18RS_EntityContainerR14RS_GraphicView
librecad:_ZN19RS_ActionDimAlignedD0Ev
librecad:_ZN19RS_ActionDimAlignedD1Ev
librecad:_ZN19RS_ActionDimAlignedD2Ev
librecad:_ZN19RS_ActionDimAngular11hideOptionsEv
librecad:_ZN19RS_ActionDimAngular11qt_metacallEN11QMetaObject4CallEiPPv
librecad:_ZN19RS_ActionDimAngular11qt_metacastEPKc
librecad:_ZN19RS_ActionDimAngular11showOptionsEv
librecad:_ZN19RS_ActionDimAngular12commandEventEP15RS_CommandEvent
librecad:_ZN19RS_ActionDimAngular14mouseMoveEventEP11QMouseEvent
librecad:_ZN19RS_ActionDimAngular15coordinateEventEP18RS_CoordinateEvent
librecad:_ZN19RS_ActionDimAngular16staticMetaObjectE
librecad:_ZN19RS_ActionDimAngular17mouseReleaseEventEP11QMouseEvent
librecad:_ZN19RS_ActionDimAngular20getAvailableCommandsEv
librecad:_ZN19RS_ActionDimAngular22updateMouseButtonHintsEv
librecad:_ZN19RS_ActionDimAngular5resetEv
librecad:_ZN19RS_ActionDimAngular7justifyER7RS_LineRK9RS_Vector
librecad:_ZN19RS_ActionDimAngular7setDataERK9RS_Vectorb
librecad:_ZN19RS_ActionDimAngular7triggerEv
librecad:_ZN19RS_ActionDimAngular8quadrantEd
librecad:_ZN19RS_ActionDimAngular9lineOrderERK9RS_Vector
librecad:_ZN19RS_ActionDimAngularC1ER18RS_EntityContainerR14RS_GraphicView
librecad:_ZN19RS_ActionDimAngularC2ER18RS_EntityContainerR14RS_GraphicView
librecad:_ZN19RS_ActionDimAngularD0Ev
librecad:_ZN19RS_ActionDimAngularD1Ev
librecad:_ZN19RS_ActionDimAngularD2Ev
librecad:_ZN19RS_ActionDrawCircle11hideOptionsEv
librecad:_ZN19RS_ActionDrawCircle11qt_metacallEN11QMetaObject4CallEiPPv
librecad:_ZN19RS_ActionDrawCircle11qt_metacastEPKc
librecad:_ZN19RS_ActionDrawCircle11showOptionsEv
librecad:_ZN19RS_ActionDrawCircle12commandEventEP15RS_CommandEvent
librecad:_ZN19RS_ActionDrawCircle14mouseMoveEventEP11QMouseEvent
librecad:_ZN19RS_ActionDrawCircle15coordinateEventEP18RS_CoordinateEvent
librecad:_ZN19RS_ActionDrawCircle16staticMetaObjectE
librecad:_ZN19RS_ActionDrawCircle17mouseReleaseEventEP11QMouseEvent
librecad:_ZN19RS_ActionDrawCircle17updateMouseCursorEv
librecad:_ZN19RS_ActionDrawCircle22updateMouseButtonHintsEv
librecad:_ZN19RS_ActionDrawCircle4initEi
librecad:_ZN19RS_ActionDrawCircle5resetEv
librecad:_ZN19RS_ActionDrawCircle7triggerEv
librecad:_ZN19RS_ActionDrawCircleC1ER18RS_EntityContainerR14RS_GraphicView
librecad:_ZN19RS_ActionDrawCircleC2ER18RS_EntityContainerR14RS_GraphicView
librecad:_ZN19RS_ActionDrawCircleD0Ev
librecad:_ZN19RS_ActionDrawCircleD1Ev
librecad:_ZN19RS_ActionDrawCircleD2Ev
librecad:_ZN19RS_ActionDrawSpline11hideOptionsEv
librecad:_ZN19RS_ActionDrawSpline11qt_metacallEN11QMetaObject4CallEiPPv
librecad:_ZN19RS_ActionDrawSpline11qt_metacastEPKc
librecad:_ZN19RS_ActionDrawSpline11showOptionsEv
librecad:_ZN19RS_ActionDrawSpline12commandEventEP15RS_CommandEvent
librecad:_ZN19RS_ActionDrawSpline14mouseMoveEventEP11QMouseEvent
librecad:_ZN19RS_ActionDrawSpline15coordinateEventEP18RS_CoordinateEvent
librecad:_ZN19RS_ActionDrawSpline16staticMetaObjectE
librecad:_ZN19RS_ActionDrawSpline17mouseReleaseEventEP11QMouseEvent
librecad:_ZN19RS_ActionDrawSpline17updateMouseCursorEv
librecad:_ZN19RS_ActionDrawSpline20getAvailableCommandsEv
librecad:_ZN19RS_ActionDrawSpline22updateMouseButtonHintsEv
librecad:_ZN19RS_ActionDrawSpline4initEi
librecad:_ZN19RS_ActionDrawSpline4undoEv
librecad:_ZN19RS_ActionDrawSpline5resetEv
librecad:_ZN19RS_ActionDrawSpline7triggerEv
librecad:_ZN19RS_ActionDrawSpline8isClosedEv
librecad:_ZN19RS_ActionDrawSpline9getDegreeEv
librecad:_ZN19RS_ActionDrawSpline9setClosedEb
librecad:_ZN19RS_ActionDrawSpline9setDegreeEi
librecad:_ZN19RS_ActionDrawSplineC1ER18RS_EntityContainerR14RS_GraphicView
librecad:_ZN19RS_ActionDrawSplineC2ER18RS_EntityContainerR14RS_GraphicView
librecad:_ZN19RS_ActionDrawSplineD0Ev
librecad:_ZN19RS_ActionDrawSplineD1Ev
librecad:_ZN19RS_ActionDrawSplineD2Ev
librecad:_ZN19RS_ActionFileSaveAs11qt_metacallEN11QMetaObject4CallEiPPv
librecad:_ZN19RS_ActionFileSaveAs11qt_metacastEPKc
librecad:_ZN19RS_ActionFileSaveAs16staticMetaObjectE
librecad:_ZN19RS_ActionFileSaveAs4initEi
librecad:_ZN19RS_ActionFileSaveAs7triggerEv
librecad:_ZN19RS_ActionFileSaveAsC1ER18RS_EntityContainerR14RS_GraphicView
librecad:_ZN19RS_ActionFileSaveAsC2ER18RS_EntityContainerR14RS_GraphicView
librecad:_ZN19RS_ActionInfoInside11qt_metacallEN11QMetaObject4CallEiPPv
librecad:_ZN19RS_ActionInfoInside11qt_metacastEPKc
librecad:_ZN19RS_ActionInfoInside14mouseMoveEventEP11QMouseEvent
librecad:_ZN19RS_ActionInfoInside16staticMetaObjectE
librecad:_ZN19RS_ActionInfoInside17mouseReleaseEventEP11QMouseEvent
librecad:_ZN19RS_ActionInfoInside17updateMouseCursorEv
librecad:_ZN19RS_ActionInfoInside22updateMouseButtonHintsEv
librecad:_ZN19RS_ActionInfoInside7triggerEv
librecad:_ZN19RS_ActionInfoInsideC1ER18RS_EntityContainerR14RS_GraphicView
librecad:_ZN19RS_ActionInfoInsideC2ER18RS_EntityContainerR14RS_GraphicView
librecad:_ZN19RS_ActionInfoInsideD0Ev
librecad:_ZN19RS_ActionInfoInsideD1Ev
librecad:_ZN19RS_ActionInfoInsideD2Ev
librecad:_ZN19RS_ActionLayersEdit11qt_metacallEN11QMetaObject4CallEiPPv
librecad:_ZN19RS_ActionLayersEdit11qt_metacastEPKc
librecad:_ZN19RS_ActionLayersEdit16staticMetaObjectE
librecad:_ZN19RS_ActionLayersEdit4initEi
librecad:_ZN19RS_ActionLayersEdit7triggerEv
librecad:_ZN19RS_ActionLayersEditC1ER18RS_EntityContainerR14RS_GraphicView
librecad:_ZN19RS_ActionLayersEditC2ER18RS_EntityContainerR14RS_GraphicView
librecad:_ZN19RS_ActionModifyMove11qt_metacallEN11QMetaObject4CallEiPPv
librecad:_ZN19RS_ActionModifyMove11qt_metacastEPKc
librecad:_ZN19RS_ActionModifyMove14mouseMoveEventEP11QMouseEvent
librecad:_ZN19RS_ActionModifyMove15coordinateEventEP18RS_CoordinateEvent
librecad:_ZN19RS_ActionModifyMove16staticMetaObjectE
librecad:_ZN19RS_ActionModifyMove17mouseReleaseEventEP11QMouseEvent
librecad:_ZN19RS_ActionModifyMove17updateMouseCursorEv
librecad:_ZN19RS_ActionModifyMove22updateMouseButtonHintsEv
librecad:_ZN19RS_ActionModifyMove7triggerEv
librecad:_ZN19RS_ActionModifyMoveC1ER18RS_EntityContainerR14RS_GraphicView
librecad:_ZN19RS_ActionModifyMoveC2ER18RS_EntityContainerR14RS_GraphicView
librecad:_ZN19RS_ActionModifyMoveD0Ev
librecad:_ZN19RS_ActionModifyMoveD1Ev
librecad:_ZN19RS_ActionModifyMoveD2Ev
librecad:_ZN19RS_ActionModifyTrim11qt_metacallEN11QMetaObject4CallEiPPv
librecad:_ZN19RS_ActionModifyTrim11qt_metacastEPKc
librecad:_ZN19RS_ActionModifyTrim14mouseMoveEventEP11QMouseEvent
librecad:_ZN19RS_ActionModifyTrim16staticMetaObjectE
librecad:_ZN19RS_ActionModifyTrim17mouseReleaseEventEP11QMouseEvent
librecad:_ZN19RS_ActionModifyTrim17updateMouseCursorEv
librecad:_ZN19RS_ActionModifyTrim22updateMouseButtonHintsEv
librecad:_ZN19RS_ActionModifyTrim25unhighlightLimitingEntityEv
librecad:_ZN19RS_ActionModifyTrim4initEi
librecad:_ZN19RS_ActionModifyTrim6finishEb
librecad:_ZN19RS_ActionModifyTrim7triggerEv
librecad:_ZN19RS_ActionModifyTrimC1ER18RS_EntityContainerR14RS_GraphicViewb
librecad:_ZN19RS_ActionModifyTrimC2ER18RS_EntityContainerR14RS_GraphicViewb
librecad:_ZN19RS_ActionModifyTrimD0Ev
librecad:_ZN19RS_ActionModifyTrimD1Ev
librecad:_ZN19RS_ActionModifyTrimD2Ev
librecad:_ZN19RS_ActionSelectBase11qt_metacallEN11QMetaObject4CallEiPPv
librecad:_ZN19RS_ActionSelectBase11qt_metacastEPKc
librecad:_ZN19RS_ActionSelectBase15keyReleaseEventEP9QKeyEvent
librecad:_ZN19RS_ActionSelectBase16staticMetaObjectE
librecad:_ZN19RS_ActionSelectBase17updateMouseCursorEv
librecad:_ZN19RS_ActionSelectBaseC1EPKcR18RS_EntityContainerR14RS_GraphicView
librecad:_ZN19RS_ActionSelectBaseC2EPKcR18RS_EntityContainerR14RS_GraphicView
librecad:_ZN19RS_ActionZoomRedraw11qt_metacallEN11QMetaObject4CallEiPPv
librecad:_ZN19RS_ActionZoomRedraw11qt_metacastEPKc
librecad:_ZN19RS_ActionZoomRedraw16staticMetaObjectE
librecad:_ZN19RS_ActionZoomRedraw4initEi
librecad:_ZN19RS_ActionZoomRedraw7triggerEv
librecad:_ZN19RS_ActionZoomRedrawC1ER18RS_EntityContainerR14RS_GraphicView
librecad:_ZN19RS_ActionZoomRedrawC2ER18RS_EntityContainerR14RS_GraphicView
librecad:_ZN19RS_ActionZoomScroll11qt_metacallEN11QMetaObject4CallEiPPv
librecad:_ZN19RS_ActionZoomScroll11qt_metacastEPKc
librecad:_ZN19RS_ActionZoomScroll16staticMetaObjectE
librecad:_ZN19RS_ActionZoomScroll4initEi
librecad:_ZN19RS_ActionZoomScroll7triggerEv
librecad:_ZN19RS_ActionZoomScrollC1EN3RS29DirectionER18RS_EntityContainerR14RS_GraphicView
librecad:_ZN19RS_ActionZoomScrollC1EiiR18RS_EntityContainerR14RS_GraphicView
librecad:_ZN19RS_ActionZoomScrollC2EN3RS29DirectionER18RS_EntityContainerR14RS_GraphicView
librecad:_ZN19RS_ActionZoomScrollC2EiiR18RS_EntityContainerR14RS_GraphicView
librecad:_ZN19RS_ActionZoomWindow11qt_metacallEN11QMetaObject4CallEiPPv
librecad:_ZN19RS_ActionZoomWindow11qt_metacastEPKc
librecad:_ZN19RS_ActionZoomWindow14mouseMoveEventEP11QMouseEvent
librecad:_ZN19RS_ActionZoomWindow15mousePressEventEP11QMouseEvent
librecad:_ZN19RS_ActionZoomWindow16staticMetaObjectE
librecad:_ZN19RS_ActionZoomWindow17mouseReleaseEventEP11QMouseEvent
librecad:_ZN19RS_ActionZoomWindow17updateMouseCursorEv
librecad:_ZN19RS_ActionZoomWindow22updateMouseButtonHintsEv
librecad:_ZN19RS_ActionZoomWindow4initEi
librecad:_ZN19RS_ActionZoomWindow7triggerEv
librecad:_ZN19RS_ActionZoomWindowC1ER18RS_EntityContainerR14RS_GraphicViewb
librecad:_ZN19RS_ActionZoomWindowC2ER18RS_EntityContainerR14RS_GraphicViewb
librecad:_ZN19RS_ActionZoomWindowD0Ev
librecad:_ZN19RS_ActionZoomWindowD1Ev
librecad:_ZN19RS_ActionZoomWindowD2Ev
librecad:_ZN19RS_ConstructionLine16calculateBordersEv
librecad:_ZN19RS_ConstructionLine4moveERK9RS_Vector
librecad:_ZN19RS_ConstructionLine5scaleERK9RS_VectorS2_
librecad:_ZN19RS_ConstructionLine5shearEd
librecad:_ZN19RS_ConstructionLine6mirrorERK9RS_VectorS2_
librecad:_ZN19RS_ConstructionLine6rotateERK9RS_VectorRKd
librecad:_ZN19RS_ConstructionLine6rotateERK9RS_VectorS2_
librecad:_ZN19RS_ConstructionLineC1EP18RS_EntityContainerRK23RS_ConstructionLineData
librecad:_ZN19RS_ConstructionLineC2EP18RS_EntityContainerRK23RS_ConstructionLineData
librecad:_ZN19RS_DimDiametricDataC1ERK9RS_Vectord
librecad:_ZN19RS_DimDiametricDataC1Ev
librecad:_ZN19RS_DimDiametricDataC2ERK9RS_Vectord
librecad:_ZN19RS_DimDiametricDataC2Ev
librecad:_ZN20Doc_plugin_interface10addEllipseEP7QPointFS1_ddd
librecad:_ZN20Doc_plugin_interface10updateViewEv
librecad:_ZN20Doc_plugin_interface11addPolylineERKSt6vectorI15Plug_VertexDataSaIS1_EEb
librecad:_ZN20Doc_plugin_interface11addVariableERK7QStringdi
librecad:_ZN20Doc_plugin_interface11addVariableERK7QStringii
librecad:_ZN20Doc_plugin_interface11deleteLayerE7QString
librecad:_ZN20Doc_plugin_interface11getAllLayerEv
librecad:_ZN20Doc_plugin_interface12getAllBlocksEv
librecad:_ZN20Doc_plugin_interface12removeEntityEP11Plug_Entity
librecad:_ZN20Doc_plugin_interface12updateEntityEP9RS_EntityS1_
librecad:_ZN20Doc_plugin_interface14getAllEntitiesEP5QListIP11Plug_EntityEb
librecad:_ZN20Doc_plugin_interface14getVariableIntERK7QStringPi
librecad:_ZN20Doc_plugin_interface15addSplinePointsERKSt6vectorI7QPointFSaIS1_EEb
librecad:_ZN20Doc_plugin_interface15getCurrentLayerEv
librecad:_ZN20Doc_plugin_interface15getSelectByTypeEP5QListIP11Plug_EntityEN3DPI5ETYPEERK7QString
librecad:_ZN20Doc_plugin_interface16unselectEntitiesEv
librecad:_ZN20Doc_plugin_interface17getVariableDoubleERK7QStringPd
librecad:_ZN20Doc_plugin_interface20addBlockfromFromdiskE7QString
librecad:_ZN20Doc_plugin_interface25getCurrentLayerPropertiesEPiP7QStringS2_
librecad:_ZN20Doc_plugin_interface25getCurrentLayerPropertiesEPiPN3DPI9LineWidthEPNS1_8LineTypeE
librecad:_ZN20Doc_plugin_interface25setCurrentLayerPropertiesEiN3DPI9LineWidthENS0_8LineTypeE
librecad:_ZN20Doc_plugin_interface25setCurrentLayerPropertiesEiRK7QStringS2_
librecad:_ZN20Doc_plugin_interface6addArcEP7QPointFddd
librecad:_ZN20Doc_plugin_interface6getEntERK7QString
librecad:_ZN20Doc_plugin_interface6getIntEPiRK7QStringS3_
librecad:_ZN20Doc_plugin_interface7addLineEP7QPointFS1_
librecad:_ZN20Doc_plugin_interface7addTextE7QStringS0_P7QPointFddN3DPI6HAlignENS3_6VAlignE
librecad:_ZN20Doc_plugin_interface7getRealEPdRK7QStringS3_
librecad:_ZN20Doc_plugin_interface8addImageEiP7QPointFS1_S1_ii7QStringiii
librecad:_ZN20Doc_plugin_interface8addLinesERKSt6vectorI7QPointFSaIS1_EEb
librecad:_ZN20Doc_plugin_interface8addMTextE7QStringS0_P7QPointFddN3DPI6HAlignENS3_6VAlignE
librecad:_ZN20Doc_plugin_interface8addPointEP7QPointF
librecad:_ZN20Doc_plugin_interface8getPointEP7QPointFRK7QStringS1_
librecad:_ZN20Doc_plugin_interface8setLayerE7QString
librecad:_ZN20Doc_plugin_interface9addCircleEP7QPointFd
librecad:_ZN20Doc_plugin_interface9addEntityEP11Plug_Entity
librecad:_ZN20Doc_plugin_interface9addInsertE7QString7QPointFS1_d
librecad:_ZN20Doc_plugin_interface9addToUndoEP9RS_EntityS1_N3DPI11DispositionE
librecad:_ZN20Doc_plugin_interface9getSelectEP5QListIP11Plug_EntityERK7QString
librecad:_ZN20Doc_plugin_interface9getStringEP7QStringRKS0_S3_
librecad:_ZN20Doc_plugin_interface9newEntityEN3DPI5ETYPEE
librecad:_ZN20Doc_plugin_interface9realToStrEdii
librecad:_ZN20Doc_plugin_interfaceC1EP11RS_DocumentP14RS_GraphicViewP7QWidget
librecad:_ZN20Doc_plugin_interfaceC2EP11RS_DocumentP14RS_GraphicViewP7QWidget
librecad:_ZN20LC_FileDialogService14getFileDetailsERKNS_14FileDialogModeE
librecad:_ZN20LC_LinePointsOptions11doSetActionEP18RS_ActionInterfaceb
librecad:_ZN20LC_LinePointsOptions11qt_metacallEN11QMetaObject4CallEiPPv
librecad:_ZN20LC_LinePointsOptions11qt_metacastEPKc
librecad:_ZN20LC_LinePointsOptions14doSaveSettingsEv
librecad:_ZN20LC_LinePointsOptions14languageChangeEv
librecad:_ZN20LC_LinePointsOptions14onAngleClickedEb
librecad:_ZN20LC_LinePointsOptions16staticMetaObjectE
librecad:_ZN20LC_LinePointsOptions19onWithinLineClickedEb
librecad:_ZN20LC_LinePointsOptions20checkActionRttiValidEN3RS210ActionTypeE
librecad:_ZN20LC_LinePointsOptions22onAngleEditingFinishedEv
librecad:_ZN20LC_LinePointsOptions22onFixedDistanceClickedEb
librecad:_ZN20LC_LinePointsOptions23setAngleToActionAndViewE7QStringb
librecad:_ZN20LC_LinePointsOptions25onDistanceEditingFinishedEv
librecad:_ZN20LC_LinePointsOptions25onPointsCountValueChangedEi
librecad:_ZN20LC_LinePointsOptions26setDistanceToActionAndViewE7QString
librecad:_ZN20LC_LinePointsOptions27getSettingsOptionNamePrefixEv
librecad:_ZN20LC_LinePointsOptions27setAngleModeToActionAndViewEb
librecad:_ZN20LC_LinePointsOptions27setPointsCountActionAndViewEi
librecad:_ZN20LC_LinePointsOptions28onEdgePointsModeIndexChangedEi
librecad:_ZN20LC_LinePointsOptions32setEdgePointsModeToActionAndViewEi
librecad:_ZN20LC_LinePointsOptions32setWithinLineModeToActionAndViewEb
librecad:_ZN20LC_LinePointsOptions35setFixedDistanceModeToActionAndViewEb
librecad:_ZN20LC_LinePointsOptionsC1EP7QWidget
librecad:_ZN20LC_LinePointsOptionsC2EP7QWidget
librecad:_ZN20LC_LinePointsOptionsD0Ev
librecad:_ZN20LC_LinePointsOptionsD1Ev
librecad:_ZN20LC_LinePointsOptionsD2Ev
librecad:_ZN20LC_PenPaletteOptions14saveToSettingsEv
librecad:_ZN20LC_PenPaletteOptions16loadFromSettingsEv
librecad:_ZN20QC_ApplicationWindow10assignMenuERK7QStringS2_
librecad:_ZN20QC_ApplicationWindow10closeEventEP11QCloseEvent
librecad:_ZN20QC_ApplicationWindow10doActivateEP13QMdiSubWindow
librecad:_ZN20QC_ApplicationWindow10getMdiAreaEv
librecad:_ZN20QC_ApplicationWindow10updateMenuERK7QString
librecad:_ZN20QC_ApplicationWindow11changeEventEP6QEvent
librecad:_ZN20QC_ApplicationWindow11destroyMenuERK7QString
librecad:_ZN20QC_ApplicationWindow11eventFilterEP7QObjectP6QEvent
librecad:_ZN20QC_ApplicationWindow11getDocumentEv
librecad:_ZN20QC_ApplicationWindow11gridChangedEb
librecad:_ZN20QC_ApplicationWindow11hideOptionsEP12QC_MDIWindow
librecad:_ZN20QC_ApplicationWindow11loadPluginsEv
librecad:_ZN20QC_ApplicationWindow11qt_metacallEN11QMetaObject4CallEiPPv
librecad:_ZN20QC_ApplicationWindow11qt_metacastEPKc
librecad:_ZN20QC_ApplicationWindow11relayActionEP7QAction
librecad:_ZN20QC_ApplicationWindow11slotCascadeEv
librecad:_ZN20QC_ApplicationWindow11slotFileNewEP11RS_Document
librecad:_ZN20QC_ApplicationWindow11updateGridsEv
librecad:_ZN20QC_ApplicationWindow12draftChangedEb
librecad:_ZN20QC_ApplicationWindow12getAppWindowEv
librecad:_ZN20QC_ApplicationWindow12getMDIWindowEv
librecad:_ZN20QC_ApplicationWindow12initSettingsEv
librecad:_ZN20QC_ApplicationWindow12setTabLayoutEN3RS28TabShapeENS0_11TabPositionE
librecad:_ZN20QC_ApplicationWindow12slotFileOpenERK7QString
librecad:_ZN20QC_ApplicationWindow12slotFileOpenERK7QStringN3RS210FormatTypeE
librecad:_ZN20QC_ApplicationWindow12slotFileOpenEv
librecad:_ZN20QC_ApplicationWindow12slotFileQuitEv
librecad:_ZN20QC_ApplicationWindow12slotFileSaveEv
librecad:_ZN20QC_ApplicationWindow12slotViewGridEb
librecad:_ZN20QC_ApplicationWindow12slotZoomAutoEv
librecad:_ZN20QC_ApplicationWindow12unassignMenuERK7QStringS2_
librecad:_ZN20QC_ApplicationWindow12updateDeviceE7QString
librecad:_ZN20QC_ApplicationWindow13createToolbarERK7QString
librecad:_ZN20QC_ApplicationWindow13keyPressEventEP9QKeyEvent
librecad:_ZN20QC_ApplicationWindow13setRedoEnableEb
librecad:_ZN20QC_ApplicationWindow13setUndoEnableEb
librecad:_ZN20QC_ApplicationWindow13slotFilePrintEb
librecad:_ZN20QC_ApplicationWindow13slotToggleTabEv
librecad:_ZN20QC_ApplicationWindow13slotViewDraftEb
librecad:_ZN20QC_ApplicationWindow13startAutoSaveEb
librecad:_ZN20QC_ApplicationWindow13storeSettingsEv
librecad:_ZN20QC_ApplicationWindow14destroyToolbarERK7QString
librecad:_ZN20QC_ApplicationWindow14dragEnterEventEP15QDragEnterEvent
librecad:_ZN20QC_ApplicationWindow14getGraphicViewEv
librecad:_ZN20QC_ApplicationWindow14loadStyleSheetE7QString
librecad:_ZN20QC_ApplicationWindow14slotFileExportERK7QStringS2_5QSizeS3_bb
librecad:_ZN20QC_ApplicationWindow14slotFileExportEv
librecad:_ZN20QC_ApplicationWindow14slotFileNewNewEv
librecad:_ZN20QC_ApplicationWindow14slotFileSaveAsEv
librecad:_ZN20QC_ApplicationWindow14slotPenChangedE6RS_Pen
librecad:_ZN20QC_ApplicationWindow14windowsChangedEb
librecad:_ZN20QC_ApplicationWindow15createPopupMenuEv
librecad:_ZN20QC_ApplicationWindow15showAboutWindowEv
librecad:_ZN20QC_ApplicationWindow15showCloseDialogEP12QC_MDIWindowb
librecad:_ZN20QC_ApplicationWindow15slotFileClosingEP12QC_MDIWindow
librecad:_ZN20QC_ApplicationWindow15slotFileSaveAllEv
librecad:_ZN20QC_ApplicationWindow15slotImportBlockEv
librecad:_ZN20QC_ApplicationWindow16doArrangeWindowsEN3RS213SubWindowModeEb
librecad:_ZN20QC_ApplicationWindow16getWindowWithDocEPK11RS_Document
librecad:_ZN20QC_ApplicationWindow16reloadStyleSheetEv
librecad:_ZN20QC_ApplicationWindow16slotFileAutoSaveEv
librecad:_ZN20QC_ApplicationWindow16slotFileCloseAllEv
librecad:_ZN20QC_ApplicationWindow16slotFilePrintPDFEv
librecad:_ZN20QC_ApplicationWindow16slotSetMaximizedEv
librecad:_ZN20QC_ApplicationWindow16slotTileVerticalEv
librecad:_ZN20QC_ApplicationWindow16staticMetaObjectE
librecad:_ZN20QC_ApplicationWindow16toggleFullscreenEb
librecad:_ZN20QC_ApplicationWindow16updateGridStatusERK7QString
librecad:_ZN20QC_ApplicationWindow17createNewDocumentERK7QStringP11RS_Document
librecad:_ZN20QC_ApplicationWindow17enableFileActionsEP12QC_MDIWindow
librecad:_ZN20QC_ApplicationWindow17invokeMenuCreatorEv
librecad:_ZN20QC_ApplicationWindow17showDeviceOptionsEv
librecad:_ZN20QC_ApplicationWindow17slotEnableActionsEb
librecad:_ZN20QC_ApplicationWindow17slotFileNewHelperE7QStringP12QC_MDIWindow
librecad:_ZN20QC_ApplicationWindow17slotViewStatusBarEb
librecad:_ZN20QC_ApplicationWindow17updateWindowTitleEP7QWidget
librecad:_ZN20QC_ApplicationWindow18invokeMenuAssignerERK7QString
librecad:_ZN20QC_ApplicationWindow18showBlockActivatedEPK8RS_Block
librecad:_ZN20QC_ApplicationWindow18slotFileOpenRecentEP7QAction
librecad:_ZN20QC_ApplicationWindow18slotKillAllActionsEv
librecad:_ZN20QC_ApplicationWindow18slotOptionsGeneralEv
librecad:_ZN20QC_ApplicationWindow18slotTileHorizontalEv
librecad:_ZN20QC_ApplicationWindow19invokeLicenseWindowEv
librecad:_ZN20QC_ApplicationWindow19printPreviewChangedEb
librecad:_ZN20QC_ApplicationWindow19slotFileNewTemplateEv
librecad:_ZN20QC_ApplicationWindow19slotTabPositionEastEv
librecad:_ZN20QC_ApplicationWindow19slotTabPositionWestEv
librecad:_ZN20QC_ApplicationWindow19slotTabShapeRoundedEv
librecad:_ZN20QC_ApplicationWindow19slotWindowActivatedEP13QMdiSubWindowb
librecad:_ZN20QC_ApplicationWindow19slotWindowActivatedEi
librecad:_ZN20QC_ApplicationWindow19widgetOptionsDialogEv
librecad:_ZN20QC_ApplicationWindow20invokeToolbarCreatorEv
librecad:_ZN20QC_ApplicationWindow20slotFilePrintPreviewEb
librecad:_ZN20QC_ApplicationWindow20slotFocusCommandLineEv
librecad:_ZN20QC_ApplicationWindow20slotTabPositionNorthEv
librecad:_ZN20QC_ApplicationWindow20slotTabPositionSouthEv
librecad:_ZN20QC_ApplicationWindow21modifyCommandTitleBarEN2Qt14DockWidgetAreaE
librecad:_ZN20QC_ApplicationWindow21setPreviousZoomEnableEb
librecad:_ZN20QC_ApplicationWindow21slotUpdateActiveLayerEv
librecad:_ZN20QC_ApplicationWindow22activateWindowWithFileER7QString
librecad:_ZN20QC_ApplicationWindow22slotTabShapeTriangularEv
librecad:_ZN20QC_ApplicationWindow23format_filename_captionERK7QString
librecad:_ZN20QC_ApplicationWindow24slotWindowsMenuActivatedEb
librecad:_ZN20QC_ApplicationWindow26slotWindowsMenuAboutToShowEv
librecad:_ZN20QC_ApplicationWindow29signalEnableRelativeZeroSnapsEb
librecad:_ZN20QC_ApplicationWindow6doSaveEP12QC_MDIWindowb
librecad:_ZN20QC_ApplicationWindow7doCloseEP12QC_MDIWindowb
librecad:_ZN20QC_ApplicationWindow8execPlugEv
librecad:_ZN20QC_ApplicationWindow8findMenuERK7QString5QListIP7QObjectES2_
librecad:_ZN20QC_ApplicationWindow8slotBackEv
librecad:_ZN20QC_ApplicationWindow8slotTileEv
librecad:_ZN20QC_ApplicationWindow9dropEventEP10QDropEvent
librecad:_ZN20QC_ApplicationWindow9queryExitEb
librecad:_ZN20QC_ApplicationWindow9redrawAllEv
librecad:_ZN20QC_ApplicationWindow9slotEnterEv
librecad:_ZN20QC_ApplicationWindow9slotErrorERK7QString
librecad:_ZN20QC_ApplicationWindow9slotFocusEv
librecad:_ZN20QC_ApplicationWindowC1Ev
librecad:_ZN20QC_ApplicationWindowC2Ev
librecad:_ZN20QC_ApplicationWindowD0Ev
librecad:_ZN20QC_ApplicationWindowD1Ev
librecad:_ZN20QC_ApplicationWindowD2Ev
librecad:_ZN20QG_CircleTan2Options11qt_metacallEN11QMetaObject4CallEiPPv
librecad:_ZN20QG_CircleTan2Options11qt_metacastEPKc
librecad:_ZN20QG_CircleTan2Options12saveSettingsEv
librecad:_ZN20QG_CircleTan2Options12updateRadiusERK7QString
librecad:_ZN20QG_CircleTan2Options14languageChangeEv
librecad:_ZN20QG_CircleTan2Options16staticMetaObjectE
librecad:_ZN20QG_CircleTan2Options9setActionEP18RS_ActionInterfaceb
librecad:_ZN20QG_CircleTan2OptionsC1EP7QWidget6QFlagsIN2Qt10WindowTypeEE
librecad:_ZN20QG_CircleTan2OptionsC2EP7QWidget6QFlagsIN2Qt10WindowTypeEE
librecad:_ZN20QG_CircleTan2OptionsD0Ev
librecad:_ZN20QG_CircleTan2OptionsD1Ev
librecad:_ZN20QG_CircleTan2OptionsD2Ev
librecad:_ZN20QG_DlgOptionsDrawing10setGraphicEP10RS_Graphic
librecad:_ZN20QG_DlgOptionsDrawing11qt_metacallEN11QMetaObject4CallEiPPv
librecad:_ZN20QG_DlgOptionsDrawing11qt_metacastEPKc
librecad:_ZN20QG_DlgOptionsDrawing11resizeEventEP12QResizeEvent
librecad:_ZN20QG_DlgOptionsDrawing13updatePreviewEv
librecad:_ZN20QG_DlgOptionsDrawing14languageChangeEv
librecad:_ZN20QG_DlgOptionsDrawing15updatePaperSizeEv
librecad:_ZN20QG_DlgOptionsDrawing16staticMetaObjectE
librecad:_ZN20QG_DlgOptionsDrawing16updateLPtSzUnitsEv
librecad:_ZN20QG_DlgOptionsDrawing16updateUnitLabelsEv
librecad:_ZN20QG_DlgOptionsDrawing18updatePaperPreviewEv
librecad:_ZN20QG_DlgOptionsDrawing19on_cbGridOn_toggledEb
librecad:_ZN20QG_DlgOptionsDrawing20on_rbRelSize_toggledEb
librecad:_ZN20QG_DlgOptionsDrawing20updateAnglePrecisionEv
librecad:_ZN20QG_DlgOptionsDrawing21on_cbDimFxLon_toggledEb
librecad:_ZN20QG_DlgOptionsDrawing21updateLengthPrecisionEv
librecad:_ZN20QG_DlgOptionsDrawing22on_rbLandscape_toggledEb
librecad:_ZN20QG_DlgOptionsDrawing22updateCBAnglePrecisionEP9QComboBoxS1_
librecad:_ZN20QG_DlgOptionsDrawing23updateCBLengthPrecisionEP9QComboBoxS1_
librecad:_ZN20QG_DlgOptionsDrawing23updateDimAnglePrecisionEv
librecad:_ZN20QG_DlgOptionsDrawing24updateDimLengthPrecisionEv
librecad:_ZN20QG_DlgOptionsDrawing25on_rbCrosshairTop_toggledEb
librecad:_ZN20QG_DlgOptionsDrawing26on_rbCrosshairLeft_toggledEb
librecad:_ZN20QG_DlgOptionsDrawing26on_rbIsometricGrid_clickedEv
librecad:_ZN20QG_DlgOptionsDrawing27on_rbCrosshairRight_toggledEb
librecad:_ZN20QG_DlgOptionsDrawing27on_rbOrthogonalGrid_clickedEv
librecad:_ZN20QG_DlgOptionsDrawing27on_tabWidget_currentChangedEi
librecad:_ZN20QG_DlgOptionsDrawing4initEv
librecad:_ZN20QG_DlgOptionsDrawing8validateEv
librecad:_ZN20QG_DlgOptionsDrawing9showEventEP10QShowEvent
librecad:_ZN20QG_DlgOptionsDrawingC1EP7QWidgetb6QFlagsIN2Qt10WindowTypeEE
librecad:_ZN20QG_DlgOptionsDrawingC2EP7QWidgetb6QFlagsIN2Qt10WindowTypeEE
librecad:_ZN20QG_DlgOptionsDrawingD0Ev
librecad:_ZN20QG_DlgOptionsDrawingD1Ev
librecad:_ZN20QG_DlgOptionsDrawingD2Ev
librecad:_ZN20QG_DlgOptionsGeneral11current_tabE
librecad:_ZN20QG_DlgOptionsGeneral11qt_metacallEN11QMetaObject4CallEiPPv
librecad:_ZN20QG_DlgOptionsGeneral11qt_metacastEPKc
librecad:_ZN20QG_DlgOptionsGeneral12initComboBoxEP9QComboBoxRK7QString
librecad:_ZN20QG_DlgOptionsGeneral14languageChangeEv
librecad:_ZN20QG_DlgOptionsGeneral14setFontsFolderEv
librecad:_ZN20QG_DlgOptionsGeneral14setLibraryPathEv
librecad:_ZN20QG_DlgOptionsGeneral15setTemplateFileEv
librecad:_ZN20QG_DlgOptionsGeneral15setVariableFileEv
librecad:_ZN20QG_DlgOptionsGeneral16setRestartNeededEv
librecad:_ZN20QG_DlgOptionsGeneral16staticMetaObjectE
librecad:_ZN20QG_DlgOptionsGeneral17on_pb_end_clickedEv
librecad:_ZN20QG_DlgOptionsGeneral18on_pb_grid_clickedEv
librecad:_ZN20QG_DlgOptionsGeneral18on_pb_meta_clickedEv
librecad:_ZN20QG_DlgOptionsGeneral19onAutoBackupChangedEi
librecad:_ZN20QG_DlgOptionsGeneral19on_pb_start_clickedEv
librecad:_ZN20QG_DlgOptionsGeneral20on_pb_handle_clickedEv
librecad:_ZN20QG_DlgOptionsGeneral22on_pb_selected_clickedEv
librecad:_ZN20QG_DlgOptionsGeneral23on_pb_clear_all_clickedEv
librecad:_ZN20QG_DlgOptionsGeneral24on_pb_background_clickedEv
librecad:_ZN20QG_DlgOptionsGeneral24on_pb_snap_color_clickedEv
librecad:_ZN20QG_DlgOptionsGeneral25on_pb_highlighted_clickedEv
librecad:_ZN20QG_DlgOptionsGeneral27on_tabWidget_currentChangedEi
librecad:_ZN20QG_DlgOptionsGeneral28on_pb_clear_geometry_clickedEv
librecad:_ZN20QG_DlgOptionsGeneral2okEv
librecad:_ZN20QG_DlgOptionsGeneral31on_pb_relativeZeroColor_clickedEv
librecad:_ZN20QG_DlgOptionsGeneral4initEv
librecad:_ZN20QG_DlgOptionsGeneral9set_colorEP9QComboBox6QColor
librecad:_ZN20QG_DlgOptionsGeneralC1EP7QWidgetb6QFlagsIN2Qt10WindowTypeEE
librecad:_ZN20QG_DlgOptionsGeneralC2EP7QWidgetb6QFlagsIN2Qt10WindowTypeEE
librecad:_ZN20QG_MoveRotateOptions11qt_metacallEN11QMetaObject4CallEiPPv
librecad:_ZN20QG_MoveRotateOptions11qt_metacastEPKc
librecad:_ZN20QG_MoveRotateOptions11updateAngleERK7QString
librecad:_ZN20QG_MoveRotateOptions12saveSettingsEv
librecad:_ZN20QG_MoveRotateOptions14languageChangeEv
librecad:_ZN20QG_MoveRotateOptions16staticMetaObjectE
librecad:_ZN20QG_MoveRotateOptions9setActionEP18RS_ActionInterfaceb
librecad:_ZN20QG_MoveRotateOptionsC1EP7QWidget6QFlagsIN2Qt10WindowTypeEE
librecad:_ZN20QG_MoveRotateOptionsC2EP7QWidget6QFlagsIN2Qt10WindowTypeEE
librecad:_ZN20QG_MoveRotateOptionsD0Ev
librecad:_ZN20QG_MoveRotateOptionsD1Ev
librecad:_ZN20QG_MoveRotateOptionsD2Ev
librecad:_ZN20QG_SnapMiddleOptions11qt_metacallEN11QMetaObject4CallEiPPv
librecad:_ZN20QG_SnapMiddleOptions11qt_metacastEPKc
librecad:_ZN20QG_SnapMiddleOptions12saveSettingsEv
librecad:_ZN20QG_SnapMiddleOptions14languageChangeEv
librecad:_ZN20QG_SnapMiddleOptions15setMiddlePointsERib
librecad:_ZN20QG_SnapMiddleOptions16staticMetaObjectE
librecad:_ZN20QG_SnapMiddleOptions18updateMiddlePointsEv
librecad:_ZN20QG_SnapMiddleOptions30on_sbMiddlePoints_valueChangedEi
librecad:_ZN20QG_SnapMiddleOptionsC1ERiP7QWidget6QFlagsIN2Qt10WindowTypeEE
librecad:_ZN20QG_SnapMiddleOptionsC2ERiP7QWidget6QFlagsIN2Qt10WindowTypeEE
librecad:_ZN20QG_SnapMiddleOptionsD0Ev
librecad:_ZN20QG_SnapMiddleOptionsD1Ev
librecad:_ZN20QG_SnapMiddleOptionsD2Ev
librecad:_ZN20QG_TrimAmountOptions10updateDistERK7QString
librecad:_ZN20QG_TrimAmountOptions11qt_metacallEN11QMetaObject4CallEiPPv
librecad:_ZN20QG_TrimAmountOptions11qt_metacastEPKc
librecad:_ZN20QG_TrimAmountOptions12saveSettingsEv
librecad:_ZN20QG_TrimAmountOptions14languageChangeEv
librecad:_ZN20QG_TrimAmountOptions16staticMetaObjectE
librecad:_ZN20QG_TrimAmountOptions24on_cbTotalLength_toggledEb
librecad:_ZN20QG_TrimAmountOptions25on_leDist_editingFinishedEv
librecad:_ZN20QG_TrimAmountOptions9setActionEP18RS_ActionInterfaceb
librecad:_ZN20QG_TrimAmountOptionsC1EP7QWidget6QFlagsIN2Qt10WindowTypeEE
librecad:_ZN20QG_TrimAmountOptionsC2EP7QWidget6QFlagsIN2Qt10WindowTypeEE
librecad:_ZN20QG_TrimAmountOptionsD0Ev
librecad:_ZN20QG_TrimAmountOptionsD1Ev
librecad:_ZN20QG_TrimAmountOptionsD2Ev
librecad:_ZN20RS_ActionModifyBevel10setLength1Ed
librecad:_ZN20RS_ActionModifyBevel10setLength2Ed
librecad:_ZN20RS_ActionModifyBevel11hideOptionsEv
librecad:_ZN20RS_ActionModifyBevel11qt_metacallEN11QMetaObject4CallEiPPv
librecad:_ZN20RS_ActionModifyBevel11qt_metacastEPKc
librecad:_ZN20RS_ActionModifyBevel11showOptionsEv
librecad:_ZN20RS_ActionModifyBevel12commandEventEP15RS_CommandEvent
librecad:_ZN20RS_ActionModifyBevel14mouseMoveEventEP11QMouseEvent
librecad:_ZN20RS_ActionModifyBevel16staticMetaObjectE
librecad:_ZN20RS_ActionModifyBevel17mouseReleaseEventEP11QMouseEvent
librecad:_ZN20RS_ActionModifyBevel17unhighlightEntityEv
librecad:_ZN20RS_ActionModifyBevel17updateMouseCursorEv
librecad:_ZN20RS_ActionModifyBevel20getAvailableCommandsEv
librecad:_ZN20RS_ActionModifyBevel22updateMouseButtonHintsEv
librecad:_ZN20RS_ActionModifyBevel4initEi
librecad:_ZN20RS_ActionModifyBevel6finishEb
librecad:_ZN20RS_ActionModifyBevel7setTrimEb
librecad:_ZN20RS_ActionModifyBevel7triggerEv
librecad:_ZN20RS_ActionModifyBevelC1ER18RS_EntityContainerR14RS_GraphicView
librecad:_ZN20RS_ActionModifyBevelC2ER18RS_EntityContainerR14RS_GraphicView
librecad:_ZN20RS_ActionModifyBevelD0Ev
librecad:_ZN20RS_ActionModifyBevelD1Ev
librecad:_ZN20RS_ActionModifyBevelD2Ev
librecad:_ZN20RS_ActionModifyRound11hideOptionsEv
librecad:_ZN20RS_ActionModifyRound11qt_metacallEN11QMetaObject4CallEiPPv
librecad:_ZN20RS_ActionModifyRound11qt_metacastEPKc
librecad:_ZN20RS_ActionModifyRound11showOptionsEv
librecad:_ZN20RS_ActionModifyRound12commandEventEP15RS_CommandEvent
librecad:_ZN20RS_ActionModifyRound14mouseMoveEventEP11QMouseEvent
librecad:_ZN20RS_ActionModifyRound15removeOldFilletEP9RS_EntityRKb
librecad:_ZN20RS_ActionModifyRound16staticMetaObjectE
librecad:_ZN20RS_ActionModifyRound17mouseReleaseEventEP11QMouseEvent
librecad:_ZN20RS_ActionModifyRound17unhighlightEntityEv
librecad:_ZN20RS_ActionModifyRound17updateMouseCursorEv
librecad:_ZN20RS_ActionModifyRound20getAvailableCommandsEv
librecad:_ZN20RS_ActionModifyRound22updateMouseButtonHintsEv
librecad:_ZN20RS_ActionModifyRound4initEi
librecad:_ZN20RS_ActionModifyRound6finishEb
librecad:_ZN20RS_ActionModifyRound7setTrimEb
librecad:_ZN20RS_ActionModifyRound7triggerEv
librecad:_ZN20RS_ActionModifyRound9setRadiusEd
librecad:_ZN20RS_ActionModifyRoundC1ER18RS_EntityContainerR14RS_GraphicView
librecad:_ZN20RS_ActionModifyRoundC2ER18RS_EntityContainerR14RS_GraphicView
librecad:_ZN20RS_ActionModifyRoundD0Ev
librecad:_ZN20RS_ActionModifyRoundD1Ev
librecad:_ZN20RS_ActionModifyRoundD2Ev
librecad:_ZN20RS_ActionModifyScale10findFactorEv
librecad:_ZN20RS_ActionModifyScale11qt_metacallEN11QMetaObject4CallEiPPv
librecad:_ZN20RS_ActionModifyScale11qt_metacastEPKc
librecad:_ZN20RS_ActionModifyScale11showPreviewEv
librecad:_ZN20RS_ActionModifyScale14getTargetPointEP11QMouseEvent
librecad:_ZN20RS_ActionModifyScale14mouseMoveEventEP11QMouseEvent
librecad:_ZN20RS_ActionModifyScale15coordinateEventEP18RS_CoordinateEvent
librecad:_ZN20RS_ActionModifyScale16staticMetaObjectE
librecad:_ZN20RS_ActionModifyScale17mouseReleaseEventEP11QMouseEvent
librecad:_ZN20RS_ActionModifyScale17updateMouseCursorEv
librecad:_ZN20RS_ActionModifyScale22updateMouseButtonHintsEv
librecad:_ZN20RS_ActionModifyScale4initEi
librecad:_ZN20RS_ActionModifyScale7triggerEv
librecad:_ZN20RS_ActionModifyScaleC1ER18RS_EntityContainerR14RS_GraphicView
librecad:_ZN20RS_ActionModifyScaleC2ER18RS_EntityContainerR14RS_GraphicView
librecad:_ZN20RS_ActionModifyScaleD0Ev
librecad:_ZN20RS_ActionModifyScaleD1Ev
librecad:_ZN20RS_ActionModifyScaleD2Ev
librecad:_ZN20RS_ActionPolylineAdd11qt_metacallEN11QMetaObject4CallEiPPv
librecad:_ZN20RS_ActionPolylineAdd11qt_metacastEPKc
librecad:_ZN20RS_ActionPolylineAdd14mouseMoveEventEP11QMouseEvent
librecad:_ZN20RS_ActionPolylineAdd16staticMetaObjectE
librecad:_ZN20RS_ActionPolylineAdd17mouseReleaseEventEP11QMouseEvent
librecad:_ZN20RS_ActionPolylineAdd17updateMouseCursorEv
librecad:_ZN20RS_ActionPolylineAdd22updateMouseButtonHintsEv
librecad:_ZN20RS_ActionPolylineAdd4initEi
librecad:_ZN20RS_ActionPolylineAdd7triggerEv
librecad:_ZN20RS_ActionPolylineAddC1ER18RS_EntityContainerR14RS_GraphicView
librecad:_ZN20RS_ActionPolylineAddC2ER18RS_EntityContainerR14RS_GraphicView
librecad:_ZN20RS_ActionPolylineAddD0Ev
librecad:_ZN20RS_ActionPolylineAddD1Ev
librecad:_ZN20RS_ActionPolylineAddD2Ev
librecad:_ZN20RS_ActionPolylineDel11qt_metacallEN11QMetaObject4CallEiPPv
librecad:_ZN20RS_ActionPolylineDel11qt_metacastEPKc
librecad:_ZN20RS_ActionPolylineDel14mouseMoveEventEP11QMouseEvent
librecad:_ZN20RS_ActionPolylineDel16staticMetaObjectE
librecad:_ZN20RS_ActionPolylineDel17mouseReleaseEventEP11QMouseEvent
librecad:_ZN20RS_ActionPolylineDel17updateMouseCursorEv
librecad:_ZN20RS_ActionPolylineDel22updateMouseButtonHintsEv
librecad:_ZN20RS_ActionPolylineDel4initEi
librecad:_ZN20RS_ActionPolylineDel7triggerEv
librecad:_ZN20RS_ActionPolylineDelC1ER18RS_EntityContainerR14RS_GraphicView
librecad:_ZN20RS_ActionPolylineDelC2ER18RS_EntityContainerR14RS_GraphicView
librecad:_ZN20RS_ActionPolylineDelD0Ev
librecad:_ZN20RS_ActionPolylineDelD1Ev
librecad:_ZN20RS_ActionPolylineDelD2Ev
librecad:_ZN20RS_ActionSelectLayer11qt_metacallEN11QMetaObject4CallEiPPv
librecad:_ZN20RS_ActionSelectLayer11qt_metacastEPKc
librecad:_ZN20RS_ActionSelectLayer16staticMetaObjectE
librecad:_ZN20RS_ActionSelectLayer17mouseReleaseEventEP11QMouseEvent
librecad:_ZN20RS_ActionSelectLayer17updateMouseCursorEv
librecad:_ZN20RS_ActionSelectLayer7triggerEv
librecad:_ZN20RS_ActionSelectLayerC1ER18RS_EntityContainerR14RS_GraphicView
librecad:_ZN20RS_ActionSelectLayerC2ER18RS_EntityContainerR14RS_GraphicView
librecad:_ZN20RS_ActionSetSnapMode11qt_metacallEN11QMetaObject4CallEiPPv
librecad:_ZN20RS_ActionSetSnapMode11qt_metacastEPKc
librecad:_ZN20RS_ActionSetSnapMode16staticMetaObjectE
librecad:_ZN20RS_ActionSetSnapMode4initEi
librecad:_ZN20RS_ActionSetSnapMode7triggerEv
librecad:_ZN20RS_ActionSetSnapModeC1ER18RS_EntityContainerR14RS_GraphicViewN3RS28SnapModeE
librecad:_ZN20RS_ActionSetSnapModeC2ER18RS_EntityContainerR14RS_GraphicViewN3RS28SnapModeE
librecad:_ZN20RS_StaticGraphicView5paintEv
librecad:_ZN20RS_StaticGraphicViewC1EiiP10RS_PainterPK5QSize
librecad:_ZN20RS_StaticGraphicViewC2EiiP10RS_PainterPK5QSize
librecad:_ZN21LC_ActionGroupManager10toolGroupsEv
librecad:_ZN21LC_ActionGroupManager11qt_metacallEN11QMetaObject4CallEiPPv
librecad:_ZN21LC_ActionGroupManager11qt_metacastEPKc
librecad:_ZN21LC_ActionGroupManager11toggleToolsEb
librecad:_ZN21LC_ActionGroupManager16sortGroupsByNameER5QListIP12QActionGroupE
librecad:_ZN21LC_ActionGroupManager16staticMetaObjectE
librecad:_ZN21LC_ActionGroupManager23toggleExclusiveSnapModeEb
librecad:_ZN21LC_ActionGroupManager9allGroupsEv
librecad:_ZN21LC_ActionGroupManagerC1EP20QC_ApplicationWindow
librecad:_ZN21LC_ActionGroupManagerC2EP20QC_ApplicationWindow
librecad:_ZN21LC_ActionLayersExport11qt_metacallEN11QMetaObject4CallEiPPv
librecad:_ZN21LC_ActionLayersExport11qt_metacastEPKc
librecad:_ZN21LC_ActionLayersExport16staticMetaObjectE
librecad:_ZN21LC_ActionLayersExport4initEi
librecad:_ZN21LC_ActionLayersExport7triggerEv
librecad:_ZN21LC_ActionLayersExportC1ER18RS_EntityContainerR14RS_GraphicViewP12RS_LayerListNS_4ModeE
librecad:_ZN21LC_ActionLayersExportC2ER18RS_EntityContainerR14RS_GraphicViewP12RS_LayerListNS_4ModeE
librecad:_ZN21LC_CircleByArcOptions11doSetActionEP18RS_ActionInterfaceb
librecad:_ZN21LC_CircleByArcOptions11qt_metacallEN11QMetaObject4CallEiPPv
librecad:_ZN21LC_CircleByArcOptions11qt_metacastEPKc
librecad:_ZN21LC_CircleByArcOptions14doSaveSettingsEv
librecad:_ZN21LC_CircleByArcOptions14languageChangeEv
librecad:_ZN21LC_CircleByArcOptions16onReplaceClickedEb
librecad:_ZN21LC_CircleByArcOptions16staticMetaObjectE
librecad:_ZN21LC_CircleByArcOptions20checkActionRttiValidEN3RS210ActionTypeE
librecad:_ZN21LC_CircleByArcOptions21onPenModeIndexChangedEi
librecad:_ZN21LC_CircleByArcOptions23onLayerModeIndexChangedEi
librecad:_ZN21LC_CircleByArcOptions25setPenModeToActionAndViewEi
librecad:_ZN21LC_CircleByArcOptions27getSettingsOptionNamePrefixEv
librecad:_ZN21LC_CircleByArcOptions28onRadiusShiftEditingFinishedEv
librecad:_ZN21LC_CircleByArcOptions28setLayerModeToActionAndeViewEi
librecad:_ZN21LC_CircleByArcOptions28setRadiusShiftToModelAndViewE7QString
librecad:_ZN21LC_CircleByArcOptions28setReplaceArcToActionAndViewEb
librecad:_ZN21LC_CircleByArcOptionsC1EP7QWidget
librecad:_ZN21LC_CircleByArcOptionsC2EP7QWidget
librecad:_ZN21LC_CircleByArcOptionsD0Ev
librecad:_ZN21LC_CircleByArcOptionsD1Ev
librecad:_ZN21LC_CircleByArcOptionsD2Ev
librecad:_ZN21LC_SliceDivideOptions11doSetActionEP18RS_ActionInterfaceb
librecad:_ZN21LC_SliceDivideOptions11qt_metacallEN11QMetaObject4CallEiPPv
librecad:_ZN21LC_SliceDivideOptions11qt_metacastEPKc
librecad:_ZN21LC_SliceDivideOptions13onModeClickedEb
librecad:_ZN21LC_SliceDivideOptions14doSaveSettingsEv
librecad:_ZN21LC_SliceDivideOptions14languageChangeEv
librecad:_ZN21LC_SliceDivideOptions14onCountChangedEi
librecad:_ZN21LC_SliceDivideOptions15onDivideClickedEb
librecad:_ZN21LC_SliceDivideOptions16staticMetaObjectE
librecad:_ZN21LC_SliceDivideOptions17onRelAngleClickedEb
librecad:_ZN21LC_SliceDivideOptions20checkActionRttiValidEN3RS210ActionTypeE
librecad:_ZN21LC_SliceDivideOptions22onTickSnapIndexChangedEi
librecad:_ZN21LC_SliceDivideOptions23setCountToActionAndViewEi
librecad:_ZN21LC_SliceDivideOptions25onDistanceEditingFinishedEv
librecad:_ZN21LC_SliceDivideOptions26onTickAngleEditingFinishedEv
librecad:_ZN21LC_SliceDivideOptions26setDistanceToActionAndViewERK7QString
librecad:_ZN21LC_SliceDivideOptions27getSettingsOptionNamePrefixEv
librecad:_ZN21LC_SliceDivideOptions27onTickLengthEditingFinishedEv
librecad:_ZN21LC_SliceDivideOptions27onTickOffsetEditingFinishedEv
librecad:_ZN21LC_SliceDivideOptions27setTickAngleToActionAndViewERK7QString
librecad:_ZN21LC_SliceDivideOptions28setDivideFlagToActionAndViewEb
librecad:_ZN21LC_SliceDivideOptions28setTickLengthToActionAndViewERK7QString
librecad:_ZN21LC_SliceDivideOptions28setTickOffsetToActionAndViewERK7QString
librecad:_ZN21LC_SliceDivideOptions29onDrawTickOnEdgesIndexChangedEi
librecad:_ZN21LC_SliceDivideOptions31setTicksSnapModeToActionAndViewEi
librecad:_ZN21LC_SliceDivideOptions33onCircleStartAngleEditingFinishedEv
librecad:_ZN21LC_SliceDivideOptions34setCircleStartAngleToActionAndViewERK7QString
librecad:_ZN21LC_SliceDivideOptions35setFixedDistanceFlagToActionAndViewEb
librecad:_ZN21LC_SliceDivideOptions35setTickAngleRelativeToActionAndViewEb
librecad:_ZN21LC_SliceDivideOptions36setDrawEdgesTicksModeToActionAndViewEi
librecad:_ZN21LC_SliceDivideOptions8updateUIEi
librecad:_ZN21LC_SliceDivideOptionsC1EP7QWidget
librecad:_ZN21LC_SliceDivideOptionsC2EP7QWidget
librecad:_ZN21LC_SliceDivideOptionsD0Ev
librecad:_ZN21LC_SliceDivideOptionsD1Ev
librecad:_ZN21LC_SliceDivideOptionsD2Ev
librecad:_ZN21QG_DlgOptionsMakerCam10saveDoubleE7QStringP14QDoubleSpinBox
librecad:_ZN21QG_DlgOptionsMakerCam11qt_metacallEN11QMetaObject4CallEiPPv
librecad:_ZN21QG_DlgOptionsMakerCam11qt_metacastEPKc
librecad:_ZN21QG_DlgOptionsMakerCam11saveBooleanE7QStringP9QCheckBox
librecad:_ZN21QG_DlgOptionsMakerCam12loadSettingsEv
librecad:_ZN21QG_DlgOptionsMakerCam12saveSettingsEv
librecad:_ZN21QG_DlgOptionsMakerCam14languageChangeEv
librecad:_ZN21QG_DlgOptionsMakerCam14updateCheckboxEP9QCheckBox7QStringi
librecad:_ZN21QG_DlgOptionsMakerCam16staticMetaObjectE
librecad:_ZN21QG_DlgOptionsMakerCam19updateDoubleSpinBoxEP14QDoubleSpinBox7QStringd
librecad:_ZN21QG_DlgOptionsMakerCam6cancelEv
librecad:_ZN21QG_DlgOptionsMakerCam8validateEv
librecad:_ZN21QG_DlgOptionsMakerCamC1EP7QWidgetb6QFlagsIN2Qt10WindowTypeEE
librecad:_ZN21QG_DlgOptionsMakerCamC2EP7QWidgetb6QFlagsIN2Qt10WindowTypeEE
librecad:_ZN21QG_ImageOptionsDialog10getBordersEv
librecad:_ZN21QG_ImageOptionsDialog11qt_metacallEN11QMetaObject4CallEiPPv
librecad:_ZN21QG_ImageOptionsDialog11qt_metacastEPKc
librecad:_ZN21QG_ImageOptionsDialog11sizeChangedEv
librecad:_ZN21QG_ImageOptionsDialog12isBlackWhiteEv
librecad:_ZN21QG_ImageOptionsDialog13borderChangedEv
librecad:_ZN21QG_ImageOptionsDialog14languageChangeEv
librecad:_ZN21QG_ImageOptionsDialog14setGraphicSizeERK9RS_Vector
librecad:_ZN21QG_ImageOptionsDialog16staticMetaObjectE
librecad:_ZN21QG_ImageOptionsDialog17isBackgroundBlackEv
librecad:_ZN21QG_ImageOptionsDialog17resolutionChangedEv
librecad:_ZN21QG_ImageOptionsDialog18sameBordersChangedEv
librecad:_ZN21QG_ImageOptionsDialog2okEv
librecad:_ZN21QG_ImageOptionsDialog4initEv
librecad:_ZN21QG_ImageOptionsDialog7getSizeEv
librecad:_ZN21QG_ImageOptionsDialogC1EP7QWidgetb6QFlagsIN2Qt10WindowTypeEE
librecad:_ZN21QG_ImageOptionsDialogC2EP7QWidgetb6QFlagsIN2Qt10WindowTypeEE
librecad:_ZN21QG_LinePolygonOptions11qt_metacallEN11QMetaObject4CallEiPPv
librecad:_ZN21QG_LinePolygonOptions11qt_metacastEPKc
librecad:_ZN21QG_LinePolygonOptions12saveSettingsEv
librecad:_ZN21QG_LinePolygonOptions12updateNumberEi
librecad:_ZN21QG_LinePolygonOptions14languageChangeEv
librecad:_ZN21QG_LinePolygonOptions16staticMetaObjectE
librecad:_ZN21QG_LinePolygonOptions9setActionEP18RS_ActionInterfaceb
librecad:_ZN21QG_LinePolygonOptionsC1EP7QWidget6QFlagsIN2Qt10WindowTypeEE
librecad:_ZN21QG_LinePolygonOptionsC2EP7QWidget6QFlagsIN2Qt10WindowTypeEE
librecad:_ZN21QG_LinePolygonOptionsD0Ev
librecad:_ZN21QG_LinePolygonOptionsD1Ev
librecad:_ZN21QG_LinePolygonOptionsD2Ev
librecad:_ZN21RS_ActionBlocksCreate11qt_metacallEN11QMetaObject4CallEiPPv
librecad:_ZN21RS_ActionBlocksCreate11qt_metacastEPKc
librecad:_ZN21RS_ActionBlocksCreate14mouseMoveEventEP11QMouseEvent
librecad:_ZN21RS_ActionBlocksCreate15coordinateEventEP18RS_CoordinateEvent
librecad:_ZN21RS_ActionBlocksCreate16staticMetaObjectE
librecad:_ZN21RS_ActionBlocksCreate17mouseReleaseEventEP11QMouseEvent
librecad:_ZN21RS_ActionBlocksCreate17updateMouseCursorEv
librecad:_ZN21RS_ActionBlocksCreate22updateMouseButtonHintsEv
librecad:_ZN21RS_ActionBlocksCreate4initEi
librecad:_ZN21RS_ActionBlocksCreate7triggerEv
librecad:_ZN21RS_ActionBlocksCreateC1ER18RS_EntityContainerR14RS_GraphicView
librecad:_ZN21RS_ActionBlocksCreateC2ER18RS_EntityContainerR14RS_GraphicView
librecad:_ZN21RS_ActionBlocksCreateD0Ev
librecad:_ZN21RS_ActionBlocksCreateD1Ev
librecad:_ZN21RS_ActionBlocksCreateD2Ev
librecad:_ZN21RS_ActionBlocksInsert10setColumnsEi
librecad:_ZN21RS_ActionBlocksInsert11hideOptionsEv
librecad:_ZN21RS_ActionBlocksInsert11qt_metacallEN11QMetaObject4CallEiPPv
librecad:_ZN21RS_ActionBlocksInsert11qt_metacastEPKc
librecad:_ZN21RS_ActionBlocksInsert11showOptionsEv
librecad:_ZN21RS_ActionBlocksInsert12commandEventEP15RS_CommandEvent
librecad:_ZN21RS_ActionBlocksInsert13setRowSpacingEd
librecad:_ZN21RS_ActionBlocksInsert14mouseMoveEventEP11QMouseEvent
librecad:_ZN21RS_ActionBlocksInsert15coordinateEventEP18RS_CoordinateEvent
librecad:_ZN21RS_ActionBlocksInsert16setColumnSpacingEd
librecad:_ZN21RS_ActionBlocksInsert16staticMetaObjectE
librecad:_ZN21RS_ActionBlocksInsert17mouseReleaseEventEP11QMouseEvent
librecad:_ZN21RS_ActionBlocksInsert17updateMouseCursorEv
librecad:_ZN21RS_ActionBlocksInsert20getAvailableCommandsEv
librecad:_ZN21RS_ActionBlocksInsert22updateMouseButtonHintsEv
librecad:_ZN21RS_ActionBlocksInsert4initEi
librecad:_ZN21RS_ActionBlocksInsert5resetEv
librecad:_ZN21RS_ActionBlocksInsert7setRowsEi
librecad:_ZN21RS_ActionBlocksInsert7triggerEv
librecad:_ZN21RS_ActionBlocksInsert8setAngleEd
librecad:_ZN21RS_ActionBlocksInsert9setFactorEd
librecad:_ZN21RS_ActionBlocksInsertC1ER18RS_EntityContainerR14RS_GraphicView
librecad:_ZN21RS_ActionBlocksInsertC2ER18RS_EntityContainerR14RS_GraphicView
librecad:_ZN21RS_ActionBlocksInsertD0Ev
librecad:_ZN21RS_ActionBlocksInsertD1Ev
librecad:_ZN21RS_ActionBlocksInsertD2Ev
librecad:_ZN21RS_ActionBlocksRemove11qt_metacallEN11QMetaObject4CallEiPPv
librecad:_ZN21RS_ActionBlocksRemove11qt_metacastEPKc
librecad:_ZN21RS_ActionBlocksRemove16staticMetaObjectE
librecad:_ZN21RS_ActionBlocksRemove4initEi
librecad:_ZN21RS_ActionBlocksRemove7triggerEv
librecad:_ZN21RS_ActionBlocksRemoveC1ER18RS_EntityContainerR14RS_GraphicView
librecad:_ZN21RS_ActionBlocksRemoveC2ER18RS_EntityContainerR14RS_GraphicView
librecad:_ZN21RS_ActionDimDiametric11hideOptionsEv
librecad:_ZN21RS_ActionDimDiametric11qt_metacallEN11QMetaObject4CallEiPPv
librecad:_ZN21RS_ActionDimDiametric11qt_metacastEPKc
librecad:_ZN21RS_ActionDimDiametric11showOptionsEv
librecad:_ZN21RS_ActionDimDiametric12commandEventEP15RS_CommandEvent
librecad:_ZN21RS_ActionDimDiametric14mouseMoveEventEP11QMouseEvent
librecad:_ZN21RS_ActionDimDiametric14preparePreviewEv
librecad:_ZN21RS_ActionDimDiametric15coordinateEventEP18RS_CoordinateEvent
librecad:_ZN21RS_ActionDimDiametric16staticMetaObjectE
librecad:_ZN21RS_ActionDimDiametric17mouseReleaseEventEP11QMouseEvent
librecad:_ZN21RS_ActionDimDiametric20getAvailableCommandsEv
librecad:_ZN21RS_ActionDimDiametric22updateMouseButtonHintsEv
librecad:_ZN21RS_ActionDimDiametric5resetEv
librecad:_ZN21RS_ActionDimDiametric7triggerEv
librecad:_ZN21RS_ActionDimDiametricC1ER18RS_EntityContainerR14RS_GraphicView
librecad:_ZN21RS_ActionDimDiametricC2ER18RS_EntityContainerR14RS_GraphicView
librecad:_ZN21RS_ActionDimDiametricD0Ev
librecad:_ZN21RS_ActionDimDiametricD1Ev
librecad:_ZN21RS_ActionDimDiametricD2Ev
librecad:_ZN21RS_ActionDrawCircle2P11qt_metacallEN11QMetaObject4CallEiPPv
librecad:_ZN21RS_ActionDrawCircle2P11qt_metacastEPKc
librecad:_ZN21RS_ActionDrawCircle2P14mouseMoveEventEP11QMouseEvent
librecad:_ZN21RS_ActionDrawCircle2P14preparePreviewEv
librecad:_ZN21RS_ActionDrawCircle2P15coordinateEventEP18RS_CoordinateEvent
librecad:_ZN21RS_ActionDrawCircle2P16staticMetaObjectE
librecad:_ZN21RS_ActionDrawCircle2P17mouseReleaseEventEP11QMouseEvent
librecad:_ZN21RS_ActionDrawCircle2P17updateMouseCursorEv
librecad:_ZN21RS_ActionDrawCircle2P22updateMouseButtonHintsEv
librecad:_ZN21RS_ActionDrawCircle2P4initEi
librecad:_ZN21RS_ActionDrawCircle2P5resetEv
librecad:_ZN21RS_ActionDrawCircle2P7triggerEv
librecad:_ZN21RS_ActionDrawCircle2PC1ER18RS_EntityContainerR14RS_GraphicView
librecad:_ZN21RS_ActionDrawCircle2PC2ER18RS_EntityContainerR14RS_GraphicView
librecad:_ZN21RS_ActionDrawCircle2PD0Ev
librecad:_ZN21RS_ActionDrawCircle2PD1Ev
librecad:_ZN21RS_ActionDrawCircle2PD2Ev
librecad:_ZN21RS_ActionDrawCircle3P11qt_metacallEN11QMetaObject4CallEiPPv
librecad:_ZN21RS_ActionDrawCircle3P11qt_metacastEPKc
librecad:_ZN21RS_ActionDrawCircle3P14mouseMoveEventEP11QMouseEvent
librecad:_ZN21RS_ActionDrawCircle3P14preparePreviewEv
librecad:_ZN21RS_ActionDrawCircle3P15coordinateEventEP18RS_CoordinateEvent
librecad:_ZN21RS_ActionDrawCircle3P16staticMetaObjectE
librecad:_ZN21RS_ActionDrawCircle3P17mouseReleaseEventEP11QMouseEvent
librecad:_ZN21RS_ActionDrawCircle3P17updateMouseCursorEv
librecad:_ZN21RS_ActionDrawCircle3P22updateMouseButtonHintsEv
librecad:_ZN21RS_ActionDrawCircle3P4initEi
librecad:_ZN21RS_ActionDrawCircle3P7triggerEv
librecad:_ZN21RS_ActionDrawCircle3PC1ER18RS_EntityContainerR14RS_GraphicView
librecad:_ZN21RS_ActionDrawCircle3PC2ER18RS_EntityContainerR14RS_GraphicView
librecad:_ZN21RS_ActionDrawCircle3PD0Ev
librecad:_ZN21RS_ActionDrawCircle3PD1Ev
librecad:_ZN21RS_ActionDrawCircle3PD2Ev
librecad:_ZN21RS_ActionDrawCircleCR11hideOptionsEv
librecad:_ZN21RS_ActionDrawCircleCR11qt_metacallEN11QMetaObject4CallEiPPv
librecad:_ZN21RS_ActionDrawCircleCR11qt_metacastEPKc
librecad:_ZN21RS_ActionDrawCircleCR11showOptionsEv
librecad:_ZN21RS_ActionDrawCircleCR12commandEventEP15RS_CommandEvent
librecad:_ZN21RS_ActionDrawCircleCR14mouseMoveEventEP11QMouseEvent
librecad:_ZN21RS_ActionDrawCircleCR15coordinateEventEP18RS_CoordinateEvent
librecad:_ZN21RS_ActionDrawCircleCR16staticMetaObjectE
librecad:_ZN21RS_ActionDrawCircleCR17mouseReleaseEventEP11QMouseEvent
librecad:_ZN21RS_ActionDrawCircleCR17updateMouseCursorEv
librecad:_ZN21RS_ActionDrawCircleCR20getAvailableCommandsEv
librecad:_ZN21RS_ActionDrawCircleCR22updateMouseButtonHintsEv
librecad:_ZN21RS_ActionDrawCircleCR4initEi
librecad:_ZN21RS_ActionDrawCircleCR5resetEv
librecad:_ZN21RS_ActionDrawCircleCR7triggerEv
librecad:_ZN21RS_ActionDrawCircleCR9setRadiusERK7QString
librecad:_ZN21RS_ActionDrawCircleCRC1ER18RS_EntityContainerR14RS_GraphicView
librecad:_ZN21RS_ActionDrawCircleCRC2ER18RS_EntityContainerR14RS_GraphicView
librecad:_ZN21RS_ActionDrawCircleCRD0Ev
librecad:_ZN21RS_ActionDrawCircleCRD1Ev
librecad:_ZN21RS_ActionDrawCircleCRD2Ev
librecad:_ZN21RS_ActionDrawLineFree11qt_metacallEN11QMetaObject4CallEiPPv
librecad:_ZN21RS_ActionDrawLineFree11qt_metacastEPKc
librecad:_ZN21RS_ActionDrawLineFree14mouseMoveEventEP11QMouseEvent
librecad:_ZN21RS_ActionDrawLineFree15mousePressEventEP11QMouseEvent
librecad:_ZN21RS_ActionDrawLineFree16staticMetaObjectE
librecad:_ZN21RS_ActionDrawLineFree17mouseReleaseEventEP11QMouseEvent
librecad:_ZN21RS_ActionDrawLineFree17updateMouseCursorEv
librecad:_ZN21RS_ActionDrawLineFree22updateMouseButtonHintsEv
librecad:_ZN21RS_ActionDrawLineFree7triggerEv
librecad:_ZN21RS_ActionDrawLineFreeC1ER18RS_EntityContainerR14RS_GraphicView
librecad:_ZN21RS_ActionDrawLineFreeC2ER18RS_EntityContainerR14RS_GraphicView
librecad:_ZN21RS_ActionDrawLineFreeD0Ev
librecad:_ZN21RS_ActionDrawLineFreeD1Ev
librecad:_ZN21RS_ActionDrawLineFreeD2Ev
librecad:_ZN21RS_ActionDrawPolyline10solveBulgeERK9RS_Vector
librecad:_ZN21RS_ActionDrawPolyline11hideOptionsEv
librecad:_ZN21RS_ActionDrawPolyline11qt_metacallEN11QMetaObject4CallEiPPv
librecad:_ZN21RS_ActionDrawPolyline11qt_metacastEPKc
librecad:_ZN21RS_ActionDrawPolyline11setReversedEb
librecad:_ZN21RS_ActionDrawPolyline11showOptionsEv
librecad:_ZN21RS_ActionDrawPolyline12commandEventEP15RS_CommandEvent
librecad:_ZN21RS_ActionDrawPolyline12drawEquationEi
librecad:_ZN21RS_ActionDrawPolyline12getPlottingXE7QStringRd
librecad:_ZN21RS_ActionDrawPolyline14mouseMoveEventEP11QMouseEvent
librecad:_ZN21RS_ActionDrawPolyline15coordinateEventEP18RS_CoordinateEvent
librecad:_ZN21RS_ActionDrawPolyline16staticMetaObjectE
librecad:_ZN21RS_ActionDrawPolyline17mouseReleaseEventEP11QMouseEvent
librecad:_ZN21RS_ActionDrawPolyline17updateMouseCursorEv
librecad:_ZN21RS_ActionDrawPolyline19setParserExpressionE7QString
librecad:_ZN21RS_ActionDrawPolyline20getAvailableCommandsEv
librecad:_ZN21RS_ActionDrawPolyline22updateMouseButtonHintsEv
librecad:_ZN21RS_ActionDrawPolyline4initEi
librecad:_ZN21RS_ActionDrawPolyline4undoEv
librecad:_ZN21RS_ActionDrawPolyline5closeEv
librecad:_ZN21RS_ActionDrawPolyline5resetEv
librecad:_ZN21RS_ActionDrawPolyline7setModeENS_11SegmentModeE
librecad:_ZN21RS_ActionDrawPolyline7triggerEv
librecad:_ZN21RS_ActionDrawPolyline8setAngleEd
librecad:_ZN21RS_ActionDrawPolyline9setRadiusEd
librecad:_ZN21RS_ActionDrawPolylineC1ER18RS_EntityContainerR14RS_GraphicView
librecad:_ZN21RS_ActionDrawPolylineC2ER18RS_EntityContainerR14RS_GraphicView
librecad:_ZN21RS_ActionDrawPolylineD0Ev
librecad:_ZN21RS_ActionDrawPolylineD1Ev
librecad:_ZN21RS_ActionDrawPolylineD2Ev
librecad:_ZN21RS_ActionLayersRemove11qt_metacallEN11QMetaObject4CallEiPPv
librecad:_ZN21RS_ActionLayersRemove11qt_metacastEPKc
librecad:_ZN21RS_ActionLayersRemove16staticMetaObjectE
librecad:_ZN21RS_ActionLayersRemove4initEi
librecad:_ZN21RS_ActionLayersRemove7triggerEv
librecad:_ZN21RS_ActionLayersRemoveC1ER18RS_EntityContainerR14RS_GraphicView
librecad:_ZN21RS_ActionLayersRemoveC2ER18RS_EntityContainerR14RS_GraphicView
librecad:_ZN21RS_ActionModifyDelete11qt_metacallEN11QMetaObject4CallEiPPv
librecad:_ZN21RS_ActionModifyDelete11qt_metacastEPKc
librecad:_ZN21RS_ActionModifyDelete16staticMetaObjectE
librecad:_ZN21RS_ActionModifyDelete17updateMouseCursorEv
librecad:_ZN21RS_ActionModifyDelete22updateMouseButtonHintsEv
librecad:_ZN21RS_ActionModifyDelete4initEi
librecad:_ZN21RS_ActionModifyDelete7triggerEv
librecad:_ZN21RS_ActionModifyDeleteC1ER18RS_EntityContainerR14RS_GraphicView
librecad:_ZN21RS_ActionModifyDeleteC2ER18RS_EntityContainerR14RS_GraphicView
librecad:_ZN21RS_ActionModifyEntity11qt_metacallEN11QMetaObject4CallEiPPv
librecad:_ZN21RS_ActionModifyEntity11qt_metacastEPKc
librecad:_ZN21RS_ActionModifyEntity16staticMetaObjectE
librecad:_ZN21RS_ActionModifyEntity17mouseReleaseEventEP11QMouseEvent
librecad:_ZN21RS_ActionModifyEntity17updateMouseCursorEv
librecad:_ZN21RS_ActionModifyEntity18setDisplaySelectedEb
librecad:_ZN21RS_ActionModifyEntity22updateMouseButtonHintsEv
librecad:_ZN21RS_ActionModifyEntity7triggerEv
librecad:_ZN21RS_ActionModifyEntityC1ER18RS_EntityContainerR14RS_GraphicView
librecad:_ZN21RS_ActionModifyEntityC2ER18RS_EntityContainerR14RS_GraphicView
librecad:_ZN21RS_ActionModifyMirror11qt_metacallEN11QMetaObject4CallEiPPv
librecad:_ZN21RS_ActionModifyMirror11qt_metacastEPKc
librecad:_ZN21RS_ActionModifyMirror14mouseMoveEventEP11QMouseEvent
librecad:_ZN21RS_ActionModifyMirror15coordinateEventEP18RS_CoordinateEvent
librecad:_ZN21RS_ActionModifyMirror16staticMetaObjectE
librecad:_ZN21RS_ActionModifyMirror17mouseReleaseEventEP11QMouseEvent
librecad:_ZN21RS_ActionModifyMirror17updateMouseCursorEv
librecad:_ZN21RS_ActionModifyMirror22updateMouseButtonHintsEv
librecad:_ZN21RS_ActionModifyMirror4initEi
librecad:_ZN21RS_ActionModifyMirror7triggerEv
librecad:_ZN21RS_ActionModifyMirrorC1ER18RS_EntityContainerR14RS_GraphicView
librecad:_ZN21RS_ActionModifyMirrorC2ER18RS_EntityContainerR14RS_GraphicView
librecad:_ZN21RS_ActionModifyMirrorD0Ev
librecad:_ZN21RS_ActionModifyMirrorD1Ev
librecad:_ZN21RS_ActionModifyMirrorD2Ev
librecad:_ZN21RS_ActionModifyOffset11hideOptionsEv
librecad:_ZN21RS_ActionModifyOffset11qt_metacallEN11QMetaObject4CallEiPPv
librecad:_ZN21RS_ActionModifyOffset11qt_metacastEPKc
librecad:_ZN21RS_ActionModifyOffset11showOptionsEv
librecad:_ZN21RS_ActionModifyOffset14mouseMoveEventEP11QMouseEvent
librecad:_ZN21RS_ActionModifyOffset16staticMetaObjectE
librecad:_ZN21RS_ActionModifyOffset17mouseReleaseEventEP11QMouseEvent
librecad:_ZN21RS_ActionModifyOffset17updateMouseCursorEv
librecad:_ZN21RS_ActionModifyOffset22updateMouseButtonHintsEv
librecad:_ZN21RS_ActionModifyOffset4initEi
librecad:_ZN21RS_ActionModifyOffset7triggerEv
librecad:_ZN21RS_ActionModifyOffsetC1ER18RS_EntityContainerR14RS_GraphicView
librecad:_ZN21RS_ActionModifyOffsetC2ER18RS_EntityContainerR14RS_GraphicView
librecad:_ZN21RS_ActionModifyOffsetD0Ev
librecad:_ZN21RS_ActionModifyOffsetD1Ev
librecad:_ZN21RS_ActionModifyOffsetD2Ev
librecad:_ZN21RS_ActionModifyRotate11qt_metacallEN11QMetaObject4CallEiPPv
librecad:_ZN21RS_ActionModifyRotate11qt_metacastEPKc
librecad:_ZN21RS_ActionModifyRotate14mouseMoveEventEP11QMouseEvent
librecad:_ZN21RS_ActionModifyRotate15coordinateEventEP18RS_CoordinateEvent
librecad:_ZN21RS_ActionModifyRotate16staticMetaObjectE
librecad:_ZN21RS_ActionModifyRotate17mouseReleaseEventEP11QMouseEvent
librecad:_ZN21RS_ActionModifyRotate17updateMouseCursorEv
librecad:_ZN21RS_ActionModifyRotate22updateMouseButtonHintsEv
librecad:_ZN21RS_ActionModifyRotate4initEi
librecad:_ZN21RS_ActionModifyRotate7triggerEv
librecad:_ZN21RS_ActionModifyRotateC1ER18RS_EntityContainerR14RS_GraphicView
librecad:_ZN21RS_ActionModifyRotateC2ER18RS_EntityContainerR14RS_GraphicView
librecad:_ZN21RS_ActionModifyRotateD0Ev
librecad:_ZN21RS_ActionModifyRotateD1Ev
librecad:_ZN21RS_ActionModifyRotateD2Ev
librecad:_ZN21RS_ActionPolylineTrim11qt_metacallEN11QMetaObject4CallEiPPv
librecad:_ZN21RS_ActionPolylineTrim11qt_metacastEPKc
librecad:_ZN21RS_ActionPolylineTrim14mouseMoveEventEP11QMouseEvent
librecad:_ZN21RS_ActionPolylineTrim16staticMetaObjectE
librecad:_ZN21RS_ActionPolylineTrim17mouseReleaseEventEP11QMouseEvent
librecad:_ZN21RS_ActionPolylineTrim17updateMouseCursorEv
librecad:_ZN21RS_ActionPolylineTrim22updateMouseButtonHintsEv
librecad:_ZN21RS_ActionPolylineTrim4initEi
librecad:_ZN21RS_ActionPolylineTrim7triggerEv
librecad:_ZN21RS_ActionPolylineTrimC1ER18RS_EntityContainerR14RS_GraphicView
librecad:_ZN21RS_ActionPolylineTrimC2ER18RS_EntityContainerR14RS_GraphicView
librecad:_ZN21RS_ActionPrintPreview11hideOptionsEv
librecad:_ZN21RS_ActionPrintPreview11qt_metacallEN11QMetaObject4CallEiPPv
librecad:_ZN21RS_ActionPrintPreview11qt_metacastEPKc
librecad:_ZN21RS_ActionPrintPreview11showOptionsEv
librecad:_ZN21RS_ActionPrintPreview12calcPagesNumEv
librecad:_ZN21RS_ActionPrintPreview12commandEventEP15RS_CommandEvent
librecad:_ZN21RS_ActionPrintPreview12printWarningERK7QString
librecad:_ZN21RS_ActionPrintPreview13setBlackWhiteEb
librecad:_ZN21RS_ActionPrintPreview14mouseMoveEventEP11QMouseEvent
librecad:_ZN21RS_ActionPrintPreview15coordinateEventEP18RS_CoordinateEvent
librecad:_ZN21RS_ActionPrintPreview15mousePressEventEP11QMouseEvent
librecad:_ZN21RS_ActionPrintPreview16staticMetaObjectE
librecad:_ZN21RS_ActionPrintPreview17mouseReleaseEventEP11QMouseEvent
librecad:_ZN21RS_ActionPrintPreview17updateMouseCursorEv
librecad:_ZN21RS_ActionPrintPreview18getPaperScaleFixedEv
librecad:_ZN21RS_ActionPrintPreview18setPaperScaleFixedEb
librecad:_ZN21RS_ActionPrintPreview19setLineWidthScalingEb
librecad:_ZN21RS_ActionPrintPreview20getAvailableCommandsEv
librecad:_ZN21RS_ActionPrintPreview3fitEv
librecad:_ZN21RS_ActionPrintPreview4initEi
librecad:_ZN21RS_ActionPrintPreview6centerEv
librecad:_ZN21RS_ActionPrintPreview6resumeEv
librecad:_ZN21RS_ActionPrintPreview7getUnitEv
librecad:_ZN21RS_ActionPrintPreview8setScaleEdb
librecad:_ZN21RS_ActionPrintPreview9getOptionEv
librecad:_ZN21RS_ActionPrintPreview9setOptionESt10unique_ptrI22QG_PrintPreviewOptionsSt14default_deleteIS1_EE
librecad:_ZN21RS_ActionPrintPreviewC1ER18RS_EntityContainerR14RS_GraphicView
librecad:_ZN21RS_ActionPrintPreviewC2ER18RS_EntityContainerR14RS_GraphicView
librecad:_ZN21RS_ActionPrintPreviewD0Ev
librecad:_ZN21RS_ActionPrintPreviewD1Ev
librecad:_ZN21RS_ActionPrintPreviewD2Ev
librecad:_ZN21RS_ActionSelectInvert11qt_metacallEN11QMetaObject4CallEiPPv
librecad:_ZN21RS_ActionSelectInvert11qt_metacastEPKc
librecad:_ZN21RS_ActionSelectInvert16staticMetaObjectE
librecad:_ZN21RS_ActionSelectInvert4initEi
librecad:_ZN21RS_ActionSelectInvert7triggerEv
librecad:_ZN21RS_ActionSelectInvertC1ER18RS_EntityContainerR14RS_GraphicView
librecad:_ZN21RS_ActionSelectInvertC2ER18RS_EntityContainerR14RS_GraphicView
librecad:_ZN21RS_ActionSelectSingle11qt_metacallEN11QMetaObject4CallEiPPv
librecad:_ZN21RS_ActionSelectSingle11qt_metacastEPKc
librecad:_ZN21RS_ActionSelectSingle13keyPressEventEP9QKeyEvent
librecad:_ZN21RS_ActionSelectSingle15getTypeToSelectEv
librecad:_ZN21RS_ActionSelectSingle16staticMetaObjectE
librecad:_ZN21RS_ActionSelectSingle17mouseReleaseEventEP11QMouseEvent
librecad:_ZN21RS_ActionSelectSingle17updateMouseCursorEv
librecad:_ZN21RS_ActionSelectSingle7triggerEv
librecad:_ZN21RS_ActionSelectSingleC1EN3RS210EntityTypeER18RS_EntityContainerR14RS_GraphicViewP18RS_ActionInterface5QListIS1_E
librecad:_ZN21RS_ActionSelectSingleC1ER18RS_EntityContainerR14RS_GraphicViewP18RS_ActionInterface5QListIN3RS210EntityTypeEE
librecad:_ZN21RS_ActionSelectSingleC2EN3RS210EntityTypeER18RS_EntityContainerR14RS_GraphicViewP18RS_ActionInterface5QListIS1_E
librecad:_ZN21RS_ActionSelectSingleC2ER18RS_EntityContainerR14RS_GraphicViewP18RS_ActionInterface5QListIN3RS210EntityTypeEE
librecad:_ZN21RS_ActionSelectWindow11qt_metacallEN11QMetaObject4CallEiPPv
librecad:_ZN21RS_ActionSelectWindow11qt_metacastEPKc
librecad:_ZN21RS_ActionSelectWindow14mouseMoveEventEP11QMouseEvent
librecad:_ZN21RS_ActionSelectWindow15getTypeToSelectEv
librecad:_ZN21RS_ActionSelectWindow15mousePressEventEP11QMouseEvent
librecad:_ZN21RS_ActionSelectWindow16staticMetaObjectE
librecad:_ZN21RS_ActionSelectWindow17mouseReleaseEventEP11QMouseEvent
librecad:_ZN21RS_ActionSelectWindow17updateMouseCursorEv
librecad:_ZN21RS_ActionSelectWindow22updateMouseButtonHintsEv
librecad:_ZN21RS_ActionSelectWindow4initEi
librecad:_ZN21RS_ActionSelectWindow7triggerEv
librecad:_ZN21RS_ActionSelectWindowC1EN3RS210EntityTypeER18RS_EntityContainerR14RS_GraphicViewb
librecad:_ZN21RS_ActionSelectWindowC1ER18RS_EntityContainerR14RS_GraphicViewb
librecad:_ZN21RS_ActionSelectWindowC2EN3RS210EntityTypeER18RS_EntityContainerR14RS_GraphicViewb
librecad:_ZN21RS_ActionSelectWindowC2ER18RS_EntityContainerR14RS_GraphicViewb
librecad:_ZN21RS_ActionSelectWindowD0Ev
librecad:_ZN21RS_ActionSelectWindowD1Ev
librecad:_ZN21RS_ActionSelectWindowD2Ev
librecad:_ZN21RS_ActionZoomPrevious11qt_metacallEN11QMetaObject4CallEiPPv
librecad:_ZN21RS_ActionZoomPrevious11qt_metacastEPKc
librecad:_ZN21RS_ActionZoomPrevious16staticMetaObjectE
librecad:_ZN21RS_ActionZoomPrevious4initEi
librecad:_ZN21RS_ActionZoomPrevious7triggerEv
librecad:_ZN21RS_ActionZoomPreviousC1ER18RS_EntityContainerR14RS_GraphicView
librecad:_ZN21RS_ActionZoomPreviousC2ER18RS_EntityContainerR14RS_GraphicView
librecad:_ZN22LC_ActionDrawCircle2PR11qt_metacallEN11QMetaObject4CallEiPPv
librecad:_ZN22LC_ActionDrawCircle2PR11qt_metacastEPKc
librecad:_ZN22LC_ActionDrawCircle2PR12commandEventEP15RS_CommandEvent
librecad:_ZN22LC_ActionDrawCircle2PR14mouseMoveEventEP11QMouseEvent
librecad:_ZN22LC_ActionDrawCircle2PR14preparePreviewERK9RS_Vector
librecad:_ZN22LC_ActionDrawCircle2PR15coordinateEventEP18RS_CoordinateEvent
librecad:_ZN22LC_ActionDrawCircle2PR16staticMetaObjectE
librecad:_ZN22LC_ActionDrawCircle2PR17mouseReleaseEventEP11QMouseEvent
librecad:_ZN22LC_ActionDrawCircle2PR17updateMouseCursorEv
librecad:_ZN22LC_ActionDrawCircle2PR20getAvailableCommandsEv
librecad:_ZN22LC_ActionDrawCircle2PR22updateMouseButtonHintsEv
librecad:_ZN22LC_ActionDrawCircle2PR4initEi
librecad:_ZN22LC_ActionDrawCircle2PR5resetEv
librecad:_ZN22LC_ActionDrawCircle2PR7triggerEv
librecad:_ZN22LC_ActionDrawCircle2PRC1ER18RS_EntityContainerR14RS_GraphicView
librecad:_ZN22LC_ActionDrawCircle2PRC2ER18RS_EntityContainerR14RS_GraphicView
librecad:_ZN22LC_ActionDrawCircle2PRD0Ev
librecad:_ZN22LC_ActionDrawCircle2PRD1Ev
librecad:_ZN22LC_ActionDrawCircle2PRD2Ev
librecad:_ZN22LC_ActionDrawLineSnake10addHistoryENS_13HistoryActionERK9RS_VectorS3_i
librecad:_ZN22LC_ActionDrawLineSnake11qt_metacallEN11QMetaObject4CallEiPPv
librecad:_ZN22LC_ActionDrawLineSnake11qt_metacastEPKc
librecad:_ZN22LC_ActionDrawLineSnake11resetPointsEv
librecad:_ZN22LC_ActionDrawLineSnake14createEntitiesER9RS_VectorR5QListIP9RS_EntityE
librecad:_ZN22LC_ActionDrawLineSnake15doSetStartPointE9RS_Vector
librecad:_ZN22LC_ActionDrawLineSnake16doProceedCommandEP15RS_CommandEventRK7QString
librecad:_ZN22LC_ActionDrawLineSnake16staticMetaObjectE
librecad:_ZN22LC_ActionDrawLineSnake17onCoordinateEventERK9RS_Vectorbi
librecad:_ZN22LC_ActionDrawLineSnake19completeLineSegmentEb
librecad:_ZN22LC_ActionDrawLineSnake19createOptionsWidgetEv
librecad:_ZN22LC_ActionDrawLineSnake20getAvailableCommandsEv
librecad:_ZN22LC_ActionDrawLineSnake21calculateAngleSegmentEd
librecad:_ZN22LC_ActionDrawLineSnake21doCheckMayDrawPreviewEP11QMouseEventi
librecad:_ZN22LC_ActionDrawLineSnake21doProcessCommandValueEP15RS_CommandEventRK7QString
librecad:_ZN22LC_ActionDrawLineSnake22calculateAngleEndpointERK9RS_Vector
librecad:_ZN22LC_ActionDrawLineSnake22updateMouseButtonHintsEv
librecad:_ZN22LC_ActionDrawLineSnake24defineActualSegmentAngleEd
librecad:_ZN22LC_ActionDrawLineSnake24doPreparePreviewEntitiesEP11QMouseEventR9RS_VectorR5QListIP9RS_EntityEi
librecad:_ZN22LC_ActionDrawLineSnake24doPrepareTriggerEntitiesER5QListIP9RS_EntityE
librecad:_ZN22LC_ActionDrawLineSnake29doGetRelativeZeroAfterTriggerEv
librecad:_ZN22LC_ActionDrawLineSnake4initEi
librecad:_ZN22LC_ActionDrawLineSnake4nextEv
librecad:_ZN22LC_ActionDrawLineSnake4redoEv
librecad:_ZN22LC_ActionDrawLineSnake4undoEv
librecad:_ZN22LC_ActionDrawLineSnake5closeEv
librecad:_ZN22LC_ActionDrawLineSnake6Points5indexEi
librecad:_ZN22LC_ActionDrawLineSnake6doBackEP11QMouseEventi
librecad:_ZN22LC_ActionDrawLineSnake7mayRedoEv
librecad:_ZN22LC_ActionDrawLineSnake8mayCloseEv
librecad:_ZN22LC_ActionDrawLineSnake8mayStartEv
librecad:_ZN22LC_ActionDrawLineSnake8polylineEv
librecad:_ZN22LC_ActionDrawLineSnakeC1ER18RS_EntityContainerR14RS_GraphicViewi
librecad:_ZN22LC_ActionDrawLineSnakeC2ER18RS_EntityContainerR14RS_GraphicViewi
librecad:_ZN22LC_ActionDrawLineSnakeD0Ev
librecad:_ZN22LC_ActionDrawLineSnakeD1Ev
librecad:_ZN22LC_ActionDrawLineSnakeD2Ev
librecad:_ZN22LC_ActionModifyLineGap11qt_metacallEN11QMetaObject4CallEiPPv
librecad:_ZN22LC_ActionModifyLineGap11qt_metacastEPKc
librecad:_ZN22LC_ActionModifyLineGap14doAfterTriggerEv
librecad:_ZN22LC_ActionModifyLineGap16staticMetaObjectE
librecad:_ZN22LC_ActionModifyLineGap17doCheckMayTriggerEv
librecad:_ZN22LC_ActionModifyLineGap19createOptionsWidgetEv
librecad:_ZN22LC_ActionModifyLineGap22updateMouseButtonHintsEv
librecad:_ZN22LC_ActionModifyLineGap23performTriggerDeletionsEv
librecad:_ZN22LC_ActionModifyLineGap24doPreparePreviewEntitiesEP11QMouseEventR9RS_VectorR5QListIP9RS_EntityEi
librecad:_ZN22LC_ActionModifyLineGap24doPrepareTriggerEntitiesER5QListIP9RS_EntityE
librecad:_ZN22LC_ActionModifyLineGap26doOnLeftMouseButtonReleaseEP11QMouseEventiRK9RS_Vector
librecad:_ZN22LC_ActionModifyLineGap31isSetActivePenAndLayerOnTriggerEv
librecad:_ZN22LC_ActionModifyLineGap8doFinishEb
librecad:_ZN22LC_ActionModifyLineGapC1ER18RS_EntityContainerR14RS_GraphicView
librecad:_ZN22LC_ActionModifyLineGapC2ER18RS_EntityContainerR14RS_GraphicView
librecad:_ZN22LC_ActionOptionsWidget10fromDoubleEd
librecad:_ZN22LC_ActionOptionsWidget11hideOptionsEv
librecad:_ZN22LC_ActionOptionsWidget11qt_metacallEN11QMetaObject4CallEiPPv
librecad:_ZN22LC_ActionOptionsWidget11qt_metacastEPKc
librecad:_ZN22LC_ActionOptionsWidget12saveSettingsEv
librecad:_ZN22LC_ActionOptionsWidget13toDoubleAngleERK7QStringRddb
librecad:_ZN22LC_ActionOptionsWidget16staticMetaObjectE
librecad:_ZN22LC_ActionOptionsWidget20checkActionRttiValidEN3RS210ActionTypeE
librecad:_ZN22LC_ActionOptionsWidget4loadE7QStringS0_
librecad:_ZN22LC_ActionOptionsWidget4saveE7QStringS0_
librecad:_ZN22LC_ActionOptionsWidget4saveE7QStringb
librecad:_ZN22LC_ActionOptionsWidget4saveE7QStringi
librecad:_ZN22LC_ActionOptionsWidget7loadIntE7QStringi
librecad:_ZN22LC_ActionOptionsWidget8loadBoolE7QStringb
librecad:_ZN22LC_ActionOptionsWidget8toDoubleERK7QStringRddb
librecad:_ZN22LC_ActionOptionsWidget9setActionEP18RS_ActionInterfaceb
librecad:_ZN22LC_ActionOptionsWidgetC2EP7QWidget6QFlagsIN2Qt10WindowTypeEE
librecad:_ZN22LC_ActionOptionsWidgetD0Ev
librecad:_ZN22LC_ActionOptionsWidgetD1Ev
librecad:_ZN22LC_ActionOptionsWidgetD2Ev
librecad:_ZN22LC_LineAngleRelOptions11doSetActionEP18RS_ActionInterfaceb
librecad:_ZN22LC_LineAngleRelOptions11qt_metacallEN11QMetaObject4CallEiPPv
librecad:_ZN22LC_LineAngleRelOptions11qt_metacastEPKc
librecad:_ZN22LC_LineAngleRelOptions14doSaveSettingsEv
librecad:_ZN22LC_LineAngleRelOptions14languageChangeEv
librecad:_ZN22LC_LineAngleRelOptions15onDivideClickedEb
librecad:_ZN22LC_LineAngleRelOptions16staticMetaObjectE
librecad:_ZN22LC_LineAngleRelOptions19onFreeLengthClickedEb
librecad:_ZN22LC_LineAngleRelOptions20checkActionRttiValidEN3RS210ActionTypeE
librecad:_ZN22LC_LineAngleRelOptions21onAngleRelatedClickedEb
librecad:_ZN22LC_LineAngleRelOptions22onAngleEditingFinishedEv
librecad:_ZN22LC_LineAngleRelOptions23onLengthEditingFinishedEv
librecad:_ZN22LC_LineAngleRelOptions23onOffsetEditingFinishedEv
librecad:_ZN22LC_LineAngleRelOptions23setAngleToActionAndViewERK7QString
librecad:_ZN22LC_LineAngleRelOptions24setDivideToActionAndViewEb
librecad:_ZN22LC_LineAngleRelOptions24setLengthToActionAndViewERK7QString
librecad:_ZN22LC_LineAngleRelOptions24setOffsetToActionAndViewERK7QString
librecad:_ZN22LC_LineAngleRelOptions25onDistanceEditingFinishedEv
librecad:_ZN22LC_LineAngleRelOptions26onLineSnapModeIndexChangedEi
librecad:_ZN22LC_LineAngleRelOptions26onTickSnapModeIndexChangedEi
librecad:_ZN22LC_LineAngleRelOptions26setDistanceToActionAndViewERK7QString
librecad:_ZN22LC_LineAngleRelOptions27getSettingsOptionNamePrefixEv
librecad:_ZN22LC_LineAngleRelOptions30setLengthIsFreeToActionAndViewEb
librecad:_ZN22LC_LineAngleRelOptions30setLineSnapModeToActionAndViewEi
librecad:_ZN22LC_LineAngleRelOptions30setTickSnapModeToActionAndViewEi
librecad:_ZN22LC_LineAngleRelOptions33setAngleIsRelativeToActionAndViewEb
librecad:_ZN22LC_LineAngleRelOptionsC1EP7QWidget
librecad:_ZN22LC_LineAngleRelOptionsC2EP7QWidget
librecad:_ZN22LC_LineAngleRelOptionsD0Ev
librecad:_ZN22LC_LineAngleRelOptionsD1Ev
librecad:_ZN22LC_LineAngleRelOptionsD2Ev
librecad:_ZN22LC_WidgetOptionsDialog11qt_metacallEN11QMetaObject4CallEiPPv
librecad:_ZN22LC_WidgetOptionsDialog11qt_metacastEPKc
librecad:_ZN22LC_WidgetOptionsDialog16chooseStyleSheetEv
librecad:_ZN22LC_WidgetOptionsDialog16staticMetaObjectE
librecad:_ZN22LC_WidgetOptionsDialogC1EP7QWidget
librecad:_ZN22LC_WidgetOptionsDialogC2EP7QWidget
librecad:_ZN22QG_LineBisectorOptions11qt_metacallEN11QMetaObject4CallEiPPv
librecad:_ZN22QG_LineBisectorOptions11qt_metacastEPKc
librecad:_ZN22QG_LineBisectorOptions12saveSettingsEv
librecad:_ZN22QG_LineBisectorOptions12updateLengthERK7QString
librecad:_ZN22QG_LineBisectorOptions12updateNumberEi
librecad:_ZN22QG_LineBisectorOptions14languageChangeEv
librecad:_ZN22QG_LineBisectorOptions16staticMetaObjectE
librecad:_ZN22QG_LineBisectorOptions9setActionEP18RS_ActionInterfaceb
librecad:_ZN22QG_LineBisectorOptionsC1EP7QWidget6QFlagsIN2Qt10WindowTypeEE
librecad:_ZN22QG_LineBisectorOptionsC2EP7QWidget6QFlagsIN2Qt10WindowTypeEE
librecad:_ZN22QG_LineBisectorOptionsD0Ev
librecad:_ZN22QG_LineBisectorOptionsD1Ev
librecad:_ZN22QG_LineBisectorOptionsD2Ev
librecad:_ZN22QG_LineParallelOptions10updateDistERK7QString
librecad:_ZN22QG_LineParallelOptions11qt_metacallEN11QMetaObject4CallEiPPv
librecad:_ZN22QG_LineParallelOptions11qt_metacastEPKc
librecad:_ZN22QG_LineParallelOptions12saveSettingsEv
librecad:_ZN22QG_LineParallelOptions12updateNumberEi
librecad:_ZN22QG_LineParallelOptions14languageChangeEv
librecad:_ZN22QG_LineParallelOptions16staticMetaObjectE
librecad:_ZN22QG_LineParallelOptions9setActionEP18RS_ActionInterfaceb
librecad:_ZN22QG_LineParallelOptionsC1EP7QWidget6QFlagsIN2Qt10WindowTypeEE
librecad:_ZN22QG_LineParallelOptionsC2EP7QWidget6QFlagsIN2Qt10WindowTypeEE
librecad:_ZN22QG_LineParallelOptionsD0Ev
librecad:_ZN22QG_LineParallelOptionsD1Ev
librecad:_ZN22QG_LineParallelOptionsD2Ev
librecad:_ZN22QG_LinePolygon2Options11qt_metacallEN11QMetaObject4CallEiPPv
librecad:_ZN22QG_LinePolygon2Options11qt_metacastEPKc
librecad:_ZN22QG_LinePolygon2Options12saveSettingsEv
librecad:_ZN22QG_LinePolygon2Options12updateNumberEi
librecad:_ZN22QG_LinePolygon2Options14languageChangeEv
librecad:_ZN22QG_LinePolygon2Options16staticMetaObjectE
librecad:_ZN22QG_LinePolygon2Options9setActionEP18RS_ActionInterfaceb
librecad:_ZN22QG_LinePolygon2OptionsC1EP7QWidget6QFlagsIN2Qt10WindowTypeEE
librecad:_ZN22QG_LinePolygon2OptionsC2EP7QWidget6QFlagsIN2Qt10WindowTypeEE
librecad:_ZN22QG_LinePolygon2OptionsD0Ev
librecad:_ZN22QG_LinePolygon2OptionsD1Ev
librecad:_ZN22QG_LinePolygon2OptionsD2Ev
librecad:_ZN22QG_LineRelAngleOptions11qt_metacallEN11QMetaObject4CallEiPPv
librecad:_ZN22QG_LineRelAngleOptions11qt_metacastEPKc
librecad:_ZN22QG_LineRelAngleOptions11updateAngleERK7QString
librecad:_ZN22QG_LineRelAngleOptions12saveSettingsEv
librecad:_ZN22QG_LineRelAngleOptions12updateLengthERK7QString
librecad:_ZN22QG_LineRelAngleOptions14languageChangeEv
librecad:_ZN22QG_LineRelAngleOptions16staticMetaObjectE
librecad:_ZN22QG_LineRelAngleOptions9setActionEP18RS_ActionInterfaceb
librecad:_ZN22QG_LineRelAngleOptionsC1EP7QWidget6QFlagsIN2Qt10WindowTypeEE
librecad:_ZN22QG_LineRelAngleOptionsC2EP7QWidget6QFlagsIN2Qt10WindowTypeEE
librecad:_ZN22QG_LineRelAngleOptionsD0Ev
librecad:_ZN22QG_LineRelAngleOptionsD1Ev
librecad:_ZN22QG_LineRelAngleOptionsD2Ev
librecad:_ZN22QG_ModifyOffsetOptions10updateDistERK7QString
librecad:_ZN22QG_ModifyOffsetOptions11qt_metacallEN11QMetaObject4CallEiPPv
librecad:_ZN22QG_ModifyOffsetOptions11qt_metacastEPKc
librecad:_ZN22QG_ModifyOffsetOptions12saveSettingsEv
librecad:_ZN22QG_ModifyOffsetOptions14languageChangeEv
librecad:_ZN22QG_ModifyOffsetOptions16staticMetaObjectE
librecad:_ZN22QG_ModifyOffsetOptions7setDistERdb
librecad:_ZN22QG_ModifyOffsetOptionsC1EP7QWidget6QFlagsIN2Qt10WindowTypeEE
librecad:_ZN22QG_ModifyOffsetOptionsC2EP7QWidget6QFlagsIN2Qt10WindowTypeEE
librecad:_ZN22QG_ModifyOffsetOptionsD0Ev
librecad:_ZN22QG_ModifyOffsetOptionsD1Ev
librecad:_ZN22QG_ModifyOffsetOptionsD2Ev
librecad:_ZN22QG_PrintPreviewOptions10updateDataEv
librecad:_ZN22QG_PrintPreviewOptions11qt_metacallEN11QMetaObject4CallEiPPv
librecad:_ZN22QG_PrintPreviewOptions11qt_metacastEPKc
librecad:_ZN22QG_PrintPreviewOptions12calcPagesNumEv
librecad:_ZN22QG_PrintPreviewOptions12saveSettingsEv
librecad:_ZN22QG_PrintPreviewOptions13setBlackWhiteEb
librecad:_ZN22QG_PrintPreviewOptions13setScaleFixedEb
librecad:_ZN22QG_PrintPreviewOptions14languageChangeEv
librecad:_ZN22QG_PrintPreviewOptions14updateScaleBoxERK7QString
librecad:_ZN22QG_PrintPreviewOptions14updateScaleBoxEd
librecad:_ZN22QG_PrintPreviewOptions14updateScaleBoxEv
librecad:_ZN22QG_PrintPreviewOptions16staticMetaObjectE
librecad:_ZN22QG_PrintPreviewOptions19setLineWidthScalingEb
librecad:_ZN22QG_PrintPreviewOptions3fitEv
librecad:_ZN22QG_PrintPreviewOptions4initEv
librecad:_ZN22QG_PrintPreviewOptions5scaleERK7QString
librecad:_ZN22QG_PrintPreviewOptions5scaleEd
librecad:_ZN22QG_PrintPreviewOptions6centerEv
librecad:_ZN22QG_PrintPreviewOptions9setActionEP18RS_ActionInterfaceb
librecad:_ZN22QG_PrintPreviewOptionsC1EP7QWidget6QFlagsIN2Qt10WindowTypeEE
librecad:_ZN22QG_PrintPreviewOptionsC2EP7QWidget6QFlagsIN2Qt10WindowTypeEE
librecad:_ZN22QG_PrintPreviewOptionsD0Ev
librecad:_ZN22QG_PrintPreviewOptionsD1Ev
librecad:_ZN22QG_PrintPreviewOptionsD2Ev
librecad:_ZN22RS_ActionBlocksExplode11qt_metacallEN11QMetaObject4CallEiPPv
librecad:_ZN22RS_ActionBlocksExplode11qt_metacastEPKc
librecad:_ZN22RS_ActionBlocksExplode16staticMetaObjectE
librecad:_ZN22RS_ActionBlocksExplode4initEi
librecad:_ZN22RS_ActionBlocksExplode7triggerEv
librecad:_ZN22RS_ActionBlocksExplodeC1ER18RS_EntityContainerR14RS_GraphicView
librecad:_ZN22RS_ActionBlocksExplodeC2ER18RS_EntityContainerR14RS_GraphicView
librecad:_ZN22RS_ActionDrawLineAngle11hideOptionsEv
librecad:_ZN22RS_ActionDrawLineAngle11qt_metacallEN11QMetaObject4CallEiPPv
librecad:_ZN22RS_ActionDrawLineAngle11qt_metacastEPKc
librecad:_ZN22RS_ActionDrawLineAngle11showOptionsEv
librecad:_ZN22RS_ActionDrawLineAngle12commandEventEP15RS_CommandEvent
librecad:_ZN22RS_ActionDrawLineAngle12setSnapPointEi
librecad:_ZN22RS_ActionDrawLineAngle14mouseMoveEventEP11QMouseEvent
librecad:_ZN22RS_ActionDrawLineAngle14preparePreviewEv
librecad:_ZN22RS_ActionDrawLineAngle15coordinateEventEP18RS_CoordinateEvent
librecad:_ZN22RS_ActionDrawLineAngle16staticMetaObjectE
librecad:_ZN22RS_ActionDrawLineAngle17mouseReleaseEventEP11QMouseEvent
librecad:_ZN22RS_ActionDrawLineAngle17updateMouseCursorEv
librecad:_ZN22RS_ActionDrawLineAngle20getAvailableCommandsEv
librecad:_ZN22RS_ActionDrawLineAngle22updateMouseButtonHintsEv
librecad:_ZN22RS_ActionDrawLineAngle4initEi
librecad:_ZN22RS_ActionDrawLineAngle5resetEv
librecad:_ZN22RS_ActionDrawLineAngle7triggerEv
librecad:_ZN22RS_ActionDrawLineAngle8setAngleEd
librecad:_ZN22RS_ActionDrawLineAngle9setLengthEd
librecad:_ZN22RS_ActionDrawLineAngleC1ER18RS_EntityContainerR14RS_GraphicViewdbN3RS210ActionTypeE
librecad:_ZN22RS_ActionDrawLineAngleC2ER18RS_EntityContainerR14RS_GraphicViewdbN3RS210ActionTypeE
librecad:_ZN22RS_ActionDrawLineAngleD0Ev
librecad:_ZN22RS_ActionDrawLineAngleD1Ev
librecad:_ZN22RS_ActionDrawLineAngleD2Ev
librecad:_ZN22RS_ActionLayersLockAll11qt_metacallEN11QMetaObject4CallEiPPv
librecad:_ZN22RS_ActionLayersLockAll11qt_metacastEPKc
librecad:_ZN22RS_ActionLayersLockAll16staticMetaObjectE
librecad:_ZN22RS_ActionLayersLockAll4initEi
librecad:_ZN22RS_ActionLayersLockAll7triggerEv
librecad:_ZN22RS_ActionLayersLockAllC1EbR18RS_EntityContainerR14RS_GraphicView
librecad:_ZN22RS_ActionLayersLockAllC2EbR18RS_EntityContainerR14RS_GraphicView
librecad:_ZN22RS_ActionLibraryInsert11hideOptionsEv
librecad:_ZN22RS_ActionLibraryInsert11qt_metacallEN11QMetaObject4CallEiPPv
librecad:_ZN22RS_ActionLibraryInsert11qt_metacastEPKc
librecad:_ZN22RS_ActionLibraryInsert11showOptionsEv
librecad:_ZN22RS_ActionLibraryInsert12commandEventEP15RS_CommandEvent
librecad:_ZN22RS_ActionLibraryInsert14mouseMoveEventEP11QMouseEvent
librecad:_ZN22RS_ActionLibraryInsert15coordinateEventEP18RS_CoordinateEvent
librecad:_ZN22RS_ActionLibraryInsert15createGUIActionEN3RS210ActionTypeEP7QObject
librecad:_ZN22RS_ActionLibraryInsert16staticMetaObjectE
librecad:_ZN22RS_ActionLibraryInsert17mouseReleaseEventEP11QMouseEvent
librecad:_ZN22RS_ActionLibraryInsert17updateMouseCursorEv
librecad:_ZN22RS_ActionLibraryInsert20getAvailableCommandsEv
librecad:_ZN22RS_ActionLibraryInsert22updateMouseButtonHintsEv
librecad:_ZN22RS_ActionLibraryInsert4initEi
librecad:_ZN22RS_ActionLibraryInsert5resetEv
librecad:_ZN22RS_ActionLibraryInsert7setFileERK7QString
librecad:_ZN22RS_ActionLibraryInsert7triggerEv
librecad:_ZN22RS_ActionLibraryInsert8setAngleEd
librecad:_ZN22RS_ActionLibraryInsert9setFactorEd
librecad:_ZN22RS_ActionLibraryInsertC1ER18RS_EntityContainerR14RS_GraphicView
librecad:_ZN22RS_ActionLibraryInsertC2ER18RS_EntityContainerR14RS_GraphicView
librecad:_ZN22RS_ActionLibraryInsertD0Ev
librecad:_ZN22RS_ActionLibraryInsertD1Ev
librecad:_ZN22RS_ActionLibraryInsertD2Ev
librecad:_ZN22RS_ActionModifyRotate211qt_metacallEN11QMetaObject4CallEiPPv
librecad:_ZN22RS_ActionModifyRotate211qt_metacastEPKc
librecad:_ZN22RS_ActionModifyRotate212commandEventEP15RS_CommandEvent
librecad:_ZN22RS_ActionModifyRotate214mouseMoveEventEP11QMouseEvent
librecad:_ZN22RS_ActionModifyRotate215coordinateEventEP18RS_CoordinateEvent
librecad:_ZN22RS_ActionModifyRotate216staticMetaObjectE
librecad:_ZN22RS_ActionModifyRotate217mouseReleaseEventEP11QMouseEvent
librecad:_ZN22RS_ActionModifyRotate217updateMouseCursorEv
librecad:_ZN22RS_ActionModifyRotate220getAvailableCommandsEv
librecad:_ZN22RS_ActionModifyRotate222updateMouseButtonHintsEv
librecad:_ZN22RS_ActionModifyRotate24initEi
librecad:_ZN22RS_ActionModifyRotate27triggerEv
librecad:_ZN22RS_ActionModifyRotate2C1ER18RS_EntityContainerR14RS_GraphicView
librecad:_ZN22RS_ActionModifyRotate2C2ER18RS_EntityContainerR14RS_GraphicView
librecad:_ZN22RS_ActionModifyRotate2D0Ev
librecad:_ZN22RS_ActionModifyRotate2D1Ev
librecad:_ZN22RS_ActionModifyRotate2D2Ev
librecad:_ZN22RS_ActionModifyStretch11qt_metacallEN11QMetaObject4CallEiPPv
librecad:_ZN22RS_ActionModifyStretch11qt_metacastEPKc
librecad:_ZN22RS_ActionModifyStretch14mouseMoveEventEP11QMouseEvent
librecad:_ZN22RS_ActionModifyStretch15coordinateEventEP18RS_CoordinateEvent
librecad:_ZN22RS_ActionModifyStretch16staticMetaObjectE
librecad:_ZN22RS_ActionModifyStretch17mouseReleaseEventEP11QMouseEvent
librecad:_ZN22RS_ActionModifyStretch17updateMouseCursorEv
librecad:_ZN22RS_ActionModifyStretch22updateMouseButtonHintsEv
librecad:_ZN22RS_ActionModifyStretch4initEi
librecad:_ZN22RS_ActionModifyStretch7triggerEv
librecad:_ZN22RS_ActionModifyStretchC1ER18RS_EntityContainerR14RS_GraphicView
librecad:_ZN22RS_ActionModifyStretchC2ER18RS_EntityContainerR14RS_GraphicView
librecad:_ZN22RS_ActionModifyStretchD0Ev
librecad:_ZN22RS_ActionModifyStretchD1Ev
librecad:_ZN22RS_ActionModifyStretchD2Ev
librecad:_ZN22RS_ActionSelectContour11qt_metacallEN11QMetaObject4CallEiPPv
librecad:_ZN22RS_ActionSelectContour11qt_metacastEPKc
librecad:_ZN22RS_ActionSelectContour16staticMetaObjectE
librecad:_ZN22RS_ActionSelectContour17mouseReleaseEventEP11QMouseEvent
librecad:_ZN22RS_ActionSelectContour17updateMouseCursorEv
librecad:_ZN22RS_ActionSelectContour7triggerEv
librecad:_ZN22RS_ActionSelectContourC1ER18RS_EntityContainerR14RS_GraphicView
librecad:_ZN22RS_ActionSelectContourC2ER18RS_EntityContainerR14RS_GraphicView
librecad:_ZN23LC_ActionDrawLinePoints11qt_metacallEN11QMetaObject4CallEiPPv
librecad:_ZN23LC_ActionDrawLinePoints11qt_metacastEPKc
librecad:_ZN23LC_ActionDrawLinePoints12createPointsER9RS_VectorR5QListIP9RS_EntityE
librecad:_ZN23LC_ActionDrawLinePoints14doAfterTriggerEv
librecad:_ZN23LC_ActionDrawLinePoints14setMajorStatusEv
librecad:_ZN23LC_ActionDrawLinePoints15doSetStartPointE9RS_Vector
librecad:_ZN23LC_ActionDrawLinePoints16doProceedCommandEP15RS_CommandEventRK7QString
librecad:_ZN23LC_ActionDrawLinePoints16staticMetaObjectE
librecad:_ZN23LC_ActionDrawLinePoints17doCheckMayTriggerEv
librecad:_ZN23LC_ActionDrawLinePoints17onCoordinateEventERK9RS_Vectorbi
librecad:_ZN23LC_ActionDrawLinePoints17setEdgePointsModeEi
librecad:_ZN23LC_ActionDrawLinePoints17updatePointsCountEi
librecad:_ZN23LC_ActionDrawLinePoints19createOptionsWidgetEv
librecad:_ZN23LC_ActionDrawLinePoints20getAvailableCommandsEv
librecad:_ZN23LC_ActionDrawLinePoints20updateEdgePointsModeEi
librecad:_ZN23LC_ActionDrawLinePoints21doProcessCommandValueEP15RS_CommandEventRK7QString
librecad:_ZN23LC_ActionDrawLinePoints22updateMouseButtonHintsEv
librecad:_ZN23LC_ActionDrawLinePoints24doPreparePreviewEntitiesEP11QMouseEventR9RS_VectorR5QListIP9RS_EntityEi
librecad:_ZN23LC_ActionDrawLinePoints24doPrepareTriggerEntitiesER5QListIP9RS_EntityE
librecad:_ZN23LC_ActionDrawLinePoints27getPossibleEndPointForAngleERK9RS_Vector
librecad:_ZN23LC_ActionDrawLinePoints29doGetRelativeZeroAfterTriggerEv
librecad:_ZN23LC_ActionDrawLinePoints4initEi
librecad:_ZN23LC_ActionDrawLinePoints6doBackEP11QMouseEventi
librecad:_ZN23LC_ActionDrawLinePointsC1ER18RS_EntityContainerR14RS_GraphicView
librecad:_ZN23LC_ActionDrawLinePointsC2ER18RS_EntityContainerR14RS_GraphicView
librecad:_ZN23LC_ActionDrawLinePointsD0Ev
librecad:_ZN23LC_ActionDrawLinePointsD1Ev
librecad:_ZN23LC_ActionDrawLinePointsD2Ev
librecad:_ZN23LC_ActionDrawParabolaFD11qt_metacallEN11QMetaObject4CallEiPPv
librecad:_ZN23LC_ActionDrawParabolaFD11qt_metacastEPKc
librecad:_ZN23LC_ActionDrawParabolaFD14mouseMoveEventEP11QMouseEvent
librecad:_ZN23LC_ActionDrawParabolaFD14preparePreviewEv
librecad:_ZN23LC_ActionDrawParabolaFD15coordinateEventEP18RS_CoordinateEvent
librecad:_ZN23LC_ActionDrawParabolaFD16staticMetaObjectE
librecad:_ZN23LC_ActionDrawParabolaFD17mouseReleaseEventEP11QMouseEvent
librecad:_ZN23LC_ActionDrawParabolaFD17updateMouseCursorEv
librecad:_ZN23LC_ActionDrawParabolaFD20getAvailableCommandsEv
librecad:_ZN23LC_ActionDrawParabolaFD22updateMouseButtonHintsEv
librecad:_ZN23LC_ActionDrawParabolaFD4initEi
librecad:_ZN23LC_ActionDrawParabolaFD7triggerEv
librecad:_ZN23LC_ActionDrawParabolaFDC1ER18RS_EntityContainerR14RS_GraphicView
librecad:_ZN23LC_ActionDrawParabolaFDC2ER18RS_EntityContainerR14RS_GraphicView
librecad:_ZN23LC_ActionDrawParabolaFDD0Ev
librecad:_ZN23LC_ActionDrawParabolaFDD1Ev
librecad:_ZN23LC_ActionDrawParabolaFDD2Ev
librecad:_ZN23LC_ActionModifyLineJoin11qt_metacallEN11QMetaObject4CallEiPPv
librecad:_ZN23LC_ActionModifyLineJoin11qt_metacastEPKc
librecad:_ZN23LC_ActionModifyLineJoin14doAfterTriggerEv
librecad:_ZN23LC_ActionModifyLineJoin15applyAttributesEP9RS_Entityb
librecad:_ZN23LC_ActionModifyLineJoin16doGetMouseCursorEi
librecad:_ZN23LC_ActionModifyLineJoin16setLine1EdgeModeEi
librecad:_ZN23LC_ActionModifyLineJoin16setLine2EdgeModeEi
librecad:_ZN23LC_ActionModifyLineJoin16staticMetaObjectE
librecad:_ZN23LC_ActionModifyLineJoin17doCheckMayTriggerEv
librecad:_ZN23LC_ActionModifyLineJoin17setCreatePolylineEb
librecad:_ZN23LC_ActionModifyLineJoin18createLineJoinDataEP7RS_LineR9RS_Vector
librecad:_ZN23LC_ActionModifyLineJoin19createOptionsWidgetEv
librecad:_ZN23LC_ActionModifyLineJoin19setAttributesSourceEi
librecad:_ZN23LC_ActionModifyLineJoin19updateLine1TrimDataE9RS_Vector
librecad:_ZN23LC_ActionModifyLineJoin22setRemoveOriginalLinesEb
librecad:_ZN23LC_ActionModifyLineJoin22updateMouseButtonHintsEv
librecad:_ZN23LC_ActionModifyLineJoin23performTriggerDeletionsEv
librecad:_ZN23LC_ActionModifyLineJoin23proceedNonParallelLinesER9RS_VectorRKS0_S3_S3_S3_S3_
librecad:_ZN23LC_ActionModifyLineJoin24doPreparePreviewEntitiesEP11QMouseEventR9RS_VectorR5QListIP9RS_EntityEi
librecad:_ZN23LC_ActionModifyLineJoin24doPrepareTriggerEntitiesER5QListIP9RS_EntityE
librecad:_ZN23LC_ActionModifyLineJoin26doOnLeftMouseButtonReleaseEP11QMouseEventiRK9RS_Vector
librecad:_ZN23LC_ActionModifyLineJoin31isSetActivePenAndLayerOnTriggerEv
librecad:_ZN23LC_ActionModifyLineJoin4initEi
librecad:_ZN23LC_ActionModifyLineJoin6doBackEP11QMouseEventi
librecad:_ZN23LC_ActionModifyLineJoin9catchLineEP11QMouseEvent
librecad:_ZN23LC_ActionModifyLineJoinC1ER18RS_EntityContainerR14RS_GraphicView
librecad:_ZN23LC_ActionModifyLineJoinC2ER18RS_EntityContainerR14RS_GraphicView
librecad:_ZN23LC_ActionModifyLineJoinD0Ev
librecad:_ZN23LC_ActionModifyLineJoinD1Ev
librecad:_ZN23LC_ActionModifyLineJoinD2Ev
librecad:_ZN23QG_ArcTangentialOptions11qt_metacallEN11QMetaObject4CallEiPPv
librecad:_ZN23QG_ArcTangentialOptions11qt_metacastEPKc
librecad:_ZN23QG_ArcTangentialOptions11updateAngleERK7QString
librecad:_ZN23QG_ArcTangentialOptions12updateRadiusERK7QString
librecad:_ZN23QG_ArcTangentialOptions14languageChangeEv
librecad:_ZN23QG_ArcTangentialOptions14updateByRadiusEb
librecad:_ZN23QG_ArcTangentialOptions16staticMetaObjectE
librecad:_ZN23QG_ArcTangentialOptions18on_rbAngle_clickedEb
librecad:_ZN23QG_ArcTangentialOptions19on_rbRadius_clickedEb
librecad:_ZN23QG_ArcTangentialOptions26on_leAngle_editingFinishedEv
librecad:_ZN23QG_ArcTangentialOptions27on_leRadius_editingFinishedEv
librecad:_ZN23QG_ArcTangentialOptions9setActionEP18RS_ActionInterfaceb
librecad:_ZN23QG_ArcTangentialOptionsC1EP7QWidget6QFlagsIN2Qt10WindowTypeEE
librecad:_ZN23QG_ArcTangentialOptionsC2EP7QWidget6QFlagsIN2Qt10WindowTypeEE
librecad:_ZN23QG_ArcTangentialOptionsD0Ev
librecad:_ZN23QG_ArcTangentialOptionsD1Ev
librecad:_ZN23QG_ArcTangentialOptionsD2Ev
librecad:_ZN23QG_DimensionLabelEditor10insertSignERK7QString
librecad:_ZN23QG_DimensionLabelEditor11qt_metacallEN11QMetaObject4CallEiPPv
librecad:_ZN23QG_DimensionLabelEditor11qt_metacastEPKc
librecad:_ZN23QG_DimensionLabelEditor12updatePrefixEb
librecad:_ZN23QG_DimensionLabelEditor13setRadialTypeERK12RS_Dimension
librecad:_ZN23QG_DimensionLabelEditor14languageChangeEv
librecad:_ZN23QG_DimensionLabelEditor16staticMetaObjectE
librecad:_ZN23QG_DimensionLabelEditor8getLabelEv
librecad:_ZN23QG_DimensionLabelEditor8setLabelERK7QString
librecad:_ZN23QG_DimensionLabelEditorC1EP7QWidget6QFlagsIN2Qt10WindowTypeEE
librecad:_ZN23QG_DimensionLabelEditorC2EP7QWidget6QFlagsIN2Qt10WindowTypeEE
librecad:_ZN23QG_DimensionLabelEditorD0Ev
librecad:_ZN23QG_DimensionLabelEditorD1Ev
librecad:_ZN23QG_DimensionLabelEditorD2Ev
librecad:_ZN23QG_LibraryInsertOptions10updateDataEv
librecad:_ZN23QG_LibraryInsertOptions11qt_metacallEN11QMetaObject4CallEiPPv
librecad:_ZN23QG_LibraryInsertOptions11qt_metacastEPKc
librecad:_ZN23QG_LibraryInsertOptions12saveSettingsEv
librecad:_ZN23QG_LibraryInsertOptions14languageChangeEv
librecad:_ZN23QG_LibraryInsertOptions16staticMetaObjectE
librecad:_ZN23QG_LibraryInsertOptions9setActionEP18RS_ActionInterfaceb
librecad:_ZN23QG_LibraryInsertOptionsC1EP7QWidget6QFlagsIN2Qt10WindowTypeEE
librecad:_ZN23QG_LibraryInsertOptionsC2EP7QWidget6QFlagsIN2Qt10WindowTypeEE
librecad:_ZN23QG_LibraryInsertOptionsD0Ev
librecad:_ZN23QG_LibraryInsertOptionsD1Ev
librecad:_ZN23QG_LibraryInsertOptionsD2Ev
librecad:_ZN23RS_ActionDrawCircleTan210getCentersEv
librecad:_ZN23RS_ActionDrawCircleTan211catchCircleEP11QMouseEvent
librecad:_ZN23RS_ActionDrawCircleTan211hideOptionsEv
librecad:_ZN23RS_ActionDrawCircleTan211qt_metacallEN11QMetaObject4CallEiPPv
librecad:_ZN23RS_ActionDrawCircleTan211qt_metacastEPKc
librecad:_ZN23RS_ActionDrawCircleTan211showOptionsEv
librecad:_ZN23RS_ActionDrawCircleTan214mouseMoveEventEP11QMouseEvent
librecad:_ZN23RS_ActionDrawCircleTan214preparePreviewEv
librecad:_ZN23RS_ActionDrawCircleTan216staticMetaObjectE
librecad:_ZN23RS_ActionDrawCircleTan217mouseReleaseEventEP11QMouseEvent
librecad:_ZN23RS_ActionDrawCircleTan217updateMouseCursorEv
librecad:_ZN23RS_ActionDrawCircleTan222updateMouseButtonHintsEv
librecad:_ZN23RS_ActionDrawCircleTan24initEi
librecad:_ZN23RS_ActionDrawCircleTan26finishEb
librecad:_ZN23RS_ActionDrawCircleTan27triggerEv
librecad:_ZN23RS_ActionDrawCircleTan29setRadiusERK7QString
librecad:_ZN23RS_ActionDrawCircleTan2C1ER18RS_EntityContainerR14RS_GraphicView
librecad:_ZN23RS_ActionDrawCircleTan2C2ER18RS_EntityContainerR14RS_GraphicView
librecad:_ZN23RS_ActionDrawCircleTan2D0Ev
librecad:_ZN23RS_ActionDrawCircleTan2D1Ev
librecad:_ZN23RS_ActionDrawCircleTan2D2Ev
librecad:_ZN23RS_ActionDrawCircleTan311catchCircleEP11QMouseEvent
librecad:_ZN23RS_ActionDrawCircleTan311qt_metacallEN11QMetaObject4CallEiPPv
librecad:_ZN23RS_ActionDrawCircleTan311qt_metacastEPKc
librecad:_ZN23RS_ActionDrawCircleTan314mouseMoveEventEP11QMouseEvent
librecad:_ZN23RS_ActionDrawCircleTan314preparePreviewEv
librecad:_ZN23RS_ActionDrawCircleTan316staticMetaObjectE
librecad:_ZN23RS_ActionDrawCircleTan317mouseReleaseEventEP11QMouseEvent
librecad:_ZN23RS_ActionDrawCircleTan317updateMouseCursorEv
librecad:_ZN23RS_ActionDrawCircleTan322updateMouseButtonHintsEv
librecad:_ZN23RS_ActionDrawCircleTan34initEi
librecad:_ZN23RS_ActionDrawCircleTan36finishEb
librecad:_ZN23RS_ActionDrawCircleTan37getDataEv
librecad:_ZN23RS_ActionDrawCircleTan37triggerEv
librecad:_ZN23RS_ActionDrawCircleTan3C1ER18RS_EntityContainerR14RS_GraphicView
librecad:_ZN23RS_ActionDrawCircleTan3C2ER18RS_EntityContainerR14RS_GraphicView
librecad:_ZN23RS_ActionDrawCircleTan3D0Ev
librecad:_ZN23RS_ActionDrawCircleTan3D1Ev
librecad:_ZN23RS_ActionDrawCircleTan3D2Ev
librecad:_ZN23RS_ActionOptionsDrawing11qt_metacallEN11QMetaObject4CallEiPPv
librecad:_ZN23RS_ActionOptionsDrawing11qt_metacastEPKc
librecad:_ZN23RS_ActionOptionsDrawing16staticMetaObjectE
librecad:_ZN23RS_ActionOptionsDrawing4initEi
librecad:_ZN23RS_ActionOptionsDrawing7triggerEv
librecad:_ZN23RS_ActionOptionsDrawingC1ER18RS_EntityContainerR14RS_GraphicView
librecad:_ZN23RS_ActionOptionsDrawingC2ER18RS_EntityContainerR14RS_GraphicView
librecad:_ZN23RS_ActionPolylineAppend11qt_metacallEN11QMetaObject4CallEiPPv
librecad:_ZN23RS_ActionPolylineAppend11qt_metacastEPKc
librecad:_ZN23RS_ActionPolylineAppend15coordinateEventEP18RS_CoordinateEvent
librecad:_ZN23RS_ActionPolylineAppend16staticMetaObjectE
librecad:_ZN23RS_ActionPolylineAppend17mouseReleaseEventEP11QMouseEvent
librecad:_ZN23RS_ActionPolylineAppend22updateMouseButtonHintsEv
librecad:_ZN23RS_ActionPolylineAppend4undoEv
librecad:_ZN23RS_ActionPolylineAppend7triggerEv
librecad:_ZN23RS_ActionPolylineAppendC1ER18RS_EntityContainerR14RS_GraphicView
librecad:_ZN23RS_ActionPolylineAppendC2ER18RS_EntityContainerR14RS_GraphicView
librecad:_ZN23RS_ConstructionLineDataC1ERK9RS_VectorS2_
librecad:_ZN23RS_ConstructionLineDataC2ERK9RS_VectorS2_
librecad:_ZN24LC_ActionDrawCircleByArc11qt_metacallEN11QMetaObject4CallEiPPv
librecad:_ZN24LC_ActionDrawCircleByArc11qt_metacastEPKc
librecad:_ZN24LC_ActionDrawCircleByArc14doAfterTriggerEv
librecad:_ZN24LC_ActionDrawCircleByArc15coordinateEventEP18RS_CoordinateEvent
librecad:_ZN24LC_ActionDrawCircleByArc16createCircleDataEP6RS_Arc
librecad:_ZN24LC_ActionDrawCircleByArc16doGetMouseCursorEi
librecad:_ZN24LC_ActionDrawCircleByArc16staticMetaObjectE
librecad:_ZN24LC_ActionDrawCircleByArc17createEllipseDataEP10RS_Ellipse
librecad:_ZN24LC_ActionDrawCircleByArc17doCheckMayTriggerEv
librecad:_ZN24LC_ActionDrawCircleByArc19createOptionsWidgetEv
librecad:_ZN24LC_ActionDrawCircleByArc21doCheckMayDrawPreviewEP11QMouseEventi
librecad:_ZN24LC_ActionDrawCircleByArc21setReplaceArcByCircleEb
librecad:_ZN24LC_ActionDrawCircleByArc22updateMouseButtonHintsEv
librecad:_ZN24LC_ActionDrawCircleByArc23doCheckMayTriggerOnInitEi
librecad:_ZN24LC_ActionDrawCircleByArc23performTriggerDeletionsEv
librecad:_ZN24LC_ActionDrawCircleByArc24doPreparePreviewEntitiesEP11QMouseEventR9RS_VectorR5QListIP9RS_EntityEi
librecad:_ZN24LC_ActionDrawCircleByArc24doPrepareTriggerEntitiesER5QListIP9RS_EntityE
librecad:_ZN24LC_ActionDrawCircleByArc25doCreateEntitiesOnTriggerEP9RS_EntityR5QListIS1_E
librecad:_ZN24LC_ActionDrawCircleByArc26deleteOriginalArcOrEllipseEP9RS_Entity
librecad:_ZN24LC_ActionDrawCircleByArc26doOnLeftMouseButtonReleaseEP11QMouseEventiRK9RS_Vector
librecad:_ZN24LC_ActionDrawCircleByArc29doGetRelativeZeroAfterTriggerEv
librecad:_ZN24LC_ActionDrawCircleByArc31isSetActivePenAndLayerOnTriggerEv
librecad:_ZN24LC_ActionDrawCircleByArc37isAcceptSelectedEntityToTriggerOnInitEP9RS_Entity
librecad:_ZN24LC_ActionDrawCircleByArc46doPerformOriginalEntitiesDeletionOnInitTriggerER5QListIP9RS_EntityE
librecad:_ZN24LC_ActionDrawCircleByArcC1ER18RS_EntityContainerR14RS_GraphicView
librecad:_ZN24LC_ActionDrawCircleByArcC2ER18RS_EntityContainerR14RS_GraphicView
librecad:_ZN24LC_ActionDrawCircleByArcD0Ev
librecad:_ZN24LC_ActionDrawCircleByArcD1Ev
librecad:_ZN24LC_ActionDrawCircleByArcD2Ev
librecad:_ZN24LC_ActionDrawSliceDivide11qt_metacallEN11QMetaObject4CallEiPPv
librecad:_ZN24LC_ActionDrawSliceDivide11qt_metacastEPKc
librecad:_ZN24LC_ActionDrawSliceDivide14createTickDataEP9RS_Entity9RS_Vectordbb
librecad:_ZN24LC_ActionDrawSliceDivide14doAfterTriggerEv
librecad:_ZN24LC_ActionDrawSliceDivide14prepareEndTickEP9RS_EntityRK9RS_Vectord
librecad:_ZN24LC_ActionDrawSliceDivide15prepareArcTicksEP6RS_Arc
librecad:_ZN24LC_ActionDrawSliceDivide15prepareTickDataER9RS_VectorP9RS_EntityR11RS_LineData
librecad:_ZN24LC_ActionDrawSliceDivide16doGetMouseCursorEi
librecad:_ZN24LC_ActionDrawSliceDivide16prepareLineTicksEP7RS_Line
librecad:_ZN24LC_ActionDrawSliceDivide16prepareStartTickEP9RS_EntityRK9RS_Vectord
librecad:_ZN24LC_ActionDrawSliceDivide16staticMetaObjectE
librecad:_ZN24LC_ActionDrawSliceDivide17createArcSegmentsEP6RS_ArcR5QListIP9RS_EntityE
librecad:_ZN24LC_ActionDrawSliceDivide17doCheckMayTriggerEv
librecad:_ZN24LC_ActionDrawSliceDivide18createLineSegmentsEP7RS_LineR5QListIP9RS_EntityE
librecad:_ZN24LC_ActionDrawSliceDivide18prepareArcSegmentsEP9RS_EntitydR9RS_Vectordd
librecad:_ZN24LC_ActionDrawSliceDivide18prepareCircleTicksEP9RS_Circle
librecad:_ZN24LC_ActionDrawSliceDivide19createOptionsWidgetEv
librecad:_ZN24LC_ActionDrawSliceDivide19doCreateArcSegmentsEP9RS_EntityRK9RS_VectordbR5QListIS1_E
librecad:_ZN24LC_ActionDrawSliceDivide20createCircleSegmentsEP9RS_CircleR5QListIP9RS_EntityE
librecad:_ZN24LC_ActionDrawSliceDivide21doCheckMayDrawPreviewEP11QMouseEventi
librecad:_ZN24LC_ActionDrawSliceDivide22updateMouseButtonHintsEv
librecad:_ZN24LC_ActionDrawSliceDivide24doPreparePreviewEntitiesEP11QMouseEventR9RS_VectorR5QListIP9RS_EntityEi
librecad:_ZN24LC_ActionDrawSliceDivide24doPrepareTriggerEntitiesER5QListIP9RS_EntityE
librecad:_ZN24LC_ActionDrawSliceDivide26doOnLeftMouseButtonReleaseEP11QMouseEventiRK9RS_Vector
librecad:_ZN24LC_ActionDrawSliceDivide31isSetActivePenAndLayerOnTriggerEv
librecad:_ZN24LC_ActionDrawSliceDivide7addTickER9RS_VectorR11RS_LineDatabbd
librecad:_ZN24LC_ActionDrawSliceDivideC1ER18RS_EntityContainerR14RS_GraphicViewb
librecad:_ZN24LC_ActionDrawSliceDivideC2ER18RS_EntityContainerR14RS_GraphicViewb
librecad:_ZN24LC_ActionModifyDuplicate11qt_metacallEN11QMetaObject4CallEiPPv
librecad:_ZN24LC_ActionModifyDuplicate11qt_metacastEPKc
librecad:_ZN24LC_ActionModifyDuplicate14doAfterTriggerEv
librecad:_ZN24LC_ActionModifyDuplicate16doGetMouseCursorEi
librecad:_ZN24LC_ActionModifyDuplicate16staticMetaObjectE
librecad:_ZN24LC_ActionModifyDuplicate17doCheckMayTriggerEv
librecad:_ZN24LC_ActionModifyDuplicate19createOptionsWidgetEv
librecad:_ZN24LC_ActionModifyDuplicate21doCheckMayDrawPreviewEP11QMouseEventi
librecad:_ZN24LC_ActionModifyDuplicate22updateMouseButtonHintsEv
librecad:_ZN24LC_ActionModifyDuplicate23doCheckMayTriggerOnInitEi
librecad:_ZN24LC_ActionModifyDuplicate24doPreparePreviewEntitiesEP11QMouseEventR9RS_VectorR5QListIP9RS_EntityEi
librecad:_ZN24LC_ActionModifyDuplicate24doPrepareTriggerEntitiesER5QListIP9RS_EntityE
librecad:_ZN24LC_ActionModifyDuplicate25doCreateEntitiesOnTriggerEP9RS_EntityR5QListIS1_E
librecad:_ZN24LC_ActionModifyDuplicate26doOnLeftMouseButtonReleaseEP11QMouseEventiRK9RS_Vector
librecad:_ZN24LC_ActionModifyDuplicate31isSetActivePenAndLayerOnTriggerEv
librecad:_ZN24LC_ActionModifyDuplicate37isAcceptSelectedEntityToTriggerOnInitEP9RS_Entity
librecad:_ZN24LC_ActionModifyDuplicateC1ER18RS_EntityContainerR14RS_GraphicView
librecad:_ZN24LC_ActionModifyDuplicateC2ER18RS_EntityContainerR14RS_GraphicView
librecad:_ZN24LC_ActionModifyDuplicateD0Ev
librecad:_ZN24LC_ActionModifyDuplicateD1Ev
librecad:_ZN24LC_ActionModifyDuplicateD2Ev
librecad:_ZN24LC_LayerTreeModelOptions4loadEv
librecad:_ZN24LC_LayerTreeModelOptions7readPenE7QStringR6RS_Pen
librecad:_ZN24LC_LayerTreeModelOptions8writePenE7QStringRK6RS_Pen
librecad:_ZN24RS_ActionBlocksFreezeAll11qt_metacallEN11QMetaObject4CallEiPPv
librecad:_ZN24RS_ActionBlocksFreezeAll11qt_metacastEPKc
librecad:_ZN24RS_ActionBlocksFreezeAll16staticMetaObjectE
librecad:_ZN24RS_ActionBlocksFreezeAll4initEi
librecad:_ZN24RS_ActionBlocksFreezeAll7triggerEv
librecad:_ZN24RS_ActionBlocksFreezeAllC1EbR18RS_EntityContainerR14RS_GraphicView
librecad:_ZN24RS_ActionBlocksFreezeAllC2EbR18RS_EntityContainerR14RS_GraphicView
librecad:_ZN24RS_ActionDrawEllipseAxis11qt_metacallEN11QMetaObject4CallEiPPv
librecad:_ZN24RS_ActionDrawEllipseAxis11qt_metacastEPKc
librecad:_ZN24RS_ActionDrawEllipseAxis12commandEventEP15RS_CommandEvent
librecad:_ZN24RS_ActionDrawEllipseAxis14mouseMoveEventEP11QMouseEvent
librecad:_ZN24RS_ActionDrawEllipseAxis15coordinateEventEP18RS_CoordinateEvent
librecad:_ZN24RS_ActionDrawEllipseAxis16staticMetaObjectE
librecad:_ZN24RS_ActionDrawEllipseAxis17mouseReleaseEventEP11QMouseEvent
librecad:_ZN24RS_ActionDrawEllipseAxis17updateMouseCursorEv
librecad:_ZN24RS_ActionDrawEllipseAxis22updateMouseButtonHintsEv
librecad:_ZN24RS_ActionDrawEllipseAxis4initEi
librecad:_ZN24RS_ActionDrawEllipseAxis7triggerEv
librecad:_ZN24RS_ActionDrawEllipseAxisC1ER18RS_EntityContainerR14RS_GraphicViewb
librecad:_ZN24RS_ActionDrawEllipseAxisC2ER18RS_EntityContainerR14RS_GraphicViewb
librecad:_ZN24RS_ActionDrawEllipseAxisD0Ev
librecad:_ZN24RS_ActionDrawEllipseAxisD1Ev
librecad:_ZN24RS_ActionDrawEllipseAxisD2Ev
librecad:_ZN24RS_ActionDrawLineHorVert11qt_metacallEN11QMetaObject4CallEiPPv
librecad:_ZN24RS_ActionDrawLineHorVert11qt_metacastEPKc
librecad:_ZN24RS_ActionDrawLineHorVert14mouseMoveEventEP11QMouseEvent
librecad:_ZN24RS_ActionDrawLineHorVert16staticMetaObjectE
librecad:_ZN24RS_ActionDrawLineHorVert17mouseReleaseEventEP11QMouseEvent
librecad:_ZN24RS_ActionDrawLineHorVert17updateMouseCursorEv
librecad:_ZN24RS_ActionDrawLineHorVert22updateMouseButtonHintsEv
librecad:_ZN24RS_ActionDrawLineHorVert4initEi
librecad:_ZN24RS_ActionDrawLineHorVert5resetEv
librecad:_ZN24RS_ActionDrawLineHorVert7triggerEv
librecad:_ZN24RS_ActionDrawLineHorVertC1ER18RS_EntityContainerR14RS_GraphicView
librecad:_ZN24RS_ActionDrawLineHorVertC2ER18RS_EntityContainerR14RS_GraphicView
librecad:_ZN24RS_ActionDrawLineHorVertD0Ev
librecad:_ZN24RS_ActionDrawLineHorVertD1Ev
librecad:_ZN24RS_ActionDrawLineHorVertD2Ev
librecad:_ZN24RS_ActionDrawLineOrthTan10clearLinesEv
librecad:_ZN24RS_ActionDrawLineOrthTan11qt_metacallEN11QMetaObject4CallEiPPv
librecad:_ZN24RS_ActionDrawLineOrthTan11qt_metacastEPKc
librecad:_ZN24RS_ActionDrawLineOrthTan14mouseMoveEventEP11QMouseEvent
librecad:_ZN24RS_ActionDrawLineOrthTan16staticMetaObjectE
librecad:_ZN24RS_ActionDrawLineOrthTan17mouseReleaseEventEP11QMouseEvent
librecad:_ZN24RS_ActionDrawLineOrthTan17updateMouseCursorEv
librecad:_ZN24RS_ActionDrawLineOrthTan22updateMouseButtonHintsEv
librecad:_ZN24RS_ActionDrawLineOrthTan6finishEb
librecad:_ZN24RS_ActionDrawLineOrthTan7triggerEv
librecad:_ZN24RS_ActionDrawLineOrthTanC1ER18RS_EntityContainerR14RS_GraphicView
librecad:_ZN24RS_ActionDrawLineOrthTanC2ER18RS_EntityContainerR14RS_GraphicView
librecad:_ZN24RS_ActionFileNewTemplate11qt_metacallEN11QMetaObject4CallEiPPv
librecad:_ZN24RS_ActionFileNewTemplate11qt_metacastEPKc
librecad:_ZN24RS_ActionFileNewTemplate16staticMetaObjectE
librecad:_ZN24RS_ActionFileNewTemplate4initEi
librecad:_ZN24RS_ActionFileNewTemplate7triggerEv
librecad:_ZN24RS_ActionFileNewTemplateC1ER18RS_EntityContainerR14RS_GraphicView
librecad:_ZN24RS_ActionFileNewTemplateC2ER18RS_EntityContainerR14RS_GraphicView
librecad:_ZN24RS_ActionInfoTotalLength11qt_metacallEN11QMetaObject4CallEiPPv
librecad:_ZN24RS_ActionInfoTotalLength11qt_metacastEPKc
librecad:_ZN24RS_ActionInfoTotalLength16staticMetaObjectE
librecad:_ZN24RS_ActionInfoTotalLength4initEi
librecad:_ZN24RS_ActionInfoTotalLength7triggerEv
librecad:_ZN24RS_ActionInfoTotalLengthC1ER18RS_EntityContainerR14RS_GraphicView
librecad:_ZN24RS_ActionInfoTotalLengthC2ER18RS_EntityContainerR14RS_GraphicView
librecad:_ZN24RS_ActionLayersFreezeAll11qt_metacallEN11QMetaObject4CallEiPPv
librecad:_ZN24RS_ActionLayersFreezeAll11qt_metacastEPKc
librecad:_ZN24RS_ActionLayersFreezeAll16staticMetaObjectE
librecad:_ZN24RS_ActionLayersFreezeAll4initEi
librecad:_ZN24RS_ActionLayersFreezeAll7triggerEv
librecad:_ZN24RS_ActionLayersFreezeAllC1EbR18RS_EntityContainerR14RS_GraphicView
librecad:_ZN24RS_ActionLayersFreezeAllC2EbR18RS_EntityContainerR14RS_GraphicView
librecad:_ZN24RS_ActionPolylineSegment11qt_metacallEN11QMetaObject4CallEiPPv
librecad:_ZN24RS_ActionPolylineSegment11qt_metacastEPKc
librecad:_ZN24RS_ActionPolylineSegment15convertPolylineEP9RS_Entityb
librecad:_ZN24RS_ActionPolylineSegment16staticMetaObjectE
librecad:_ZN24RS_ActionPolylineSegment17mouseReleaseEventEP11QMouseEvent
librecad:_ZN24RS_ActionPolylineSegment17updateMouseCursorEv
librecad:_ZN24RS_ActionPolylineSegment22updateMouseButtonHintsEv
librecad:_ZN24RS_ActionPolylineSegment4initEi
librecad:_ZN24RS_ActionPolylineSegment7triggerEv
librecad:_ZN24RS_ActionPolylineSegment9appendPolEP11RS_PolylineS1_b
librecad:_ZN24RS_ActionPolylineSegmentC1ER18RS_EntityContainerR14RS_GraphicView
librecad:_ZN24RS_ActionPolylineSegmentC1ER18RS_EntityContainerR14RS_GraphicViewP9RS_Entity
librecad:_ZN24RS_ActionPolylineSegmentC2ER18RS_EntityContainerR14RS_GraphicView
librecad:_ZN24RS_ActionPolylineSegmentC2ER18RS_EntityContainerR14RS_GraphicViewP9RS_Entity
librecad:_ZN24RS_ActionSetRelativeZero11qt_metacallEN11QMetaObject4CallEiPPv
librecad:_ZN24RS_ActionSetRelativeZero11qt_metacastEPKc
librecad:_ZN24RS_ActionSetRelativeZero14mouseMoveEventEP11QMouseEvent
librecad:_ZN24RS_ActionSetRelativeZero15coordinateEventEP18RS_CoordinateEvent
librecad:_ZN24RS_ActionSetRelativeZero15createGUIActionEN3RS210ActionTypeEP7QObject
librecad:_ZN24RS_ActionSetRelativeZero16staticMetaObjectE
librecad:_ZN24RS_ActionSetRelativeZero17mouseReleaseEventEP11QMouseEvent
librecad:_ZN24RS_ActionSetRelativeZero17updateMouseCursorEv
librecad:_ZN24RS_ActionSetRelativeZero22updateMouseButtonHintsEv
librecad:_ZN24RS_ActionSetRelativeZero7triggerEv
librecad:_ZN24RS_ActionSetRelativeZeroC1ER18RS_EntityContainerR14RS_GraphicView
librecad:_ZN24RS_ActionSetRelativeZeroC2ER18RS_EntityContainerR14RS_GraphicView
librecad:_ZN24RS_ActionSetRelativeZeroD0Ev
librecad:_ZN24RS_ActionSetRelativeZeroD1Ev
librecad:_ZN24RS_ActionSetRelativeZeroD2Ev
librecad:_ZN25LC_AbstractActionDrawLine13setAngleValueEd
librecad:_ZN25LC_AbstractActionDrawLine15isAngleRelativeEv
librecad:_ZN25LC_AbstractActionDrawLine16doProceedCommandEP15RS_CommandEventRK7QString
librecad:_ZN25LC_AbstractActionDrawLine16doProcessCommandEP15RS_CommandEventRK7QString
librecad:_ZN25LC_AbstractActionDrawLine16setSetAngleStateEb
librecad:_ZN25LC_AbstractActionDrawLine18setAngleIsRelativeEb
librecad:_ZN25LC_AbstractActionDrawLine19doGetMouseSnapPointEP11QMouseEvent
librecad:_ZN25LC_AbstractActionDrawLine21doCheckMayDrawPreviewEP11QMouseEventi
librecad:_ZN25LC_AbstractActionDrawLine21doProcessCommandValueEP15RS_CommandEventRK7QString
librecad:_ZN25LC_AbstractActionDrawLine21setNewStartPointStateEv
librecad:_ZN25LC_AbstractActionDrawLine21setSetXDirectionStateEv
librecad:_ZN25LC_AbstractActionDrawLine21setSetYDirectionStateEv
librecad:_ZN25LC_AbstractActionDrawLine22processAngleValueInputEP15RS_CommandEventRK7QString
librecad:_ZN25LC_AbstractActionDrawLine25setSetAngleDirectionStateEv
librecad:_ZN25LC_AbstractActionDrawLine25setSetPointDirectionStateEv
librecad:_ZN25LC_AbstractActionDrawLine26doOnLeftMouseButtonReleaseEP11QMouseEventiRK9RS_Vector
librecad:_ZN25LC_AbstractActionDrawLine27doInitialSnapToRelativeZeroE9RS_Vector
librecad:_ZN25LC_AbstractActionDrawLine27setStatusForValidStartPointEi
librecad:_ZN25LC_AbstractActionDrawLine39doGetStatusForInitialSnapToRelativeZeroEv
librecad:_ZN25LC_AbstractActionDrawLine8getAngleEv
librecad:_ZN25LC_AbstractActionDrawLine8mayStartEv
librecad:_ZN25LC_AbstractActionDrawLineC2EPKcR18RS_EntityContainerR14RS_GraphicView
librecad:_ZN25LC_AbstractActionDrawLineD0Ev
librecad:_ZN25LC_AbstractActionDrawLineD1Ev
librecad:_ZN25LC_AbstractActionDrawLineD2Ev
librecad:_ZN25LC_ActionDrawLineAngleRel11qt_metacallEN11QMetaObject4CallEiPPv
librecad:_ZN25LC_ActionDrawLineAngleRel11qt_metacastEPKc
librecad:_ZN25LC_ActionDrawLineAngleRel14doAfterTriggerEv
librecad:_ZN25LC_ActionDrawLineAngleRel15prepareLineDataEP7RS_LineRK9RS_VectorS4_b
librecad:_ZN25LC_ActionDrawLineAngleRel16doGetMouseCursorEi
librecad:_ZN25LC_ActionDrawLineAngleRel16staticMetaObjectE
librecad:_ZN25LC_ActionDrawLineAngleRel17doCheckMayTriggerEv
librecad:_ZN25LC_ActionDrawLineAngleRel18divideOriginalLineEPNS_8TickDataER5QListIP9RS_EntityE
librecad:_ZN25LC_ActionDrawLineAngleRel19createOptionsWidgetEv
librecad:_ZN25LC_ActionDrawLineAngleRel21doCheckMayDrawPreviewEP11QMouseEventi
librecad:_ZN25LC_ActionDrawLineAngleRel22updateMouseButtonHintsEv
librecad:_ZN25LC_ActionDrawLineAngleRel23performTriggerDeletionsEv
librecad:_ZN25LC_ActionDrawLineAngleRel24doPreparePreviewEntitiesEP11QMouseEventR9RS_VectorR5QListIP9RS_EntityEi
librecad:_ZN25LC_ActionDrawLineAngleRel24doPrepareTriggerEntitiesER5QListIP9RS_EntityE
librecad:_ZN25LC_ActionDrawLineAngleRel26doOnLeftMouseButtonReleaseEP11QMouseEventiRK9RS_Vector
librecad:_ZN25LC_ActionDrawLineAngleRel29doGetRelativeZeroAfterTriggerEv
librecad:_ZN25LC_ActionDrawLineAngleRel31isSetActivePenAndLayerOnTriggerEv
librecad:_ZN25LC_ActionDrawLineAngleRel8doFinishEb
librecad:_ZN25LC_ActionDrawLineAngleRelC1ER18RS_EntityContainerR14RS_GraphicViewdb
librecad:_ZN25LC_ActionDrawLineAngleRelC2ER18RS_EntityContainerR14RS_GraphicViewdb
librecad:_ZN25LC_ActionDrawLineAngleRelD0Ev
librecad:_ZN25LC_ActionDrawLineAngleRelD1Ev
librecad:_ZN25LC_ActionDrawLineAngleRelD2Ev
librecad:_ZN25LC_ActionDrawSplinePoints11hideOptionsEv
librecad:_ZN25LC_ActionDrawSplinePoints11qt_metacallEN11QMetaObject4CallEiPPv
librecad:_ZN25LC_ActionDrawSplinePoints11qt_metacastEPKc
librecad:_ZN25LC_ActionDrawSplinePoints11showOptionsEv
librecad:_ZN25LC_ActionDrawSplinePoints12commandEventEP15RS_CommandEvent
librecad:_ZN25LC_ActionDrawSplinePoints14mouseMoveEventEP11QMouseEvent
librecad:_ZN25LC_ActionDrawSplinePoints15coordinateEventEP18RS_CoordinateEvent
librecad:_ZN25LC_ActionDrawSplinePoints16staticMetaObjectE
librecad:_ZN25LC_ActionDrawSplinePoints17mouseReleaseEventEP11QMouseEvent
librecad:_ZN25LC_ActionDrawSplinePoints17updateMouseCursorEv
librecad:_ZN25LC_ActionDrawSplinePoints20getAvailableCommandsEv
librecad:_ZN25LC_ActionDrawSplinePoints22updateMouseButtonHintsEv
librecad:_ZN25LC_ActionDrawSplinePoints4initEi
librecad:_ZN25LC_ActionDrawSplinePoints4redoEv
librecad:_ZN25LC_ActionDrawSplinePoints4undoEv
librecad:_ZN25LC_ActionDrawSplinePoints5resetEv
librecad:_ZN25LC_ActionDrawSplinePoints7triggerEv
librecad:_ZN25LC_ActionDrawSplinePoints8isClosedEv
librecad:_ZN25LC_ActionDrawSplinePoints9setClosedEb
librecad:_ZN25LC_ActionDrawSplinePointsC1ER18RS_EntityContainerR14RS_GraphicView
librecad:_ZN25LC_ActionDrawSplinePointsC2ER18RS_EntityContainerR14RS_GraphicView
librecad:_ZN25LC_ActionDrawSplinePointsD0Ev
librecad:_ZN25LC_ActionDrawSplinePointsD1Ev
librecad:_ZN25LC_ActionDrawSplinePointsD2Ev
librecad:_ZN25LC_ActionSnapMiddleManual11qt_metacallEN11QMetaObject4CallEiPPv
librecad:_ZN25LC_ActionSnapMiddleManual11qt_metacastEPKc
librecad:_ZN25LC_ActionSnapMiddleManual12commandEventEP15RS_CommandEvent
librecad:_ZN25LC_ActionSnapMiddleManual14mouseMoveEventEP11QMouseEvent
librecad:_ZN25LC_ActionSnapMiddleManual15coordinateEventEP18RS_CoordinateEvent
librecad:_ZN25LC_ActionSnapMiddleManual16staticMetaObjectE
librecad:_ZN25LC_ActionSnapMiddleManual17mouseReleaseEventEP11QMouseEvent
librecad:_ZN25LC_ActionSnapMiddleManual20getAvailableCommandsEv
librecad:_ZN25LC_ActionSnapMiddleManual22updateMouseButtonHintsEv
librecad:_ZN25LC_ActionSnapMiddleManual27signalUnsetSnapMiddleManualEv
librecad:_ZN25LC_ActionSnapMiddleManual4initEi
librecad:_ZN25LC_ActionSnapMiddleManualC1ER18RS_EntityContainerR14RS_GraphicView6RS_Pen
librecad:_ZN25LC_ActionSnapMiddleManualC2ER18RS_EntityContainerR14RS_GraphicView6RS_Pen
librecad:_ZN25LC_ActionSnapMiddleManualD0Ev
librecad:_ZN25LC_ActionSnapMiddleManualD1Ev
librecad:_ZN25LC_ActionSnapMiddleManualD2Ev
librecad:_ZN25LC_LayerTreeOptionsDialog11qt_metacallEN11QMetaObject4CallEiPPv
librecad:_ZN25LC_LayerTreeOptionsDialog11qt_metacastEPKc
librecad:_ZN25LC_LayerTreeOptionsDialog12initComboBoxEP9QComboBox6QColor
librecad:_ZN25LC_LayerTreeOptionsDialog14languageChangeEv
librecad:_ZN25LC_LayerTreeOptionsDialog16staticMetaObjectE
librecad:_ZN25LC_LayerTreeOptionsDialog19pb_gridColorClickedEv
librecad:_ZN25LC_LayerTreeOptionsDialog19showIndentedClickedEv
librecad:_ZN25LC_LayerTreeOptionsDialog23showInvalidColorMessageE7QString
librecad:_ZN25LC_LayerTreeOptionsDialog26pb_highlightedColorClickedEv
librecad:_ZN25LC_LayerTreeOptionsDialog27pbActiveLayerBgColorClickedEv
librecad:_ZN25LC_LayerTreeOptionsDialog27pb_selectedItemColorClickedEv
librecad:_ZN25LC_LayerTreeOptionsDialog29pbSelectedItemsBgColorClickedEv
librecad:_ZN25LC_LayerTreeOptionsDialog4initEv
librecad:_ZN25LC_LayerTreeOptionsDialog8validateEv
librecad:_ZN25LC_LayerTreeOptionsDialog9set_colorEP9QComboBox6QColor
librecad:_ZN25LC_LayerTreeOptionsDialogC1EP7QWidgetP24LC_LayerTreeModelOptions
librecad:_ZN25LC_LayerTreeOptionsDialogC2EP7QWidgetP24LC_LayerTreeModelOptions
librecad:_ZN25LC_LayerTreeOptionsDialogD0Ev
librecad:_ZN25LC_LayerTreeOptionsDialogD1Ev
librecad:_ZN25LC_LayerTreeOptionsDialogD2Ev
librecad:_ZN25LC_Rectangle1PointOptions11doSetActionEP18RS_ActionInterfaceb
librecad:_ZN25LC_Rectangle1PointOptions11qt_metacallEN11QMetaObject4CallEiPPv
librecad:_ZN25LC_Rectangle1PointOptions11qt_metacastEPKc
librecad:_ZN25LC_Rectangle1PointOptions14doSaveSettingsEv
librecad:_ZN25LC_Rectangle1PointOptions14languageChangeEv
librecad:_ZN25LC_Rectangle1PointOptions16staticMetaObjectE
librecad:_ZN25LC_Rectangle1PointOptions18onInnerSizeClickedEb
librecad:_ZN25LC_Rectangle1PointOptions19onEdgesIndexChangedEi
librecad:_ZN25LC_Rectangle1PointOptions20checkActionRttiValidEN3RS210ActionTypeE
librecad:_ZN25LC_Rectangle1PointOptions20onUsePolylineClickedEb
librecad:_ZN25LC_Rectangle1PointOptions21onCornersIndexChangedEi
librecad:_ZN25LC_Rectangle1PointOptions21onLenXEditingFinishedEv
librecad:_ZN25LC_Rectangle1PointOptions21onLenYEditingFinishedEv
librecad:_ZN25LC_Rectangle1PointOptions21setLenXToActionAnViewERK7QString
librecad:_ZN25LC_Rectangle1PointOptions21setLenYToActionAnViewERK7QString
librecad:_ZN25LC_Rectangle1PointOptions22onAngleEditingFinishedEv
librecad:_ZN25LC_Rectangle1PointOptions22onWidthEditingFinishedEv
librecad:_ZN25LC_Rectangle1PointOptions22setWidthToActionAnViewERK7QString
librecad:_ZN25LC_Rectangle1PointOptions23onBaseAngleFixedClickedEb
librecad:_ZN25LC_Rectangle1PointOptions23onHeightEditingFinishedEv
librecad:_ZN25LC_Rectangle1PointOptions23onRadiusEditingFinishedEv
librecad:_ZN25LC_Rectangle1PointOptions23onSnapPointIndexChangedEi
librecad:_ZN25LC_Rectangle1PointOptions23setAngleToActionAndViewERK7QString
librecad:_ZN25LC_Rectangle1PointOptions23setHeightToActionAnViewERK7QString
librecad:_ZN25LC_Rectangle1PointOptions23setRadiusToActionAnViewERK7QString
librecad:_ZN25LC_Rectangle1PointOptions27getSettingsOptionNamePrefixEv
librecad:_ZN25LC_Rectangle1PointOptions27setEdgesModeToActionAndViewEi
librecad:_ZN25LC_Rectangle1PointOptions27setSizeInnerToActionAndViewEb
librecad:_ZN25LC_Rectangle1PointOptions29setCornersModeToActionAndViewEi
librecad:_ZN25LC_Rectangle1PointOptions29setUsePolylineToActionAndViewEb
librecad:_ZN25LC_Rectangle1PointOptions30onSnapToCornerArcCenterClickedEb
librecad:_ZN25LC_Rectangle1PointOptions31setSnapPointModeToActionAndViewEi
librecad:_ZN25LC_Rectangle1PointOptions32setBaseAngleFixedToActionAndViewEb
librecad:_ZN25LC_Rectangle1PointOptions39setSnapToCornerArcCenterToActionAndViewEb
librecad:_ZN25LC_Rectangle1PointOptionsC1EP7QWidget
librecad:_ZN25LC_Rectangle1PointOptionsC2EP7QWidget
librecad:_ZN25LC_Rectangle1PointOptionsD0Ev
librecad:_ZN25LC_Rectangle1PointOptionsD1Ev
librecad:_ZN25LC_Rectangle1PointOptionsD2Ev
librecad:_ZN25RS_ActionBlocksAttributes11qt_metacallEN11QMetaObject4CallEiPPv
librecad:_ZN25RS_ActionBlocksAttributes11qt_metacastEPKc
librecad:_ZN25RS_ActionBlocksAttributes16staticMetaObjectE
librecad:_ZN25RS_ActionBlocksAttributes4initEi
librecad:_ZN25RS_ActionBlocksAttributes7triggerEv
librecad:_ZN25RS_ActionBlocksAttributesC1ER18RS_EntityContainerR14RS_GraphicView
librecad:_ZN25RS_ActionBlocksAttributesC2ER18RS_EntityContainerR14RS_GraphicView
librecad:_ZN25RS_ActionBlocksToggleView11qt_metacallEN11QMetaObject4CallEiPPv
librecad:_ZN25RS_ActionBlocksToggleView11qt_metacastEPKc
librecad:_ZN25RS_ActionBlocksToggleView16staticMetaObjectE
librecad:_ZN25RS_ActionBlocksToggleView4initEi
librecad:_ZN25RS_ActionBlocksToggleView7triggerEv
librecad:_ZN25RS_ActionBlocksToggleViewC1ER18RS_EntityContainerR14RS_GraphicView
librecad:_ZN25RS_ActionBlocksToggleViewC2ER18RS_EntityContainerR14RS_GraphicView
librecad:_ZN25RS_ActionDrawLineBisector11hideOptionsEv
librecad:_ZN25RS_ActionDrawLineBisector11qt_metacallEN11QMetaObject4CallEiPPv
librecad:_ZN25RS_ActionDrawLineBisector11qt_metacastEPKc
librecad:_ZN25RS_ActionDrawLineBisector11showOptionsEv
librecad:_ZN25RS_ActionDrawLineBisector12commandEventEP15RS_CommandEvent
librecad:_ZN25RS_ActionDrawLineBisector14mouseMoveEventEP11QMouseEvent
librecad:_ZN25RS_ActionDrawLineBisector16staticMetaObjectE
librecad:_ZN25RS_ActionDrawLineBisector17mouseReleaseEventEP11QMouseEvent
librecad:_ZN25RS_ActionDrawLineBisector17updateMouseCursorEv
librecad:_ZN25RS_ActionDrawLineBisector20getAvailableCommandsEv
librecad:_ZN25RS_ActionDrawLineBisector22updateMouseButtonHintsEv
librecad:_ZN25RS_ActionDrawLineBisector4initEi
librecad:_ZN25RS_ActionDrawLineBisector7triggerEv
librecad:_ZN25RS_ActionDrawLineBisector9setLengthEd
librecad:_ZN25RS_ActionDrawLineBisector9setNumberEi
librecad:_ZN25RS_ActionDrawLineBisectorC1ER18RS_EntityContainerR14RS_GraphicView
librecad:_ZN25RS_ActionDrawLineBisectorC2ER18RS_EntityContainerR14RS_GraphicView
librecad:_ZN25RS_ActionDrawLineBisectorD0Ev
librecad:_ZN25RS_ActionDrawLineBisectorD1Ev
librecad:_ZN25RS_ActionDrawLineBisectorD2Ev
librecad:_ZN25RS_ActionDrawLineParallel11hideOptionsEv
librecad:_ZN25RS_ActionDrawLineParallel11qt_metacallEN11QMetaObject4CallEiPPv
librecad:_ZN25RS_ActionDrawLineParallel11qt_metacastEPKc
librecad:_ZN25RS_ActionDrawLineParallel11setDistanceEd
librecad:_ZN25RS_ActionDrawLineParallel11showOptionsEv
librecad:_ZN25RS_ActionDrawLineParallel12commandEventEP15RS_CommandEvent
librecad:_ZN25RS_ActionDrawLineParallel14mouseMoveEventEP11QMouseEvent
librecad:_ZN25RS_ActionDrawLineParallel16staticMetaObjectE
librecad:_ZN25RS_ActionDrawLineParallel17mouseReleaseEventEP11QMouseEvent
librecad:_ZN25RS_ActionDrawLineParallel17updateMouseCursorEv
librecad:_ZN25RS_ActionDrawLineParallel20getAvailableCommandsEv
librecad:_ZN25RS_ActionDrawLineParallel22updateMouseButtonHintsEv
librecad:_ZN25RS_ActionDrawLineParallel7triggerEv
librecad:_ZN25RS_ActionDrawLineParallel9setNumberEi
librecad:_ZN25RS_ActionDrawLineParallelC1ER18RS_EntityContainerR14RS_GraphicView
librecad:_ZN25RS_ActionDrawLineParallelC2ER18RS_EntityContainerR14RS_GraphicView
librecad:_ZN25RS_ActionDrawLineParallelD0Ev
librecad:_ZN25RS_ActionDrawLineParallelD1Ev
librecad:_ZN25RS_ActionDrawLineParallelD2Ev
librecad:_ZN25RS_ActionDrawLineRelAngle11hideOptionsEv
librecad:_ZN25RS_ActionDrawLineRelAngle11qt_metacallEN11QMetaObject4CallEiPPv
librecad:_ZN25RS_ActionDrawLineRelAngle11qt_metacastEPKc
librecad:_ZN25RS_ActionDrawLineRelAngle11showOptionsEv
librecad:_ZN25RS_ActionDrawLineRelAngle12commandEventEP15RS_CommandEvent
librecad:_ZN25RS_ActionDrawLineRelAngle14mouseMoveEventEP11QMouseEvent
librecad:_ZN25RS_ActionDrawLineRelAngle15coordinateEventEP18RS_CoordinateEvent
librecad:_ZN25RS_ActionDrawLineRelAngle16staticMetaObjectE
librecad:_ZN25RS_ActionDrawLineRelAngle17mouseReleaseEventEP11QMouseEvent
librecad:_ZN25RS_ActionDrawLineRelAngle17unhighlightEntityEv
librecad:_ZN25RS_ActionDrawLineRelAngle17updateMouseCursorEv
librecad:_ZN25RS_ActionDrawLineRelAngle20getAvailableCommandsEv
librecad:_ZN25RS_ActionDrawLineRelAngle22updateMouseButtonHintsEv
librecad:_ZN25RS_ActionDrawLineRelAngle6finishEb
librecad:_ZN25RS_ActionDrawLineRelAngle7triggerEv
librecad:_ZN25RS_ActionDrawLineRelAngleC1ER18RS_EntityContainerR14RS_GraphicViewdb
librecad:_ZN25RS_ActionDrawLineRelAngleC2ER18RS_EntityContainerR14RS_GraphicViewdb
librecad:_ZN25RS_ActionDrawLineRelAngleD0Ev
librecad:_ZN25RS_ActionDrawLineRelAngleD1Ev
librecad:_ZN25RS_ActionDrawLineRelAngleD2Ev
librecad:_ZN25RS_ActionDrawLineTangent111qt_metacallEN11QMetaObject4CallEiPPv
librecad:_ZN25RS_ActionDrawLineTangent111qt_metacastEPKc
librecad:_ZN25RS_ActionDrawLineTangent114mouseMoveEventEP11QMouseEvent
librecad:_ZN25RS_ActionDrawLineTangent115coordinateEventEP18RS_CoordinateEvent
librecad:_ZN25RS_ActionDrawLineTangent116staticMetaObjectE
librecad:_ZN25RS_ActionDrawLineTangent117mouseReleaseEventEP11QMouseEvent
librecad:_ZN25RS_ActionDrawLineTangent117updateMouseCursorEv
librecad:_ZN25RS_ActionDrawLineTangent122updateMouseButtonHintsEv
librecad:_ZN25RS_ActionDrawLineTangent17triggerEv
librecad:_ZN25RS_ActionDrawLineTangent1C1ER18RS_EntityContainerR14RS_GraphicView
librecad:_ZN25RS_ActionDrawLineTangent1C2ER18RS_EntityContainerR14RS_GraphicView
librecad:_ZN25RS_ActionDrawLineTangent1D0Ev
librecad:_ZN25RS_ActionDrawLineTangent1D1Ev
librecad:_ZN25RS_ActionDrawLineTangent1D2Ev
librecad:_ZN25RS_ActionDrawLineTangent211qt_metacallEN11QMetaObject4CallEiPPv
librecad:_ZN25RS_ActionDrawLineTangent211qt_metacastEPKc
librecad:_ZN25RS_ActionDrawLineTangent214mouseMoveEventEP11QMouseEvent
librecad:_ZN25RS_ActionDrawLineTangent214preparePreivewEP11QMouseEvent
librecad:_ZN25RS_ActionDrawLineTangent216clearHighlightedEv
librecad:_ZN25RS_ActionDrawLineTangent216staticMetaObjectE
librecad:_ZN25RS_ActionDrawLineTangent217mouseReleaseEventEP11QMouseEvent
librecad:_ZN25RS_ActionDrawLineTangent217updateMouseCursorEv
librecad:_ZN25RS_ActionDrawLineTangent222updateMouseButtonHintsEv
librecad:_ZN25RS_ActionDrawLineTangent24initEi
librecad:_ZN25RS_ActionDrawLineTangent26finishEb
librecad:_ZN25RS_ActionDrawLineTangent27triggerEv
librecad:_ZN25RS_ActionDrawLineTangent2C1ER18RS_EntityContainerR14RS_GraphicView
librecad:_ZN25RS_ActionDrawLineTangent2C2ER18RS_EntityContainerR14RS_GraphicView
librecad:_ZN25RS_ActionDrawLineTangent2D0Ev
librecad:_ZN25RS_ActionDrawLineTangent2D1Ev
librecad:_ZN25RS_ActionDrawLineTangent2D2Ev
librecad:_ZN25RS_ActionLayersToggleLock11qt_metacallEN11QMetaObject4CallEiPPv
librecad:_ZN25RS_ActionLayersToggleLock11qt_metacastEPKc
librecad:_ZN25RS_ActionLayersToggleLock16staticMetaObjectE
librecad:_ZN25RS_ActionLayersToggleLock29deselectEntitiesOnLockedLayerEP8RS_Layer
librecad:_ZN25RS_ActionLayersToggleLock4initEi
librecad:_ZN25RS_ActionLayersToggleLock7triggerEv
librecad:_ZN25RS_ActionLayersToggleLockC1ER18RS_EntityContainerR14RS_GraphicViewP8RS_Layer
librecad:_ZN25RS_ActionLayersToggleLockC2ER18RS_EntityContainerR14RS_GraphicViewP8RS_Layer
librecad:_ZN25RS_ActionLayersToggleView11qt_metacallEN11QMetaObject4CallEiPPv
librecad:_ZN25RS_ActionLayersToggleView11qt_metacastEPKc
librecad:_ZN25RS_ActionLayersToggleView16staticMetaObjectE
librecad:_ZN25RS_ActionLayersToggleView4initEi
librecad:_ZN25RS_ActionLayersToggleView7triggerEv
librecad:_ZN25RS_ActionLayersToggleViewC1ER18RS_EntityContainerR14RS_GraphicViewP8RS_Layer
librecad:_ZN25RS_ActionLayersToggleViewC2ER18RS_EntityContainerR14RS_GraphicViewP8RS_Layer
librecad:_ZN25RS_ActionLockRelativeZero11qt_metacallEN11QMetaObject4CallEiPPv
librecad:_ZN25RS_ActionLockRelativeZero11qt_metacastEPKc
librecad:_ZN25RS_ActionLockRelativeZero15createGUIActionEN3RS210ActionTypeEP7QObject
librecad:_ZN25RS_ActionLockRelativeZero16staticMetaObjectE
librecad:_ZN25RS_ActionLockRelativeZero4initEi
librecad:_ZN25RS_ActionLockRelativeZero7triggerEv
librecad:_ZN25RS_ActionLockRelativeZeroC1ER18RS_EntityContainerR14RS_GraphicViewb
librecad:_ZN25RS_ActionLockRelativeZeroC2ER18RS_EntityContainerR14RS_GraphicViewb
librecad:_ZN25RS_ActionModifyAttributes11qt_metacallEN11QMetaObject4CallEiPPv
librecad:_ZN25RS_ActionModifyAttributes11qt_metacastEPKc
librecad:_ZN25RS_ActionModifyAttributes16staticMetaObjectE
librecad:_ZN25RS_ActionModifyAttributes17updateMouseCursorEv
librecad:_ZN25RS_ActionModifyAttributes22updateMouseButtonHintsEv
librecad:_ZN25RS_ActionModifyAttributes4initEi
librecad:_ZN25RS_ActionModifyAttributes7triggerEv
librecad:_ZN25RS_ActionModifyAttributesC1ER18RS_EntityContainerR14RS_GraphicView
librecad:_ZN25RS_ActionModifyAttributesC2ER18RS_EntityContainerR14RS_GraphicView
librecad:_ZN25RS_ActionModifyDeleteFree11qt_metacallEN11QMetaObject4CallEiPPv
librecad:_ZN25RS_ActionModifyDeleteFree11qt_metacastEPKc
librecad:_ZN25RS_ActionModifyDeleteFree16staticMetaObjectE
librecad:_ZN25RS_ActionModifyDeleteFree17mouseReleaseEventEP11QMouseEvent
librecad:_ZN25RS_ActionModifyDeleteFree22updateMouseButtonHintsEv
librecad:_ZN25RS_ActionModifyDeleteFree4initEi
librecad:_ZN25RS_ActionModifyDeleteFree7triggerEv
librecad:_ZN25RS_ActionModifyDeleteFreeC1ER18RS_EntityContainerR14RS_GraphicView
librecad:_ZN25RS_ActionModifyDeleteFreeC2ER18RS_EntityContainerR14RS_GraphicView
librecad:_ZN25RS_ActionModifyDeleteFreeD0Ev
librecad:_ZN25RS_ActionModifyDeleteFreeD1Ev
librecad:_ZN25RS_ActionModifyDeleteFreeD2Ev
librecad:_ZN25RS_ActionModifyMoveRotate11hideOptionsEv
librecad:_ZN25RS_ActionModifyMoveRotate11qt_metacallEN11QMetaObject4CallEiPPv
librecad:_ZN25RS_ActionModifyMoveRotate11qt_metacastEPKc
librecad:_ZN25RS_ActionModifyMoveRotate11showOptionsEv
librecad:_ZN25RS_ActionModifyMoveRotate12commandEventEP15RS_CommandEvent
librecad:_ZN25RS_ActionModifyMoveRotate14mouseMoveEventEP11QMouseEvent
librecad:_ZN25RS_ActionModifyMoveRotate15coordinateEventEP18RS_CoordinateEvent
librecad:_ZN25RS_ActionModifyMoveRotate16staticMetaObjectE
librecad:_ZN25RS_ActionModifyMoveRotate17mouseReleaseEventEP11QMouseEvent
librecad:_ZN25RS_ActionModifyMoveRotate17updateMouseCursorEv
librecad:_ZN25RS_ActionModifyMoveRotate20getAvailableCommandsEv
librecad:_ZN25RS_ActionModifyMoveRotate22updateMouseButtonHintsEv
librecad:_ZN25RS_ActionModifyMoveRotate4initEi
librecad:_ZN25RS_ActionModifyMoveRotate7triggerEv
librecad:_ZN25RS_ActionModifyMoveRotate8setAngleEd
librecad:_ZN25RS_ActionModifyMoveRotateC1ER18RS_EntityContainerR14RS_GraphicView
librecad:_ZN25RS_ActionModifyMoveRotateC2ER18RS_EntityContainerR14RS_GraphicView
librecad:_ZN25RS_ActionModifyMoveRotateD0Ev
librecad:_ZN25RS_ActionModifyMoveRotateD1Ev
librecad:_ZN25RS_ActionModifyMoveRotateD2Ev
librecad:_ZN25RS_ActionModifyTrimAmount11hideOptionsEv
librecad:_ZN25RS_ActionModifyTrimAmount11qt_metacallEN11QMetaObject4CallEiPPv
librecad:_ZN25RS_ActionModifyTrimAmount11qt_metacastEPKc
librecad:_ZN25RS_ActionModifyTrimAmount11showOptionsEv
librecad:_ZN25RS_ActionModifyTrimAmount12commandEventEP15RS_CommandEvent
librecad:_ZN25RS_ActionModifyTrimAmount16staticMetaObjectE
librecad:_ZN25RS_ActionModifyTrimAmount17mouseReleaseEventEP11QMouseEvent
librecad:_ZN25RS_ActionModifyTrimAmount17updateMouseCursorEv
librecad:_ZN25RS_ActionModifyTrimAmount20getAvailableCommandsEv
librecad:_ZN25RS_ActionModifyTrimAmount22updateMouseButtonHintsEv
librecad:_ZN25RS_ActionModifyTrimAmount4initEi
librecad:_ZN25RS_ActionModifyTrimAmount7triggerEv
librecad:_ZN25RS_ActionModifyTrimAmountC1ER18RS_EntityContainerR14RS_GraphicView
librecad:_ZN25RS_ActionModifyTrimAmountC2ER18RS_EntityContainerR14RS_GraphicView
librecad:_ZN25RS_ActionModifyTrimAmountD0Ev
librecad:_ZN25RS_ActionModifyTrimAmountD1Ev
librecad:_ZN25RS_ActionModifyTrimAmountD2Ev
librecad:_ZN25RS_PreviewActionInterface11drawPreviewEv
librecad:_ZN25RS_PreviewActionInterface13deletePreviewEv
librecad:_ZN25RS_PreviewActionInterface4initEi
librecad:_ZN25RS_PreviewActionInterface6finishEb
librecad:_ZN25RS_PreviewActionInterface6resumeEv
librecad:_ZN25RS_PreviewActionInterface7suspendEv
librecad:_ZN25RS_PreviewActionInterface7triggerEv
librecad:_ZN25RS_PreviewActionInterfaceC1EPKcR18RS_EntityContainerR14RS_GraphicViewN3RS210ActionTypeE
librecad:_ZN25RS_PreviewActionInterfaceC2EPKcR18RS_EntityContainerR14RS_GraphicViewN3RS210ActionTypeE
librecad:_ZN25RS_PreviewActionInterfaceD0Ev
librecad:_ZN25RS_PreviewActionInterfaceD1Ev
librecad:_ZN25RS_PreviewActionInterfaceD2Ev
librecad:_ZN26LC_ActionModifyBreakDivide11qt_metacallEN11QMetaObject4CallEiPPv
librecad:_ZN26LC_ActionModifyBreakDivide11qt_metacastEPKc
librecad:_ZN26LC_ActionModifyBreakDivide14doAfterTriggerEv
librecad:_ZN26LC_ActionModifyBreakDivide16doGetMouseCursorEi
librecad:_ZN26LC_ActionModifyBreakDivide16staticMetaObjectE
librecad:_ZN26LC_ActionModifyBreakDivide17doCheckMayTriggerEv
librecad:_ZN26LC_ActionModifyBreakDivide19createOptionsWidgetEv
librecad:_ZN26LC_ActionModifyBreakDivide19doGetMouseSnapPointEP11QMouseEvent
librecad:_ZN26LC_ActionModifyBreakDivide19findArcSegmentEdgesEP6RS_ArcR9RS_VectorRK7QVectorIS2_E
librecad:_ZN26LC_ActionModifyBreakDivide20calculateArcSegmentsEP6RS_ArcR9RS_Vector
librecad:_ZN26LC_ActionModifyBreakDivide20calculateLineSegmentEP7RS_LineR9RS_Vector
librecad:_ZN26LC_ActionModifyBreakDivide20createEntitiesForArcEP6RS_ArcR9RS_VectorR5QListIP9RS_EntityEb
librecad:_ZN26LC_ActionModifyBreakDivide20findLineSegmentEdgesEP7RS_LineR9RS_Vector7QVectorIS2_E
librecad:_ZN26LC_ActionModifyBreakDivide21createEntitiesForLineEP7RS_LineR9RS_VectorR5QListIP9RS_EntityEb
librecad:_ZN26LC_ActionModifyBreakDivide21doCheckMayDrawPreviewEP11QMouseEventi
librecad:_ZN26LC_ActionModifyBreakDivide22calculateCircleSegmentEP9RS_CircleR9RS_Vector
librecad:_ZN26LC_ActionModifyBreakDivide22findCircleSegmentEdgesEP9RS_CircleR9RS_VectorRK7QVectorIS2_E
librecad:_ZN26LC_ActionModifyBreakDivide22updateMouseButtonHintsEv
librecad:_ZN26LC_ActionModifyBreakDivide23createEntitiesForCircleEP9RS_CircleR9RS_VectorR5QListIP9RS_EntityEb
librecad:_ZN26LC_ActionModifyBreakDivide23performTriggerDeletionsEv
librecad:_ZN26LC_ActionModifyBreakDivide24doPreparePreviewEntitiesEP11QMouseEventR9RS_VectorR5QListIP9RS_EntityEi
librecad:_ZN26LC_ActionModifyBreakDivide24doPrepareTriggerEntitiesER5QListIP9RS_EntityE
librecad:_ZN26LC_ActionModifyBreakDivide26doOnLeftMouseButtonReleaseEP11QMouseEventiRK9RS_Vector
librecad:_ZN26LC_ActionModifyBreakDivide31isSetActivePenAndLayerOnTriggerEv
librecad:_ZN26LC_ActionModifyBreakDivide33collectAllIntersectionsWithEntityEP9RS_Entity
librecad:_ZN26LC_ActionModifyBreakDivide8doFinishEb
librecad:_ZN26LC_ActionModifyBreakDivideC1ER18RS_EntityContainerR14RS_GraphicView
librecad:_ZN26LC_ActionModifyBreakDivideC2ER18RS_EntityContainerR14RS_GraphicView
librecad:_ZN26LC_PenPaletteOptionsDialog11qt_metacallEN11QMetaObject4CallEiPPv
librecad:_ZN26LC_PenPaletteOptionsDialog11qt_metacastEPKc
librecad:_ZN26LC_PenPaletteOptionsDialog11setPensFileEv
librecad:_ZN26LC_PenPaletteOptionsDialog12initComboBoxEP9QComboBoxRK6QColor
librecad:_ZN26LC_PenPaletteOptionsDialog14languageChangeEv
librecad:_ZN26LC_PenPaletteOptionsDialog15selectGridColorEv
librecad:_ZN26LC_PenPaletteOptionsDialog16staticMetaObjectE
librecad:_ZN26LC_PenPaletteOptionsDialog22selectActivePenBGColorEv
librecad:_ZN26LC_PenPaletteOptionsDialog22selectMatchedItemColorEv
librecad:_ZN26LC_PenPaletteOptionsDialog22showInvalidFileMessageERK7QString
librecad:_ZN26LC_PenPaletteOptionsDialog23showInvalidColorMessageERK7QString
librecad:_ZN26LC_PenPaletteOptionsDialog8validateEv
librecad:_ZN26LC_PenPaletteOptionsDialog9set_colorEP9QComboBoxR6QColor
librecad:_ZN26LC_PenPaletteOptionsDialogC1EP7QWidgetP20LC_PenPaletteOptionsb
librecad:_ZN26LC_PenPaletteOptionsDialogC2EP7QWidgetP20LC_PenPaletteOptionsb
librecad:_ZN26LC_PenPaletteOptionsDialogD0Ev
librecad:_ZN26LC_PenPaletteOptionsDialogD1Ev
librecad:_ZN26LC_PenPaletteOptionsDialogD2Ev
librecad:_ZN26LC_Rectangle2PointsOptions11doSetActionEP18RS_ActionInterfaceb
librecad:_ZN26LC_Rectangle2PointsOptions11qt_metacallEN11QMetaObject4CallEiPPv
librecad:_ZN26LC_Rectangle2PointsOptions11qt_metacastEPKc
librecad:_ZN26LC_Rectangle2PointsOptions14doSaveSettingsEv
librecad:_ZN26LC_Rectangle2PointsOptions14languageChangeEv
librecad:_ZN26LC_Rectangle2PointsOptions16staticMetaObjectE
librecad:_ZN26LC_Rectangle2PointsOptions19onEdgesIndexChangedEi
librecad:_ZN26LC_Rectangle2PointsOptions20checkActionRttiValidEN3RS210ActionTypeE
librecad:_ZN26LC_Rectangle2PointsOptions20onUsePolylineClickedEb
librecad:_ZN26LC_Rectangle2PointsOptions21onCornersIndexChangedEi
librecad:_ZN26LC_Rectangle2PointsOptions21onLenXEditingFinishedEv
librecad:_ZN26LC_Rectangle2PointsOptions21onLenYEditingFinishedEv
librecad:_ZN26LC_Rectangle2PointsOptions21setLenXToActionAnViewERK7QString
librecad:_ZN26LC_Rectangle2PointsOptions21setLenYToActionAnViewERK7QString
librecad:_ZN26LC_Rectangle2PointsOptions22onAngleEditingFinishedEv
librecad:_ZN26LC_Rectangle2PointsOptions23onBaseAngleFixedClickedEb
librecad:_ZN26LC_Rectangle2PointsOptions23onRadiusEditingFinishedEv
librecad:_ZN26LC_Rectangle2PointsOptions23setAngleToActionAndViewERK7QString
librecad:_ZN26LC_Rectangle2PointsOptions23setRadiusToActionAnViewERK7QString
librecad:_ZN26LC_Rectangle2PointsOptions24setSnapToCornerArcCenterEb
librecad:_ZN26LC_Rectangle2PointsOptions27getSettingsOptionNamePrefixEv
librecad:_ZN26LC_Rectangle2PointsOptions27setEdgesModeToActionAndViewEi
librecad:_ZN26LC_Rectangle2PointsOptions29onSecondPointSnapIndexChangedEi
librecad:_ZN26LC_Rectangle2PointsOptions29setCornersModeToActionAndViewEi
librecad:_ZN26LC_Rectangle2PointsOptions29setUsePolylineToActionAndViewEb
librecad:_ZN26LC_Rectangle2PointsOptions30onSnapToCornerArcCenterClickedEb
librecad:_ZN26LC_Rectangle2PointsOptions32onInsertionPointSnapIndexChangedEi
librecad:_ZN26LC_Rectangle2PointsOptions32setBaseAngleFixedToActionAndViewEb
librecad:_ZN26LC_Rectangle2PointsOptions37setInsertSnapPointModeToActionAndViewEi
librecad:_ZN26LC_Rectangle2PointsOptions42setSecondPointSnapPointModeToActionAndViewEi
librecad:_ZN26LC_Rectangle2PointsOptionsC1EP7QWidget
librecad:_ZN26LC_Rectangle2PointsOptionsC2EP7QWidget
librecad:_ZN26LC_Rectangle2PointsOptionsD0Ev
librecad:_ZN26LC_Rectangle2PointsOptionsD1Ev
librecad:_ZN26LC_Rectangle2PointsOptionsD2Ev
librecad:_ZN26LC_Rectangle3PointsOptions11doSetActionEP18RS_ActionInterfaceb
librecad:_ZN26LC_Rectangle3PointsOptions11qt_metacallEN11QMetaObject4CallEiPPv
librecad:_ZN26LC_Rectangle3PointsOptions11qt_metacastEPKc
librecad:_ZN26LC_Rectangle3PointsOptions14doSaveSettingsEv
librecad:_ZN26LC_Rectangle3PointsOptions14languageChangeEv
librecad:_ZN26LC_Rectangle3PointsOptions16staticMetaObjectE
librecad:_ZN26LC_Rectangle3PointsOptions19onEdgesIndexChangedEi
librecad:_ZN26LC_Rectangle3PointsOptions19onQuadrangleClickedEb
librecad:_ZN26LC_Rectangle3PointsOptions20checkActionRttiValidEN3RS210ActionTypeE
librecad:_ZN26LC_Rectangle3PointsOptions20onUsePolylineClickedEb
librecad:_ZN26LC_Rectangle3PointsOptions21onCornersIndexChangedEi
librecad:_ZN26LC_Rectangle3PointsOptions21onLenXEditingFinishedEv
librecad:_ZN26LC_Rectangle3PointsOptions21onLenYEditingFinishedEv
librecad:_ZN26LC_Rectangle3PointsOptions21setLenXToActionAnViewERK7QString
librecad:_ZN26LC_Rectangle3PointsOptions21setLenYToActionAnViewERK7QString
librecad:_ZN26LC_Rectangle3PointsOptions22onAngleEditingFinishedEv
librecad:_ZN26LC_Rectangle3PointsOptions23onBaseAngleFixedClickedEb
librecad:_ZN26LC_Rectangle3PointsOptions23onRadiusEditingFinishedEv
librecad:_ZN26LC_Rectangle3PointsOptions23setAngleToActionAndViewERK7QString
librecad:_ZN26LC_Rectangle3PointsOptions23setRadiusToActionAnViewERK7QString
librecad:_ZN26LC_Rectangle3PointsOptions24onInnerAngleFixedClickedEb
librecad:_ZN26LC_Rectangle3PointsOptions24setSnapToCornerArcCenterEb
librecad:_ZN26LC_Rectangle3PointsOptions27getSettingsOptionNamePrefixEv
librecad:_ZN26LC_Rectangle3PointsOptions27onInnerAngleEditingFinishedEv
librecad:_ZN26LC_Rectangle3PointsOptions27setEdgesModeToActionAndViewEi
librecad:_ZN26LC_Rectangle3PointsOptions28setInnerAngleToActionAndViewERK7QString
librecad:_ZN26LC_Rectangle3PointsOptions28setQuadrangleToActionAndViewEb
librecad:_ZN26LC_Rectangle3PointsOptions29setCornersModeToActionAndViewEi
librecad:_ZN26LC_Rectangle3PointsOptions29setUsePolylineToActionAndViewEb
librecad:_ZN26LC_Rectangle3PointsOptions30onSnapToCornerArcCenterClickedEb
librecad:_ZN26LC_Rectangle3PointsOptions32setBaseAngleFixedToActionAndViewEb
librecad:_ZN26LC_Rectangle3PointsOptions33setInnerAngleFixedToActionAndViewEb
librecad:_ZN26LC_Rectangle3PointsOptionsC1EP7QWidget
librecad:_ZN26LC_Rectangle3PointsOptionsC2EP7QWidget
librecad:_ZN26LC_Rectangle3PointsOptionsD0Ev
librecad:_ZN26LC_Rectangle3PointsOptionsD1Ev
librecad:_ZN26LC_Rectangle3PointsOptionsD2Ev
librecad:_ZN26RS_ActionDrawArcTangential11hideOptionsEv
librecad:_ZN26RS_ActionDrawArcTangential11qt_metacallEN11QMetaObject4CallEiPPv
librecad:_ZN26RS_ActionDrawArcTangential11qt_metacastEPKc
librecad:_ZN26RS_ActionDrawArcTangential11setByRadiusEb
librecad:_ZN26RS_ActionDrawArcTangential11showOptionsEv
librecad:_ZN26RS_ActionDrawArcTangential12readSettingsEv
librecad:_ZN26RS_ActionDrawArcTangential14mouseMoveEventEP11QMouseEvent
librecad:_ZN26RS_ActionDrawArcTangential14preparePreviewEv
librecad:_ZN26RS_ActionDrawArcTangential15coordinateEventEP18RS_CoordinateEvent
librecad:_ZN26RS_ActionDrawArcTangential16staticMetaObjectE
librecad:_ZN26RS_ActionDrawArcTangential17mouseReleaseEventEP11QMouseEvent
librecad:_ZN26RS_ActionDrawArcTangential17updateMouseCursorEv
librecad:_ZN26RS_ActionDrawArcTangential22updateMouseButtonHintsEv
librecad:_ZN26RS_ActionDrawArcTangential4initEi
librecad:_ZN26RS_ActionDrawArcTangential5resetEv
librecad:_ZN26RS_ActionDrawArcTangential7triggerEv
librecad:_ZN26RS_ActionDrawArcTangential8setAngleEd
librecad:_ZN26RS_ActionDrawArcTangential9setRadiusEd
librecad:_ZN26RS_ActionDrawArcTangentialC1ER18RS_EntityContainerR14RS_GraphicView
librecad:_ZN26RS_ActionDrawArcTangentialC2ER18RS_EntityContainerR14RS_GraphicView
librecad:_ZN26RS_ActionDrawArcTangentialD0Ev
librecad:_ZN26RS_ActionDrawArcTangentialD1Ev
librecad:_ZN26RS_ActionDrawArcTangentialD2Ev
librecad:_ZN26RS_ActionDrawCircleTan1_2P10getCentersEv
librecad:_ZN26RS_ActionDrawCircleTan1_2P11catchCircleEP11QMouseEvent
librecad:_ZN26RS_ActionDrawCircleTan1_2P11qt_metacallEN11QMetaObject4CallEiPPv
librecad:_ZN26RS_ActionDrawCircleTan1_2P11qt_metacastEPKc
librecad:_ZN26RS_ActionDrawCircleTan1_2P14mouseMoveEventEP11QMouseEvent
librecad:_ZN26RS_ActionDrawCircleTan1_2P14preparePreviewEv
librecad:_ZN26RS_ActionDrawCircleTan1_2P15coordinateEventEP18RS_CoordinateEvent
librecad:_ZN26RS_ActionDrawCircleTan1_2P16staticMetaObjectE
librecad:_ZN26RS_ActionDrawCircleTan1_2P17mouseReleaseEventEP11QMouseEvent
librecad:_ZN26RS_ActionDrawCircleTan1_2P17updateMouseCursorEv
librecad:_ZN26RS_ActionDrawCircleTan1_2P22updateMouseButtonHintsEv
librecad:_ZN26RS_ActionDrawCircleTan1_2P4initEi
librecad:_ZN26RS_ActionDrawCircleTan1_2P6finishEb
librecad:_ZN26RS_ActionDrawCircleTan1_2P7triggerEv
librecad:_ZN26RS_ActionDrawCircleTan1_2PC1ER18RS_EntityContainerR14RS_GraphicView
librecad:_ZN26RS_ActionDrawCircleTan1_2PC2ER18RS_EntityContainerR14RS_GraphicView
librecad:_ZN26RS_ActionDrawCircleTan1_2PD0Ev
librecad:_ZN26RS_ActionDrawCircleTan1_2PD1Ev
librecad:_ZN26RS_ActionDrawCircleTan1_2PD2Ev
librecad:_ZN26RS_ActionDrawCircleTan2_1P10getCentersEv
librecad:_ZN26RS_ActionDrawCircleTan2_1P11catchCircleEP11QMouseEvent
librecad:_ZN26RS_ActionDrawCircleTan2_1P11qt_metacallEN11QMetaObject4CallEiPPv
librecad:_ZN26RS_ActionDrawCircleTan2_1P11qt_metacastEPKc
librecad:_ZN26RS_ActionDrawCircleTan2_1P14mouseMoveEventEP11QMouseEvent
librecad:_ZN26RS_ActionDrawCircleTan2_1P14preparePreviewEv
librecad:_ZN26RS_ActionDrawCircleTan2_1P15coordinateEventEP18RS_CoordinateEvent
librecad:_ZN26RS_ActionDrawCircleTan2_1P16staticMetaObjectE
librecad:_ZN26RS_ActionDrawCircleTan2_1P17mouseReleaseEventEP11QMouseEvent
librecad:_ZN26RS_ActionDrawCircleTan2_1P17updateMouseCursorEv
librecad:_ZN26RS_ActionDrawCircleTan2_1P22updateMouseButtonHintsEv
librecad:_ZN26RS_ActionDrawCircleTan2_1P4initEi
librecad:_ZN26RS_ActionDrawCircleTan2_1P6finishEb
librecad:_ZN26RS_ActionDrawCircleTan2_1P7triggerEv
librecad:_ZN26RS_ActionDrawCircleTan2_1PC1ER18RS_EntityContainerR14RS_GraphicView
librecad:_ZN26RS_ActionDrawCircleTan2_1PC2ER18RS_EntityContainerR14RS_GraphicView
librecad:_ZN26RS_ActionDrawCircleTan2_1PD0Ev
librecad:_ZN26RS_ActionDrawCircleTan2_1PD1Ev
librecad:_ZN26RS_ActionDrawCircleTan2_1PD2Ev
librecad:_ZN26RS_ActionDrawLineRectangle11qt_metacallEN11QMetaObject4CallEiPPv
librecad:_ZN26RS_ActionDrawLineRectangle11qt_metacastEPKc
librecad:_ZN26RS_ActionDrawLineRectangle12commandEventEP15RS_CommandEvent
librecad:_ZN26RS_ActionDrawLineRectangle14mouseMoveEventEP11QMouseEvent
librecad:_ZN26RS_ActionDrawLineRectangle15coordinateEventEP18RS_CoordinateEvent
librecad:_ZN26RS_ActionDrawLineRectangle16staticMetaObjectE
librecad:_ZN26RS_ActionDrawLineRectangle17mouseReleaseEventEP11QMouseEvent
librecad:_ZN26RS_ActionDrawLineRectangle17updateMouseCursorEv
librecad:_ZN26RS_ActionDrawLineRectangle22updateMouseButtonHintsEv
librecad:_ZN26RS_ActionDrawLineRectangle7triggerEv
librecad:_ZN26RS_ActionDrawLineRectangleC1ER18RS_EntityContainerR14RS_GraphicView
librecad:_ZN26RS_ActionDrawLineRectangleC2ER18RS_EntityContainerR14RS_GraphicView
librecad:_ZN26RS_ActionDrawLineRectangleD0Ev
librecad:_ZN26RS_ActionDrawLineRectangleD1Ev
librecad:_ZN26RS_ActionDrawLineRectangleD2Ev
librecad:_ZN26RS_ActionLayersTogglePrint11qt_metacallEN11QMetaObject4CallEiPPv
librecad:_ZN26RS_ActionLayersTogglePrint11qt_metacastEPKc
librecad:_ZN26RS_ActionLayersTogglePrint16deselectEntitiesEP8RS_Layer
librecad:_ZN26RS_ActionLayersTogglePrint16staticMetaObjectE
librecad:_ZN26RS_ActionLayersTogglePrint4initEi
librecad:_ZN26RS_ActionLayersTogglePrint7triggerEv
librecad:_ZN26RS_ActionLayersTogglePrintC1ER18RS_EntityContainerR14RS_GraphicViewP8RS_Layer
librecad:_ZN26RS_ActionLayersTogglePrintC2ER18RS_EntityContainerR14RS_GraphicViewP8RS_Layer
librecad:_ZN26RS_ActionModifyDeleteQuick11qt_metacallEN11QMetaObject4CallEiPPv
librecad:_ZN26RS_ActionModifyDeleteQuick11qt_metacastEPKc
librecad:_ZN26RS_ActionModifyDeleteQuick16staticMetaObjectE
librecad:_ZN26RS_ActionModifyDeleteQuick17mouseReleaseEventEP11QMouseEvent
librecad:_ZN26RS_ActionModifyDeleteQuick17updateMouseCursorEv
librecad:_ZN26RS_ActionModifyDeleteQuick22updateMouseButtonHintsEv
librecad:_ZN26RS_ActionModifyDeleteQuick7triggerEv
librecad:_ZN26RS_ActionModifyDeleteQuickC1ER18RS_EntityContainerR14RS_GraphicView
librecad:_ZN26RS_ActionModifyDeleteQuickC2ER18RS_EntityContainerR14RS_GraphicView
librecad:_ZN26RS_ActionModifyExplodeText11qt_metacallEN11QMetaObject4CallEiPPv
librecad:_ZN26RS_ActionModifyExplodeText11qt_metacastEPKc
librecad:_ZN26RS_ActionModifyExplodeText16staticMetaObjectE
librecad:_ZN26RS_ActionModifyExplodeText4initEi
librecad:_ZN26RS_ActionModifyExplodeText7triggerEv
librecad:_ZN26RS_ActionModifyExplodeTextC1ER18RS_EntityContainerR14RS_GraphicView
librecad:_ZN26RS_ActionModifyExplodeTextC2ER18RS_EntityContainerR14RS_GraphicView
librecad:_ZN26RS_ActionModifyExplodeTextD0Ev
librecad:_ZN26RS_ActionModifyExplodeTextD1Ev
librecad:_ZN26RS_ActionModifyExplodeTextD2Ev
librecad:_ZN26RS_ActionSelectIntersected11qt_metacallEN11QMetaObject4CallEiPPv
librecad:_ZN26RS_ActionSelectIntersected11qt_metacastEPKc
librecad:_ZN26RS_ActionSelectIntersected14mouseMoveEventEP11QMouseEvent
librecad:_ZN26RS_ActionSelectIntersected15mousePressEventEP11QMouseEvent
librecad:_ZN26RS_ActionSelectIntersected16staticMetaObjectE
librecad:_ZN26RS_ActionSelectIntersected17mouseReleaseEventEP11QMouseEvent
librecad:_ZN26RS_ActionSelectIntersected17updateMouseCursorEv
librecad:_ZN26RS_ActionSelectIntersected22updateMouseButtonHintsEv
librecad:_ZN26RS_ActionSelectIntersected4initEi
librecad:_ZN26RS_ActionSelectIntersected7triggerEv
librecad:_ZN26RS_ActionSelectIntersectedC1ER18RS_EntityContainerR14RS_GraphicViewb
librecad:_ZN26RS_ActionSelectIntersectedC2ER18RS_EntityContainerR14RS_GraphicViewb
librecad:_ZN26RS_ActionSelectIntersectedD0Ev
librecad:_ZN26RS_ActionSelectIntersectedD1Ev
librecad:_ZN26RS_ActionSelectIntersectedD2Ev
librecad:_ZN27LC_ActionFileExportMakerCam11qt_metacallEN11QMetaObject4CallEiPPv
librecad:_ZN27LC_ActionFileExportMakerCam11qt_metacastEPKc
librecad:_ZN27LC_ActionFileExportMakerCam16staticMetaObjectE
librecad:_ZN27LC_ActionFileExportMakerCam4initEi
librecad:_ZN27LC_ActionFileExportMakerCam7triggerEv
librecad:_ZN27LC_ActionFileExportMakerCam8writeSvgERK7QStringR10RS_Graphic
librecad:_ZN27LC_ActionFileExportMakerCamC1ER18RS_EntityContainerR14RS_GraphicView
librecad:_ZN27LC_ActionFileExportMakerCamC2ER18RS_EntityContainerR14RS_GraphicView
librecad:_ZN27LC_ModifyBreakDivideOptions11doSetActionEP18RS_ActionInterfaceb
librecad:_ZN27LC_ModifyBreakDivideOptions11qt_metacallEN11QMetaObject4CallEiPPv
librecad:_ZN27LC_ModifyBreakDivideOptions11qt_metacastEPKc
librecad:_ZN27LC_ModifyBreakDivideOptions14doSaveSettingsEv
librecad:_ZN27LC_ModifyBreakDivideOptions14languageChangeEv
librecad:_ZN27LC_ModifyBreakDivideOptions16staticMetaObjectE
librecad:_ZN27LC_ModifyBreakDivideOptions20checkActionRttiValidEN3RS210ActionTypeE
librecad:_ZN27LC_ModifyBreakDivideOptions20getSettingsGroupNameEv
librecad:_ZN27LC_ModifyBreakDivideOptions23onRemoveSegmentsClickedEb
librecad:_ZN27LC_ModifyBreakDivideOptions23onRemoveSelectedClickedEb
librecad:_ZN27LC_ModifyBreakDivideOptions27getSettingsOptionNamePrefixEv
librecad:_ZN27LC_ModifyBreakDivideOptions32setRemoveSegmentsToActionAndViewEb
librecad:_ZN27LC_ModifyBreakDivideOptions32setRemoveSelectedToActionAndViewEb
librecad:_ZN27LC_ModifyBreakDivideOptionsC1EP7QWidget
librecad:_ZN27LC_ModifyBreakDivideOptionsC2EP7QWidget
librecad:_ZN27LC_ModifyBreakDivideOptionsD0Ev
librecad:_ZN27LC_ModifyBreakDivideOptionsD1Ev
librecad:_ZN27LC_ModifyBreakDivideOptionsD2Ev
librecad:_ZN27RS_ActionDrawCircleInscribe10clearLinesEb
librecad:_ZN27RS_ActionDrawCircleInscribe11qt_metacallEN11QMetaObject4CallEiPPv
librecad:_ZN27RS_ActionDrawCircleInscribe11qt_metacastEPKc
librecad:_ZN27RS_ActionDrawCircleInscribe14mouseMoveEventEP11QMouseEvent
librecad:_ZN27RS_ActionDrawCircleInscribe14preparePreviewEv
librecad:_ZN27RS_ActionDrawCircleInscribe16staticMetaObjectE
librecad:_ZN27RS_ActionDrawCircleInscribe17mouseReleaseEventEP11QMouseEvent
librecad:_ZN27RS_ActionDrawCircleInscribe17updateMouseCursorEv
librecad:_ZN27RS_ActionDrawCircleInscribe22updateMouseButtonHintsEv
librecad:_ZN27RS_ActionDrawCircleInscribe4initEi
librecad:_ZN27RS_ActionDrawCircleInscribe6finishEb
librecad:_ZN27RS_ActionDrawCircleInscribe7triggerEv
librecad:_ZN27RS_ActionDrawCircleInscribeC1ER18RS_EntityContainerR14RS_GraphicView
librecad:_ZN27RS_ActionDrawCircleInscribeC2ER18RS_EntityContainerR14RS_GraphicView
librecad:_ZN27RS_ActionDrawCircleInscribeD0Ev
librecad:_ZN27RS_ActionDrawCircleInscribeD1Ev
librecad:_ZN27RS_ActionDrawCircleInscribeD2Ev
librecad:_ZN27RS_ActionDrawEllipse4Points11qt_metacallEN11QMetaObject4CallEiPPv
librecad:_ZN27RS_ActionDrawEllipse4Points11qt_metacastEPKc
librecad:_ZN27RS_ActionDrawEllipse4Points14mouseMoveEventEP11QMouseEvent
librecad:_ZN27RS_ActionDrawEllipse4Points14preparePreviewEv
librecad:_ZN27RS_ActionDrawEllipse4Points15coordinateEventEP18RS_CoordinateEvent
librecad:_ZN27RS_ActionDrawEllipse4Points16staticMetaObjectE
librecad:_ZN27RS_ActionDrawEllipse4Points17mouseReleaseEventEP11QMouseEvent
librecad:_ZN27RS_ActionDrawEllipse4Points17updateMouseCursorEv
librecad:_ZN27RS_ActionDrawEllipse4Points20getAvailableCommandsEv
librecad:_ZN27RS_ActionDrawEllipse4Points22updateMouseButtonHintsEv
librecad:_ZN27RS_ActionDrawEllipse4Points4initEi
librecad:_ZN27RS_ActionDrawEllipse4Points7triggerEv
librecad:_ZN27RS_ActionDrawEllipse4PointsC1ER18RS_EntityContainerR14RS_GraphicView
librecad:_ZN27RS_ActionDrawEllipse4PointsC2ER18RS_EntityContainerR14RS_GraphicView
librecad:_ZN27RS_ActionDrawEllipse4PointsD0Ev
librecad:_ZN27RS_ActionDrawEllipse4PointsD1Ev
librecad:_ZN27RS_ActionDrawEllipse4PointsD2Ev
librecad:_ZN27RS_ActionPolylineDelBetween11qt_metacallEN11QMetaObject4CallEiPPv
librecad:_ZN27RS_ActionPolylineDelBetween11qt_metacastEPKc
librecad:_ZN27RS_ActionPolylineDelBetween14mouseMoveEventEP11QMouseEvent
librecad:_ZN27RS_ActionPolylineDelBetween16staticMetaObjectE
librecad:_ZN27RS_ActionPolylineDelBetween17mouseReleaseEventEP11QMouseEvent
librecad:_ZN27RS_ActionPolylineDelBetween17updateMouseCursorEv
librecad:_ZN27RS_ActionPolylineDelBetween22updateMouseButtonHintsEv
librecad:_ZN27RS_ActionPolylineDelBetween4initEi
librecad:_ZN27RS_ActionPolylineDelBetween7triggerEv
librecad:_ZN27RS_ActionPolylineDelBetweenC1ER18RS_EntityContainerR14RS_GraphicView
librecad:_ZN27RS_ActionPolylineDelBetweenC2ER18RS_EntityContainerR14RS_GraphicView
librecad:_ZN27RS_ActionPolylineDelBetweenD0Ev
librecad:_ZN27RS_ActionPolylineDelBetweenD1Ev
librecad:_ZN27RS_ActionPolylineDelBetweenD2Ev
librecad:_ZN27RS_ActionSetSnapRestriction11qt_metacallEN11QMetaObject4CallEiPPv
librecad:_ZN27RS_ActionSetSnapRestriction11qt_metacastEPKc
librecad:_ZN27RS_ActionSetSnapRestriction16staticMetaObjectE
librecad:_ZN27RS_ActionSetSnapRestriction4initEi
librecad:_ZN27RS_ActionSetSnapRestriction7triggerEv
librecad:_ZN27RS_ActionSetSnapRestrictionC1ER18RS_EntityContainerR14RS_GraphicViewN3RS215SnapRestrictionE
librecad:_ZN27RS_ActionSetSnapRestrictionC2ER18RS_EntityContainerR14RS_GraphicViewN3RS215SnapRestrictionE
librecad:_ZN28LC_AbstractActionWithPreview10getCommandERK7QString
librecad:_ZN28LC_AbstractActionWithPreview11onMouseMoveEP11QMouseEvent9RS_Vectori
librecad:_ZN28LC_AbstractActionWithPreview11qt_metacallEN11QMetaObject4CallEiPPv
librecad:_ZN28LC_AbstractActionWithPreview11qt_metacastEPKc
librecad:_ZN28LC_AbstractActionWithPreview11setFreeSnapEv
librecad:_ZN28LC_AbstractActionWithPreview12commandEventEP15RS_CommandEvent
librecad:_ZN28LC_AbstractActionWithPreview12finishActionEv
librecad:_ZN28LC_AbstractActionWithPreview14doAfterTriggerEv
librecad:_ZN28LC_AbstractActionWithPreview14doMouseMoveEndEiP11QMouseEvent
librecad:_ZN28LC_AbstractActionWithPreview14mouseMoveEventEP11QMouseEvent
librecad:_ZN28LC_AbstractActionWithPreview14performTriggerEv
librecad:_ZN28LC_AbstractActionWithPreview15coordinateEventEP18RS_CoordinateEvent
librecad:_ZN28LC_AbstractActionWithPreview15highlightEntityEP9RS_Entity
librecad:_ZN28LC_AbstractActionWithPreview15restoreSnapModeEv
librecad:_ZN28LC_AbstractActionWithPreview16commandMessageTREPKc
librecad:_ZN28LC_AbstractActionWithPreview16doGetMouseCursorEi
librecad:_ZN28LC_AbstractActionWithPreview16doMouseMoveStartEiP11QMouseEvent
librecad:_ZN28LC_AbstractActionWithPreview16doProcessCommandEP15RS_CommandEventRK7QString
librecad:_ZN28LC_AbstractActionWithPreview16moveRelativeZeroERK9RS_Vector
librecad:_ZN28LC_AbstractActionWithPreview16staticMetaObjectE
librecad:_ZN28LC_AbstractActionWithPreview16unSelectEntitiesERK5QListIP9RS_EntityE
librecad:_ZN28LC_AbstractActionWithPreview17doCheckMayTriggerEv
librecad:_ZN28LC_AbstractActionWithPreview17isUndoableTriggerEv
librecad:_ZN28LC_AbstractActionWithPreview17mouseReleaseEventEP11QMouseEvent
librecad:_ZN28LC_AbstractActionWithPreview17onCoordinateEventERK9RS_Vectorbi
librecad:_ZN28LC_AbstractActionWithPreview17setGlobalSnapModeERK11RS_SnapMode
librecad:_ZN28LC_AbstractActionWithPreview17unHighlightEntityEv
librecad:_ZN28LC_AbstractActionWithPreview17updateMouseCursorEv
librecad:_ZN28LC_AbstractActionWithPreview17updateMouseWidgetERK7QStringS2_
librecad:_ZN28LC_AbstractActionWithPreview19doGetMouseSnapPointEP11QMouseEvent
librecad:_ZN28LC_AbstractActionWithPreview19drawPreviewForPointEP11QMouseEventR9RS_Vector
librecad:_ZN28LC_AbstractActionWithPreview19updateMouseWidgetTREPKcS1_
librecad:_ZN28LC_AbstractActionWithPreview20deleteEntityUndoableEP9RS_Entity
librecad:_ZN28LC_AbstractActionWithPreview20performTriggerOnInitE5QListIP9RS_EntityE
librecad:_ZN28LC_AbstractActionWithPreview21doCheckMayDrawPreviewEP11QMouseEventi
librecad:_ZN28LC_AbstractActionWithPreview22updateMouseButtonHintsEv
librecad:_ZN28LC_AbstractActionWithPreview23doCheckMayTriggerOnInitEi
librecad:_ZN28LC_AbstractActionWithPreview23drawPreviewForLastPointEv
librecad:_ZN28LC_AbstractActionWithPreview23highlightEntityExplicitEP9RS_Entityb
librecad:_ZN28LC_AbstractActionWithPreview23performTriggerDeletionsEv
librecad:_ZN28LC_AbstractActionWithPreview24doPreparePreviewEntitiesEP11QMouseEventR9RS_VectorR5QListIP9RS_EntityEi
librecad:_ZN28LC_AbstractActionWithPreview24doPrepareTriggerEntitiesER5QListIP9RS_EntityE
librecad:_ZN28LC_AbstractActionWithPreview24performTriggerInsertionsEv
librecad:_ZN28LC_AbstractActionWithPreview25doCreateEntitiesOnTriggerEP9RS_EntityR5QListIS1_E
librecad:_ZN28LC_AbstractActionWithPreview25onRightMouseButtonReleaseEP11QMouseEventi
librecad:_ZN28LC_AbstractActionWithPreview26checkAlternativeActionModeEPK11QMouseEventib
librecad:_ZN28LC_AbstractActionWithPreview26checkPreSnapToRelativeZeroEiP11QMouseEvent
librecad:_ZN28LC_AbstractActionWithPreview26clearAlternativeActionModeEv
librecad:_ZN28LC_AbstractActionWithPreview26doOnLeftMouseButtonReleaseEP11QMouseEventiRK9RS_Vector
librecad:_ZN28LC_AbstractActionWithPreview26setupAndAddTriggerEntitiesERK5QListIP9RS_EntityE
librecad:_ZN28LC_AbstractActionWithPreview27doInitialSnapToRelativeZeroE9RS_Vector
librecad:_ZN28LC_AbstractActionWithPreview29doGetRelativeZeroAfterTriggerEv
librecad:_ZN28LC_AbstractActionWithPreview31isSetActivePenAndLayerOnTriggerEv
librecad:_ZN28LC_AbstractActionWithPreview31isUnselectEntitiesOnInitTriggerEv
librecad:_ZN28LC_AbstractActionWithPreview36doCheckMouseEventValidForInitialSnapEP11QMouseEvent
librecad:_ZN28LC_AbstractActionWithPreview37isAcceptSelectedEntityToTriggerOnInitEP9RS_Entity
librecad:_ZN28LC_AbstractActionWithPreview39doGetStatusForInitialSnapToRelativeZeroEv
librecad:_ZN28LC_AbstractActionWithPreview46doPerformOriginalEntitiesDeletionOnInitTriggerER5QListIP9RS_EntityE
librecad:_ZN28LC_AbstractActionWithPreview4initEi
librecad:_ZN28LC_AbstractActionWithPreview6doBackEP11QMouseEventi
librecad:_ZN28LC_AbstractActionWithPreview6finishEb
librecad:_ZN28LC_AbstractActionWithPreview7triggerEv
librecad:_ZN28LC_AbstractActionWithPreview8doFinishEb
librecad:_ZN28LC_AbstractActionWithPreviewC1EPKcR18RS_EntityContainerR14RS_GraphicView
librecad:_ZN28LC_AbstractActionWithPreviewC2EPKcR18RS_EntityContainerR14RS_GraphicView
librecad:_ZN28LC_ActionDrawParabola4Points11qt_metacallEN11QMetaObject4CallEiPPv
librecad:_ZN28LC_ActionDrawParabola4Points11qt_metacastEPKc
librecad:_ZN28LC_ActionDrawParabola4Points14mouseMoveEventEP11QMouseEvent
librecad:_ZN28LC_ActionDrawParabola4Points14preparePreviewERK9RS_Vector
librecad:_ZN28LC_ActionDrawParabola4Points15coordinateEventEP18RS_CoordinateEvent
librecad:_ZN28LC_ActionDrawParabola4Points16staticMetaObjectE
librecad:_ZN28LC_ActionDrawParabola4Points17mouseReleaseEventEP11QMouseEvent
librecad:_ZN28LC_ActionDrawParabola4Points17updateMouseCursorEv
librecad:_ZN28LC_ActionDrawParabola4Points20getAvailableCommandsEv
librecad:_ZN28LC_ActionDrawParabola4Points22updateMouseButtonHintsEv
librecad:_ZN28LC_ActionDrawParabola4Points4initEi
librecad:_ZN28LC_ActionDrawParabola4Points7triggerEv
librecad:_ZN28LC_ActionDrawParabola4PointsC1ER18RS_EntityContainerR14RS_GraphicView
librecad:_ZN28LC_ActionDrawParabola4PointsC2ER18RS_EntityContainerR14RS_GraphicView
librecad:_ZN28LC_ActionDrawParabola4PointsD0Ev
librecad:_ZN28LC_ActionDrawParabola4PointsD1Ev
librecad:_ZN28LC_ActionDrawParabola4PointsD2Ev
librecad:_ZN28LC_ActionDrawRectangle1Point10snapPointsE
librecad:_ZN28LC_ActionDrawRectangle1Point11qt_metacallEN11QMetaObject4CallEiPPv
librecad:_ZN28LC_ActionDrawRectangle1Point11qt_metacastEPKc
librecad:_ZN28LC_ActionDrawRectangle1Point12setSizeInnerEb
librecad:_ZN28LC_ActionDrawRectangle1Point16staticMetaObjectE
librecad:_ZN28LC_ActionDrawRectangle1Point19createOptionsWidgetEv
librecad:_ZN28LC_ActionDrawRectangle1Point19processCommandValueEdRb
librecad:_ZN28LC_ActionDrawRectangle1Point20getAvailableCommandsEv
librecad:_ZN28LC_ActionDrawRectangle1Point20processCustomCommandEP15RS_CommandEventRK7QStringRb
librecad:_ZN28LC_ActionDrawRectangle1Point21doCheckMayDrawPreviewEP11QMouseEventi
librecad:_ZN28LC_ActionDrawRectangle1Point24doProcessCoordinateEventERK9RS_Vectorbi
librecad:_ZN28LC_ActionDrawRectangle1Point24doUpdateMouseButtonHintsEi
librecad:_ZN28LC_ActionDrawRectangle1Point26doOnLeftMouseButtonReleaseEP11QMouseEventiRK9RS_Vector
librecad:_ZN28LC_ActionDrawRectangle1Point27doInitialSnapToRelativeZeroE9RS_Vector
librecad:_ZN28LC_ActionDrawRectangle1Point39doGetStatusForInitialSnapToRelativeZeroEv
librecad:_ZN28LC_ActionDrawRectangle1Point8setWidthEd
librecad:_ZN28LC_ActionDrawRectangle1Point9setHeightEd
librecad:_ZN28LC_ActionDrawRectangle1PointC1ER18RS_EntityContainerR14RS_GraphicView
librecad:_ZN28LC_ActionDrawRectangle1PointC2ER18RS_EntityContainerR14RS_GraphicView
librecad:_ZN28LC_ActionDrawRectangle1PointD0Ev
librecad:_ZN28LC_ActionDrawRectangle1PointD1Ev
librecad:_ZN28LC_ActionDrawRectangle1PointD2Ev
librecad:_ZN28LC_XMLWriterQXmlStreamWriter10addElementERKNSt7__cxx1112basic_stringIcSt11char_traitsIcESaIcEEES7_
librecad:_ZN28LC_XMLWriterQXmlStreamWriter12addAttributeERKNSt7__cxx1112basic_stringIcSt11char_traitsIcESaIcEEES7_S7_
librecad:_ZN28LC_XMLWriterQXmlStreamWriter12closeElementEv
librecad:_ZN28LC_XMLWriterQXmlStreamWriter16documentAsStringB5cxx11Ev
librecad:_ZN28LC_XMLWriterQXmlStreamWriter17createRootElementERKNSt7__cxx1112basic_stringIcSt11char_traitsIcESaIcEEES7_
librecad:_ZN28LC_XMLWriterQXmlStreamWriter23addNamespaceDeclarationERKNSt7__cxx1112basic_stringIcSt11char_traitsIcESaIcEEES7_
librecad:_ZN28LC_XMLWriterQXmlStreamWriterC1Ev
librecad:_ZN28LC_XMLWriterQXmlStreamWriterC2Ev
librecad:_ZN28LC_XMLWriterQXmlStreamWriterD0Ev
librecad:_ZN28LC_XMLWriterQXmlStreamWriterD1Ev
librecad:_ZN28LC_XMLWriterQXmlStreamWriterD2Ev
librecad:_ZN28RS_ActionDrawEllipseInscribe10clearLinesEb
librecad:_ZN28RS_ActionDrawEllipseInscribe11qt_metacallEN11QMetaObject4CallEiPPv
librecad:_ZN28RS_ActionDrawEllipseInscribe11qt_metacastEPKc
librecad:_ZN28RS_ActionDrawEllipseInscribe14mouseMoveEventEP11QMouseEvent
librecad:_ZN28RS_ActionDrawEllipseInscribe14preparePreviewEv
librecad:_ZN28RS_ActionDrawEllipseInscribe16staticMetaObjectE
librecad:_ZN28RS_ActionDrawEllipseInscribe17mouseReleaseEventEP11QMouseEvent
librecad:_ZN28RS_ActionDrawEllipseInscribe17updateMouseCursorEv
librecad:_ZN28RS_ActionDrawEllipseInscribe20getAvailableCommandsEv
librecad:_ZN28RS_ActionDrawEllipseInscribe22updateMouseButtonHintsEv
librecad:_ZN28RS_ActionDrawEllipseInscribe4initEi
librecad:_ZN28RS_ActionDrawEllipseInscribe6finishEb
librecad:_ZN28RS_ActionDrawEllipseInscribe7triggerEv
librecad:_ZN28RS_ActionDrawEllipseInscribeC1ER18RS_EntityContainerR14RS_GraphicView
librecad:_ZN28RS_ActionDrawEllipseInscribeC2ER18RS_EntityContainerR14RS_GraphicView
librecad:_ZN28RS_ActionDrawEllipseInscribeD0Ev
librecad:_ZN28RS_ActionDrawEllipseInscribeD1Ev
librecad:_ZN28RS_ActionDrawEllipseInscribeD2Ev
librecad:_ZN28RS_ActionPolylineEquidistant11hideOptionsEv
librecad:_ZN28RS_ActionPolylineEquidistant11makeContourEv
librecad:_ZN28RS_ActionPolylineEquidistant11qt_metacallEN11QMetaObject4CallEiPPv
librecad:_ZN28RS_ActionPolylineEquidistant11qt_metacastEPKc
librecad:_ZN28RS_ActionPolylineEquidistant11showOptionsEv
librecad:_ZN28RS_ActionPolylineEquidistant15calculateOffsetEP9RS_EntityS1_d
librecad:_ZN28RS_ActionPolylineEquidistant16staticMetaObjectE
librecad:_ZN28RS_ActionPolylineEquidistant17mouseReleaseEventEP11QMouseEvent
librecad:_ZN28RS_ActionPolylineEquidistant17updateMouseCursorEv
librecad:_ZN28RS_ActionPolylineEquidistant21calculateIntersectionEP9RS_EntityS1_
librecad:_ZN28RS_ActionPolylineEquidistant22updateMouseButtonHintsEv
librecad:_ZN28RS_ActionPolylineEquidistant4initEi
librecad:_ZN28RS_ActionPolylineEquidistant7triggerEv
librecad:_ZN28RS_ActionPolylineEquidistantC1ER18RS_EntityContainerR14RS_GraphicView
librecad:_ZN28RS_ActionPolylineEquidistantC2ER18RS_EntityContainerR14RS_GraphicView
librecad:_ZN28RS_ActionPolylineEquidistantD0Ev
librecad:_ZN28RS_ActionPolylineEquidistantD1Ev
librecad:_ZN28RS_ActionPolylineEquidistantD2Ev
librecad:_ZN29LC_ActionDrawRectangle2Points11qt_metacallEN11QMetaObject4CallEiPPv
librecad:_ZN29LC_ActionDrawRectangle2Points11qt_metacastEPKc
librecad:_ZN29LC_ActionDrawRectangle2Points14doAfterTriggerEv
librecad:_ZN29LC_ActionDrawRectangle2Points16staticMetaObjectE
librecad:_ZN29LC_ActionDrawRectangle2Points19createOptionsWidgetEv
librecad:_ZN29LC_ActionDrawRectangle2Points19processCommandValueEdRb
librecad:_ZN29LC_ActionDrawRectangle2Points20getAvailableCommandsEv
librecad:_ZN29LC_ActionDrawRectangle2Points20processCustomCommandEP15RS_CommandEventRK7QStringRb
librecad:_ZN29LC_ActionDrawRectangle2Points21doCheckMayDrawPreviewEP11QMouseEventi
librecad:_ZN29LC_ActionDrawRectangle2Points22setSecondPointSnapModeEi
librecad:_ZN29LC_ActionDrawRectangle2Points24doProcessCoordinateEventERK9RS_Vectorbi
librecad:_ZN29LC_ActionDrawRectangle2Points24doUpdateMouseButtonHintsEi
librecad:_ZN29LC_ActionDrawRectangle2Points26doOnLeftMouseButtonReleaseEP11QMouseEventiRK9RS_Vector
librecad:_ZN29LC_ActionDrawRectangle2Points27doInitialSnapToRelativeZeroE9RS_Vector
librecad:_ZN29LC_ActionDrawRectangle2Points38createSecondCornerSnapForGivenRectSizeE9RS_Vector
librecad:_ZN29LC_ActionDrawRectangle2Points39doGetStatusForInitialSnapToRelativeZeroEv
librecad:_ZN29LC_ActionDrawRectangle2Points4initEi
librecad:_ZN29LC_ActionDrawRectangle2PointsC1ER18RS_EntityContainerR14RS_GraphicView
librecad:_ZN29LC_ActionDrawRectangle2PointsC2ER18RS_EntityContainerR14RS_GraphicView
librecad:_ZN29LC_ActionDrawRectangle2PointsD0Ev
librecad:_ZN29LC_ActionDrawRectangle2PointsD1Ev
librecad:_ZN29LC_ActionDrawRectangle2PointsD2Ev
librecad:_ZN29LC_ActionDrawRectangle3Points11qt_metacallEN11QMetaObject4CallEiPPv
librecad:_ZN29LC_ActionDrawRectangle3Points11qt_metacastEPKc
librecad:_ZN29LC_ActionDrawRectangle3Points11resetPointsEv
librecad:_ZN29LC_ActionDrawRectangle3Points13doResetPointsERK9RS_Vector
librecad:_ZN29LC_ActionDrawRectangle3Points14doAfterTriggerEv
librecad:_ZN29LC_ActionDrawRectangle3Points16staticMetaObjectE
librecad:_ZN29LC_ActionDrawRectangle3Points19createOptionsWidgetEv
librecad:_ZN29LC_ActionDrawRectangle3Points19doGetMouseSnapPointEP11QMouseEvent
librecad:_ZN29LC_ActionDrawRectangle3Points19processCommandValueEdRb
librecad:_ZN29LC_ActionDrawRectangle3Points20processCustomCommandEP15RS_CommandEventRK7QStringRb
librecad:_ZN29LC_ActionDrawRectangle3Points21doCheckMayDrawPreviewEP11QMouseEventi
librecad:_ZN29LC_ActionDrawRectangle3Points22calculateCornersBySizeE9RS_Vector
librecad:_ZN29LC_ActionDrawRectangle3Points24doProcessCoordinateEventERK9RS_Vectorbi
librecad:_ZN29LC_ActionDrawRectangle3Points24doUpdateMouseButtonHintsEi
librecad:_ZN29LC_ActionDrawRectangle3Points26doOnLeftMouseButtonReleaseEP11QMouseEventiRK9RS_Vector
librecad:_ZN29LC_ActionDrawRectangle3Points27doInitialSnapToRelativeZeroE9RS_Vector
librecad:_ZN29LC_ActionDrawRectangle3Points29doGetRelativeZeroAfterTriggerEv
librecad:_ZN29LC_ActionDrawRectangle3Points39doGetStatusForInitialSnapToRelativeZeroEv
librecad:_ZN29LC_ActionDrawRectangle3Points4initEi
librecad:_ZN29LC_ActionDrawRectangle3Points6doBackEP11QMouseEventi
librecad:_ZN29LC_ActionDrawRectangle3Points8doFinishEb
librecad:_ZN29LC_ActionDrawRectangle3PointsC1ER18RS_EntityContainerR14RS_GraphicView
librecad:_ZN29LC_ActionDrawRectangle3PointsC2ER18RS_EntityContainerR14RS_GraphicView
librecad:_ZN29LC_ActionDrawRectangle3PointsD0Ev
librecad:_ZN29LC_ActionDrawRectangle3PointsD1Ev
librecad:_ZN29LC_ActionDrawRectangle3PointsD2Ev
librecad:_ZN29LC_ActionPenSyncActiveByLayer11qt_metacallEN11QMetaObject4CallEiPPv
librecad:_ZN29LC_ActionPenSyncActiveByLayer11qt_metacastEPKc
librecad:_ZN29LC_ActionPenSyncActiveByLayer16staticMetaObjectE
librecad:_ZN29LC_ActionPenSyncActiveByLayer4initEi
librecad:_ZN29LC_ActionPenSyncActiveByLayerC1ER18RS_EntityContainerR14RS_GraphicView
librecad:_ZN29LC_ActionPenSyncActiveByLayerC2ER18RS_EntityContainerR14RS_GraphicView
librecad:_ZN29LC_LineFromPointToLineOptions11doSetActionEP18RS_ActionInterfaceb
librecad:_ZN29LC_LineFromPointToLineOptions11qt_metacallEN11QMetaObject4CallEiPPv
librecad:_ZN29LC_LineFromPointToLineOptions11qt_metacastEPKc
librecad:_ZN29LC_LineFromPointToLineOptions14doSaveSettingsEv
librecad:_ZN29LC_LineFromPointToLineOptions14languageChangeEv
librecad:_ZN29LC_LineFromPointToLineOptions16staticMetaObjectE
librecad:_ZN29LC_LineFromPointToLineOptions19onOrthogonalClickedEb
librecad:_ZN29LC_LineFromPointToLineOptions20checkActionRttiValidEN3RS210ActionTypeE
librecad:_ZN29LC_LineFromPointToLineOptions22onAngleEditingFinishedEv
librecad:_ZN29LC_LineFromPointToLineOptions22onSizeModeIndexChangedEi
librecad:_ZN29LC_LineFromPointToLineOptions22onSnapModeIndexChangedEi
librecad:_ZN29LC_LineFromPointToLineOptions23onLengthEditingFinishedEv
librecad:_ZN29LC_LineFromPointToLineOptions23setAngleToActionAndViewERK7QString
librecad:_ZN29LC_LineFromPointToLineOptions24setLengthToActionAndViewERK7QString
librecad:_ZN29LC_LineFromPointToLineOptions26onEndOffsetEditingFinishedEv
librecad:_ZN29LC_LineFromPointToLineOptions26setSnapModeToActionAndViewEi
librecad:_ZN29LC_LineFromPointToLineOptions27getSettingsOptionNamePrefixEv
librecad:_ZN29LC_LineFromPointToLineOptions27setEndOffsetToActionAndViewERK7QString
librecad:_ZN29LC_LineFromPointToLineOptions28setOrthogonalToActionAndViewEb
librecad:_ZN29LC_LineFromPointToLineOptions32setSizeModelIndexToActionAndViewEi
librecad:_ZN29LC_LineFromPointToLineOptionsC1EP7QWidget
librecad:_ZN29LC_LineFromPointToLineOptionsC2EP7QWidget
librecad:_ZN29LC_LineFromPointToLineOptionsD0Ev
librecad:_ZN29LC_LineFromPointToLineOptionsD1Ev
librecad:_ZN29LC_LineFromPointToLineOptionsD2Ev
librecad:_ZN29QG_LineParallelThroughOptions11qt_metacallEN11QMetaObject4CallEiPPv
librecad:_ZN29QG_LineParallelThroughOptions11qt_metacastEPKc
librecad:_ZN29QG_LineParallelThroughOptions12saveSettingsEv
librecad:_ZN29QG_LineParallelThroughOptions12updateNumberEi
librecad:_ZN29QG_LineParallelThroughOptions14languageChangeEv
librecad:_ZN29QG_LineParallelThroughOptions16staticMetaObjectE
librecad:_ZN29QG_LineParallelThroughOptions9setActionEP18RS_ActionInterfaceb
librecad:_ZN29QG_LineParallelThroughOptionsC1EP7QWidget6QFlagsIN2Qt10WindowTypeEE
librecad:_ZN29QG_LineParallelThroughOptionsC2EP7QWidget6QFlagsIN2Qt10WindowTypeEE
librecad:_ZN29QG_LineParallelThroughOptionsD0Ev
librecad:_ZN29QG_LineParallelThroughOptionsD1Ev
librecad:_ZN29QG_LineParallelThroughOptionsD2Ev
librecad:_ZN29QG_PolylineEquidistantOptions10updateDistEv
librecad:_ZN29QG_PolylineEquidistantOptions11qt_metacallEN11QMetaObject4CallEiPPv
librecad:_ZN29QG_PolylineEquidistantOptions11qt_metacastEPKc
librecad:_ZN29QG_PolylineEquidistantOptions11saveOptionsEv
librecad:_ZN29QG_PolylineEquidistantOptions12updateNumberEv
librecad:_ZN29QG_PolylineEquidistantOptions14languageChangeEv
librecad:_ZN29QG_PolylineEquidistantOptions16staticMetaObjectE
librecad:_ZN29QG_PolylineEquidistantOptions9setActionEP18RS_ActionInterfaceb
librecad:_ZN29QG_PolylineEquidistantOptionsC1EP7QWidget6QFlagsIN2Qt10WindowTypeEE
librecad:_ZN29QG_PolylineEquidistantOptionsC2EP7QWidget6QFlagsIN2Qt10WindowTypeEE
librecad:_ZN29QG_PolylineEquidistantOptionsD0Ev
librecad:_ZN29QG_PolylineEquidistantOptionsD1Ev
librecad:_ZN29QG_PolylineEquidistantOptionsD2Ev
librecad:_ZN29RS_ActionDrawEllipseFociPoint11qt_metacallEN11QMetaObject4CallEiPPv
librecad:_ZN29RS_ActionDrawEllipseFociPoint11qt_metacastEPKc
librecad:_ZN29RS_ActionDrawEllipseFociPoint12commandEventEP15RS_CommandEvent
librecad:_ZN29RS_ActionDrawEllipseFociPoint14mouseMoveEventEP11QMouseEvent
librecad:_ZN29RS_ActionDrawEllipseFociPoint15coordinateEventEP18RS_CoordinateEvent
librecad:_ZN29RS_ActionDrawEllipseFociPoint16staticMetaObjectE
librecad:_ZN29RS_ActionDrawEllipseFociPoint17mouseReleaseEventEP11QMouseEvent
librecad:_ZN29RS_ActionDrawEllipseFociPoint17updateMouseCursorEv
librecad:_ZN29RS_ActionDrawEllipseFociPoint20getAvailableCommandsEv
librecad:_ZN29RS_ActionDrawEllipseFociPoint22updateMouseButtonHintsEv
librecad:_ZN29RS_ActionDrawEllipseFociPoint4initEi
librecad:_ZN29RS_ActionDrawEllipseFociPoint7triggerEv
librecad:_ZN29RS_ActionDrawEllipseFociPointC1ER18RS_EntityContainerR14RS_GraphicView
librecad:_ZN29RS_ActionDrawEllipseFociPointC2ER18RS_EntityContainerR14RS_GraphicView
librecad:_ZN29RS_ActionDrawEllipseFociPointD0Ev
librecad:_ZN29RS_ActionDrawEllipseFociPointD1Ev
librecad:_ZN29RS_ActionDrawEllipseFociPointD2Ev
librecad:_ZN2lc3geo4Area6VectorERK9RS_VectorS4_
librecad:_ZN2lc3geo4Area8unitTestEv
librecad:_ZN2lc3geo4AreaC1ERK9RS_VectorS4_
librecad:_ZN2lc3geo4AreaC1ERK9RS_Vectordd
librecad:_ZN2lc3geo4AreaC1Ev
librecad:_ZN2lc3geo4AreaC2ERK9RS_VectorS4_
librecad:_ZN2lc3geo4AreaC2ERK9RS_Vectordd
librecad:_ZN2lc3geo4AreaC2Ev
librecad:_ZN30LC_AbstractActionDrawRectangle10setLengthXEd
librecad:_ZN30LC_AbstractActionDrawRectangle10setLengthYEd
librecad:_ZN30LC_AbstractActionDrawRectangle11qt_metacallEN11QMetaObject4CallEiPPv
librecad:_ZN30LC_AbstractActionDrawRectangle11qt_metacastEPKc
librecad:_ZN30LC_AbstractActionDrawRectangle12stateUpdatedEb
librecad:_ZN30LC_AbstractActionDrawRectangle14doAfterTriggerEv
librecad:_ZN30LC_AbstractActionDrawRectangle14setCornersModeEi
librecad:_ZN30LC_AbstractActionDrawRectangle15createShapeDataERK9RS_Vector
librecad:_ZN30LC_AbstractActionDrawRectangle16doProcessCommandEP15RS_CommandEventRK7QString
librecad:_ZN30LC_AbstractActionDrawRectangle16normalizeCornersER9RS_VectorS1_S1_S1_
librecad:_ZN30LC_AbstractActionDrawRectangle16staticMetaObjectE
librecad:_ZN30LC_AbstractActionDrawRectangle17doCheckMayTriggerEv
librecad:_ZN30LC_AbstractActionDrawRectangle17onCoordinateEventERK9RS_Vectorbi
librecad:_ZN30LC_AbstractActionDrawRectangle22updateMouseButtonHintsEv
librecad:_ZN30LC_AbstractActionDrawRectangle24doPreparePreviewEntitiesEP11QMouseEventR9RS_VectorR5QListIP9RS_EntityEi
librecad:_ZN30LC_AbstractActionDrawRectangle24doPrepareTriggerEntitiesER5QListIP9RS_EntityE
librecad:_ZN30LC_AbstractActionDrawRectangle24doProcessCoordinateEventERK9RS_Vectorbi
librecad:_ZN30LC_AbstractActionDrawRectangle24doUpdateMouseButtonHintsEi
librecad:_ZN30LC_AbstractActionDrawRectangle24setSnapToCornerArcCenterEb
librecad:_ZN30LC_AbstractActionDrawRectangle25setInsertionPointSnapModeEi
librecad:_ZN30LC_AbstractActionDrawRectangle29doAddPolylineToListOfEntitiesEP11RS_PolylineR5QListIP9RS_EntityEb
librecad:_ZN30LC_AbstractActionDrawRectangle29doGetRelativeZeroAfterTriggerEv
librecad:_ZN30LC_AbstractActionDrawRectangle6doBackEP11QMouseEventi
librecad:_ZN30LC_AbstractActionDrawRectangle8setAngleEd
librecad:_ZN30LC_AbstractActionDrawRectangle9setRadiusEd
librecad:_ZN30LC_AbstractActionDrawRectangleC2EPKcR18RS_EntityContainerR14RS_GraphicView
librecad:_ZN30LC_AbstractActionDrawRectangleD0Ev
librecad:_ZN30LC_AbstractActionDrawRectangleD1Ev
librecad:_ZN30LC_AbstractActionDrawRectangleD2Ev
librecad:_ZN30LC_ActionDrawLinePolygonCenTan11hideOptionsEv
librecad:_ZN30LC_ActionDrawLinePolygonCenTan11qt_metacallEN11QMetaObject4CallEiPPv
librecad:_ZN30LC_ActionDrawLinePolygonCenTan11qt_metacastEPKc
librecad:_ZN30LC_ActionDrawLinePolygonCenTan11showOptionsEv
librecad:_ZN30LC_ActionDrawLinePolygonCenTan12commandEventEP15RS_CommandEvent
librecad:_ZN30LC_ActionDrawLinePolygonCenTan14mouseMoveEventEP11QMouseEvent
librecad:_ZN30LC_ActionDrawLinePolygonCenTan15coordinateEventEP18RS_CoordinateEvent
librecad:_ZN30LC_ActionDrawLinePolygonCenTan16staticMetaObjectE
librecad:_ZN30LC_ActionDrawLinePolygonCenTan17mouseReleaseEventEP11QMouseEvent
librecad:_ZN30LC_ActionDrawLinePolygonCenTan17updateMouseCursorEv
librecad:_ZN30LC_ActionDrawLinePolygonCenTan20getAvailableCommandsEv
librecad:_ZN30LC_ActionDrawLinePolygonCenTan22updateMouseButtonHintsEv
librecad:_ZN30LC_ActionDrawLinePolygonCenTan7triggerEv
librecad:_ZN30LC_ActionDrawLinePolygonCenTanC1ER18RS_EntityContainerR14RS_GraphicView
librecad:_ZN30LC_ActionDrawLinePolygonCenTanC2ER18RS_EntityContainerR14RS_GraphicView
librecad:_ZN30LC_ActionDrawLinePolygonCenTanD0Ev
librecad:_ZN30LC_ActionDrawLinePolygonCenTanD1Ev
librecad:_ZN30LC_ActionDrawLinePolygonCenTanD2Ev
librecad:_ZN30RS_ActionDrawLinePolygonCenCor11hideOptionsEv
librecad:_ZN30RS_ActionDrawLinePolygonCenCor11qt_metacallEN11QMetaObject4CallEiPPv
librecad:_ZN30RS_ActionDrawLinePolygonCenCor11qt_metacastEPKc
librecad:_ZN30RS_ActionDrawLinePolygonCenCor11showOptionsEv
librecad:_ZN30RS_ActionDrawLinePolygonCenCor12commandEventEP15RS_CommandEvent
librecad:_ZN30RS_ActionDrawLinePolygonCenCor14mouseMoveEventEP11QMouseEvent
librecad:_ZN30RS_ActionDrawLinePolygonCenCor15coordinateEventEP18RS_CoordinateEvent
librecad:_ZN30RS_ActionDrawLinePolygonCenCor16staticMetaObjectE
librecad:_ZN30RS_ActionDrawLinePolygonCenCor17mouseReleaseEventEP11QMouseEvent
librecad:_ZN30RS_ActionDrawLinePolygonCenCor17updateMouseCursorEv
librecad:_ZN30RS_ActionDrawLinePolygonCenCor20getAvailableCommandsEv
librecad:_ZN30RS_ActionDrawLinePolygonCenCor22updateMouseButtonHintsEv
librecad:_ZN30RS_ActionDrawLinePolygonCenCor7triggerEv
librecad:_ZN30RS_ActionDrawLinePolygonCenCorC1ER18RS_EntityContainerR14RS_GraphicView
librecad:_ZN30RS_ActionDrawLinePolygonCenCorC2ER18RS_EntityContainerR14RS_GraphicView
librecad:_ZN30RS_ActionDrawLinePolygonCenCorD0Ev
librecad:_ZN30RS_ActionDrawLinePolygonCenCorD1Ev
librecad:_ZN30RS_ActionDrawLinePolygonCenCorD2Ev
librecad:_ZN30RS_ActionDrawLinePolygonCorCor11hideOptionsEv
librecad:_ZN30RS_ActionDrawLinePolygonCorCor11qt_metacallEN11QMetaObject4CallEiPPv
librecad:_ZN30RS_ActionDrawLinePolygonCorCor11qt_metacastEPKc
librecad:_ZN30RS_ActionDrawLinePolygonCorCor11showOptionsEv
librecad:_ZN30RS_ActionDrawLinePolygonCorCor12commandEventEP15RS_CommandEvent
librecad:_ZN30RS_ActionDrawLinePolygonCorCor14mouseMoveEventEP11QMouseEvent
librecad:_ZN30RS_ActionDrawLinePolygonCorCor15coordinateEventEP18RS_CoordinateEvent
librecad:_ZN30RS_ActionDrawLinePolygonCorCor16staticMetaObjectE
librecad:_ZN30RS_ActionDrawLinePolygonCorCor17mouseReleaseEventEP11QMouseEvent
librecad:_ZN30RS_ActionDrawLinePolygonCorCor17updateMouseCursorEv
librecad:_ZN30RS_ActionDrawLinePolygonCorCor20getAvailableCommandsEv
librecad:_ZN30RS_ActionDrawLinePolygonCorCor22updateMouseButtonHintsEv
librecad:_ZN30RS_ActionDrawLinePolygonCorCor7triggerEv
librecad:_ZN30RS_ActionDrawLinePolygonCorCorC1ER18RS_EntityContainerR14RS_GraphicView
librecad:_ZN30RS_ActionDrawLinePolygonCorCorC2ER18RS_EntityContainerR14RS_GraphicView
librecad:_ZN30RS_ActionDrawLinePolygonCorCorD0Ev
librecad:_ZN30RS_ActionDrawLinePolygonCorCorD1Ev
librecad:_ZN30RS_ActionDrawLinePolygonCorCorD2Ev
librecad:_ZN30RS_ActionModifyRevertDirection11qt_metacallEN11QMetaObject4CallEiPPv
librecad:_ZN30RS_ActionModifyRevertDirection11qt_metacastEPKc
librecad:_ZN30RS_ActionModifyRevertDirection16staticMetaObjectE
librecad:_ZN30RS_ActionModifyRevertDirection4initEi
librecad:_ZN30RS_ActionModifyRevertDirection7triggerEv
librecad:_ZN30RS_ActionModifyRevertDirectionC1ER18RS_EntityContainerR14RS_GraphicView
librecad:_ZN30RS_ActionModifyRevertDirectionC2ER18RS_EntityContainerR14RS_GraphicView
librecad:_ZN31RS_ActionSnapIntersectionManual11qt_metacallEN11QMetaObject4CallEiPPv
librecad:_ZN31RS_ActionSnapIntersectionManual11qt_metacastEPKc
librecad:_ZN31RS_ActionSnapIntersectionManual14mouseMoveEventEP11QMouseEvent
librecad:_ZN31RS_ActionSnapIntersectionManual15createGUIActionEN3RS210ActionTypeEP7QObject
librecad:_ZN31RS_ActionSnapIntersectionManual16staticMetaObjectE
librecad:_ZN31RS_ActionSnapIntersectionManual17mouseReleaseEventEP11QMouseEvent
librecad:_ZN31RS_ActionSnapIntersectionManual17updateMouseCursorEv
librecad:_ZN31RS_ActionSnapIntersectionManual22updateMouseButtonHintsEv
librecad:_ZN31RS_ActionSnapIntersectionManual4initEi
librecad:_ZN31RS_ActionSnapIntersectionManual7triggerEv
librecad:_ZN31RS_ActionSnapIntersectionManualC1ER18RS_EntityContainerR14RS_GraphicView
librecad:_ZN31RS_ActionSnapIntersectionManualC2ER18RS_EntityContainerR14RS_GraphicView
librecad:_ZN31RS_ActionSnapIntersectionManualD0Ev
librecad:_ZN31RS_ActionSnapIntersectionManualD1Ev
librecad:_ZN31RS_ActionSnapIntersectionManualD2Ev
librecad:_ZN32LC_ActionDrawLineFromPointToLine11qt_metacallEN11QMetaObject4CallEiPPv
librecad:_ZN32LC_ActionDrawLineFromPointToLine11qt_metacastEPKc
librecad:_ZN32LC_ActionDrawLineFromPointToLine14doAfterTriggerEv
librecad:_ZN32LC_ActionDrawLineFromPointToLine16doGetMouseCursorEi
librecad:_ZN32LC_ActionDrawLineFromPointToLine16staticMetaObjectE
librecad:_ZN32LC_ActionDrawLineFromPointToLine17doCheckMayTriggerEv
librecad:_ZN32LC_ActionDrawLineFromPointToLine17onCoordinateEventERK9RS_Vectorbi
librecad:_ZN32LC_ActionDrawLineFromPointToLine19createOptionsWidgetEv
librecad:_ZN32LC_ActionDrawLineFromPointToLine21doCheckMayDrawPreviewEP11QMouseEventi
librecad:_ZN32LC_ActionDrawLineFromPointToLine22updateMouseButtonHintsEv
librecad:_ZN32LC_ActionDrawLineFromPointToLine24doPreparePreviewEntitiesEP11QMouseEventR9RS_VectorR5QListIP9RS_EntityEi
librecad:_ZN32LC_ActionDrawLineFromPointToLine24doPrepareTriggerEntitiesER5QListIP9RS_EntityE
librecad:_ZN32LC_ActionDrawLineFromPointToLine26doOnLeftMouseButtonReleaseEP11QMouseEventiRK9RS_Vector
librecad:_ZN32LC_ActionDrawLineFromPointToLine27createLineFromPointToTargetEP7RS_Line
librecad:_ZN32LC_ActionDrawLineFromPointToLine27doInitialSnapToRelativeZeroE9RS_Vector
librecad:_ZN32LC_ActionDrawLineFromPointToLine39doGetStatusForInitialSnapToRelativeZeroEv
librecad:_ZN32LC_ActionDrawLineFromPointToLine6doBackEP11QMouseEventi
librecad:_ZN32LC_ActionDrawLineFromPointToLine8doFinishEb
librecad:_ZN32LC_ActionDrawLineFromPointToLineC1EP16QG_ActionHandlerR18RS_EntityContainerR14RS_GraphicView
librecad:_ZN32LC_ActionDrawLineFromPointToLineC2EP16QG_ActionHandlerR18RS_EntityContainerR14RS_GraphicView
librecad:_ZN32RS_ActionDrawLineParallelThrough11hideOptionsEv
librecad:_ZN32RS_ActionDrawLineParallelThrough11qt_metacallEN11QMetaObject4CallEiPPv
librecad:_ZN32RS_ActionDrawLineParallelThrough11qt_metacastEPKc
librecad:_ZN32RS_ActionDrawLineParallelThrough11showOptionsEv
librecad:_ZN32RS_ActionDrawLineParallelThrough12commandEventEP15RS_CommandEvent
librecad:_ZN32RS_ActionDrawLineParallelThrough14mouseMoveEventEP11QMouseEvent
librecad:_ZN32RS_ActionDrawLineParallelThrough15coordinateEventEP18RS_CoordinateEvent
librecad:_ZN32RS_ActionDrawLineParallelThrough16staticMetaObjectE
librecad:_ZN32RS_ActionDrawLineParallelThrough17mouseReleaseEventEP11QMouseEvent
librecad:_ZN32RS_ActionDrawLineParallelThrough17updateMouseCursorEv
librecad:_ZN32RS_ActionDrawLineParallelThrough20getAvailableCommandsEv
librecad:_ZN32RS_ActionDrawLineParallelThrough22updateMouseButtonHintsEv
librecad:_ZN32RS_ActionDrawLineParallelThrough6finishEb
librecad:_ZN32RS_ActionDrawLineParallelThrough7triggerEv
librecad:_ZN32RS_ActionDrawLineParallelThrough9setNumberEi
librecad:_ZN32RS_ActionDrawLineParallelThroughC1ER18RS_EntityContainerR14RS_GraphicView
librecad:_ZN32RS_ActionDrawLineParallelThroughC2ER18RS_EntityContainerR14RS_GraphicView
librecad:_ZN32RS_ActionDrawLineParallelThroughD0Ev
librecad:_ZN32RS_ActionDrawLineParallelThroughD1Ev
librecad:_ZN32RS_ActionDrawLineParallelThroughD2Ev
librecad:_ZN33LC_ActionLayersToggleConstruction11qt_metacallEN11QMetaObject4CallEiPPv
librecad:_ZN33LC_ActionLayersToggleConstruction11qt_metacastEPKc
librecad:_ZN33LC_ActionLayersToggleConstruction16deselectEntitiesEP8RS_Layer
librecad:_ZN33LC_ActionLayersToggleConstruction16staticMetaObjectE
librecad:_ZN33LC_ActionLayersToggleConstruction4initEi
librecad:_ZN33LC_ActionLayersToggleConstruction7triggerEv
librecad:_ZN33LC_ActionLayersToggleConstructionC1ER18RS_EntityContainerR14RS_GraphicViewP8RS_Layer
librecad:_ZN33LC_ActionLayersToggleConstructionC2ER18RS_EntityContainerR14RS_GraphicViewP8RS_Layer
librecad:_ZN33RS_ActionDrawEllipseCenter3Points11qt_metacallEN11QMetaObject4CallEiPPv
librecad:_ZN33RS_ActionDrawEllipseCenter3Points11qt_metacastEPKc
librecad:_ZN33RS_ActionDrawEllipseCenter3Points14mouseMoveEventEP11QMouseEvent
librecad:_ZN33RS_ActionDrawEllipseCenter3Points14preparePreviewEv
librecad:_ZN33RS_ActionDrawEllipseCenter3Points15coordinateEventEP18RS_CoordinateEvent
librecad:_ZN33RS_ActionDrawEllipseCenter3Points16staticMetaObjectE
librecad:_ZN33RS_ActionDrawEllipseCenter3Points17mouseReleaseEventEP11QMouseEvent
librecad:_ZN33RS_ActionDrawEllipseCenter3Points17updateMouseCursorEv
librecad:_ZN33RS_ActionDrawEllipseCenter3Points20getAvailableCommandsEv
librecad:_ZN33RS_ActionDrawEllipseCenter3Points22updateMouseButtonHintsEv
librecad:_ZN33RS_ActionDrawEllipseCenter3Points4initEi
librecad:_ZN33RS_ActionDrawEllipseCenter3Points7triggerEv
librecad:_ZN33RS_ActionDrawEllipseCenter3PointsC1ER18RS_EntityContainerR14RS_GraphicView
librecad:_ZN33RS_ActionDrawEllipseCenter3PointsC2ER18RS_EntityContainerR14RS_GraphicView
librecad:_ZN33RS_ActionDrawEllipseCenter3PointsD0Ev
librecad:_ZN33RS_ActionDrawEllipseCenter3PointsD1Ev
librecad:_ZN33RS_ActionDrawEllipseCenter3PointsD2Ev
librecad:_ZN33RS_ActionToolRegenerateDimensions11qt_metacallEN11QMetaObject4CallEiPPv
librecad:_ZN33RS_ActionToolRegenerateDimensions11qt_metacastEPKc
librecad:_ZN33RS_ActionToolRegenerateDimensions16staticMetaObjectE
librecad:_ZN33RS_ActionToolRegenerateDimensions4initEi
librecad:_ZN33RS_ActionToolRegenerateDimensions7triggerEv
librecad:_ZN33RS_ActionToolRegenerateDimensionsC1ER18RS_EntityContainerR14RS_GraphicView
librecad:_ZN33RS_ActionToolRegenerateDimensionsC2ER18RS_EntityContainerR14RS_GraphicView
librecad:_ZN3DRW8toHexStrB5cxx11Ei
librecad:_ZN3RS214LineWidthToIntENS_9LineWidthE
librecad:_ZN3RS214intToLineWidthEi
librecad:_ZN4dwgR10getPreviewEv
librecad:_ZN4dwgR10processDwgEv
librecad:_ZN4dwgR10testReaderEv
librecad:_ZN4dwgR22createReaderForVersionEN3DRW7VersionEPSt14basic_ifstreamIcSt11char_traitsIcEEPS_
librecad:_ZN4dwgR4readEP13DRW_Interfaceb
librecad:_ZN4dwgR8openFileEPSt14basic_ifstreamIcSt11char_traitsIcEE
librecad:_ZN4dwgR8setDebugEN3DRW10DebugLevelE
librecad:_ZN4dwgRC1EPKc
librecad:_ZN4dwgRC2EPKc
librecad:_ZN4dwgRD1Ev
librecad:_ZN4dwgRD2Ev
librecad:_ZN5dxfRW10processArcEv
librecad:_ZN5dxfRW10processDxfEv
librecad:_ZN5dxfRW10processRayEv
librecad:_ZN5dxfRW10writeAppIdEP9DRW_AppId
librecad:_ZN5dxfRW10writeBlockEP9DRW_Block
librecad:_ZN5dxfRW10writeHatchEP9DRW_Hatch
librecad:_ZN5dxfRW10writeImageEP9DRW_ImageNSt7__cxx1112basic_stringIcSt11char_traitsIcESaIcEEE
librecad:_ZN5dxfRW10writeLayerEP9DRW_Layer
librecad:_ZN5dxfRW10writeMTextEP9DRW_MText
librecad:_ZN5dxfRW10writePointEP9DRW_Point
librecad:_ZN5dxfRW10writeSolidEP9DRW_Solid
librecad:_ZN5dxfRW10writeTraceEP9DRW_Trace
librecad:_ZN5dxfRW10writeVportEP9DRW_Vport
librecad:_ZN5dxfRW10writeXlineEP9DRW_Xline
librecad:_ZN5dxfRW11processLineEv
librecad:_ZN5dxfRW11processTextEv
librecad:_ZN5dxfRW11write3dfaceEP10DRW_3Dface
librecad:_ZN5dxfRW11writeBlocksEv
librecad:_ZN5dxfRW11writeCircleEP10DRW_Circle
librecad:_ZN5dxfRW11writeEntityEP10DRW_Entity
librecad:_ZN5dxfRW11writeInsertEP10DRW_Insert
librecad:_ZN5dxfRW11writeLeaderEP10DRW_Leader
librecad:_ZN5dxfRW11writeSplineEP10DRW_Spline
librecad:_ZN5dxfRW11writeTablesEv
librecad:_ZN5dxfRW12processAppIdEv
librecad:_ZN5dxfRW12processBlockEv
librecad:_ZN5dxfRW12processHatchEv
librecad:_ZN5dxfRW12processImageEv
librecad:_ZN5dxfRW12processLTypeEv
librecad:_ZN5dxfRW12processLayerEv
librecad:_ZN5dxfRW12processMTextEv
librecad:_ZN5dxfRW12processPointEv
librecad:_ZN5dxfRW12processSolidEv
librecad:_ZN5dxfRW12processTraceEv
librecad:_ZN5dxfRW12processXlineEv
librecad:_ZN5dxfRW12writeAppDataERKNSt7__cxx114listINS1_I11DRW_VariantSaIS2_EEESaIS4_EEE
librecad:_ZN5dxfRW12writeEllipseEP11DRW_Ellipse
librecad:_ZN5dxfRW12writeExtDataERKSt6vectorIP11DRW_VariantSaIS2_EE
librecad:_ZN5dxfRW12writeObjectsEv
librecad:_ZN5dxfRW13process3dfaceEv
librecad:_ZN5dxfRW13processBlocksEv
librecad:_ZN5dxfRW13processCircleEv
librecad:_ZN5dxfRW13processHeaderEv
librecad:_ZN5dxfRW13processInsertEv
librecad:_ZN5dxfRW13processLeaderEv
librecad:_ZN5dxfRW13processSplineEv
librecad:_ZN5dxfRW13processTablesEv
librecad:_ZN5dxfRW13processVertexEP12DRW_Polyline
librecad:_ZN5dxfRW13processVportsEv
librecad:_ZN5dxfRW13writeDimstyleEP12DRW_Dimstyle
librecad:_ZN5dxfRW13writeLineTypeEP9DRW_LType
librecad:_ZN5dxfRW13writePolylineEP12DRW_Polyline
librecad:_ZN5dxfRW13writeViewportEP12DRW_Viewport
librecad:_ZN5dxfRW14processEllipseEv
librecad:_ZN5dxfRW14processObjectsEv
librecad:_ZN5dxfRW14writeDimensionEP13DRW_Dimension
librecad:_ZN5dxfRW14writeTextstyleEP13DRW_Textstyle
librecad:_ZN5dxfRW15processDimStyleEv
librecad:_ZN5dxfRW15processEntitiesEb
librecad:_ZN5dxfRW15processImageDefEv
librecad:_ZN5dxfRW15processPolylineEv
librecad:_ZN5dxfRW15processViewportEv
librecad:_ZN5dxfRW15writeLWPolylineEP14DRW_LWPolyline
librecad:_ZN5dxfRW16processDimensionEv
librecad:_ZN5dxfRW16processTextStyleEv
librecad:_ZN5dxfRW16writeBlockRecordENSt7__cxx1112basic_stringIcSt11char_traitsIcESaIcEEE
librecad:_ZN5dxfRW17processLWPolylineEv
librecad:_ZN5dxfRW17writePlotSettingsEP16DRW_PlotSettings
librecad:_ZN5dxfRW19processPlotSettingsEv
librecad:_ZN5dxfRW4readEP13DRW_Interfaceb
librecad:_ZN5dxfRW5writeEP13DRW_InterfaceN3DRW7VersionEb
librecad:_ZN5dxfRW8setDebugEN3DRW10DebugLevelE
librecad:_ZN5dxfRW8setErrorEN3DRW5errorE
librecad:_ZN5dxfRW8toHexStrB5cxx11Ei
librecad:_ZN5dxfRW8writeArcEP7DRW_Arc
librecad:_ZN5dxfRW8writeRayEP7DRW_Ray
librecad:_ZN5dxfRW9writeLineEP8DRW_Line
librecad:_ZN5dxfRW9writeTextEP8DRW_Text
librecad:_ZN5dxfRWC1EPKc
librecad:_ZN5dxfRWC2EPKc
librecad:_ZN5dxfRWD0Ev
librecad:_ZN5dxfRWD1Ev
librecad:_ZN5dxfRWD2Ev
librecad:_ZN6DL_Jww10CreateEnkoEP20DL_CreationInterfaceR9CDataEnko
librecad:_ZN6DL_Jww10CreateMojiEP20DL_CreationInterfaceR9CDataMoji
librecad:_ZN6DL_Jww10addEllipseEP20DL_CreationInterface
librecad:_ZN6DL_Jww10addSettingEP20DL_CreationInterface
librecad:_ZN6DL_Jww10getDimDataEv
librecad:_ZN6DL_Jww10writeAppidER10DL_WriterARKNSt7__cxx1112basic_stringIcSt11char_traitsIcESaIcEEE
librecad:_ZN6DL_Jww10writeBlockER10DL_WriterARK12DL_BlockData
librecad:_ZN6DL_Jww10writeImageER10DL_WriterARK12DL_ImageDataRK13DL_Attributes
librecad:_ZN6DL_Jww10writeLayerER10DL_WriterARK12DL_LayerDataRK13DL_Attributes
librecad:_ZN6DL_Jww10writeMTextER10DL_WriterARK12DL_MTextDataRK13DL_Attributes
librecad:_ZN6DL_Jww10writePointER10DL_WriterARK12DL_PointDataRK13DL_Attributes
librecad:_ZN6DL_Jww10writeStyleER10DL_WriterA
librecad:_ZN6DL_Jww10writeVPortER10DL_WriterA
librecad:_ZN6DL_Jww11CreateBlockEP20DL_CreationInterfaceR10CDataBlock
librecad:_ZN6DL_Jww11CreateSolidEP20DL_CreationInterfaceR10CDataSolid
librecad:_ZN6DL_Jww11addImageDefEP20DL_CreationInterface
librecad:_ZN6DL_Jww11addPolylineEP20DL_CreationInterface
librecad:_ZN6DL_Jww11endSequenceEP20DL_CreationInterface
librecad:_ZN6DL_Jww11writeCircleER10DL_WriterARK13DL_CircleDataRK13DL_Attributes
librecad:_ZN6DL_Jww11writeHatch1ER10DL_WriterARK12DL_HatchDataRK13DL_Attributes
librecad:_ZN6DL_Jww11writeHatch2ER10DL_WriterARK12DL_HatchDataRK13DL_Attributes
librecad:_ZN6DL_Jww11writeHeaderER10DL_WriterA
librecad:_ZN6DL_Jww11writeInsertER10DL_WriterARK13DL_InsertDataRK13DL_Attributes
librecad:_ZN6DL_Jww11writeLeaderER10DL_WriterARK13DL_LeaderDataRK13DL_Attributes
librecad:_ZN6DL_Jww11writeSplineER10DL_WriterARK13DL_SplineDataRK13DL_Attributes
librecad:_ZN6DL_Jww11writeVertexER10DL_WriterARK13DL_VertexData
librecad:_ZN6DL_Jww12CreateSunpouEP20DL_CreationInterfaceR11CDataSunpou
librecad:_ZN6DL_Jww12addDimLinearEP20DL_CreationInterface
librecad:_ZN6DL_Jww12addDimRadialEP20DL_CreationInterface
librecad:_ZN6DL_Jww12writeEllipseER10DL_WriterARK14DL_EllipseDataRK13DL_Attributes
librecad:_ZN6DL_Jww12writeObjectsER10DL_WriterA
librecad:_ZN6DL_Jww13addDimAlignedEP20DL_CreationInterface
librecad:_ZN6DL_Jww13addDimAngularEP20DL_CreationInterface
librecad:_ZN6DL_Jww13checkVariableEPKcN8DL_Codes7versionE
librecad:_ZN6DL_Jww13getLibVersionEPKc
librecad:_ZN6DL_Jww13writeDimStyleER10DL_WriterAddddd
librecad:_ZN6DL_Jww13writeEndBlockER10DL_WriterARKNSt7__cxx1112basic_stringIcSt11char_traitsIcESaIcEEE
librecad:_ZN6DL_Jww13writeImageDefER10DL_WriterAiRK12DL_ImageData
librecad:_ZN6DL_Jww13writeLineTypeER10DL_WriterARK15DL_LineTypeData
librecad:_ZN6DL_Jww13writePolylineER10DL_WriterARK15DL_PolylineDataRK13DL_Attributes
librecad:_ZN6DL_Jww14writeDimLinearER10DL_WriterARK16DL_DimensionDataRK16DL_DimLinearDataRK13DL_Attributes
librecad:_ZN6DL_Jww14writeDimRadialER10DL_WriterARK16DL_DimensionDataRK16DL_DimRadialDataRK13DL_Attributes
librecad:_ZN6DL_Jww14writeHatchEdgeER10DL_WriterARK16DL_HatchEdgeData
librecad:_ZN6DL_Jww15addDimAngular3PEP20DL_CreationInterface
librecad:_ZN6DL_Jww15addDimDiametricEP20DL_CreationInterface
librecad:_ZN6DL_Jww15handleHatchDataEP20DL_CreationInterface
librecad:_ZN6DL_Jww15handleMTextDataEP20DL_CreationInterface
librecad:_ZN6DL_Jww15processJwwGroupEP20DL_CreationInterfaceiPKc
librecad:_ZN6DL_Jww15writeDimAlignedER10DL_WriterARK16DL_DimensionDataRK17DL_DimAlignedDataRK13DL_Attributes
librecad:_ZN6DL_Jww15writeDimAngularER10DL_WriterARK16DL_DimensionDataRK17DL_DimAngularDataRK13DL_Attributes
librecad:_ZN6DL_Jww15writeHatchLoop1ER10DL_WriterARK16DL_HatchLoopData
librecad:_ZN6DL_Jww15writeHatchLoop2ER10DL_WriterARK16DL_HatchLoopData
librecad:_ZN6DL_Jww15writeObjectsEndER10DL_WriterA
librecad:_ZN6DL_Jww16handleLeaderDataEP20DL_CreationInterface
librecad:_ZN6DL_Jww16handleSplineDataEP20DL_CreationInterface
librecad:_ZN6DL_Jww16writeBlockRecordER10DL_WriterA
librecad:_ZN6DL_Jww16writeBlockRecordER10DL_WriterARKNSt7__cxx1112basic_stringIcSt11char_traitsIcESaIcEEE
librecad:_ZN6DL_Jww16writePolylineEndER10DL_WriterA
librecad:_ZN6DL_Jww17writeControlPointER10DL_WriterARK19DL_ControlPointData
librecad:_ZN6DL_Jww17writeDimAngular3PER10DL_WriterARK16DL_DimensionDataRK19DL_DimAngular3PDataRK13DL_Attributes
librecad:_ZN6DL_Jww17writeDimDiametricER10DL_WriterARK16DL_DimensionDataRK19DL_DimDiametricDataRK13DL_Attributes
librecad:_ZN6DL_Jww17writeLeaderVertexER10DL_WriterARK19DL_LeaderVertexData
librecad:_ZN6DL_Jww20handleLWPolylineDataEP20DL_CreationInterface
librecad:_ZN6DL_Jww2inERKNSt7__cxx1112basic_stringIcSt11char_traitsIcESaIcEEEP20DL_CreationInterface
librecad:_ZN6DL_Jww3outEPKcN8DL_Codes7versionE
librecad:_ZN6DL_Jww6addArcEP20DL_CreationInterface
librecad:_ZN6DL_Jww7addLineEP20DL_CreationInterface
librecad:_ZN6DL_Jww7addTextEP20DL_CreationInterface
librecad:_ZN6DL_Jww8addBlockEP20DL_CreationInterface
librecad:_ZN6DL_Jww8addHatchEP20DL_CreationInterface
librecad:_ZN6DL_Jww8addImageEP20DL_CreationInterface
librecad:_ZN6DL_Jww8addLayerEP20DL_CreationInterface
librecad:_ZN6DL_Jww8addMTextEP20DL_CreationInterface
librecad:_ZN6DL_Jww8addPointEP20DL_CreationInterface
librecad:_ZN6DL_Jww8addSolidEP20DL_CreationInterface
librecad:_ZN6DL_Jww8addTraceEP20DL_CreationInterface
librecad:_ZN6DL_Jww8endBlockEP20DL_CreationInterface
librecad:_ZN6DL_Jww8writeArcER10DL_WriterARK10DL_ArcDataRK13DL_Attributes
librecad:_ZN6DL_Jww8writeUcsER10DL_WriterA
librecad:_ZN6DL_Jww9CreateSenEP20DL_CreationInterfaceR8CDataSen
librecad:_ZN6DL_Jww9CreateTenEP20DL_CreationInterfaceR8CDataTen
librecad:_ZN6DL_Jww9addAttribEP20DL_CreationInterface
librecad:_ZN6DL_Jww9addCircleEP20DL_CreationInterface
librecad:_ZN6DL_Jww9addInsertEP20DL_CreationInterface
librecad:_ZN6DL_Jww9addLeaderEP20DL_CreationInterface
librecad:_ZN6DL_Jww9addSplineEP20DL_CreationInterface
librecad:_ZN6DL_Jww9addVertexEP20DL_CreationInterface
librecad:_ZN6DL_Jww9endEntityEP20DL_CreationInterface
librecad:_ZN6DL_Jww9writeKnotER10DL_WriterARK11DL_KnotData
librecad:_ZN6DL_Jww9writeLineER10DL_WriterARK11DL_LineDataRK13DL_Attributes
librecad:_ZN6DL_Jww9writeTextER10DL_WriterARK11DL_TextDataRK13DL_Attributes
librecad:_ZN6DL_Jww9writeViewER10DL_WriterA
librecad:_ZN6DL_JwwC1Ev
librecad:_ZN6DL_JwwC2Ev
librecad:_ZN6DL_JwwD1Ev
librecad:_ZN6DL_JwwD2Ev
librecad:_ZN6RS_Arc11drawVisibleEP10RS_PainterP14RS_GraphicViewRd
librecad:_ZN6RS_Arc11prepareTrimERK9RS_VectorRK18RS_VectorSolutions
librecad:_ZN6RS_Arc12createFrom3PERK9RS_VectorS2_S2_
librecad:_ZN6RS_Arc12getTrimPointERK9RS_VectorS2_
librecad:_ZN6RS_Arc12moveEndpointERK9RS_Vector
librecad:_ZN6RS_Arc12trimEndpointERK9RS_Vector
librecad:_ZN6RS_Arc13correctAnglesEv
librecad:_ZN6RS_Arc14moveStartpointERK9RS_Vector
librecad:_ZN6RS_Arc14trimStartpointERK9RS_Vector
librecad:_ZN6RS_Arc15revertDirectionEv
librecad:_ZN6RS_Arc16calculateBordersEv
librecad:_ZN6RS_Arc17createFrom2PBulgeERK9RS_VectorS2_d
librecad:_ZN6RS_Arc26createFrom2PDirectionAngleERK9RS_VectorS2_dd
librecad:_ZN6RS_Arc27createFrom2PDirectionRadiusERK9RS_VectorS2_dd
librecad:_ZN6RS_Arc4drawEP10RS_PainterP14RS_GraphicViewRd
librecad:_ZN6RS_Arc4moveERK9RS_Vector
librecad:_ZN6RS_Arc5scaleERK9RS_VectorS2_
librecad:_ZN6RS_Arc5shearEd
librecad:_ZN6RS_Arc6mirrorERK9RS_VectorS2_
librecad:_ZN6RS_Arc6offsetERK9RS_VectorRKd
librecad:_ZN6RS_Arc6rotateERK9RS_VectorRKd
librecad:_ZN6RS_Arc6rotateERK9RS_VectorS2_
librecad:_ZN6RS_Arc7moveRefERK9RS_VectorS2_
librecad:_ZN6RS_Arc7reverseEv
librecad:_ZN6RS_Arc7stretchERK9RS_VectorS2_S2_
librecad:_ZN6RS_ArcC1EP18RS_EntityContainerRK10RS_ArcData
librecad:_ZN6RS_ArcC2EP18RS_EntityContainerRK10RS_ArcData
librecad:_ZN7DRW_Arc14applyExtrusionEv
librecad:_ZN7DRW_Arc8parseDwgEN3DRW7VersionEP9dwgBufferj
librecad:_ZN7DRW_Arc9parseCodeEiP9dxfReader
librecad:_ZN7DRW_Ray8parseDwgEN3DRW7VersionEP9dwgBufferj
librecad:_ZN7DRW_dbg11getInstanceEv
librecad:_ZN7DRW_dbg21setCustomDebugPrinterESt10unique_ptrIN3DRW12DebugPrinterESt14default_deleteIS2_EE
librecad:_ZN7DRW_dbg5printERKNSt7__cxx1112basic_stringIcSt11char_traitsIcESaIcEEE
librecad:_ZN7DRW_dbg5printEa
librecad:_ZN7DRW_dbg5printEd
librecad:_ZN7DRW_dbg5printEh
librecad:_ZN7DRW_dbg5printEi
librecad:_ZN7DRW_dbg5printEj
librecad:_ZN7DRW_dbg5printEm
librecad:_ZN7DRW_dbg5printEx
librecad:_ZN7DRW_dbg5printEy
librecad:_ZN7DRW_dbg6printBEi
librecad:_ZN7DRW_dbg6printHEx
librecad:_ZN7DRW_dbg7printHLEiii
librecad:_ZN7DRW_dbg7printPTEddd
librecad:_ZN7DRW_dbg8getLevelEv
librecad:_ZN7DRW_dbg8instanceE
librecad:_ZN7DRW_dbg8setLevelENS_5LevelE
librecad:_ZN7DRW_dbgC1Ev
librecad:_ZN7DRW_dbgC2Ev
librecad:_ZN7JWWList11GetNoByItemEi
librecad:_ZN7JWWList7AddItemEiRNSt7__cxx1112basic_stringIcSt11char_traitsIcESaIcEEE
librecad:_ZN7JWWList7GetItemEi
librecad:_ZN7JWWList8GetCountEv
librecad:_ZN7JWWListC1Ev
librecad:_ZN7JWWListC2Ev
librecad:_ZN7JWWListD1Ev
librecad:_ZN7JWWListD2Ev
librecad:_ZN7RS_Font10findLetterERK7QString
librecad:_ZN7RS_Font15generateLffFontERK7QString
librecad:_ZN7RS_Font16generateAllFontsEv
librecad:_ZN7RS_Font7readCXFE7QString
librecad:_ZN7RS_Font7readLFFE7QString
librecad:_ZN7RS_Font8loadFontEv
librecad:_ZN7RS_FontC1ERK7QStringb
librecad:_ZN7RS_FontC2ERK7QStringb
librecad:_ZN7RS_Grid12setIsometricEb
librecad:_ZN7RS_Grid16setCrosshairTypeEN3RS213CrosshairTypeE
librecad:_ZN7RS_Grid16updatePointArrayEv
librecad:_ZN7RS_Grid18getMetricGridWidthERK9RS_Vectorbi
librecad:_ZN7RS_Grid19createIsometricGridERKN2lc3geo4AreaERK9RS_Vector
librecad:_ZN7RS_Grid20createOrthogonalGridERKN2lc3geo4AreaERK9RS_Vector
librecad:_ZN7RS_Grid20getImperialGridWidthERK9RS_Vectorbi
librecad:_ZN7RS_GridC1EP14RS_GraphicView
librecad:_ZN7RS_GridC2EP14RS_GraphicView
librecad:_ZN7RS_Line11prepareTrimERK9RS_VectorRK18RS_VectorSolutions
librecad:_ZN7RS_Line12drawInfiniteER10RS_PainterR14RS_GraphicView
librecad:_ZN7RS_Line12getTrimPointERK9RS_VectorS2_
librecad:_ZN7RS_Line12moveEndpointERK9RS_Vector
librecad:_ZN7RS_Line14moveStartpointERK9RS_Vector
librecad:_ZN7RS_Line15revertDirectionEv
librecad:_ZN7RS_Line16calculateBordersEv
librecad:_ZN7RS_Line24hasEndpointsWithinWindowERK9RS_VectorS2_
librecad:_ZN7RS_Line4drawEP10RS_PainterP14RS_GraphicViewRd
librecad:_ZN7RS_Line4moveERK9RS_Vector
librecad:_ZN7RS_Line5scaleERK9RS_Vector
librecad:_ZN7RS_Line5scaleERK9RS_VectorS2_
librecad:_ZN7RS_Line5shearEd
librecad:_ZN7RS_Line6mirrorERK9RS_VectorS2_
librecad:_ZN7RS_Line6offsetERK9RS_VectorRKd
librecad:_ZN7RS_Line6rotateERK9RS_VectorRKd
librecad:_ZN7RS_Line6rotateERK9RS_VectorS2_
librecad:_ZN7RS_Line6rotateERKd
librecad:_ZN7RS_Line7moveRefERK9RS_VectorS2_
librecad:_ZN7RS_Line7reverseEv
librecad:_ZN7RS_Line7stretchERK9RS_VectorS2_S2_
librecad:_ZN7RS_LineC1EP18RS_EntityContainerRK11RS_LineData
librecad:_ZN7RS_LineC1EP18RS_EntityContainerRK9RS_VectorS4_
librecad:_ZN7RS_LineC1ERK9RS_VectorS2_
librecad:_ZN7RS_LineC2EP18RS_EntityContainerRK11RS_LineData
librecad:_ZN7RS_LineC2EP18RS_EntityContainerRK9RS_VectorS4_
librecad:_ZN7RS_LineC2ERK9RS_VectorS2_
librecad:_ZN7RS_Math11cubicSolverERKSt6vectorIdSaIdEE
librecad:_ZN7RS_Math12convert_unitERK23QRegularExpressionMatchRK7QStringdd
librecad:_ZN7RS_Math12correctAngleEd
librecad:_ZN7RS_Math12linearSolverERKSt6vectorIS0_IdSaIdEESaIS2_EERS2_
librecad:_ZN7RS_Math13correctAngle2Ed
librecad:_ZN7RS_Math13correctAngle3Ed
librecad:_ZN7RS_Math13correctAngleUEd
librecad:_ZN7RS_Math13derationalizeERK7QString
librecad:_ZN7RS_Math13quarticSolverERKSt6vectorIdSaIdEE
librecad:_ZN7RS_Math14doubleToStringEdd
librecad:_ZN7RS_Math14doubleToStringEdi
librecad:_ZN7RS_Math14isAngleBetweenEdddb
librecad:_ZN7RS_Math15isAngleReadableEd
librecad:_ZN7RS_Math15isSameDirectionEddd
librecad:_ZN7RS_Math15quadraticSolverERKSt6vectorIdSaIdEE
librecad:_ZN7RS_Math17makeAngleReadableEdbPb
librecad:_ZN7RS_Math17quarticSolverFullERKSt6vectorIdSaIdEE
librecad:_ZN7RS_Math18ellipticIntegral_2ERKdS1_
librecad:_ZN7RS_Math18getAngleDifferenceEddb
librecad:_ZN7RS_Math19getAngleDifferenceUEdd
librecad:_ZN7RS_Math27simultaneousQuadraticSolverERKSt6vectorIdSaIdEE
librecad:_ZN7RS_Math27simultaneousQuadraticVerifyERKSt6vectorIS0_IdSaIdEESaIS2_EER9RS_Vector
librecad:_ZN7RS_Math31simultaneousQuadraticSolverFullERKSt6vectorIS0_IdSaIdEESaIS2_EE
librecad:_ZN7RS_Math32simultaneousQuadraticSolverMixedERKSt6vectorIS0_IdSaIdEESaIS2_EE
librecad:_ZN7RS_Math3powERK9RS_Vectord
librecad:_ZN7RS_Math3powEdd
librecad:_ZN7RS_Math4evalERK7QStringPb
librecad:_ZN7RS_Math4evalERK7QStringd
librecad:_ZN7RS_Math4testEv
librecad:_ZN7RS_Math5equalEdd
librecad:_ZN7RS_Math5roundEd
librecad:_ZN7RS_Math5roundEdd
librecad:_ZN7RS_Math7deg2radEd
librecad:_ZN7RS_Math7findGCDEjj
librecad:_ZN7RS_Math7gra2radEd
librecad:_ZN7RS_Math7rad2degEd
librecad:_ZN7RS_Math7rad2graEd
librecad:_ZN7RS_Text12getAlignmentEv
librecad:_ZN7RS_Text12setAlignmentEi
librecad:_ZN7RS_Text16getNumberOfLinesEv
librecad:_ZN7RS_Text24hasEndpointsWithinWindowERK9RS_VectorS2_
librecad:_ZN7RS_Text4drawEP10RS_PainterP14RS_GraphicViewRd
librecad:_ZN7RS_Text4moveERK9RS_Vector
librecad:_ZN7RS_Text5scaleERK9RS_VectorS2_
librecad:_ZN7RS_Text6mirrorERK9RS_VectorS2_
librecad:_ZN7RS_Text6rotateERK9RS_VectorRKd
librecad:_ZN7RS_Text6rotateERK9RS_VectorS2_
librecad:_ZN7RS_Text6updateEv
librecad:_ZN7RS_Text7setTextERK7QString
librecad:_ZN7RS_Text7stretchERK9RS_VectorS2_S2_
librecad:_ZN7RS_TextC1EP18RS_EntityContainerRK11RS_TextData
librecad:_ZN7RS_TextC2EP18RS_EntityContainerRK11RS_TextData
librecad:_ZN7RS_Undo11addUndoableEP11RS_Undoable
librecad:_ZN7RS_Undo11hasUndoableEv
librecad:_ZN7RS_Undo12addUndoCycleERKSt10shared_ptrI12RS_UndoCycleE
librecad:_ZN7RS_Undo12endUndoCycleEv
librecad:_ZN7RS_Undo14startUndoCycleEv
librecad:_ZN7RS_Undo15countRedoCyclesEv
librecad:_ZN7RS_Undo15countUndoCyclesEv
librecad:_ZN7RS_Undo4redoEv
librecad:_ZN7RS_Undo4undoEv
librecad:_ZN7RScodec10RSgen_polyEv
librecad:_ZN7RScodec10calcDecodeEPhPiPS1_S1_S1_S1_S1_S1_S1_S1_S1_S1_i
librecad:_ZN7RScodec13RSgenerate_gfEj
librecad:_ZN7RScodec6decodeEPh
librecad:_ZN7RScodec6encodeEPhS0_
librecad:_ZN7RScodecC1Ejii
librecad:_ZN7RScodecC2Ejii
librecad:_ZN7RScodecD1Ev
librecad:_ZN7RScodecD2Ev
librecad:_ZN7Sorting12byObjectNameEP12QActionGroupS1_
librecad:_ZN7Sorting13byWindowTitleEP7QWidgetS1_
librecad:_ZN7convLTW12intColor2strEi
librecad:_ZN7convLTW6lt2strEN3RS28LineTypeE
librecad:_ZN7convLTW6lw2strEN3RS29LineWidthE
librecad:_ZN7convLTW6str2ltE7QString
librecad:_ZN7convLTW6str2lwE7QString
librecad:_ZN7convLTWC1Ev
librecad:_ZN7convLTWC2Ev
librecad:_ZN7secEnum7getEnumERKNSt7__cxx1112basic_stringIcSt11char_traitsIcESaIcEEE
librecad:_ZN8DRW_Line8parseDwgEN3DRW7VersionEP9dwgBufferj
librecad:_ZN8DRW_Line9parseCodeEiP9dxfReader
librecad:_ZN8DRW_Text8parseDwgEN3DRW7VersionEP9dwgBufferj
librecad:_ZN8DRW_Text9parseCodeEiP9dxfReader
librecad:_ZN8LinkList11qt_metacallEN11QMetaObject4CallEiPPv
librecad:_ZN8LinkList11qt_metacastEPKc
librecad:_ZN8LinkList11showWebPageEP15QListWidgetItem
librecad:_ZN8LinkList16staticMetaObjectE
librecad:_ZN8LinkList7addLinkERK7QStringS2_
librecad:_ZN8LinkListC1EP7QWidget
librecad:_ZN8LinkListC2EP7QWidget
librecad:_ZN8RS_Block11setModifiedEb
librecad:_ZN8RS_Block12getBlockListEv
librecad:_ZN8RS_Block12getLayerListEv
librecad:_ZN8RS_Block16findNestedInsertERK7QString
librecad:_ZN8RS_Block18visibleInBlockListEb
librecad:_ZN8RS_Block4saveEb
librecad:_ZN8RS_Block6saveAsERK7QStringN3RS210FormatTypeEb
librecad:_ZN8RS_BlockC1EP18RS_EntityContainerRK12RS_BlockData
librecad:_ZN8RS_BlockC2EP18RS_EntityContainerRK12RS_BlockData
librecad:_ZN8RS_Color12fromIntColorEi
librecad:_ZN8RS_Debug12printUnicodeERK7QString
librecad:_ZN8RS_Debug3LogENS_13RS_DebugLevelE
librecad:_ZN8RS_Debug5printENS_13RS_DebugLevelEPKcz
librecad:_ZN8RS_Debug5printEPKcz
librecad:_ZN8RS_Debug5printERK7QString
librecad:_ZN8RS_Debug8getLevelEv
librecad:_ZN8RS_Debug8instanceEv
librecad:_ZN8RS_Debug8setLevelENS_13RS_DebugLevelE
librecad:_ZN8RS_Debug9LogStreamC1ENS_13RS_DebugLevelE
librecad:_ZN8RS_Debug9LogStreamC2ENS_13RS_DebugLevelE
librecad:_ZN8RS_Debug9LogStreamD0Ev
librecad:_ZN8RS_Debug9LogStreamD1Ev
librecad:_ZN8RS_Debug9LogStreamD2Ev
librecad:_ZN8RS_Debug9LogStreamclENS_13RS_DebugLevelE
librecad:_ZN8RS_Debug9LogStreamlsE11QStringView
librecad:_ZN8RS_Debug9LogStreamlsE13QLatin1String
librecad:_ZN8RS_Debug9LogStreamlsE5QChar
librecad:_ZN8RS_Debug9LogStreamlsEDs
librecad:_ZN8RS_Debug9LogStreamlsEPKc
librecad:_ZN8RS_Debug9LogStreamlsEPKv
librecad:_ZN8RS_Debug9LogStreamlsERK10QByteArray
librecad:_ZN8RS_Debug9LogStreamlsERK7QString
librecad:_ZN8RS_Debug9LogStreamlsEc
librecad:_ZN8RS_Debug9LogStreamlsEd
librecad:_ZN8RS_Debug9LogStreamlsEf
librecad:_ZN8RS_Debug9LogStreamlsEi
librecad:_ZN8RS_Debug9LogStreamlsEj
librecad:_ZN8RS_Debug9LogStreamlsEl
librecad:_ZN8RS_Debug9LogStreamlsEm
librecad:_ZN8RS_Debug9LogStreamlsEs
librecad:_ZN8RS_Debug9LogStreamlsEt
librecad:_ZN8RS_Debug9LogStreamlsEx
librecad:_ZN8RS_Debug9LogStreamlsEy
librecad:_ZN8RS_Debug9timestampEv
librecad:_ZN8RS_DebugC1Ev
librecad:_ZN8RS_DebugC2Ev
librecad:_ZN8RS_DebugD1Ev
librecad:_ZN8RS_DebugD2Ev
librecad:_ZN8RS_Flags10resetFlagsEv
librecad:_ZN8RS_Flags10toggleFlagEj
librecad:_ZN8RS_Flags7delFlagEj
librecad:_ZN8RS_Flags7setFlagEj
librecad:_ZN8RS_Flags8setFlagsEj
librecad:_ZN8RS_FlagsC1Ej
librecad:_ZN8RS_FlagsC2Ej
librecad:_ZN8RS_Hatch12getTotalAreaEv
librecad:_ZN8RS_Hatch15activateContourEb
librecad:_ZN8RS_Hatch16calculateBordersEv
librecad:_ZN8RS_Hatch16getTotalAreaImplEv
librecad:_ZN8RS_Hatch4drawEP10RS_PainterP14RS_GraphicViewRd
librecad:_ZN8RS_Hatch4moveERK9RS_Vector
librecad:_ZN8RS_Hatch5scaleERK9RS_VectorS2_
librecad:_ZN8RS_Hatch6mirrorERK9RS_VectorS2_
librecad:_ZN8RS_Hatch6rotateERK9RS_VectorRKd
librecad:_ZN8RS_Hatch6rotateERK9RS_VectorS2_
librecad:_ZN8RS_Hatch6updateEv
librecad:_ZN8RS_Hatch7stretchERK9RS_VectorS2_S2_
librecad:_ZN8RS_Hatch8validateEv
librecad:_ZN8RS_HatchC1EP18RS_EntityContainerRK12RS_HatchData
librecad:_ZN8RS_HatchC2EP18RS_EntityContainerRK12RS_HatchData
librecad:_ZN8RS_Image10updateDataE9RS_VectorS0_S0_
librecad:_ZN8RS_Image16calculateBordersEv
librecad:_ZN8RS_Image4drawEP10RS_PainterP14RS_GraphicViewRd
librecad:_ZN8RS_Image4moveERK9RS_Vector
librecad:_ZN8RS_Image5scaleERK9RS_VectorS2_
librecad:_ZN8RS_Image6mirrorERK9RS_VectorS2_
librecad:_ZN8RS_Image6rotateERK9RS_VectorRKd
librecad:_ZN8RS_Image6rotateERK9RS_VectorS2_
librecad:_ZN8RS_Image6updateEv
librecad:_ZN8RS_ImageC1EP18RS_EntityContainerRK12RS_ImageData
librecad:_ZN8RS_ImageC2EP18RS_EntityContainerRK12RS_ImageData
librecad:_ZN8RS_Layer10toggleLockEv
librecad:_ZN8RS_Layer11togglePrintEv
librecad:_ZN8RS_Layer12setConvertedEb
librecad:_ZN8RS_Layer15setConstructionEb
librecad:_ZN8RS_Layer18toggleConstructionEv
librecad:_ZN8RS_Layer18visibleInLayerListEb
librecad:_ZN8RS_Layer19selectedInLayerListEb
librecad:_ZN8RS_Layer4lockEb
librecad:_ZN8RS_Layer6freezeEb
librecad:_ZN8RS_Layer6setPenERK6RS_Pen
librecad:_ZN8RS_Layer6toggleEv
librecad:_ZN8RS_Layer7setNameERK7QString
librecad:_ZN8RS_Layer8setPrintEb
librecad:_ZN8RS_LayerC1ERK7QString
librecad:_ZN8RS_LayerC2ERK7QString
librecad:_ZN8RS_MText12getAlignmentEv
librecad:_ZN8RS_MText12setAlignmentEi
librecad:_ZN8RS_MText13updateAddLineEP18RS_EntityContaineri
librecad:_ZN8RS_MText15alignVerticallyEv
librecad:_ZN8RS_MText16createUpperLowerE7QStringRK12RS_MTextDataRK9RS_Vector
librecad:_ZN8RS_MText16getNumberOfLinesEv
librecad:_ZN8RS_MText24hasEndpointsWithinWindowERK9RS_VectorS2_
librecad:_ZN8RS_MText4drawEP10RS_PainterP14RS_GraphicViewRd
librecad:_ZN8RS_MText4moveERK9RS_Vector
librecad:_ZN8RS_MText5scaleERK9RS_VectorS2_
librecad:_ZN8RS_MText6mirrorERK9RS_VectorS2_
librecad:_ZN8RS_MText6rotateERK9RS_VectorRKd
librecad:_ZN8RS_MText6rotateERK9RS_VectorS2_
librecad:_ZN8RS_MText6updateEv
librecad:_ZN8RS_MText7setTextE7QString
librecad:_ZN8RS_MText7stretchERK9RS_VectorS2_S2_
librecad:_ZN8RS_MText9addLetterER18RS_EntityContainer5QCharR7RS_FontRK9RS_VectorRS5_
librecad:_ZN8RS_MTextC1EP18RS_EntityContainerRK12RS_MTextData
librecad:_ZN8RS_MTextC2EP18RS_EntityContainerRK12RS_MTextData
librecad:_ZN8RS_Point14moveStartpointERK9RS_Vector
librecad:_ZN8RS_Point16calculateBordersEv
librecad:_ZN8RS_Point4drawEP10RS_PainterP14RS_GraphicViewRd
librecad:_ZN8RS_Point4moveERK9RS_Vector
librecad:_ZN8RS_Point5scaleERK9RS_VectorS2_
librecad:_ZN8RS_Point5shearEd
librecad:_ZN8RS_Point6mirrorERK9RS_VectorS2_
librecad:_ZN8RS_Point6rotateERK9RS_VectorRKd
librecad:_ZN8RS_Point6rotateERK9RS_VectorS2_
librecad:_ZN8RS_Point6setPosERK9RS_Vector
librecad:_ZN8RS_PointC1EP18RS_EntityContainerRK12RS_PointData
librecad:_ZN8RS_PointC2EP18RS_EntityContainerRK12RS_PointData
librecad:_ZN8RS_Solid10shapeArrowERK9RS_Vectordd
librecad:_ZN8RS_Solid16calculateBordersEv
librecad:_ZN8RS_Solid4drawEP10RS_PainterP14RS_GraphicViewRd
librecad:_ZN8RS_Solid4moveERK9RS_Vector
librecad:_ZN8RS_Solid5scaleERK9RS_VectorS2_
librecad:_ZN8RS_Solid6mirrorERK9RS_VectorS2_
librecad:_ZN8RS_Solid6rotateERK9RS_VectorRKd
librecad:_ZN8RS_Solid6rotateERK9RS_VectorS2_
librecad:_ZN8RS_SolidC1EP18RS_EntityContainerRK12RS_SolidData
librecad:_ZN8RS_SolidC2EP18RS_EntityContainerRK12RS_SolidData
librecad:_ZN8RS_Units10dpiToScaleEdN3RS24UnitE
librecad:_ZN8RS_Units10scaleToDpiEdN3RS24UnitE
librecad:_ZN8RS_Units10unitToSignEN3RS24UnitE
librecad:_ZN8RS_Units11dxfint2unitEi
librecad:_ZN8RS_Units11formatAngleEdN3RS211AngleFormatEi
librecad:_ZN8RS_Units12formatLinearEdN3RS24UnitENS0_12LinearFormatEib
librecad:_ZN8RS_Units12stringToUnitERK7QString
librecad:_ZN8RS_Units12unitToStringEN3RS24UnitEb
librecad:_ZN8RS_Units13formatDecimalEdN3RS24UnitEib
librecad:_ZN8RS_Units13getFactorToMMEN3RS24UnitE
librecad:_ZN8RS_Units16formatFractionalEdN3RS24UnitEib
librecad:_ZN8RS_Units16formatScientificEdN3RS24UnitEib
librecad:_ZN8RS_Units17formatEngineeringEdN3RS24UnitEib
librecad:_ZN8RS_Units17paperFormatToSizeEN3RS211PaperFormatE
librecad:_ZN8RS_Units17paperSizeToFormatERK9RS_Vector
librecad:_ZN8RS_Units19formatArchitecturalEdN3RS24UnitEib
librecad:_ZN8RS_Units19numberToAngleFormatEi
librecad:_ZN8RS_Units19paperFormatToStringEN3RS211PaperFormatE
librecad:_ZN8RS_Units19stringToPaperFormatERK7QString
librecad:_ZN8RS_Units25formatArchitecturalMetricEdN3RS24UnitEib
librecad:_ZN8RS_Units4testEv
librecad:_ZN8RS_Units7convertERK9RS_VectorN3RS24UnitES4_
librecad:_ZN8RS_Units7convertEdN3RS24UnitES1_
librecad:_ZN8RS_Units8isMetricEN3RS24UnitE
librecad:_ZN9DRW_AppId8parseDwgEN3DRW7VersionEP9dwgBufferj
librecad:_ZN9DRW_Block8parseDwgEN3DRW7VersionEP9dwgBufferj
librecad:_ZN9DRW_Block9parseCodeEiP9dxfReader
librecad:_ZN9DRW_Class5writeEP9dxfWriterN3DRW7VersionE
librecad:_ZN9DRW_Class8parseDwgEN3DRW7VersionEP9dwgBufferS3_
librecad:_ZN9DRW_Class9toDwgTypeEv
librecad:_ZN9DRW_Hatch8parseDwgEN3DRW7VersionEP9dwgBufferj
librecad:_ZN9DRW_Hatch9parseCodeEiP9dxfReader
librecad:_ZN9DRW_Image8parseDwgEN3DRW7VersionEP9dwgBufferj
librecad:_ZN9DRW_Image9parseCodeEiP9dxfReader
librecad:_ZN9DRW_LType6updateEv
librecad:_ZN9DRW_LType8parseDwgEN3DRW7VersionEP9dwgBufferj
librecad:_ZN9DRW_LType9parseCodeEiP9dxfReader
librecad:_ZN9DRW_Layer8parseDwgEN3DRW7VersionEP9dwgBufferj
librecad:_ZN9DRW_Layer9parseCodeEiP9dxfReader
librecad:_ZN9DRW_MText11updateAngleEv
librecad:_ZN9DRW_MText8parseDwgEN3DRW7VersionEP9dwgBufferj
librecad:_ZN9DRW_MText9parseCodeEiP9dxfReader
librecad:_ZN9DRW_Point8parseDwgEN3DRW7VersionEP9dwgBufferj
librecad:_ZN9DRW_Point9parseCodeEiP9dxfReader
librecad:_ZN9DRW_Solid8parseDwgEN3DRW7VersionEP9dwgBufferj
librecad:_ZN9DRW_Trace14applyExtrusionEv
librecad:_ZN9DRW_Trace8parseDwgEN3DRW7VersionEP9dwgBufferj
librecad:_ZN9DRW_Trace9parseCodeEiP9dxfReader
librecad:_ZN9DRW_Vport8parseDwgEN3DRW7VersionEP9dwgBufferj
librecad:_ZN9DRW_Vport9parseCodeEiP9dxfReader
librecad:_ZN9LC_DimArc13calcDimensionEv
librecad:_ZN9LC_DimArc14truncateVectorE9RS_Vector
librecad:_ZN9LC_DimArc16getMeasuredLabelEv
librecad:_ZN9LC_DimArc4moveERK9RS_Vector
librecad:_ZN9LC_DimArc5arrowERK9RS_VectorddRK6RS_Pen
librecad:_ZN9LC_DimArc5scaleERK9RS_VectorS2_
librecad:_ZN9LC_DimArc6mirrorERK9RS_VectorS2_
librecad:_ZN9LC_DimArc6rotateERK9RS_VectorRKd
librecad:_ZN9LC_DimArc6rotateERK9RS_VectorS2_
librecad:_ZN9LC_DimArc6updateEv
librecad:_ZN9LC_DimArc9updateDimEb
librecad:_ZN9LC_DimArcC1EP18RS_EntityContainerRK16RS_DimensionDataRK13LC_DimArcData
librecad:_ZN9LC_DimArcC2EP18RS_EntityContainerRK16RS_DimensionDataRK13LC_DimArcData
librecad:_ZN9QG_DlgArc11qt_metacallEN11QMetaObject4CallEiPPv
librecad:_ZN9QG_DlgArc11qt_metacastEPKc
librecad:_ZN9QG_DlgArc14languageChangeEv
librecad:_ZN9QG_DlgArc16staticMetaObjectE
librecad:_ZN9QG_DlgArc6setArcER6RS_Arc
librecad:_ZN9QG_DlgArc9updateArcEv
librecad:_ZN9QG_DlgArcC1EP7QWidgetb6QFlagsIN2Qt10WindowTypeEE
librecad:_ZN9QG_DlgArcC2EP7QWidgetb6QFlagsIN2Qt10WindowTypeEE
librecad:_ZN9RS_Circle10createTan2ERKSt6vectorIP15RS_AtomicEntitySaIS2_EEd
librecad:_ZN9RS_Circle10createTan3ERKSt6vectorIP15RS_AtomicEntitySaIS2_EE
librecad:_ZN9RS_Circle12createFrom2PERK9RS_VectorS2_
librecad:_ZN9RS_Circle12createFrom3PERK18RS_VectorSolutions
librecad:_ZN9RS_Circle12createFrom3PERK9RS_VectorS2_S2_
librecad:_ZN9RS_Circle12createFromCRERK9RS_Vectord
librecad:_ZN9RS_Circle13createTan1_2PEPK15RS_AtomicEntityRKSt6vectorI9RS_VectorSaIS4_EE
librecad:_ZN9RS_Circle14createInscribeERK9RS_VectorRKSt6vectorIP7RS_LineSaIS5_EE
librecad:_ZN9RS_Circle16calculateBordersEv
librecad:_ZN9RS_Circle20solveAolloniusSingleERKSt6vectorIS_SaIS_EE
librecad:_ZN9RS_Circle24solveApolloniusHyperbolaERKSt6vectorIS_SaIS_EE
librecad:_ZN9RS_Circle4drawEP10RS_PainterP14RS_GraphicViewRd
librecad:_ZN9RS_Circle4moveERK9RS_Vector
librecad:_ZN9RS_Circle5scaleERK9RS_VectorS2_
librecad:_ZN9RS_Circle5shearEd
librecad:_ZN9RS_Circle6mirrorERK9RS_VectorS2_
librecad:_ZN9RS_Circle6offsetERK9RS_VectorRKd
librecad:_ZN9RS_Circle6rotateERK9RS_VectorRKd
librecad:_ZN9RS_Circle6rotateERK9RS_VectorS2_
librecad:_ZN9RS_Circle7moveRefERK9RS_VectorS2_
librecad:_ZN9RS_Circle9setCenterERK9RS_Vector
librecad:_ZN9RS_Circle9setRadiusEd
librecad:_ZN9RS_CircleC1EP18RS_EntityContainerRK13RS_CircleData
librecad:_ZN9RS_CircleC2EP18RS_EntityContainerRK13RS_CircleData
librecad:_ZN9RS_Entity10setVisibleEb
librecad:_ZN9RS_Entity11moveBordersERK9RS_Vector
librecad:_ZN9RS_Entity11setSelectedEb
librecad:_ZN9RS_Entity12resetBordersEv
librecad:_ZN9RS_Entity12scaleBordersERK9RS_VectorS2_
librecad:_ZN9RS_Entity12setProcessedEb
librecad:_ZN9RS_Entity13delUserDefVarE7QString
librecad:_ZN9RS_Entity13setUserDefVarE7QStringS0_
librecad:_ZN9RS_Entity14getStyleFactorEP14RS_GraphicView
librecad:_ZN9RS_Entity14setHighlightedEb
librecad:_ZN9RS_Entity14setPenToActiveEv
librecad:_ZN9RS_Entity14toggleSelectedEv
librecad:_ZN9RS_Entity16setLayerToActiveEv
librecad:_ZN9RS_Entity16undoStateChangedEb
librecad:_ZN9RS_Entity18addGraphicVariableERK7QStringS2_i
librecad:_ZN9RS_Entity18addGraphicVariableERK7QStringdi
librecad:_ZN9RS_Entity18addGraphicVariableERK7QStringii
librecad:_ZN9RS_Entity24getGraphicVariableDoubleERK7QStringd
librecad:_ZN9RS_Entity4initEv
librecad:_ZN9RS_Entity6initIdEv
librecad:_ZN9RS_Entity7stretchERK9RS_VectorS2_S2_
librecad:_ZN9RS_Entity8setLayerEP8RS_Layer
librecad:_ZN9RS_Entity8setLayerERK7QString
librecad:_ZN9RS_Entity9setRadiusEd
librecad:_ZN9RS_EntityC2EP18RS_EntityContainer
librecad:_ZN9RS_FileIO10fileExportER10RS_GraphicRK7QStringN3RS210FormatTypeE
librecad:_ZN9RS_FileIO10fileImportER10RS_GraphicRK7QStringN3RS210FormatTypeE
librecad:_ZN9RS_FileIO10getFiltersEv
librecad:_ZN9RS_FileIO12detectFormatERK7QStringb
librecad:_ZN9RS_FileIO8instanceEv
librecad:_ZN9RS_Insert4moveERK9RS_Vector
librecad:_ZN9RS_Insert5scaleERK9RS_VectorS2_
librecad:_ZN9RS_Insert6mirrorERK9RS_VectorS2_
librecad:_ZN9RS_Insert6rotateERK9RS_VectorRKd
librecad:_ZN9RS_Insert6rotateERK9RS_VectorS2_
librecad:_ZN9RS_Insert6updateEv
librecad:_ZN9RS_InsertC1EP18RS_EntityContainerRK13RS_InsertData
librecad:_ZN9RS_InsertC2EP18RS_EntityContainerRK13RS_InsertData
librecad:_ZN9RS_Leader4moveERK9RS_Vector
librecad:_ZN9RS_Leader5scaleERK9RS_VectorS2_
librecad:_ZN9RS_Leader6mirrorERK9RS_VectorS2_
librecad:_ZN9RS_Leader6rotateERK9RS_VectorRKd
librecad:_ZN9RS_Leader6rotateERK9RS_VectorS2_
librecad:_ZN9RS_Leader6updateEv
librecad:_ZN9RS_Leader7stretchERK9RS_VectorS2_S2_
librecad:_ZN9RS_Leader9addEntityEP9RS_Entity
librecad:_ZN9RS_Leader9addVertexERK9RS_Vector
librecad:_ZN9RS_LeaderC1EP18RS_EntityContainer
librecad:_ZN9RS_LeaderC1EP18RS_EntityContainerRK13RS_LeaderData
librecad:_ZN9RS_LeaderC2EP18RS_EntityContainer
librecad:_ZN9RS_LeaderC2EP18RS_EntityContainerRK13RS_LeaderData
librecad:_ZN9RS_Locale11toCanonicalERK7QString
librecad:_ZN9RS_Locale12setCanonicalERK7QString
librecad:_ZN9RS_Locale12setDirectionEN3RS219TextLocaleDirectionE
librecad:_ZN9RS_Locale7setNameERK7QString
librecad:_ZN9RS_LocaleC1ERK7QString
librecad:_ZN9RS_LocaleC2ERK7QString
librecad:_ZN9RS_Spline15addControlPointERK9RS_Vector
librecad:_ZN9RS_Spline15revertDirectionEv
librecad:_ZN9RS_Spline16calculateBordersEv
librecad:_ZN9RS_Spline22removeLastControlPointEv
librecad:_ZN9RS_Spline4drawEP10RS_PainterP14RS_GraphicViewRd
librecad:_ZN9RS_Spline4moveERK9RS_Vector
librecad:_ZN9RS_Spline5scaleERK9RS_VectorS2_
librecad:_ZN9RS_Spline5shearEd
librecad:_ZN9RS_Spline6mirrorERK9RS_VectorS2_
librecad:_ZN9RS_Spline6rotateERK9RS_VectorRKd
librecad:_ZN9RS_Spline6rotateERK9RS_VectorS2_
librecad:_ZN9RS_Spline6updateEv
librecad:_ZN9RS_Spline7moveRefERK9RS_VectorS2_
librecad:_ZN9RS_Spline9setClosedEb
librecad:_ZN9RS_Spline9setDegreeEi
librecad:_ZN9RS_SplineC1EP18RS_EntityContainerRK13RS_SplineData
librecad:_ZN9RS_SplineC2EP18RS_EntityContainerRK13RS_SplineData
librecad:_ZN9RS_System11createPathsERK7QString
librecad:_ZN9RS_System11getEncodingERK7QString
librecad:_ZN9RS_System11getFileListERK7QStringS2_
librecad:_ZN9RS_System11localeToISOERK10QByteArray
librecad:_ZN9RS_System13getAppDataDirEv
librecad:_ZN9RS_System15loadTranslationERK7QStringS2_
librecad:_ZN9RS_System16getDirectoryListERK7QString
librecad:_ZN9RS_System16initLanguageListEv
librecad:_ZN9RS_System16languageToSymbolERK7QString
librecad:_ZN9RS_System16symbolToLanguageERK7QString
librecad:_ZN9RS_System20initAllLanguagesListEv
librecad:_ZN9RS_System4initERK7QStringS2_S2_PKc
librecad:_ZN9RS_System4initERK7QStringS2_S2_S2_
librecad:_ZN9RS_System8instanceEv
librecad:_ZN9RS_System9addLocaleEP9RS_Locale
librecad:_ZN9RS_System9checkInitEv
librecad:_ZN9RS_Vector3setEd
librecad:_ZN9RS_Vector3setEddd
librecad:_ZN9RS_Vector4dotPERKS_S1_
librecad:_ZN9RS_Vector4moveERKS_
librecad:_ZN9RS_Vector5polarEdd
librecad:_ZN9RS_Vector5scaleERKS_
librecad:_ZN9RS_Vector5scaleERKS_S1_
librecad:_ZN9RS_Vector5scaleEd
librecad:_ZN9RS_Vector5shearEd
librecad:_ZN9RS_Vector6crossPERKS_S1_
librecad:_ZN9RS_Vector6mirrorERKS_S1_
librecad:_ZN9RS_Vector6rotateERKS_
librecad:_ZN9RS_Vector6rotateERKS_S1_
librecad:_ZN9RS_Vector6rotateERKS_d
librecad:_ZN9RS_Vector6rotateEd
librecad:_ZN9RS_Vector7maximumERKS_S1_
librecad:_ZN9RS_Vector7minimumERKS_S1_
librecad:_ZN9RS_Vector8setPolarEdd
librecad:_ZN9RS_Vector9normalizeEv
librecad:_ZN9RS_Vector9posInLineERKS_S1_S1_
librecad:_ZN9RS_Vector9toIntegerEv
librecad:_ZN9RS_VectorC1ERK7QPointF
librecad:_ZN9RS_VectorC1Eb
librecad:_ZN9RS_VectorC1Ed
librecad:_ZN9RS_VectorC1Eddd
librecad:_ZN9RS_VectorC2ERK7QPointF
librecad:_ZN9RS_VectorC2Eb
librecad:_ZN9RS_VectorC2Ed
librecad:_ZN9RS_VectorC2Eddd
librecad:_ZN9RS_VectordVERKS_
librecad:_ZN9RS_VectordVEd
librecad:_ZN9RS_VectormIERKS_
librecad:_ZN9RS_VectormLERKS_
librecad:_ZN9RS_VectormLEd
librecad:_ZN9RS_VectorpLERKS_
librecad:_ZN9dwgBuffer10get8bitStrB5cxx11Ev
librecad:_ZN9dwgBuffer10getBitLongEv
librecad:_ZN9dwgBuffer10getBoolBitEv
librecad:_ZN9dwgBuffer10getCP8TextB5cxx11Ev
librecad:_ZN9dwgBuffer10getCmColorEN3DRW7VersionE
librecad:_ZN9dwgBuffer10getEnColorEN3DRW7VersionE
librecad:_ZN9dwgBuffer10getObjTypeEN3DRW7VersionE
librecad:_ZN9dwgBuffer10getUCSTextB5cxx11Eb
librecad:_ZN9dwgBuffer10moveBitPosEi
librecad:_ZN9dwgBuffer11get16bitStrB5cxx11Etb
librecad:_ZN9dwgBuffer11getBitShortEv
librecad:_ZN9dwgBuffer11getRawChar8Ev
librecad:_ZN9dwgBuffer11setPositionEy
librecad:_ZN9dwgBuffer12getBitDoubleEv
librecad:_ZN9dwgBuffer12getExtrusionEb
librecad:_ZN9dwgBuffer12getRawDoubleEv
librecad:_ZN9dwgBuffer12getRawLong32Ev
librecad:_ZN9dwgBuffer12getRawLong64Ev
librecad:_ZN9dwgBuffer12getSBitShortEv
librecad:_ZN9dwgBuffer12getThicknessEb
librecad:_ZN9dwgBuffer13get2RawDoubleEv
librecad:_ZN9dwgBuffer13get3BitDoubleEv
librecad:_ZN9dwgBuffer13getRawShort16Ev
librecad:_ZN9dwgBuffer14getBitLongLongEv
librecad:_ZN9dwgBuffer14getModularCharEv
librecad:_ZN9dwgBuffer15getBERawShort16Ev
librecad:_ZN9dwgBuffer15getModularShortEv
librecad:_ZN9dwgBuffer15getOffsetHandleEj
librecad:_ZN9dwgBuffer15getUModularCharEv
librecad:_ZN9dwgBuffer15getVariableTextB5cxx11EN3DRW7VersionEb
librecad:_ZN9dwgBuffer16getDefaultDoubleEd
librecad:_ZN9dwgBuffer4crc8Etii
librecad:_ZN9dwgBuffer5crc32Ejii
librecad:_ZN9dwgBuffer6getBitEv
librecad:_ZN9dwgBuffer8get2BitsEv
librecad:_ZN9dwgBuffer8get3BitsEv
librecad:_ZN9dwgBuffer8getBytesEPhy
librecad:_ZN9dwgBuffer9getHandleEv
librecad:_ZN9dwgBuffer9getUCSStrB5cxx11Et
librecad:_ZN9dwgBuffer9setBitPosEh
librecad:_ZN9dwgBufferC1EPSt14basic_ifstreamIcSt11char_traitsIcEEP13DRW_TextCodec
librecad:_ZN9dwgBufferC1EPhyP13DRW_TextCodec
librecad:_ZN9dwgBufferC1ERKS_
librecad:_ZN9dwgBufferC2EPSt14basic_ifstreamIcSt11char_traitsIcEEP13DRW_TextCodec
librecad:_ZN9dwgBufferC2EPhyP13DRW_TextCodec
librecad:_ZN9dwgBufferC2ERKS_
librecad:_ZN9dwgBufferaSERKS_
librecad:_ZN9dwgReader12parseAttribsEP10DRW_Entity
librecad:_ZN9dwgReader13checkSentinelEP9dwgBufferN7secEnum10DWGSectionEb
librecad:_ZN9dwgReader13findTableNameB5cxx11EN3DRW5TTYPEEi
librecad:_ZN9dwgReader13readDwgBlocksER13DRW_InterfaceP9dwgBuffer
librecad:_ZN9dwgReader13readDwgEntityEP9dwgBufferR9objHandleR13DRW_Interface
librecad:_ZN9dwgReader13readDwgHeaderER10DRW_HeaderP9dwgBufferS3_
librecad:_ZN9dwgReader13readDwgObjectEP9dwgBufferR9objHandleR13DRW_Interface
librecad:_ZN9dwgReader13readDwgTablesER10DRW_HeaderP9dwgBuffer
librecad:_ZN9dwgReader14readDwgHandlesEP9dwgBufferyy
librecad:_ZN9dwgReader14readDwgObjectsER13DRW_InterfaceP9dwgBuffer
librecad:_ZN9dwgReader15readDwgEntitiesER13DRW_InterfaceP9dwgBuffer
librecad:_ZN9dwgReader15readPlineVertexER12DRW_PolylineP9dwgBuffer
librecad:_ZN9dwgReaderD0Ev
librecad:_ZN9dwgReaderD1Ev
librecad:_ZN9dwgReaderD2Ev
librecad:_ZN9dxfReader15getHandleStringEv
librecad:_ZN9dxfReader7readRecEPi
librecad:_ZN9dxfWriter13writeUtf8CapsEiNSt7__cxx1112basic_stringIcSt11char_traitsIcESaIcEEE
librecad:_ZN9dxfWriter15writeUtf8StringEiNSt7__cxx1112basic_stringIcSt11char_traitsIcESaIcEEE
librecad:_ZNK10ActionList10metaObjectEv
librecad:_ZNK10DL_WriterA10openFailedEv
librecad:_ZNK10DL_WriterA5closeEv
librecad:_ZNK10DL_WriterA6dxfHexEii
librecad:_ZNK10DL_WriterA6dxfIntEii
librecad:_ZNK10DL_WriterA7dxfRealEid
librecad:_ZNK10DL_WriterA9dxfStringEiPKc
librecad:_ZNK10DL_WriterA9dxfStringEiRKNSt7__cxx1112basic_stringIcSt11char_traitsIcESaIcEEE
librecad:_ZNK10QG_DlgLine10metaObjectEv
librecad:_ZNK10QG_DlgMove10metaObjectEv
librecad:_ZNK10QG_DlgText10metaObjectEv
librecad:_ZNK10QG_FontBox10metaObjectEv
librecad:_ZNK10QG_FontBox7getFontEv
librecad:_ZNK10RS_ArcData7isValidEv
librecad:_ZNK10RS_Ellipse10isReversedEv
librecad:_ZNK10RS_Ellipse11getEndpointEv
librecad:_ZNK10RS_Ellipse12getQuadraticEv
librecad:_ZNK10RS_Ellipse12getRefPointsEv
librecad:_ZNK10RS_Ellipse13getDirection1Ev
librecad:_ZNK10RS_Ellipse13getDirection2Ev
librecad:_ZNK10RS_Ellipse13getMajorPointEv
librecad:_ZNK10RS_Ellipse13getMinorPointEv
librecad:_ZNK10RS_Ellipse13getStartpointEv
librecad:_ZNK10RS_Ellipse13isEllipticArcEv
librecad:_ZNK10RS_Ellipse14getAngleLengthEv
librecad:_ZNK10RS_Ellipse14getMajorRadiusEv
librecad:_ZNK10RS_Ellipse14getMiddlePointEv
librecad:_ZNK10RS_Ellipse14getMinorRadiusEv
librecad:_ZNK10RS_Ellipse14getNearestDistEdRK9RS_VectorPd
librecad:_ZNK10RS_Ellipse15getEllipseAngleERK9RS_Vector
librecad:_ZNK10RS_Ellipse15getEllipsePointERKd
librecad:_ZNK10RS_Ellipse15getTangentPointERK9RS_Vector
librecad:_ZNK10RS_Ellipse15isPointOnEntityERK9RS_Vectord
librecad:_ZNK10RS_Ellipse16areaLineIntegralEv
librecad:_ZNK10RS_Ellipse16getEllipseLengthEd
librecad:_ZNK10RS_Ellipse16getEllipseLengthEdd
librecad:_ZNK10RS_Ellipse16getNearestCenterERK9RS_VectorPd
librecad:_ZNK10RS_Ellipse16getNearestMiddleERK9RS_VectorPdi
librecad:_ZNK10RS_Ellipse17getNearestOrthTanERK9RS_VectorRK7RS_Lineb
librecad:_ZNK10RS_Ellipse17isVisibleInWindowEP14RS_GraphicView
librecad:_ZNK10RS_Ellipse18getNearestEndpointERK9RS_VectorPd
librecad:_ZNK10RS_Ellipse19getTangentDirectionERK9RS_Vector
librecad:_ZNK10RS_Ellipse20dualLineTangentPointERK9RS_Vector
librecad:_ZNK10RS_Ellipse23getNearestPointOnEntityERK9RS_VectorbPdPP9RS_Entity
librecad:_ZNK10RS_Ellipse5cloneEv
librecad:_ZNK10RS_Ellipse7getDataEv
librecad:_ZNK10RS_Ellipse7getFociEv
librecad:_ZNK10RS_Ellipse8getAngleEv
librecad:_ZNK10RS_Ellipse8getRatioEv
librecad:_ZNK10RS_Ellipse9getAngle1Ev
librecad:_ZNK10RS_Ellipse9getAngle2Ev
librecad:_ZNK10RS_Ellipse9getCenterEv
librecad:_ZNK10RS_Ellipse9getLengthEv
librecad:_ZNK10RS_Ellipse9getMajorPEv
librecad:_ZNK10RS_Graphic13getPaperScaleEv
librecad:_ZNK10RS_Graphic14getVariableIntERK7QStringi
librecad:_ZNK10RS_Graphic15isIsometricGridEv
librecad:_ZNK10RS_Graphic16getCrosshairTypeEv
librecad:_ZNK10RS_Graphic17getVariableDoubleERK7QStringd
librecad:_ZNK10RS_Graphic17getVariableStringERK7QStringS2_
librecad:_ZNK10RS_Graphic17getVariableVectorERK7QStringRK9RS_Vector
librecad:_ZNK10RS_Graphic7getUnitEv
librecad:_ZNK10RS_Graphic8isGridOnEv
librecad:_ZNK10RS_Painter9toScreenXEd
librecad:_ZNK10RS_Painter9toScreenYEd
librecad:_ZNK10RS_Pattern11getFileNameEv
librecad:_ZNK10RS_Pattern5cloneEv
librecad:_ZNK10RS_Snapper11getSnapModeEv
librecad:_ZNK10RS_Snapper12getSnapRangeEv
librecad:_ZNK11ColorWizard10metaObjectEv
librecad:_ZNK11LC_Parabola12getQuadraticEv
librecad:_ZNK11LC_Parabola12getRefPointsEv
librecad:_ZNK11LC_Parabola13getDirection1Ev
librecad:_ZNK11LC_Parabola13getDirection2Ev
librecad:_ZNK11LC_Parabola15getTangentPointERK9RS_Vector
librecad:_ZNK11LC_Parabola17approximateOffsetEd
librecad:_ZNK11LC_Parabola17getNearestOrthTanERK9RS_VectorRK7RS_Lineb
librecad:_ZNK11LC_Parabola17rotateToQuadraticE9RS_Vector
librecad:_ZNK11LC_Parabola19getTangentDirectionERK9RS_Vector
librecad:_ZNK11LC_Parabola20dualLineTangentPointERK9RS_Vector
librecad:_ZNK11LC_Parabola4rttiEv
librecad:_ZNK11LC_Parabola5cloneEv
librecad:_ZNK11MainWindowX10metaObjectEv
librecad:_ZNK11QG_ColorBox10metaObjectEv
librecad:_ZNK11QG_ColorBox11isUnchangedEv
librecad:_ZNK11QG_ColorBox8getColorEv
librecad:_ZNK11QG_DlgHatch10metaObjectEv
librecad:_ZNK11QG_DlgImage10metaObjectEv
librecad:_ZNK11QG_DlgMText10metaObjectEv
librecad:_ZNK11QG_DlgMText19alignmentButtonIdexEP11QToolButton
librecad:_ZNK11QG_DlgPoint10metaObjectEv
librecad:_ZNK11QG_DlgScale10metaObjectEv
librecad:_ZNK11QG_LayerBox10metaObjectEv
librecad:_ZNK11QG_WidthBox10metaObjectEv
librecad:_ZNK11QG_WidthBox11isUnchangedEv
librecad:_ZNK11QG_WidthBox8getWidthEv
librecad:_ZNK11RS_Commands11cmdToActionERK7QStringb
librecad:_ZNK11RS_Commands15keycodeToActionERK7QString
librecad:_ZNK11RS_Commands8completeERK7QString
librecad:_ZNK11RS_Creation9setEntityEP9RS_Entity
librecad:_ZNK11RS_FontList10countFontsEv
librecad:_ZNK11RS_FontList3endEv
librecad:_ZNK11RS_FontList5beginEv
librecad:_ZNK11RS_InfoArea2atEi
librecad:_ZNK11RS_InfoArea7getAreaEv
librecad:_ZNK11RS_Polyline11getEndpointEv
librecad:_ZNK11RS_Polyline12getRefPointsEv
librecad:_ZNK11RS_Polyline13getNearestRefERK9RS_VectorPd
librecad:_ZNK11RS_Polyline13getStartpointEv
librecad:_ZNK11RS_Polyline15getClosingBulgeEv
librecad:_ZNK11RS_Polyline21getNearestSelectedRefERK9RS_VectorPd
librecad:_ZNK11RS_Polyline5cloneEv
librecad:_ZNK11RS_Polyline8isClosedEv
librecad:_ZNK11RS_SnapModeeqERKS_
librecad:_ZNK11RS_SnapModeneERKS_
librecad:_ZNK11RS_Undoable8isUndoneEv
librecad:_ZNK12LC_Hyperbola12getQuadraticEv
librecad:_ZNK12LC_Hyperbola12getRefPointsEv
librecad:_ZNK12LC_Hyperbola15isPointOnEntityERK9RS_Vectord
librecad:_ZNK12LC_Hyperbola5cloneEv
librecad:_ZNK12LC_Hyperbola7getFociEv
librecad:_ZNK12LC_LoopUtils10LoopSorter10getResultsEv
librecad:_ZNK12LC_LoopUtils10LoopSorter13AreaPredicateclEPK18RS_EntityContainerS4_
librecad:_ZNK12LC_LoopUtils13LoopExtractor12getConnectedEv
librecad:_ZNK12LC_LoopUtils13LoopExtractor13findOutermostESt6vectorIP9RS_EntitySaIS3_EE
librecad:_ZNK12LC_LoopUtils13LoopExtractor8findNextEv
librecad:_ZNK12LC_LoopUtils13LoopExtractor8validateEv
librecad:_ZNK12LC_LoopUtils13LoopExtractor9findFirstEv
librecad:_ZNK12LC_PenWizard10metaObjectEv
librecad:_ZNK12LC_Quadratic11isQuadraticEv
librecad:_ZNK12LC_Quadratic12getDualCurveEv
librecad:_ZNK12LC_Quadratic15getCoefficientsEv
librecad:_ZNK12LC_Quadratic6flipXYEv
librecad:_ZNK12LC_Quadratic7getQuadEv
librecad:_ZNK12LC_Quadratic7isValidEv
librecad:_ZNK12LC_Quadratic9constTermEv
librecad:_ZNK12LC_Quadratic9getLinearEv
librecad:_ZNK12LC_QuadraticcvbEv
librecad:_ZNK12LC_QuadraticeqEb
librecad:_ZNK12LC_QuadraticneEb
librecad:_ZNK12PdfPrintLoop10metaObjectEv
librecad:_ZNK12QC_MDIWindow10getGraphicEv
librecad:_ZNK12QC_MDIWindow10metaObjectEv
librecad:_ZNK12QC_MDIWindow11getDocumentEv
librecad:_ZNK12QC_MDIWindow12has_childrenEv
librecad:_ZNK12QC_MDIWindow14getGraphicViewEv
librecad:_ZNK12QC_MDIWindow15getEventHandlerEv
librecad:_ZNK12QC_MDIWindow15getParentWindowEv
librecad:_ZNK12QC_MDIWindow5getIdEv
librecad:_ZNK12QG_DlgCircle10metaObjectEv
librecad:_ZNK12QG_DlgInsert10metaObjectEv
librecad:_ZNK12QG_DlgMirror10metaObjectEv
librecad:_ZNK12QG_DlgRotate10metaObjectEv
librecad:_ZNK12QG_DlgSpline10metaObjectEv
librecad:_ZNK12QG_ScrollBar10metaObjectEv
librecad:_ZNK12QG_WidgetPen10metaObjectEv
librecad:_ZNK12RS_BlockData7isValidEv
librecad:_ZNK12RS_BlockList10isModifiedEv
librecad:_ZNK12RS_BlockList2atEi
librecad:_ZNK12RS_BlockList3endEv
librecad:_ZNK12RS_BlockList5beginEv
librecad:_ZNK12RS_BlockList5countEv
librecad:_ZNK12RS_DimLinear12getRefPointsEv
librecad:_ZNK12RS_DimLinear5cloneEv
librecad:_ZNK12RS_DimRadial12getRefPointsEv
librecad:_ZNK12RS_DimRadial5cloneEv
librecad:_ZNK12RS_Dimension13getNearestRefERK9RS_VectorPd
librecad:_ZNK12RS_Dimension21getNearestSelectedRefERK9RS_VectorPd
librecad:_ZNK12RS_FilterJWW15attributesToPenERK13DL_Attributes
librecad:_ZNK12RS_LayerList3endEv
librecad:_ZNK12RS_LayerList5beginEv
librecad:_ZNK12RS_PainterQt12createSplineERK9RS_SplineRK14RS_GraphicView
librecad:_ZNK12RS_PainterQt18createSplinePointsERK19LC_SplinePointsData
librecad:_ZNK12RS_PainterQt5brushEv
librecad:_ZNK12RS_PainterQt6getPenEv
librecad:_ZNK12RS_PainterQt7getDpmmEv
librecad:_ZNK12RS_PainterQt8getWidthEv
librecad:_ZNK12RS_PainterQt9getHeightEv
librecad:_ZNK12RS_UndoCycle12getUndoablesEv
librecad:_ZNK13ColorComboBox10metaObjectEv
librecad:_ZNK13LC_DockWidget10metaObjectEv
librecad:_ZNK13LC_FlexLayout11minimumSizeEv
librecad:_ZNK13LC_FlexLayout13performLayoutERK5QRectb
librecad:_ZNK13LC_FlexLayout14defaultSpacingEN6QStyle11PixelMetricE
librecad:_ZNK13LC_FlexLayout14heightForWidthEi
librecad:_ZNK13LC_FlexLayout15verticalSpacingEv
librecad:_ZNK13LC_FlexLayout17hasHeightForWidthEv
librecad:_ZNK13LC_FlexLayout17horizontalSpacingEv
librecad:_ZNK13LC_FlexLayout19expandingDirectionsEv
librecad:_ZNK13LC_FlexLayout5countEv
librecad:_ZNK13LC_FlexLayout6itemAtEi
librecad:_ZNK13LC_FlexLayout8sizeHintEv
librecad:_ZNK13LC_FlexLayout9getSpaceXEPK7QWidget
librecad:_ZNK13LC_FlexLayout9getSpaceYEPK7QWidget
librecad:_ZNK13QG_ArcOptions10metaObjectEv
librecad:_ZNK13QG_BlockModel4dataERK11QModelIndexi
librecad:_ZNK13QG_BlockModel5indexEiiRK11QModelIndex
librecad:_ZNK13QG_BlockModel6parentERK11QModelIndex
librecad:_ZNK13QG_BlockModel8rowCountERK11QModelIndex
librecad:_ZNK13QG_DimOptions10metaObjectEv
librecad:_ZNK13QG_DlgEllipse10metaObjectEv
librecad:_ZNK13QG_DlgInitial10metaObjectEv
librecad:_ZNK13QG_DlgRotate210metaObjectEv
librecad:_ZNK13QG_ExitDialog10metaObjectEv
librecad:_ZNK13QG_FileDialog7getTypeERK7QString
librecad:_ZNK13QG_LayerModel4dataERK11QModelIndexi
librecad:_ZNK13QG_LayerModel5indexEiiRK11QModelIndex
librecad:_ZNK13QG_LayerModel6parentERK11QModelIndex
librecad:_ZNK13QG_LayerModel8getIndexEP8RS_Layer
librecad:_ZNK13QG_LayerModel8getLayerEi
librecad:_ZNK13QG_LayerModel8rowCountERK11QModelIndex
librecad:_ZNK13QG_PatternBox10metaObjectEv
librecad:_ZNK13QG_PenToolBar10metaObjectEv
librecad:_ZNK13QG_PenToolBar6getPenEv
librecad:_ZNK13RS_CircleData7isValidEv
librecad:_ZNK13RS_CircleDataeqERKS_
librecad:_ZNK13RS_DimAligned12getRefPointsEv
librecad:_ZNK13RS_DimAligned18getExtensionPoint1Ev
librecad:_ZNK13RS_DimAligned18getExtensionPoint2Ev
librecad:_ZNK13RS_DimAligned5cloneEv
librecad:_ZNK13RS_DimAligned8getEDataEv
librecad:_ZNK13RS_DimAngular5cloneEv
librecad:_ZNK13RS_DimAngular9getCenterEv
librecad:_ZNK13RS_OverlayBox5cloneEv
librecad:_ZNK13WidgetCreator10metaObjectEv
librecad:_ZNK14ComboBoxOption10metaObjectEv
librecad:_ZNK14LC_Application10metaObjectEv
librecad:_ZNK14LC_Application8fileListEv
librecad:_ZNK14LC_DlgParabola10metaObjectEv
librecad:_ZNK14LC_LineOptions10metaObjectEv
librecad:_ZNK14LC_MakerCamSVG10svgPathArcB5cxx11E9RS_Vectordddbb
librecad:_ZNK14LC_MakerCamSVG10svgPathArcB5cxx11EP6RS_Arc
librecad:_ZNK14LC_MakerCamSVG12convertToSvgE9RS_Vector
librecad:_ZNK14LC_MakerCamSVG12svgPathCloseB5cxx11Ev
librecad:_ZNK14LC_MakerCamSVG13svgPathLineToB5cxx11E9RS_Vector
librecad:_ZNK14LC_MakerCamSVG13svgPathMoveToB5cxx11E9RS_Vector
librecad:_ZNK14LC_MakerCamSVG14getLinePatternB5cxx11EP9RS_VectorS0_N3RS28LineTypeEd
librecad:_ZNK14LC_MakerCamSVG14getLineSegmentB5cxx11EP9RS_VectorS0_db
librecad:_ZNK14LC_MakerCamSVG14svgPathCurveToB5cxx11E9RS_VectorS0_S0_
librecad:_ZNK14LC_MakerCamSVG15getPointSegmentB5cxx11EP9RS_VectorS0_d
librecad:_ZNK14LC_MakerCamSVG18svgPathAnyLineTypeB5cxx11E9RS_VectorS0_N3RS28LineTypeE
librecad:_ZNK14LC_MakerCamSVG23svgPathQuadraticCurveToB5cxx11E9RS_VectorS0_
librecad:_ZNK14LC_MakerCamSVG26calcEllipsePointDerivativeEdddd
librecad:_ZNK14LC_MakerCamSVG9lengthXmlB5cxx11Ed
librecad:_ZNK14LC_SimpleTests10metaObjectEv
librecad:_ZNK14LC_StarOptions10metaObjectEv
librecad:_ZNK14LG_DimzerosBox10metaObjectEv
librecad:_ZNK14QG_BlockDialog10metaObjectEv
librecad:_ZNK14QG_BlockWidget10metaObjectEv
librecad:_ZNK14QG_CommandEdit10metaObjectEv
librecad:_ZNK14QG_DlgPolyline10metaObjectEv
librecad:_ZNK14QG_GraphicView10metaObjectEv
librecad:_ZNK14QG_GraphicView16getMousePositionEv
librecad:_ZNK14QG_GraphicView8getWidthEv
librecad:_ZNK14QG_GraphicView9getHeightEv
librecad:_ZNK14QG_GraphicView9isAutoPanEP11QMouseEvent
librecad:_ZNK14QG_LayerDialog10metaObjectEv
librecad:_ZNK14QG_LayerWidget10metaObjectEv
librecad:_ZNK14QG_LayerWidget13getActiveNameEv
librecad:_ZNK14QG_LineOptions10metaObjectEv
librecad:_ZNK14QG_LineTypeBox10metaObjectEv
librecad:_ZNK14QG_MouseWidget10metaObjectEv
librecad:_ZNK14QG_RecentFiles10metaObjectEv
librecad:_ZNK14QG_RecentFiles14saveToSettingsEv
librecad:_ZNK14QG_RecentFiles3getEi
librecad:_ZNK14QG_RecentFiles5countEv
librecad:_ZNK14QG_RecentFiles7indexOfERK7QString
librecad:_ZNK14QG_RecentFiles9getNumberEv
librecad:_ZNK14QG_SnapToolBar10metaObjectEv
librecad:_ZNK14QG_SnapToolBar18lockedRelativeZeroEv
librecad:_ZNK14QG_SnapToolBar8getSnapsEv
librecad:_ZNK14QG_TextOptions10metaObjectEv
librecad:_ZNK14RS_ActionOrder10metaObjectEv
librecad:_ZNK14RS_FilterDXFRW15attributesToPenEPK9DRW_Layer
librecad:_ZNK14RS_FilterDXFRW9lastErrorEv
librecad:_ZNK14RS_GraphicView10getGraphicEv
librecad:_ZNK14RS_GraphicView10getOffsetXEv
librecad:_ZNK14RS_GraphicView10getOffsetYEv
librecad:_ZNK14RS_GraphicView10isPrintingEv
librecad:_ZNK14RS_GraphicView10metaObjectEv
librecad:_ZNK14RS_GraphicView11isDraftModeEv
librecad:_ZNK14RS_GraphicView12getBorderTopEv
librecad:_ZNK14RS_GraphicView12getContainerEv
librecad:_ZNK14RS_GraphicView12isZoomFrozenEv
librecad:_ZNK14RS_GraphicView13getBackgroundEv
librecad:_ZNK14RS_GraphicView13getBorderLeftEv
librecad:_ZNK14RS_GraphicView13getForegroundEv
librecad:_ZNK14RS_GraphicView14getBorderRightEv
librecad:_ZNK14RS_GraphicView14isPrintPreviewEv
librecad:_ZNK14RS_GraphicView15getBorderBottomEv
librecad:_ZNK14RS_GraphicView15getEventHandlerEv
librecad:_ZNK14RS_GraphicView15getRelativeZeroEv
librecad:_ZNK14RS_GraphicView15getTypeToSelectEv
librecad:_ZNK14RS_GraphicView15isGridIsometricEv
librecad:_ZNK14RS_GraphicView16getCrosshairTypeEv
librecad:_ZNK14RS_GraphicView18getDefaultSnapModeEv
librecad:_ZNK14RS_GraphicView18getSnapRestrictionEv
librecad:_ZNK14RS_GraphicView20isRelativeZeroLockedEv
librecad:_ZNK14RS_GraphicView5toGuiERK9RS_Vector
librecad:_ZNK14RS_GraphicView6toGuiXEd
librecad:_ZNK14RS_GraphicView6toGuiYEd
librecad:_ZNK14RS_GraphicView7getGridEv
librecad:_ZNK14RS_GraphicView7toGraphERK7QPointF
librecad:_ZNK14RS_GraphicView7toGraphERK9RS_Vector
librecad:_ZNK14RS_GraphicView7toGraphEii
librecad:_ZNK14RS_GraphicView7toGuiDXEd
librecad:_ZNK14RS_GraphicView7toGuiDYEd
librecad:_ZNK14RS_GraphicView8isGridOnEv
librecad:_ZNK14RS_GraphicView8toGraphXEi
librecad:_ZNK14RS_GraphicView8toGraphYEi
librecad:_ZNK14RS_GraphicView9getFactorEv
librecad:_ZNK14RS_GraphicView9isCleanUpEv
librecad:_ZNK14RS_GraphicView9isPanningEv
librecad:_ZNK14RS_GraphicView9toGraphDXEi
librecad:_ZNK14RS_GraphicView9toGraphDYEi
librecad:_ZNK14RS_Information16getNearestEntityERK9RS_VectorPdN3RS212ResolveLevelE
librecad:_ZNK14RS_Information18getNearestEndpointERK9RS_VectorPd
librecad:_ZNK14RS_Information23getNearestPointOnEntityERK9RS_VectorbPdPP9RS_Entity
librecad:_ZNK14RS_PatternList8containsERK7QString
librecad:_ZNK14TextFileViewer10metaObjectEv
librecad:_ZNK15LC_ActionDimArc10metaObjectEv
librecad:_ZNK15LC_CrossOptions10metaObjectEv
librecad:_ZNK15LC_ParabolaData12getQuadraticEv
librecad:_ZNK15LC_ParabolaData16FromXWithTangentEd
librecad:_ZNK15LC_ParabolaData5FindXERK9RS_Vector
librecad:_ZNK15LC_ParabolaData5FromXEd
librecad:_ZNK15LC_ParabolaData7GetAxisEv
librecad:_ZNK15LC_SplinePoints11getEndpointEv
librecad:_ZNK15LC_SplinePoints12getRefPointsEv
librecad:_ZNK15LC_SplinePoints12mapDataToGuiER14RS_GraphicView
librecad:_ZNK15LC_SplinePoints13GetQuadPointsEiP9RS_VectorS1_S1_
librecad:_ZNK15LC_SplinePoints13getDirection1Ev
librecad:_ZNK15LC_SplinePoints13getDirection2Ev
librecad:_ZNK15LC_SplinePoints13getStartpointEv
librecad:_ZNK15LC_SplinePoints14GetNearestQuadERK9RS_VectorPdS3_
librecad:_ZNK15LC_SplinePoints14getNearestDistEdRK9RS_VectorPd
librecad:_ZNK15LC_SplinePoints14offsetTwoSidesEd
librecad:_ZNK15LC_SplinePoints15getStrokePointsEv
librecad:_ZNK15LC_SplinePoints15getTangentPointERK9RS_Vector
librecad:_ZNK15LC_SplinePoints16getControlPointsEv
librecad:_ZNK15LC_SplinePoints16getNearestMiddleERK9RS_VectorPdi
librecad:_ZNK15LC_SplinePoints17offsetTwoSidesCutERKd
librecad:_ZNK15LC_SplinePoints18getDistanceToPointERK9RS_VectorPP9RS_EntityN3RS212ResolveLevelEd
librecad:_ZNK15LC_SplinePoints18getNearestEndpointERK9RS_VectorPd
librecad:_ZNK15LC_SplinePoints19getTangentDirectionERK9RS_Vector
librecad:_ZNK15LC_SplinePoints20GetSplinePointAtDistEdidPiPd
librecad:_ZNK15LC_SplinePoints20offsetTwoSidesSplineERKd
librecad:_ZNK15LC_SplinePoints23getNearestPointOnEntityERK9RS_VectorbPdPP9RS_Entity
librecad:_ZNK15LC_SplinePoints24getNumberOfControlPointsEv
librecad:_ZNK15LC_SplinePoints4rttiEv
librecad:_ZNK15LC_SplinePoints5cloneEv
librecad:_ZNK15LC_SplinePoints6isEdgeEv
librecad:_ZNK15LC_SplinePoints7getDataEv
librecad:_ZNK15LC_SplinePoints8isClosedEv
librecad:_ZNK15LC_SplinePoints9getLengthEv
librecad:_ZNK15LC_SplinePoints9getPointsEv
librecad:_ZNK15QC_ActionGetEnt10metaObjectEv
librecad:_ZNK15QG_BevelOptions10metaObjectEv
librecad:_ZNK15QG_DlgDimLinear10metaObjectEv
librecad:_ZNK15QG_DlgDimension10metaObjectEv
librecad:_ZNK15QG_ImageOptions10metaObjectEv
librecad:_ZNK15QG_MTextOptions10metaObjectEv
librecad:_ZNK15QG_RoundOptions10metaObjectEv
librecad:_ZNK15RS_ActionSelect10metaObjectEv
librecad:_ZNK15RS_ActionZoomIn10metaObjectEv
librecad:_ZNK15RS_AtomicEntity11getEndpointEv
librecad:_ZNK15RS_AtomicEntity11isContainerEv
librecad:_ZNK15RS_AtomicEntity13getDirection1Ev
librecad:_ZNK15RS_AtomicEntity13getDirection2Ev
librecad:_ZNK15RS_AtomicEntity13getStartpointEv
librecad:_ZNK15RS_AtomicEntity16getNearestCenterERK9RS_VectorPd
librecad:_ZNK15RS_AtomicEntity16updateDashOffsetER10RS_PainterR14RS_GraphicViewRd
librecad:_ZNK15RS_AtomicEntity18isEndpointSelectedEv
librecad:_ZNK15RS_AtomicEntity20isStartpointSelectedEv
librecad:_ZNK15RS_AtomicEntity5countEv
librecad:_ZNK15RS_AtomicEntity8isAtomicEv
librecad:_ZNK15RS_AtomicEntity9countDeepEv
librecad:_ZNK15RS_AtomicEntity9getCenterEv
librecad:_ZNK15RS_AtomicEntity9getRadiusEv
librecad:_ZNK15RS_AtomicEntity9isTangentERK13RS_CircleData
librecad:_ZNK15RS_DimDiametric12getRefPointsEv
librecad:_ZNK15RS_DimDiametric5cloneEv
librecad:_ZNK15RS_EventHandler10metaObjectEv
librecad:_ZNK15RS_EventHandler12debugActionsEv
librecad:_ZNK15RS_EventHandler16getDefaultActionEv
librecad:_ZNK15RS_EventHandler7isValidEP18RS_ActionInterface
librecad:_ZNK15RS_Modification13splitPolylineER11RS_PolylineR9RS_Entity9RS_VectorS3_S4_PPS0_S6_
librecad:_ZNK15RS_VariableDict6getIntERK7QStringi
librecad:_ZNK15RS_VariableDict9getDoubleERK7QStringd
librecad:_ZNK15RS_VariableDict9getStringERK7QStringS2_
librecad:_ZNK15RS_VariableDict9getVectorERK7QStringRK9RS_Vector
librecad:_ZNK16LC_ActionFactory10metaObjectEv
librecad:_ZNK16LC_ActionPenPick10metaObjectEv
librecad:_ZNK16LC_CentralWidget10metaObjectEv
librecad:_ZNK16LC_DeviceOptions10metaObjectEv
librecad:_ZNK16LC_LayerDialogEx10metaObjectEv
librecad:_ZNK16LC_LayerTreeItem10childCountEv
librecad:_ZNK16LC_LayerTreeItem13childCountAllEv
librecad:_ZNK16LC_LayerTreeItem18isPartOfActivePathEv
librecad:_ZNK16LC_LayerTreeItem3rowEv
librecad:_ZNK16LC_LayerTreeItem9isInValidEv
librecad:_ZNK16LC_LayerTreeItem9isVirtualEv
librecad:_ZNK16LC_LayerTreeView12getTreeModelEv
librecad:_ZNK16LC_WidgetFactory10metaObjectEv
librecad:_ZNK16QG_ActionHandler10metaObjectEv
librecad:_ZNK16QG_CircleOptions10metaObjectEv
librecad:_ZNK16QG_CommandWidget10metaObjectEv
librecad:_ZNK16QG_DlgAttributes10metaObjectEv
librecad:_ZNK16QG_DlgMoveRotate10metaObjectEv
librecad:_ZNK16QG_InsertOptions10metaObjectEv
librecad:_ZNK16QG_LibraryWidget10metaObjectEv
librecad:_ZNK16QG_SplineOptions10metaObjectEv
librecad:_ZNK16RS_ActionDefault10metaObjectEv
librecad:_ZNK16RS_ActionDrawArc10isReversedEv
librecad:_ZNK16RS_ActionDrawArc10metaObjectEv
librecad:_ZNK16RS_ActionDrawArc11setReversedEb
librecad:_ZNK16RS_ActionFileNew10metaObjectEv
librecad:_ZNK16RS_ActionZoomPan10metaObjectEv
librecad:_ZNK16TwoStackedLabels10metaObjectEv
librecad:_ZNK17LC_ActionDrawStar10metaObjectEv
librecad:_ZNK17LC_ActionPenApply10metaObjectEv
librecad:_ZNK17LC_LayerTreeModel10metaObjectEv
librecad:_ZNK17LC_LayerTreeModel11columnCountERK11QModelIndex
librecad:_ZNK17LC_LayerTreeModel15getItemForIndexERK11QModelIndex
librecad:_ZNK17LC_LayerTreeModel15getItemForLayerEP8RS_Layer
librecad:_ZNK17LC_LayerTreeModel15renameLayersMapERK5QHashIP8RS_Layer7QStringE
librecad:_ZNK17LC_LayerTreeModel15translateColumnEi
librecad:_ZNK17LC_LayerTreeModel16cleanupLayerNameER7QString
librecad:_ZNK17LC_LayerTreeModel18isValidRestructureEP16LC_LayerTreeItemS1_
librecad:_ZNK17LC_LayerTreeModel4dataERK11QModelIndexi
librecad:_ZNK17LC_LayerTreeModel5flagsERK11QModelIndex
librecad:_ZNK17LC_LayerTreeModel5indexEiiRK11QModelIndex
librecad:_ZNK17LC_LayerTreeModel6parentERK11QModelIndex
librecad:_ZNK17LC_LayerTreeModel8rowCountERK11QModelIndex
librecad:_ZNK17LC_PenPaletteData10metaObjectEv
librecad:_ZNK17QC_ActionGetPoint10metaObjectEv
librecad:_ZNK17QG_CommandHistory10metaObjectEv
librecad:_ZNK17RS_ActionDrawLine10metaObjectEv
librecad:_ZNK17RS_ActionDrawText10metaObjectEv
librecad:_ZNK17RS_ActionDrawText7getTextEv
librecad:_ZNK17RS_ActionDrawText8getAngleEv
librecad:_ZNK17RS_ActionEditCopy10metaObjectEv
librecad:_ZNK17RS_ActionEditUndo10metaObjectEv
librecad:_ZNK17RS_ActionFileOpen10metaObjectEv
librecad:_ZNK17RS_ActionFileSave10metaObjectEv
librecad:_ZNK17RS_ActionInfoArea10metaObjectEv
librecad:_ZNK17RS_ActionInfoDist10metaObjectEv
librecad:_ZNK17RS_ActionZoomAuto10metaObjectEv
librecad:_ZNK18LC_ActionDrawCross10metaObjectEv
librecad:_ZNK18LC_ActionDrawCross20addCrossDataEntitiesER5QListIP9RS_EntityERK12LC_CrossData
librecad:_ZNK18LC_ActionDrawCross24createCrossDataForEntityEP9RS_Entity
librecad:_ZNK18LC_DlgSplinePoints10metaObjectEv
librecad:_ZNK18LC_LayerTreeWidget10metaObjectEv
librecad:_ZNK18LC_LineJoinOptions10metaObjectEv
librecad:_ZNK18LC_PenInfoRegistry12getColorIconERK8RS_Colorii
librecad:_ZNK18LC_PenInfoRegistry12getColorNameERK8RS_Colori
librecad:_ZNK18LC_PenInfoRegistry15getLineTypeIconEN3RS28LineTypeE
librecad:_ZNK18LC_PenInfoRegistry15getLineTypeTextEN3RS28LineTypeE
librecad:_ZNK18LC_PenInfoRegistry16getLineWidthIconEN3RS29LineWidthE
librecad:_ZNK18LC_PenInfoRegistry16getLineWidthTextEN3RS29LineWidthE
librecad:_ZNK18LC_PenPaletteModel10metaObjectEv
librecad:_ZNK18LC_PenPaletteModel11columnCountERK11QModelIndex
librecad:_ZNK18LC_PenPaletteModel12getActivePenEv
librecad:_ZNK18LC_PenPaletteModel15translateColumnEi
librecad:_ZNK18LC_PenPaletteModel4dataERK11QModelIndexi
librecad:_ZNK18LC_PenPaletteModel5flagsERK11QModelIndex
librecad:_ZNK18LC_PenPaletteModel5indexEiiRK11QModelIndex
librecad:_ZNK18LC_PenPaletteModel6getPenEi
librecad:_ZNK18LC_PenPaletteModel6parentERK11QModelIndex
librecad:_ZNK18LC_PenPaletteModel8rowCountERK11QModelIndex
librecad:_ZNK18QC_ActionGetSelect10metaObjectEv
librecad:_ZNK18QC_ActionGetSelect11getSelectedEP5QListIP11Plug_EntityEP20Doc_plugin_interface
librecad:_ZNK18QG_ActiveLayerName10metaObjectEv
librecad:_ZNK18QG_PolylineOptions10metaObjectEv
librecad:_ZNK18QG_SelectionWidget10metaObjectEv
librecad:_ZNK18QG_SnapDistOptions10metaObjectEv
librecad:_ZNK18RS_ActionBlocksAdd10metaObjectEv
librecad:_ZNK18RS_ActionDimLeader10metaObjectEv
librecad:_ZNK18RS_ActionDimLinear10metaObjectEv
librecad:_ZNK18RS_ActionDimLinear13hasFixedAngleEv
librecad:_ZNK18RS_ActionDimLinear8getAngleEv
librecad:_ZNK18RS_ActionDimRadial10metaObjectEv
librecad:_ZNK18RS_ActionDimension10metaObjectEv
librecad:_ZNK18RS_ActionDimension11getDiameterEv
librecad:_ZNK18RS_ActionDimension7getTextEv
librecad:_ZNK18RS_ActionDimension7getTol1Ev
librecad:_ZNK18RS_ActionDimension7getTol2Ev
librecad:_ZNK18RS_ActionDimension8getLabelEv
librecad:_ZNK18RS_ActionDrawArc3P10metaObjectEv
librecad:_ZNK18RS_ActionDrawHatch10metaObjectEv
librecad:_ZNK18RS_ActionDrawImage10dpiToScaleEd
librecad:_ZNK18RS_ActionDrawImage10metaObjectEv
librecad:_ZNK18RS_ActionDrawImage10scaleToDpiEd
librecad:_ZNK18RS_ActionDrawImage8getAngleEv
librecad:_ZNK18RS_ActionDrawImage8setAngleEd
librecad:_ZNK18RS_ActionDrawImage9getFactorEv
librecad:_ZNK18RS_ActionDrawImage9setFactorEd
librecad:_ZNK18RS_ActionDrawMText10metaObjectEv
librecad:_ZNK18RS_ActionDrawPoint10metaObjectEv
librecad:_ZNK18RS_ActionEditPaste10metaObjectEv
librecad:_ZNK18RS_ActionInfoAngle10metaObjectEv
librecad:_ZNK18RS_ActionInfoDist210metaObjectEv
librecad:_ZNK18RS_ActionInterface10isFinishedEv
librecad:_ZNK18RS_ActionInterface10metaObjectEv
librecad:_ZNK18RS_ActionInterface21getGraphicVariableIntERK7QStringi
librecad:_ZNK18RS_ActionInterface4rttiEv
librecad:_ZNK18RS_ActionInterface9getStatusEv
librecad:_ZNK18RS_ActionLayersAdd10metaObjectEv
librecad:_ZNK18RS_ActionModifyCut10metaObjectEv
librecad:_ZNK18RS_ActionSelectAll10metaObjectEv
librecad:_ZNK18RS_ActionZoomAutoY10metaObjectEv
librecad:_ZNK18RS_EntityContainer10lastEntityEN3RS212ResolveLevelE
librecad:_ZNK18RS_EntityContainer10nextEntityEN3RS212ResolveLevelE
librecad:_ZNK18RS_EntityContainer10prevEntityEN3RS212ResolveLevelE
librecad:_ZNK18RS_EntityContainer11firstEntityEN3RS212ResolveLevelE
librecad:_ZNK18RS_EntityContainer11ignoredSnapEv
librecad:_ZNK18RS_EntityContainer13getNearestRefERK9RS_VectorPd
librecad:_ZNK18RS_EntityContainer14getNearestDistEdRK9RS_VectorPd
librecad:_ZNK18RS_EntityContainer16areaLineIntegralEv
librecad:_ZNK18RS_EntityContainer16getNearestCenterERK9RS_VectorPd
librecad:_ZNK18RS_EntityContainer16getNearestEntityERK9RS_VectorPdN3RS212ResolveLevelE
librecad:_ZNK18RS_EntityContainer16getNearestMiddleERK9RS_VectorPdi
librecad:_ZNK18RS_EntityContainer18getDistanceToPointERK9RS_VectorPP9RS_EntityN3RS212ResolveLevelEd
librecad:_ZNK18RS_EntityContainer18getNearestEndpointERK9RS_VectorPd
librecad:_ZNK18RS_EntityContainer18getNearestEndpointERK9RS_VectorPdPP9RS_Entity
librecad:_ZNK18RS_EntityContainer21getNearestSelectedRefERK9RS_VectorPd
librecad:_ZNK18RS_EntityContainer21ignoredOnModificationEv
librecad:_ZNK18RS_EntityContainer23getNearestPointOnEntityERK9RS_VectorbPdPP9RS_Entity
librecad:_ZNK18RS_EntityContainer3endEv
librecad:_ZNK18RS_EntityContainer4lastEv
librecad:_ZNK18RS_EntityContainer5beginEv
librecad:_ZNK18RS_EntityContainer5cloneEv
librecad:_ZNK18RS_EntityContainer5countEv
librecad:_ZNK18RS_EntityContainer5firstEv
librecad:_ZNK18RS_EntityContainer8getLoopsEv
librecad:_ZNK18RS_EntityContainer9countDeepEv
librecad:_ZNK18RS_EntityContainer9getLengthEv
librecad:_ZNK18RS_VectorSolutions10getClosestERK9RS_VectorPdPm
librecad:_ZNK18RS_VectorSolutions2atEm
librecad:_ZNK18RS_VectorSolutions3endEv
librecad:_ZNK18RS_VectorSolutions3getEm
librecad:_ZNK18RS_VectorSolutions4backEv
librecad:_ZNK18RS_VectorSolutions4cendEv
librecad:_ZNK18RS_VectorSolutions4sizeEv
librecad:_ZNK18RS_VectorSolutions5beginEv
librecad:_ZNK18RS_VectorSolutions5emptyEv
librecad:_ZNK18RS_VectorSolutions6cbeginEv
librecad:_ZNK18RS_VectorSolutions6flipXYEv
librecad:_ZNK18RS_VectorSolutions8hasValidEv
librecad:_ZNK18RS_VectorSolutions9getNumberEv
librecad:_ZNK18RS_VectorSolutions9getVectorEv
librecad:_ZNK18RS_VectorSolutions9isTangentEv
librecad:_ZNK18RS_VectorSolutionsixEm
librecad:_ZNK19LC_DuplicateOptions10metaObjectEv
librecad:_ZNK19LC_ModifyGapOptions10metaObjectEv
librecad:_ZNK19LC_PenPaletteWidget10metaObjectEv
librecad:_ZNK19LC_PenPaletteWidget11initToolBarEv
librecad:_ZNK19LC_PenPaletteWidget13redrawDrawingEv
librecad:_ZNK19LC_PenPaletteWidget21showNoSelectionDialogEbb
librecad:_ZNK19LC_PenPaletteWidget40doSelectEntitiesThatMatchToPenAttributesERKN3RS28LineTypeERKNS0_9LineWidthERK8RS_Colorbbb
librecad:_ZNK19QG_CoordinateWidget10metaObjectEv
librecad:_ZNK19QG_DimLinearOptions10metaObjectEv
librecad:_ZNK19QG_LineAngleOptions10metaObjectEv
librecad:_ZNK19RS_ActionBlocksEdit10metaObjectEv
librecad:_ZNK19RS_ActionBlocksSave10metaObjectEv
librecad:_ZNK19RS_ActionDimAligned10metaObjectEv
librecad:_ZNK19RS_ActionDimAngular10metaObjectEv
librecad:_ZNK19RS_ActionDrawCircle10metaObjectEv
librecad:_ZNK19RS_ActionDrawSpline10metaObjectEv
librecad:_ZNK19RS_ActionFileSaveAs10metaObjectEv
librecad:_ZNK19RS_ActionInfoInside10metaObjectEv
librecad:_ZNK19RS_ActionLayersEdit10metaObjectEv
librecad:_ZNK19RS_ActionModifyMove10metaObjectEv
librecad:_ZNK19RS_ActionModifyTrim10metaObjectEv
librecad:_ZNK19RS_ActionSelectBase10metaObjectEv
librecad:_ZNK19RS_ActionZoomRedraw10metaObjectEv
librecad:_ZNK19RS_ActionZoomScroll10metaObjectEv
librecad:_ZNK19RS_ActionZoomWindow10metaObjectEv
librecad:_ZNK19RS_ConstructionLine11getEndpointEv
librecad:_ZNK19RS_ConstructionLine12getQuadraticEv
librecad:_ZNK19RS_ConstructionLine13getDirection1Ev
librecad:_ZNK19RS_ConstructionLine13getDirection2Ev
librecad:_ZNK19RS_ConstructionLine13getStartpointEv
librecad:_ZNK19RS_ConstructionLine14getMiddlePointEv
librecad:_ZNK19RS_ConstructionLine14getNearestDistEdRK9RS_VectorPd
librecad:_ZNK19RS_ConstructionLine16getNearestCenterERK9RS_VectorPd
librecad:_ZNK19RS_ConstructionLine16getNearestMiddleERK9RS_VectorPdi
librecad:_ZNK19RS_ConstructionLine18getDistanceToPointERK9RS_VectorPP9RS_EntityN3RS212ResolveLevelEd
librecad:_ZNK19RS_ConstructionLine18getNearestEndpointERK9RS_VectorPd
librecad:_ZNK19RS_ConstructionLine23getNearestPointOnEntityERK9RS_VectorbPdPP9RS_Entity
librecad:_ZNK19RS_ConstructionLine5cloneEv
librecad:_ZNK19RS_ConstructionLine7getDataEv
librecad:_ZNK19RS_ConstructionLine9getPoint1Ev
librecad:_ZNK19RS_ConstructionLine9getPoint2Ev
librecad:_ZNK20LC_LinePointsOptions10metaObjectEv
librecad:_ZNK20QC_ApplicationWindow10getMdiAreaEv
librecad:_ZNK20QC_ApplicationWindow10metaObjectEv
librecad:_ZNK20QC_ApplicationWindow11getDocumentEv
librecad:_ZNK20QC_ApplicationWindow12getMDIWindowEv
librecad:_ZNK20QC_ApplicationWindow14getGraphicViewEv
librecad:_ZNK20QC_ApplicationWindow9getActionERK7QString
librecad:_ZNK20QG_CircleTan2Options10metaObjectEv
librecad:_ZNK20QG_DlgOptionsDrawing10metaObjectEv
librecad:_ZNK20QG_DlgOptionsGeneral10metaObjectEv
librecad:_ZNK20QG_MoveRotateOptions10metaObjectEv
librecad:_ZNK20QG_SnapMiddleOptions10metaObjectEv
librecad:_ZNK20QG_TrimAmountOptions10metaObjectEv
librecad:_ZNK20RS_ActionModifyBevel10getLength1Ev
librecad:_ZNK20RS_ActionModifyBevel10getLength2Ev
librecad:_ZNK20RS_ActionModifyBevel10metaObjectEv
librecad:_ZNK20RS_ActionModifyBevel8isTrimOnEv
librecad:_ZNK20RS_ActionModifyRound10metaObjectEv
librecad:_ZNK20RS_ActionModifyRound8isTrimOnEv
librecad:_ZNK20RS_ActionModifyRound9getRadiusEv
librecad:_ZNK20RS_ActionModifyScale10metaObjectEv
librecad:_ZNK20RS_ActionPolylineAdd10metaObjectEv
librecad:_ZNK20RS_ActionPolylineDel10metaObjectEv
librecad:_ZNK20RS_ActionSelectLayer10metaObjectEv
librecad:_ZNK20RS_ActionSetSnapMode10metaObjectEv
librecad:_ZNK20RS_StaticGraphicView16getMousePositionEv
librecad:_ZNK20RS_StaticGraphicView8getWidthEv
librecad:_ZNK20RS_StaticGraphicView9getHeightEv
librecad:_ZNK21LC_ActionGroupManager10metaObjectEv
librecad:_ZNK21LC_ActionLayersExport10metaObjectEv
librecad:_ZNK21LC_CircleByArcOptions10metaObjectEv
librecad:_ZNK21LC_SliceDivideOptions10metaObjectEv
librecad:_ZNK21QG_DlgOptionsMakerCam10metaObjectEv
librecad:_ZNK21QG_ImageOptionsDialog10metaObjectEv
librecad:_ZNK21QG_LinePolygonOptions10metaObjectEv
librecad:_ZNK21RS_ActionBlocksCreate10metaObjectEv
librecad:_ZNK21RS_ActionBlocksInsert10getColumnsEv
librecad:_ZNK21RS_ActionBlocksInsert10metaObjectEv
librecad:_ZNK21RS_ActionBlocksInsert13getRowSpacingEv
librecad:_ZNK21RS_ActionBlocksInsert16getColumnSpacingEv
librecad:_ZNK21RS_ActionBlocksInsert7getRowsEv
librecad:_ZNK21RS_ActionBlocksInsert8getAngleEv
librecad:_ZNK21RS_ActionBlocksInsert9getFactorEv
librecad:_ZNK21RS_ActionBlocksRemove10metaObjectEv
librecad:_ZNK21RS_ActionDimDiametric10metaObjectEv
librecad:_ZNK21RS_ActionDrawCircle2P10metaObjectEv
librecad:_ZNK21RS_ActionDrawCircle3P10metaObjectEv
librecad:_ZNK21RS_ActionDrawCircleCR10metaObjectEv
librecad:_ZNK21RS_ActionDrawCircleCR9getRadiusEv
librecad:_ZNK21RS_ActionDrawLineFree10metaObjectEv
librecad:_ZNK21RS_ActionDrawPolyline10getHistoryEv
librecad:_ZNK21RS_ActionDrawPolyline10isReversedEv
librecad:_ZNK21RS_ActionDrawPolyline10metaObjectEv
librecad:_ZNK21RS_ActionDrawPolyline11getBHistoryEv
librecad:_ZNK21RS_ActionDrawPolyline11getPolylineEv
librecad:_ZNK21RS_ActionDrawPolyline7getDataEv
librecad:_ZNK21RS_ActionDrawPolyline7getModeEv
librecad:_ZNK21RS_ActionDrawPolyline8getAngleEv
librecad:_ZNK21RS_ActionDrawPolyline8getPointEv
librecad:_ZNK21RS_ActionDrawPolyline8getStartEv
librecad:_ZNK21RS_ActionDrawPolyline9getRadiusEv
librecad:_ZNK21RS_ActionLayersRemove10metaObjectEv
librecad:_ZNK21RS_ActionModifyDelete10metaObjectEv
librecad:_ZNK21RS_ActionModifyEntity10metaObjectEv
librecad:_ZNK21RS_ActionModifyMirror10metaObjectEv
librecad:_ZNK21RS_ActionModifyOffset10metaObjectEv
librecad:_ZNK21RS_ActionModifyRotate10metaObjectEv
librecad:_ZNK21RS_ActionPolylineTrim10metaObjectEv
librecad:_ZNK21RS_ActionPrintPreview10metaObjectEv
librecad:_ZNK21RS_ActionPrintPreview8getScaleEv
librecad:_ZNK21RS_ActionSelectInvert10metaObjectEv
librecad:_ZNK21RS_ActionSelectSingle10metaObjectEv
librecad:_ZNK21RS_ActionSelectWindow10metaObjectEv
librecad:_ZNK21RS_ActionZoomPrevious10metaObjectEv
librecad:_ZNK22LC_ActionDrawCircle2PR10metaObjectEv
librecad:_ZNK22LC_ActionDrawLineSnake10metaObjectEv
librecad:_ZNK22LC_ActionDrawLineSnake13isNonZeroLineERK9RS_Vector
librecad:_ZNK22LC_ActionDrawLineSnake17isStartPointValidEv
librecad:_ZNK22LC_ActionDrawLineSnake25getStartPointForAngleSnapEv
librecad:_ZNK22LC_ActionDrawLineSnake7mayUndoEv
librecad:_ZNK22LC_ActionModifyLineGap10metaObjectEv
librecad:_ZNK22LC_ActionModifyLineGap14prepareGapDataEP7RS_LineRK9RS_VectorS4_
librecad:_ZNK22LC_ActionModifyLineGap21createPreviewEntitiesEPNS_7GapDataER5QListIP9RS_EntityE
librecad:_ZNK22LC_ActionModifyLineGap26obtainLineSnapPointForModeEPK7RS_LineRK9RS_Vector
librecad:_ZNK22LC_ActionOptionsWidget10metaObjectEv
librecad:_ZNK22LC_LineAngleRelOptions10metaObjectEv
librecad:_ZNK22LC_WidgetOptionsDialog10metaObjectEv
librecad:_ZNK22QG_LineBisectorOptions10metaObjectEv
librecad:_ZNK22QG_LineParallelOptions10metaObjectEv
librecad:_ZNK22QG_LinePolygon2Options10metaObjectEv
librecad:_ZNK22QG_LineRelAngleOptions10metaObjectEv
librecad:_ZNK22QG_ModifyOffsetOptions10metaObjectEv
librecad:_ZNK22QG_PrintPreviewOptions10metaObjectEv
librecad:_ZNK22QG_PrintPreviewOptions9getActionEv
librecad:_ZNK22RS_ActionBlocksExplode10metaObjectEv
librecad:_ZNK22RS_ActionDrawLineAngle10metaObjectEv
librecad:_ZNK22RS_ActionDrawLineAngle12getSnapPointEv
librecad:_ZNK22RS_ActionDrawLineAngle13hasFixedAngleEv
librecad:_ZNK22RS_ActionDrawLineAngle8getAngleEv
librecad:_ZNK22RS_ActionDrawLineAngle9getLengthEv
librecad:_ZNK22RS_ActionLayersLockAll10metaObjectEv
librecad:_ZNK22RS_ActionLibraryInsert10metaObjectEv
librecad:_ZNK22RS_ActionLibraryInsert8getAngleEv
librecad:_ZNK22RS_ActionLibraryInsert9getFactorEv
librecad:_ZNK22RS_ActionModifyRotate210metaObjectEv
librecad:_ZNK22RS_ActionModifyStretch10metaObjectEv
librecad:_ZNK22RS_ActionSelectContour10metaObjectEv
librecad:_ZNK23LC_ActionDrawLinePoints10metaObjectEv
librecad:_ZNK23LC_ActionDrawLinePoints13isNonZeroLineERK9RS_Vector
librecad:_ZNK23LC_ActionDrawLinePoints17isStartPointValidEv
librecad:_ZNK23LC_ActionDrawLinePoints25getStartPointForAngleSnapEv
librecad:_ZNK23LC_ActionDrawParabolaFD10metaObjectEv
librecad:_ZNK23LC_ActionModifyLineJoin10metaObjectEv
librecad:_ZNK23LC_ActionModifyLineJoin21getMajorPointFromLineEiRK9RS_VectorS2_RKNS_20LC_PointsDispositionE
librecad:_ZNK23LC_ActionModifyLineJoin24proceedParallelLinesJoinERK9RS_VectorS2_S2_S2_
librecad:_ZNK23LC_ActionModifyLineJoin27determine3PointsDispositionE9RS_VectorS0_S0_RKS0_
librecad:_ZNK23QG_ArcTangentialOptions10metaObjectEv
librecad:_ZNK23QG_DimensionLabelEditor10metaObjectEv
librecad:_ZNK23QG_LibraryInsertOptions10metaObjectEv
librecad:_ZNK23RS_ActionDrawCircleTan210metaObjectEv
librecad:_ZNK23RS_ActionDrawCircleTan29getRadiusEv
librecad:_ZNK23RS_ActionDrawCircleTan310metaObjectEv
librecad:_ZNK23RS_ActionOptionsDrawing10metaObjectEv
librecad:_ZNK23RS_ActionPolylineAppend10metaObjectEv
librecad:_ZNK24LC_ActionDrawCircleByArc10metaObjectEv
librecad:_ZNK24LC_ActionDrawSliceDivide10metaObjectEv
librecad:_ZNK24LC_ActionDrawSliceDivide22getCatchEntityTypeListEv
librecad:_ZNK24LC_ActionDrawSliceDivide23checkShouldDivideEntityEPK9RS_EntityRK7QString
librecad:_ZNK24LC_ActionModifyDuplicate10metaObjectEv
librecad:_ZNK24LC_ActionModifyDuplicate15determineOffsetEv
librecad:_ZNK24LC_LayerTreeModelOptions13getDefaultPenEi
librecad:_ZNK24LC_LayerTreeModelOptions4saveEv
librecad:_ZNK24RS_ActionBlocksFreezeAll10metaObjectEv
librecad:_ZNK24RS_ActionDrawEllipseAxis10metaObjectEv
librecad:_ZNK24RS_ActionDrawLineHorVert10metaObjectEv
librecad:_ZNK24RS_ActionDrawLineOrthTan10metaObjectEv
librecad:_ZNK24RS_ActionFileNewTemplate10metaObjectEv
librecad:_ZNK24RS_ActionInfoTotalLength10metaObjectEv
librecad:_ZNK24RS_ActionLayersFreezeAll10metaObjectEv
librecad:_ZNK24RS_ActionPolylineSegment10metaObjectEv
librecad:_ZNK24RS_ActionSetRelativeZero10metaObjectEv
librecad:_ZNK25LC_AbstractActionDrawLine17isStartPointValidEv
librecad:_ZNK25LC_ActionDrawLineAngleRel10metaObjectEv
librecad:_ZNK25LC_ActionDrawLineAngleRel26obtainLineSnapPointForModeEP7RS_LineR9RS_Vector
librecad:_ZNK25LC_ActionDrawSplinePoints10metaObjectEv
librecad:_ZNK25LC_ActionSnapMiddleManual10metaObjectEv
librecad:_ZNK25LC_LayerTreeOptionsDialog10metaObjectEv
librecad:_ZNK25LC_Rectangle1PointOptions10metaObjectEv
librecad:_ZNK25RS_ActionBlocksAttributes10metaObjectEv
librecad:_ZNK25RS_ActionBlocksToggleView10metaObjectEv
librecad:_ZNK25RS_ActionDrawLineBisector10metaObjectEv
librecad:_ZNK25RS_ActionDrawLineBisector9getLengthEv
librecad:_ZNK25RS_ActionDrawLineBisector9getNumberEv
librecad:_ZNK25RS_ActionDrawLineParallel10metaObjectEv
librecad:_ZNK25RS_ActionDrawLineParallel11getDistanceEv
librecad:_ZNK25RS_ActionDrawLineParallel9getNumberEv
librecad:_ZNK25RS_ActionDrawLineRelAngle10metaObjectEv
librecad:_ZNK25RS_ActionDrawLineRelAngle4rttiEv
librecad:_ZNK25RS_ActionDrawLineTangent110metaObjectEv
librecad:_ZNK25RS_ActionDrawLineTangent210metaObjectEv
librecad:_ZNK25RS_ActionLayersToggleLock10metaObjectEv
librecad:_ZNK25RS_ActionLayersToggleView10metaObjectEv
librecad:_ZNK25RS_ActionLockRelativeZero10metaObjectEv
librecad:_ZNK25RS_ActionModifyAttributes10metaObjectEv
librecad:_ZNK25RS_ActionModifyDeleteFree10metaObjectEv
librecad:_ZNK25RS_ActionModifyMoveRotate10metaObjectEv
librecad:_ZNK25RS_ActionModifyMoveRotate8getAngleEv
librecad:_ZNK25RS_ActionModifyTrimAmount10metaObjectEv
librecad:_ZNK26LC_ActionModifyBreakDivide10metaObjectEv
librecad:_ZNK26LC_ActionModifyBreakDivide15createArcEntityERK10RS_ArcDatabRK6RS_PenP8RS_LayerR5QListIP9RS_EntityE
librecad:_ZNK26LC_ActionModifyBreakDivide16createLineEntityEbRK9RS_VectorS2_RK6RS_PenP8RS_LayerR5QListIP9RS_EntityE
librecad:_ZNK26LC_ActionModifyBreakDivide27addPointsFromSolutionToListER18RS_VectorSolutionsR7QVectorI9RS_VectorE
librecad:_ZNK26LC_PenPaletteOptionsDialog10metaObjectEv
librecad:_ZNK26LC_Rectangle2PointsOptions10metaObjectEv
librecad:_ZNK26LC_Rectangle3PointsOptions10metaObjectEv
librecad:_ZNK26RS_ActionDrawArcTangential10metaObjectEv
librecad:_ZNK26RS_ActionDrawArcTangential11getByRadiusEv
librecad:_ZNK26RS_ActionDrawArcTangential12saveSettingsEv
librecad:_ZNK26RS_ActionDrawArcTangential8getAngleEv
librecad:_ZNK26RS_ActionDrawArcTangential9getRadiusEv
librecad:_ZNK26RS_ActionDrawCircleTan1_2P10metaObjectEv
librecad:_ZNK26RS_ActionDrawCircleTan1_2P9getRadiusEv
librecad:_ZNK26RS_ActionDrawCircleTan2_1P10metaObjectEv
librecad:_ZNK26RS_ActionDrawLineRectangle10metaObjectEv
librecad:_ZNK26RS_ActionLayersTogglePrint10metaObjectEv
librecad:_ZNK26RS_ActionModifyDeleteQuick10metaObjectEv
librecad:_ZNK26RS_ActionModifyExplodeText10metaObjectEv
librecad:_ZNK26RS_ActionSelectIntersected10metaObjectEv
librecad:_ZNK27LC_ActionFileExportMakerCam10metaObjectEv
librecad:_ZNK27LC_ModifyBreakDivideOptions10metaObjectEv
librecad:_ZNK27RS_ActionDrawCircleInscribe10metaObjectEv
librecad:_ZNK27RS_ActionDrawEllipse4Points10metaObjectEv
librecad:_ZNK27RS_ActionPolylineDelBetween10metaObjectEv
librecad:_ZNK27RS_ActionSetSnapRestriction10metaObjectEv
librecad:_ZNK28LC_AbstractActionWithPreview10createLineERK9RS_VectorS2_R5QListIP9RS_EntityE
librecad:_ZNK28LC_AbstractActionWithPreview10metaObjectEv
librecad:_ZNK28LC_AbstractActionWithPreview11createPointERK9RS_VectorR5QListIP9RS_EntityE
librecad:_ZNK28LC_AbstractActionWithPreview14commandMessageERK7QString
librecad:_ZNK28LC_AbstractActionWithPreview20checkMayExpandEntityEPK9RS_EntityRK7QString
librecad:_ZNK28LC_AbstractActionWithPreview30applyPenAndLayerBySourceEntityEPK9RS_EntityPS0_ii
librecad:_ZNK28LC_ActionDrawParabola4Points10metaObjectEv
librecad:_ZNK28LC_ActionDrawRectangle1Point10metaObjectEv
librecad:_ZNK28LC_ActionDrawRectangle1Point14createPolylineERK9RS_Vector
librecad:_ZNK28RS_ActionDrawEllipseInscribe10metaObjectEv
librecad:_ZNK28RS_ActionPolylineEquidistant10metaObjectEv
librecad:_ZNK29LC_ActionDrawRectangle2Points10metaObjectEv
librecad:_ZNK29LC_ActionDrawRectangle2Points14createPolylineERK9RS_Vector
librecad:_ZNK29LC_ActionDrawRectangle3Points10metaObjectEv
librecad:_ZNK29LC_ActionDrawRectangle3Points14createPolylineERK9RS_Vector
librecad:_ZNK29LC_ActionDrawRectangle3Points16calculateCorner2ERK9RS_Vectord
librecad:_ZNK29LC_ActionDrawRectangle3Points16calculateCorner4Ev
librecad:_ZNK29LC_ActionDrawRectangle3Points19getActualInnerAngleEv
librecad:_ZNK29LC_ActionDrawRectangle3Points33calculatePossibleEndpointForAngleERK9RS_VectorS0_d
librecad:_ZNK29LC_ActionPenSyncActiveByLayer10metaObjectEv
librecad:_ZNK29LC_LineFromPointToLineOptions10metaObjectEv
librecad:_ZNK29QG_LineParallelThroughOptions10metaObjectEv
librecad:_ZNK29QG_PolylineEquidistantOptions10metaObjectEv
librecad:_ZNK29RS_ActionDrawEllipseFociPoint10metaObjectEv
librecad:_ZNK29RS_ActionDrawEllipseFociPoint9findRatioEv
librecad:_ZNK2lc3geo4Area10increaseByEd
librecad:_ZNK2lc3geo4Area10intersectsERKS1_d
librecad:_ZNK2lc3geo4Area12intersectionERKS1_d
librecad:_ZNK2lc3geo4Area15lowerLeftCornerEv
librecad:_ZNK2lc3geo4Area15upperLeftCornerEv
librecad:_ZNK2lc3geo4Area16lowerRightCornerEv
librecad:_ZNK2lc3geo4Area16numCornersInsideERKS1_
librecad:_ZNK2lc3geo4Area16upperRightCornerEv
librecad:_ZNK2lc3geo4Area3topEv
librecad:_ZNK2lc3geo4Area4leftEv
librecad:_ZNK2lc3geo4Area4maxPEv
librecad:_ZNK2lc3geo4Area4minPEv
librecad:_ZNK2lc3geo4Area5mergeERK9RS_Vector
librecad:_ZNK2lc3geo4Area5mergeERKS1_
librecad:_ZNK2lc3geo4Area5rightEv
librecad:_ZNK2lc3geo4Area5widthEv
librecad:_ZNK2lc3geo4Area6bottomEv
librecad:_ZNK2lc3geo4Area6heightEv
librecad:_ZNK2lc3geo4Area6inAreaERK9RS_Vectord
librecad:_ZNK2lc3geo4Area6inAreaERKS1_
librecad:_ZNK2lc3geo4Area8overlapsERKS1_
librecad:_ZNK2lc3geo4Area8verticesEv
librecad:_ZNK30LC_AbstractActionDrawRectangle10metaObjectEv
librecad:_ZNK30LC_AbstractActionDrawRectangle18getActualBaseAngleEv
librecad:_ZNK30LC_AbstractActionDrawRectangle22prepareCornersDrawModeERdS0_RbS1_
librecad:_ZNK30LC_AbstractActionDrawRectangle24createPolylineByVertexesE9RS_VectorS0_S0_S0_bbdd
librecad:_ZNK30LC_AbstractActionDrawRectangle37doCheckPolylineEntityAllowedInTriggerEi
librecad:_ZNK30LC_ActionDrawLinePolygonCenTan10metaObjectEv
librecad:_ZNK30RS_ActionDrawLinePolygonCenCor10metaObjectEv
librecad:_ZNK30RS_ActionDrawLinePolygonCorCor10metaObjectEv
librecad:_ZNK30RS_ActionModifyRevertDirection10metaObjectEv
librecad:_ZNK31RS_ActionSnapIntersectionManual10metaObjectEv
librecad:_ZNK32LC_ActionDrawLineFromPointToLine10metaObjectEv
librecad:_ZNK32RS_ActionDrawLineParallelThrough10metaObjectEv
librecad:_ZNK32RS_ActionDrawLineParallelThrough9getNumberEv
librecad:_ZNK33LC_ActionLayersToggleConstruction10metaObjectEv
librecad:_ZNK33RS_ActionDrawEllipseCenter3Points10metaObjectEv
librecad:_ZNK33RS_ActionToolRegenerateDimensions10metaObjectEv
librecad:_ZNK5dxfRW10getVersionEv
librecad:_ZNK5dxfRW8getErrorEv
librecad:_ZNK6RS_Arc11getEndpointEv
librecad:_ZNK6RS_Arc12getQuadraticEv
librecad:_ZNK6RS_Arc12getRefPointsEv
librecad:_ZNK6RS_Arc13getDirection1Ev
librecad:_ZNK6RS_Arc13getDirection2Ev
librecad:_ZNK6RS_Arc13getStartpointEv
librecad:_ZNK6RS_Arc14getAngleLengthEv
librecad:_ZNK6RS_Arc14getMiddlePointEv
librecad:_ZNK6RS_Arc14getNearestDistEdRK9RS_VectorPd
librecad:_ZNK6RS_Arc14getNearestDistEdb
librecad:_ZNK6RS_Arc14offsetTwoSidesEd
librecad:_ZNK6RS_Arc15getTangentPointERK9RS_Vector
librecad:_ZNK6RS_Arc16areaLineIntegralEv
librecad:_ZNK6RS_Arc16getNearestCenterERK9RS_VectorPd
librecad:_ZNK6RS_Arc16getNearestMiddleERK9RS_VectorPdi
librecad:_ZNK6RS_Arc17getNearestOrthTanERK9RS_VectorRK7RS_Lineb
librecad:_ZNK6RS_Arc18getNearestEndpointERK9RS_VectorPd
librecad:_ZNK6RS_Arc19getTangentDirectionERK9RS_Vector
librecad:_ZNK6RS_Arc20dualLineTangentPointERK9RS_Vector
librecad:_ZNK6RS_Arc23getNearestPointOnEntityERK9RS_VectorbPdPP9RS_Entity
librecad:_ZNK6RS_Arc5cloneEv
librecad:_ZNK6RS_Arc8getBulgeEv
librecad:_ZNK6RS_Arc9getLengthEv
librecad:_ZNK7RS_Grid11isIsometricEv
librecad:_ZNK7RS_Grid13getCellVectorEv
librecad:_ZNK7RS_Grid16getCrosshairTypeEv
librecad:_ZNK7RS_Grid16getMetaGridWidthEv
librecad:_ZNK7RS_Grid7getInfoEv
librecad:_ZNK7RS_Grid8getMetaXEv
librecad:_ZNK7RS_Grid8getMetaYEv
librecad:_ZNK7RS_Grid8snapGridERK9RS_Vector
librecad:_ZNK7RS_Grid9getPointsEv
librecad:_ZNK7RS_Line12getQuadraticEv
librecad:_ZNK7RS_Line12getRefPointsEv
librecad:_ZNK7RS_Line14getMiddlePointEv
librecad:_ZNK7RS_Line14getNearestDistEdRK9RS_VectorPd
librecad:_ZNK7RS_Line14getNearestDistEdb
librecad:_ZNK7RS_Line14offsetTwoSidesEd
librecad:_ZNK7RS_Line15getNormalVectorEv
librecad:_ZNK7RS_Line16areaLineIntegralEv
librecad:_ZNK7RS_Line16getNearestMiddleERK9RS_VectorPdi
librecad:_ZNK7RS_Line18getNearestEndpointERK9RS_VectorPd
librecad:_ZNK7RS_Line19getTangentDirectionERK9RS_Vector
librecad:_ZNK7RS_Line23getNearestPointOnEntityERK9RS_VectorbPdPP9RS_Entity
librecad:_ZNK7RS_Line27getProjectionValueAlongLineERK9RS_Vector
librecad:_ZNK7RS_Line5cloneEv
librecad:_ZNK7RS_Line9isTangentERK13RS_CircleData
librecad:_ZNK7RS_Text12getRefPointsEv
librecad:_ZNK7RS_Text18getNearestEndpointERK9RS_VectorPd
librecad:_ZNK7RS_Text5cloneEv
librecad:_ZNK7RS_Undo13setGUIButtonsEv
librecad:_ZNK8LinkList10metaObjectEv
librecad:_ZNK8RS_Block19selectedInBlockListEb
librecad:_ZNK8RS_Block20isVisibleInBlockListEv
librecad:_ZNK8RS_Block21isSelectedInBlockListEv
librecad:_ZNK8RS_Block5cloneEv
librecad:_ZNK8RS_Color10toIntColorEv
librecad:_ZNK8RS_Color13colorDistanceERKS_
librecad:_ZNK8RS_Flags7getFlagEj
librecad:_ZNK8RS_Flags8getFlagsEv
librecad:_ZNK8RS_Hatch10countLoopsEv
librecad:_ZNK8RS_Hatch11isContainerEv
librecad:_ZNK8RS_Hatch11trimPatternERK18RS_EntityContainer
librecad:_ZNK8RS_Hatch18getDistanceToPointERK9RS_VectorPP9RS_EntityN3RS212ResolveLevelEd
librecad:_ZNK8RS_Hatch5cloneEv
librecad:_ZNK8RS_Image10getCornersEv
librecad:_ZNK8RS_Image13containsPointERK9RS_Vector
librecad:_ZNK8RS_Image14getNearestDistEdRK9RS_VectorPd
librecad:_ZNK8RS_Image16getNearestCenterERK9RS_VectorPd
librecad:_ZNK8RS_Image16getNearestMiddleERK9RS_VectorPdi
librecad:_ZNK8RS_Image18getDistanceToPointERK9RS_VectorPP9RS_EntityN3RS212ResolveLevelEd
librecad:_ZNK8RS_Image18getNearestEndpointERK9RS_VectorPd
librecad:_ZNK8RS_Image23getNearestPointOnEntityERK9RS_VectorbPdPP9RS_Entity
librecad:_ZNK8RS_Image5cloneEv
librecad:_ZNK8RS_Layer11isConvertedEv
librecad:_ZNK8RS_Layer14isConstructionEv
librecad:_ZNK8RS_Layer20isVisibleInLayerListEv
librecad:_ZNK8RS_Layer21isSelectedInLayerListEv
librecad:_ZNK8RS_Layer5cloneEv
librecad:_ZNK8RS_Layer6getPenEv
librecad:_ZNK8RS_Layer7getNameEv
librecad:_ZNK8RS_Layer7isPrintEv
librecad:_ZNK8RS_Layer8isFrozenEv
librecad:_ZNK8RS_Layer8isLockedEv
librecad:_ZNK8RS_MText12getRefPointsEv
librecad:_ZNK8RS_MText18getNearestEndpointERK9RS_VectorPd
librecad:_ZNK8RS_MText5cloneEv
librecad:_ZNK8RS_Point11getEndpointEv
librecad:_ZNK8RS_Point12getRefPointsEv
librecad:_ZNK8RS_Point13getStartpointEv
librecad:_ZNK8RS_Point14getMiddlePointEv
librecad:_ZNK8RS_Point14getNearestDistEdRK9RS_VectorPd
librecad:_ZNK8RS_Point16getNearestCenterERK9RS_VectorPd
librecad:_ZNK8RS_Point16getNearestMiddleERK9RS_VectorPdi
librecad:_ZNK8RS_Point18getDistanceToPointERK9RS_VectorPP9RS_EntityN3RS212ResolveLevelEd
librecad:_ZNK8RS_Point18getNearestEndpointERK9RS_VectorPd
librecad:_ZNK8RS_Point23getNearestPointOnEntityERK9RS_VectorbPdPP9RS_Entity
librecad:_ZNK8RS_Point4rttiEv
librecad:_ZNK8RS_Point5cloneEv
librecad:_ZNK8RS_Point6getPosEv
librecad:_ZNK8RS_Point7getDataEv
librecad:_ZNK8RS_Point9getCenterEv
librecad:_ZNK8RS_Point9getRadiusEv
librecad:_ZNK8RS_Point9isTangentERK13RS_CircleData
librecad:_ZNK8RS_Solid10setDistPtrEPdd
librecad:_ZNK8RS_Solid14getNearestDistEdRK9RS_VectorPd
librecad:_ZNK8RS_Solid15isInCrossWindowERK9RS_VectorS2_
librecad:_ZNK8RS_Solid16getNearestCenterERK9RS_VectorPd
librecad:_ZNK8RS_Solid16getNearestMiddleERK9RS_VectorPdi
librecad:_ZNK8RS_Solid18getDistanceToPointERK9RS_VectorPP9RS_EntityN3RS212ResolveLevelEd
librecad:_ZNK8RS_Solid18getNearestEndpointERK9RS_VectorPd
librecad:_ZNK8RS_Solid23getNearestPointOnEntityERK9RS_VectorbPdPP9RS_Entity
librecad:_ZNK8RS_Solid4signERK9RS_VectorS2_S2_
librecad:_ZNK8RS_Solid5cloneEv
librecad:_ZNK8RS_Solid9getCornerEi
librecad:_ZNK9LC_DimArc5cloneEv
librecad:_ZNK9QG_DlgArc10metaObjectEv
librecad:_ZNK9RS_Circle12getQuadraticEv
librecad:_ZNK9RS_Circle12getRefPointsEv
librecad:_ZNK9RS_Circle13getDirection1Ev
librecad:_ZNK9RS_Circle13getDirection2Ev
librecad:_ZNK9RS_Circle14getAngleLengthEv
librecad:_ZNK9RS_Circle14getMiddlePointEv
librecad:_ZNK9RS_Circle14getNearestDistEdRK9RS_VectorPd
librecad:_ZNK9RS_Circle14getNearestDistEdb
librecad:_ZNK9RS_Circle14offsetTwoSidesEd
librecad:_ZNK9RS_Circle15getTangentPointERK9RS_Vector
librecad:_ZNK9RS_Circle16areaLineIntegralEv
librecad:_ZNK9RS_Circle16getNearestCenterERK9RS_VectorPd
librecad:_ZNK9RS_Circle16getNearestMiddleERK9RS_VectorPdi
librecad:_ZNK9RS_Circle17getNearestOrthTanERK9RS_VectorRK7RS_Lineb
librecad:_ZNK9RS_Circle17isVisibleInWindowEP14RS_GraphicView
librecad:_ZNK9RS_Circle18getNearestEndpointERK9RS_VectorPd
librecad:_ZNK9RS_Circle19getTangentDirectionERK9RS_Vector
librecad:_ZNK9RS_Circle20dualLineTangentPointERK9RS_Vector
librecad:_ZNK9RS_Circle23getNearestPointOnEntityERK9RS_VectorbPdPP9RS_Entity
librecad:_ZNK9RS_Circle5cloneEv
librecad:_ZNK9RS_Circle8testTan3ERKSt6vectorIP15RS_AtomicEntitySaIS2_EE
librecad:_ZNK9RS_Circle9getCenterEv
librecad:_ZNK9RS_Circle9getLengthEv
librecad:_ZNK9RS_Circle9getRadiusEv
librecad:_ZNK9RS_Circle9isTangentERK13RS_CircleData
librecad:_ZNK9RS_Entity10getAllKeysEv
librecad:_ZNK9RS_Entity10getGraphicEv
librecad:_ZNK9RS_Entity10isInWindowE9RS_VectorS0_
librecad:_ZNK9RS_Entity10isSelectedEv
librecad:_ZNK9RS_Entity11getDocumentEv
librecad:_ZNK9RS_Entity11getEndpointEv
librecad:_ZNK9RS_Entity11isProcessedEv
librecad:_ZNK9RS_Entity12getQuadraticEv
librecad:_ZNK9RS_Entity12getRefPointsEv
librecad:_ZNK9RS_Entity13getNearestRefERK9RS_VectorPd
librecad:_ZNK9RS_Entity13getStartpointEv
librecad:_ZNK9RS_Entity13getUserDefVarERK7QString
librecad:_ZNK9RS_Entity13isHighlightedEv
librecad:_ZNK9RS_Entity14getGraphicUnitEv
librecad:_ZNK9RS_Entity14isConstructionEb
librecad:_ZNK9RS_Entity15getTangentPointERK9RS_Vector
librecad:_ZNK9RS_Entity15isArcCircleLineEv
librecad:_ZNK9RS_Entity15isPointOnEntityERK9RS_Vectord
librecad:_ZNK9RS_Entity16areaLineIntegralEv
librecad:_ZNK9RS_Entity16getBlockOrInsertEv
librecad:_ZNK9RS_Entity16isParentSelectedEv
librecad:_ZNK9RS_Entity17getNearestOrthTanERK9RS_VectorRK7RS_Lineb
librecad:_ZNK9RS_Entity17isVisibleInWindowEP14RS_GraphicView
librecad:_ZNK9RS_Entity18getDistanceToPointERK9RS_VectorPPS_N3RS212ResolveLevelEd
librecad:_ZNK9RS_Entity19getTangentDirectionERK9RS_Vector
librecad:_ZNK9RS_Entity21getGraphicVariableIntERK7QStringi
librecad:_ZNK9RS_Entity21getNearestSelectedRefERK9RS_VectorPd
librecad:_ZNK9RS_Entity24getGraphicVariableStringERK7QStringS2_
librecad:_ZNK9RS_Entity5isArcEv
librecad:_ZNK9RS_Entity6getPenEb
librecad:_ZNK9RS_Entity7getSizeEv
librecad:_ZNK9RS_Entity7isPrintEv
librecad:_ZNK9RS_Entity8getBlockEv
librecad:_ZNK9RS_Entity8getLayerEb
librecad:_ZNK9RS_Entity8isLockedEv
librecad:_ZNK9RS_Entity8isUndoneEv
librecad:_ZNK9RS_Entity9getCenterEv
librecad:_ZNK9RS_Entity9getInsertEv
librecad:_ZNK9RS_Entity9getRadiusEv
librecad:_ZNK9RS_Entity9isVisibleEv
librecad:_ZNK9RS_Entity9trimmableEv
librecad:_ZNK9RS_FileIO15getExportFilterERK7QStringN3RS210FormatTypeE
librecad:_ZNK9RS_FileIO15getImportFilterERK7QStringN3RS210FormatTypeE
librecad:_ZNK9RS_Insert12getRefPointsEv
librecad:_ZNK9RS_Insert13getNearestRefERK9RS_VectorPd
librecad:_ZNK9RS_Insert17getBlockForInsertEv
librecad:_ZNK9RS_Insert5cloneEv
librecad:_ZNK9RS_Insert9isVisibleEv
librecad:_ZNK9RS_Leader5cloneEv
librecad:_ZNK9RS_Locale12getCanonicalEv
librecad:_ZNK9RS_Locale4nameEv
librecad:_ZNK9RS_Locale7getNameEv
librecad:_ZNK9RS_Spline11getEndpointEv
librecad:_ZNK9RS_Spline12getRefPointsEv
librecad:_ZNK9RS_Spline13getNearestRefERK9RS_VectorPd
librecad:_ZNK9RS_Spline13getStartpointEv
librecad:_ZNK9RS_Spline14getNearestDistEdRK9RS_VectorPd
librecad:_ZNK9RS_Spline16getControlPointsEv
librecad:_ZNK9RS_Spline16getNearestCenterERK9RS_VectorPd
librecad:_ZNK9RS_Spline16getNearestMiddleERK9RS_VectorPdi
librecad:_ZNK9RS_Spline18getNearestEndpointERK9RS_VectorPd
librecad:_ZNK9RS_Spline21getNearestSelectedRefERK9RS_VectorPd
librecad:_ZNK9RS_Spline23hasWrappedControlPointsEv
librecad:_ZNK9RS_Spline24getNumberOfControlPointsEv
librecad:_ZNK9RS_Spline4knotEmm
librecad:_ZNK9RS_Spline5cloneEv
librecad:_ZNK9RS_Spline5knotuEmm
librecad:_ZNK9RS_Spline8isClosedEv
librecad:_ZNK9RS_Spline8rbsplineEmmmRKSt6vectorI9RS_VectorSaIS1_EERKS0_IdSaIdEERS3_
librecad:_ZNK9RS_Spline8rbsplinuEmmmRKSt6vectorI9RS_VectorSaIS1_EERKS0_IdSaIdEERS3_
librecad:_ZNK9RS_Spline9getDegreeEv
librecad:_ZNK9RS_Vector10distanceToERKS_
librecad:_ZNK9RS_Vector10isInWindowERKS_S1_
librecad:_ZNK9RS_Vector10normalizedEv
librecad:_ZNK9RS_Vector12angleBetweenERKS_S1_
librecad:_ZNK9RS_Vector17isInWindowOrderedERKS_S1_
librecad:_ZNK9RS_Vector4dotPERKS_
librecad:_ZNK9RS_Vector4lerpERKS_d
librecad:_ZNK9RS_Vector5angleEv
librecad:_ZNK9RS_Vector5scaleERKS_
librecad:_ZNK9RS_Vector6flipXYEv
librecad:_ZNK9RS_Vector7angleToERKS_
librecad:_ZNK9RS_Vector7squaredEv
librecad:_ZNK9RS_Vector8relativeEdd
librecad:_ZNK9RS_Vector9magnitudeEv
librecad:_ZNK9RS_Vector9squaredToERKS_
librecad:_ZNK9RS_VectorcvbEv
librecad:_ZNK9RS_VectordvERKS_
librecad:_ZNK9RS_VectordvEd
librecad:_ZNK9RS_VectoreqERKS_
librecad:_ZNK9RS_VectoreqEb
librecad:_ZNK9RS_VectormiERKS_
librecad:_ZNK9RS_VectormiEd
librecad:_ZNK9RS_VectormlERKS_
librecad:_ZNK9RS_VectormlEd
librecad:_ZNK9RS_VectorneEb
librecad:_ZNK9RS_VectorngEv
librecad:_ZNK9RS_VectorplERKS_
librecad:_ZNK9RS_VectorplEd
librecad:_ZNK9dwgBuffer11getPositionEv
librecad:_ZTI10ActionList
librecad:_ZTI10DL_WriterA
librecad:_ZTI10DRW_3Dface
librecad:_ZTI10DRW_Circle
librecad:_ZTI10DRW_Entity
librecad:_ZTI10DRW_Insert
librecad:_ZTI10DRW_Leader
librecad:_ZTI10DRW_Spline
librecad:_ZTI10DRW_Vertex
librecad:_ZTI10QG_DlgLine
librecad:_ZTI10QG_DlgMove
librecad:_ZTI10QG_DlgText
librecad:_ZTI10QG_FontBox
librecad:_ZTI10RS_Ellipse
librecad:_ZTI10RS_Graphic
librecad:_ZTI10RS_Painter
librecad:_ZTI10RS_Pattern
librecad:_ZTI10RS_Preview
librecad:_ZTI10RS_Snapper
librecad:_ZTI11ColorWizard
librecad:_ZTI11DRW_Ellipse
librecad:_ZTI11LC_Parabola
librecad:_ZTI11MainWindowX
librecad:_ZTI11QG_ColorBox
librecad:_ZTI11QG_DlgHatch
librecad:_ZTI11QG_DlgImage
librecad:_ZTI11QG_DlgMText
librecad:_ZTI11QG_DlgPoint
librecad:_ZTI11QG_DlgScale
librecad:_ZTI11QG_LayerBox
librecad:_ZTI11QG_WidthBox
librecad:_ZTI11RS_Document
librecad:_ZTI11RS_Polyline
librecad:_ZTI11dwgReader15
librecad:_ZTI11dwgReader18
librecad:_ZTI11dwgReader21
librecad:_ZTI11dwgReader24
librecad:_ZTI11dwgReader27
librecad:_ZTI11print_debug
librecad:_ZTI12DRW_Dimstyle
librecad:_ZTI12DRW_ImageDef
librecad:_ZTI12DRW_Polyline
librecad:_ZTI12DRW_Viewport
librecad:_ZTI12LC_Hyperbola
librecad:_ZTI12LC_PenWizard
librecad:_ZTI12PdfPrintLoop
librecad:_ZTI12QC_MDIWindow
librecad:_ZTI12QG_DlgCircle
librecad:_ZTI12QG_DlgInsert
librecad:_ZTI12QG_DlgMirror
librecad:_ZTI12QG_DlgRotate
librecad:_ZTI12QG_DlgSpline
librecad:_ZTI12QG_ScrollBar
librecad:_ZTI12QG_WidgetPen
librecad:_ZTI12RS_BlockList
librecad:_ZTI12RS_DimLinear
librecad:_ZTI12RS_DimRadial
librecad:_ZTI12RS_Dimension
librecad:_ZTI12RS_FilterCXF
librecad:_ZTI12RS_FilterJWW
librecad:_ZTI12RS_FilterLFF
librecad:_ZTI12RS_LayerList
librecad:_ZTI12RS_PainterQt
librecad:_ZTI13ColorComboBox
librecad:_ZTI13DRW_ConvTable
librecad:_ZTI13DRW_ConvUTF16
librecad:_ZTI13DRW_Converter
librecad:_ZTI13DRW_DimRadial
librecad:_ZTI13DRW_Dimension
librecad:_ZTI13DRW_Textstyle
librecad:_ZTI13LC_DockWidget
librecad:_ZTI13LC_FlexLayout
librecad:_ZTI13Plugin_Entity
librecad:_ZTI13QG_ArcOptions
librecad:_ZTI13QG_BlockModel
librecad:_ZTI13QG_DimOptions
librecad:_ZTI13QG_DlgEllipse
librecad:_ZTI13QG_DlgInitial
librecad:_ZTI13QG_DlgRotate2
librecad:_ZTI13QG_ExitDialog
librecad:_ZTI13QG_LayerModel
librecad:_ZTI13QG_PatternBox
librecad:_ZTI13QG_PenToolBar
librecad:_ZTI13RS_DimAligned
librecad:_ZTI13RS_DimAngular
librecad:_ZTI13RS_FilterDXF1
librecad:_ZTI13RS_OverlayBox
librecad:_ZTI13WidgetCreator
librecad:_ZTI13dwgCharStream
librecad:_ZTI13dwgFileStream
librecad:_ZTI14ComboBoxOption
librecad:_ZTI14DRW_DimAligned
librecad:_ZTI14DRW_DimAngular
librecad:_ZTI14DRW_LWPolyline
librecad:_ZTI14DRW_ObjControl
librecad:_ZTI14DRW_TableEntry
librecad:_ZTI14LC_Application
librecad:_ZTI14LC_DlgParabola
librecad:_ZTI14LC_LineOptions
librecad:_ZTI14LC_SimpleTests
librecad:_ZTI14LC_StarOptions
librecad:_ZTI14LG_DimzerosBox
librecad:_ZTI14QG_BlockDialog
librecad:_ZTI14QG_BlockWidget
librecad:_ZTI14QG_CommandEdit
librecad:_ZTI14QG_DlgPolyline
librecad:_ZTI14QG_GraphicView
librecad:_ZTI14QG_LayerDialog
librecad:_ZTI14QG_LayerWidget
librecad:_ZTI14QG_LineOptions
librecad:_ZTI14QG_LineTypeBox
librecad:_ZTI14QG_MouseWidget
librecad:_ZTI14QG_RecentFiles
librecad:_ZTI14QG_SnapToolBar
librecad:_ZTI14QG_TextOptions
librecad:_ZTI14RS_ActionOrder
librecad:_ZTI14RS_FilterDXFRW
librecad:_ZTI14RS_GraphicView
librecad:_ZTI14RS_OverlayLine
librecad:_ZTI14TextFileViewer
librecad:_ZTI14dxfReaderAscii
librecad:_ZTI14dxfWriterAscii
librecad:_ZTI15DRW_DimOrdinate
librecad:_ZTI15LC_ActionDimArc
librecad:_ZTI15LC_CrossOptions
librecad:_ZTI15LC_SplinePoints
librecad:_ZTI15QC_ActionGetEnt
librecad:_ZTI15QG_BevelOptions
librecad:_ZTI15QG_DlgDimLinear
librecad:_ZTI15QG_DlgDimension
librecad:_ZTI15QG_ImageOptions
librecad:_ZTI15QG_MTextOptions
librecad:_ZTI15QG_RoundOptions
librecad:_ZTI15RS_ActionSelect
librecad:_ZTI15RS_ActionZoomIn
librecad:_ZTI15RS_AtomicEntity
librecad:_ZTI15RS_DimDiametric
librecad:_ZTI15RS_EventHandler
librecad:_ZTI15dxfReaderBinary
librecad:_ZTI15dxfWriterBinary
librecad:_ZTI16DRW_Block_Record
librecad:_ZTI16DRW_Conv932Table
librecad:_ZTI16DRW_DimAngular3p
librecad:_ZTI16DRW_DimDiametric
librecad:_ZTI16DRW_PlotSettings
librecad:_ZTI16LC_ActionFactory
librecad:_ZTI16LC_ActionPenPick
librecad:_ZTI16LC_CentralWidget
librecad:_ZTI16LC_DeviceOptions
librecad:_ZTI16LC_LayerDialogEx
librecad:_ZTI16LC_LayerTreeView
librecad:_ZTI16LC_WidgetFactory
librecad:_ZTI16QC_DialogFactory
librecad:_ZTI16QG_ActionHandler
librecad:_ZTI16QG_CircleOptions
librecad:_ZTI16QG_CommandWidget
librecad:_ZTI16QG_DialogFactory
librecad:_ZTI16QG_DlgAttributes
librecad:_ZTI16QG_DlgMoveRotate
librecad:_ZTI16QG_InsertOptions
librecad:_ZTI16QG_LibraryWidget
librecad:_ZTI16QG_SplineOptions
librecad:_ZTI16RS_ActionDefault
librecad:_ZTI16RS_ActionDrawArc
librecad:_ZTI16RS_ActionFileNew
librecad:_ZTI16RS_ActionZoomPan
librecad:_ZTI16TwoStackedLabels
librecad:_ZTI17DRW_ConvDBCSTable
librecad:_ZTI17LC_ActionDrawStar
librecad:_ZTI17LC_ActionPenApply
librecad:_ZTI17LC_LayerTreeModel
librecad:_ZTI17LC_PenPaletteData
librecad:_ZTI17QC_ActionGetPoint
librecad:_ZTI17QG_CommandHistory
librecad:_ZTI17RS_ActionDrawLine
librecad:_ZTI17RS_ActionDrawText
librecad:_ZTI17RS_ActionEditCopy
librecad:_ZTI17RS_ActionEditUndo
librecad:_ZTI17RS_ActionFileOpen
librecad:_ZTI17RS_ActionFileSave
librecad:_ZTI17RS_ActionInfoArea
librecad:_ZTI17RS_ActionInfoDist
librecad:_ZTI17RS_ActionZoomAuto
librecad:_ZTI18LC_ActionDrawCross
librecad:_ZTI18LC_DlgSplinePoints
librecad:_ZTI18LC_LayerTreeWidget
librecad:_ZTI18LC_LineJoinOptions
librecad:_ZTI18LC_PenPaletteModel
librecad:_ZTI18QC_ActionGetSelect
librecad:_ZTI18QG_ActiveLayerName
librecad:_ZTI18QG_PolylineOptions
librecad:_ZTI18QG_SelectionWidget
librecad:_ZTI18QG_SnapDistOptions
librecad:_ZTI18RS_ActionBlocksAdd
librecad:_ZTI18RS_ActionDimLeader
librecad:_ZTI18RS_ActionDimLinear
librecad:_ZTI18RS_ActionDimRadial
librecad:_ZTI18RS_ActionDimension
librecad:_ZTI18RS_ActionDrawArc3P
librecad:_ZTI18RS_ActionDrawHatch
librecad:_ZTI18RS_ActionDrawImage
librecad:_ZTI18RS_ActionDrawMText
librecad:_ZTI18RS_ActionDrawPoint
librecad:_ZTI18RS_ActionEditPaste
librecad:_ZTI18RS_ActionInfoAngle
librecad:_ZTI18RS_ActionInfoDist2
librecad:_ZTI18RS_ActionInterface
librecad:_ZTI18RS_ActionLayersAdd
librecad:_ZTI18RS_ActionModifyCut
librecad:_ZTI18RS_ActionSelectAll
librecad:_ZTI18RS_ActionZoomAutoY
librecad:_ZTI18RS_EntityContainer
librecad:_ZTI19LC_DuplicateOptions
librecad:_ZTI19LC_ModifyGapOptions
librecad:_ZTI19LC_PenPaletteWidget
librecad:_ZTI19QG_CoordinateWidget
librecad:_ZTI19QG_DimLinearOptions
librecad:_ZTI19QG_LineAngleOptions
librecad:_ZTI19RS_ActionBlocksEdit
librecad:_ZTI19RS_ActionBlocksSave
librecad:_ZTI19RS_ActionDimAligned
librecad:_ZTI19RS_ActionDimAngular
librecad:_ZTI19RS_ActionDrawCircle
librecad:_ZTI19RS_ActionDrawSpline
librecad:_ZTI19RS_ActionFileSaveAs
librecad:_ZTI19RS_ActionInfoInside
librecad:_ZTI19RS_ActionLayersEdit
librecad:_ZTI19RS_ActionModifyMove
librecad:_ZTI19RS_ActionModifyTrim
librecad:_ZTI19RS_ActionSelectBase
librecad:_ZTI19RS_ActionZoomRedraw
librecad:_ZTI19RS_ActionZoomScroll
librecad:_ZTI19RS_ActionZoomWindow
librecad:_ZTI19RS_ConstructionLine
librecad:_ZTI20Doc_plugin_interface
librecad:_ZTI20LC_LinePointsOptions
librecad:_ZTI20QC_ApplicationWindow
librecad:_ZTI20QG_CircleTan2Options
librecad:_ZTI20QG_DlgOptionsDrawing
librecad:_ZTI20QG_DlgOptionsGeneral
librecad:_ZTI20QG_MoveRotateOptions
librecad:_ZTI20QG_SnapMiddleOptions
librecad:_ZTI20QG_TrimAmountOptions
librecad:_ZTI20RS_ActionModifyBevel
librecad:_ZTI20RS_ActionModifyRound
librecad:_ZTI20RS_ActionModifyScale
librecad:_ZTI20RS_ActionPolylineAdd
