libzim.so.7:_Z30getResource_libzim_resources_hRKNSt7__cxx1112basic_stringIcSt11char_traitsIcESaIcEEE
libzim.so.7:_ZN3zim10FileReaderC1ESt10shared_ptrIKNS_4unix2FDEENS_8offset_tENS_7zsize_tE
libzim.so.7:_ZN3zim10FileReaderC2ESt10shared_ptrIKNS_4unix2FDEENS_8offset_tENS_7zsize_tE
libzim.so.7:_ZN3zim10Fileheader15zimMajorVersionE
libzim.so.7:_ZN3zim10Fileheader15zimMinorVersionE
libzim.so.7:_ZN3zim10Fileheader18zimOldMajorVersionE
libzim.so.7:_ZN3zim10Fileheader4readERKNS_6ReaderE
libzim.so.7:_ZN3zim10Fileheader4sizeE
libzim.so.7:_ZN3zim10Fileheader8zimMagicE
libzim.so.7:_ZN3zim10HtmlParser10named_entsB5cxx11E
libzim.so.7:_ZN3zim10HtmlParser10parse_htmlERKNSt7__cxx1112basic_stringIcSt11char_traitsIcESaIcEEE
libzim.so.7:_ZN3zim10HtmlParser13get_parameterERKNSt7__cxx1112basic_stringIcSt11char_traitsIcESaIcEEERS6_
libzim.so.7:_ZN3zim10HtmlParser15decode_entitiesERNSt7__cxx1112basic_stringIcSt11char_traitsIcESaIcEEE
libzim.so.7:_ZN3zim10HtmlParserC1Ev
libzim.so.7:_ZN3zim10HtmlParserC2Ev
libzim.so.7:_ZN3zim10countWordsERKNSt7__cxx1112basic_stringIcSt11char_traitsIcESaIcEEE
libzim.so.7:_ZN3zim10envMemSizeEPKcj
libzim.so.7:_ZN3zim10microsleepEi
libzim.so.7:_ZN3zim11findFaviconERNS_8FileImplE
libzim.so.7:_ZN3zim11getVersionsB5cxx11Ev
libzim.so.7:_ZN3zim12DirentReader10readDirentENS_8offset_tE
libzim.so.7:_ZN3zim12FileCompound7addPartEPNS_8FilePartE
libzim.so.7:_ZN3zim12FileCompoundC1ERKNSt7__cxx1112basic_stringIcSt11char_traitsIcESaIcEEE
libzim.so.7:_ZN3zim12FileCompoundC1Ei
libzim.so.7:_ZN3zim12FileCompoundC2ERKNSt7__cxx1112basic_stringIcSt11char_traitsIcESaIcEEE
libzim.so.7:_ZN3zim12FileCompoundC2Ei
libzim.so.7:_ZN3zim12FileCompoundD1Ev
libzim.so.7:_ZN3zim12FileCompoundD2Ev
libzim.so.7:_ZN3zim12MyHtmlParser10parse_htmlERKNSt7__cxx1112basic_stringIcSt11char_traitsIcESaIcEEES8_b
libzim.so.7:_ZN3zim12MyHtmlParser11closing_tagERKNSt7__cxx1112basic_stringIcSt11char_traitsIcESaIcEEE
libzim.so.7:_ZN3zim12MyHtmlParser11opening_tagERKNSt7__cxx1112basic_stringIcSt11char_traitsIcESaIcEEE
libzim.so.7:_ZN3zim12MyHtmlParser12process_textERKNSt7__cxx1112basic_stringIcSt11char_traitsIcESaIcEEE
libzim.so.7:_ZN3zim12_toPathOrderILNS_10EntryOrderE0EEEjRKNS_8FileImplEj
libzim.so.7:_ZN3zim12_toPathOrderILNS_10EntryOrderE1EEEjRKNS_8FileImplEj
libzim.so.7:_ZN3zim12_toPathOrderILNS_10EntryOrderE2EEEjRKNS_8FileImplEj
libzim.so.7:_ZN3zim12randomNumberEj
libzim.so.7:_ZN3zim13IStreamReader10sub_readerENS_7zsize_tE
libzim.so.7:_ZN3zim13parseLongPathERKNSt7__cxx1112basic_stringIcSt11char_traitsIcESaIcEEE
libzim.so.7:_ZN3zim13printVersionsERSo
libzim.so.7:_ZN3zim13removeAccentsERKNSt7__cxx1112basic_stringIcSt11char_traitsIcESaIcEEE
libzim.so.7:_ZN3zim14SearchIteratorC1EOS0_
libzim.so.7:_ZN3zim14SearchIteratorC1EPNS0_12InternalDataE
libzim.so.7:_ZN3zim14SearchIteratorC1ERKS0_
libzim.so.7:_ZN3zim14SearchIteratorC1Ev
libzim.so.7:_ZN3zim14SearchIteratorC2EOS0_
libzim.so.7:_ZN3zim14SearchIteratorC2EPNS0_12InternalDataE
libzim.so.7:_ZN3zim14SearchIteratorC2ERKS0_
libzim.so.7:_ZN3zim14SearchIteratorC2Ev
libzim.so.7:_ZN3zim14SearchIteratorD1Ev
libzim.so.7:_ZN3zim14SearchIteratorD2Ev
libzim.so.7:_ZN3zim14SearchIteratoraSEOS0_
libzim.so.7:_ZN3zim14SearchIteratoraSERKS0_
libzim.so.7:_ZN3zim14SearchIteratormmEi
libzim.so.7:_ZN3zim14SearchIteratormmEv
libzim.so.7:_ZN3zim14SearchIteratorppEi
libzim.so.7:_ZN3zim14SearchIteratorppEv
libzim.so.7:_ZN3zim14TemplateParser10state_dataEc
libzim.so.7:_ZN3zim14TemplateParser10state_linkEc
libzim.so.7:_ZN3zim14TemplateParser11state_link0Ec
libzim.so.7:_ZN3zim14TemplateParser11state_titleEc
libzim.so.7:_ZN3zim14TemplateParser11state_tokenEc
libzim.so.7:_ZN3zim14TemplateParser12state_token0Ec
libzim.so.7:_ZN3zim14TemplateParser15state_title_endEc
libzim.so.7:_ZN3zim14TemplateParser15state_token_endEc
libzim.so.7:_ZN3zim14TemplateParser5flushEv
libzim.so.7:_ZN3zim14TemplateParser8state_ltEc
libzim.so.7:_ZN3zim14read_valuesmapERKNSt7__cxx1112basic_stringIcSt11char_traitsIcESaIcEEE
libzim.so.7:_ZN3zim15SearchResultSetC1ESt10shared_ptrINS_16InternalDataBaseEE
libzim.so.7:_ZN3zim15SearchResultSetC1ESt10shared_ptrINS_16InternalDataBaseEEON6Xapian4MSetE
libzim.so.7:_ZN3zim15SearchResultSetC2ESt10shared_ptrINS_16InternalDataBaseEE
libzim.so.7:_ZN3zim15SearchResultSetC2ESt10shared_ptrINS_16InternalDataBaseEEON6Xapian4MSetE
libzim.so.7:_ZN3zim16InternalDataBase10parseQueryERKNS_5QueryE
libzim.so.7:_ZN3zim16InternalDataBaseC1ERKSt6vectorINS_7ArchiveESaIS2_EEb
libzim.so.7:_ZN3zim16InternalDataBaseC2ERKSt6vectorINS_7ArchiveESaIS2_EEb
libzim.so.7:_ZN3zim16SuggestionSearch20forceRangeSuggestionEv
libzim.so.7:_ZN3zim16SuggestionSearchC1EOS0_
libzim.so.7:_ZN3zim16SuggestionSearchC1ESt10shared_ptrINS_18SuggestionDataBaseEERKNSt7__cxx1112basic_stringIcSt11char_traitsIcESaIcEEE
libzim.so.7:_ZN3zim16SuggestionSearchC2EOS0_
libzim.so.7:_ZN3zim16SuggestionSearchC2ESt10shared_ptrINS_18SuggestionDataBaseEERKNSt7__cxx1112basic_stringIcSt11char_traitsIcESaIcEEE
libzim.so.7:_ZN3zim16SuggestionSearchD1Ev
libzim.so.7:_ZN3zim16SuggestionSearchD2Ev
libzim.so.7:_ZN3zim16SuggestionSearchaSEOS0_
libzim.so.7:_ZN3zim17getFilePathFromFDB5cxx11Ei
libzim.so.7:_ZN3zim18SuggestionDataBase10parseQueryERKNSt7__cxx1112basic_stringIcSt11char_traitsIcESaIcEEE
libzim.so.7:_ZN3zim18SuggestionDataBase12initXapianDbEv
libzim.so.7:_ZN3zim18SuggestionDataBaseC1ERKNS_7ArchiveEb
libzim.so.7:_ZN3zim18SuggestionDataBaseC2ERKNS_7ArchiveEb
libzim.so.7:_ZN3zim18SuggestionIteratorC1ENS_7Archive8iteratorILNS_10EntryOrderE1EEE
libzim.so.7:_ZN3zim18SuggestionIteratorC1EOS0_
libzim.so.7:_ZN3zim18SuggestionIteratorC1EPNS0_22SuggestionInternalDataE
libzim.so.7:_ZN3zim18SuggestionIteratorC1ERKS0_
libzim.so.7:_ZN3zim18SuggestionIteratorC2ENS_7Archive8iteratorILNS_10EntryOrderE1EEE
libzim.so.7:_ZN3zim18SuggestionIteratorC2EOS0_
libzim.so.7:_ZN3zim18SuggestionIteratorC2EPNS0_22SuggestionInternalDataE
libzim.so.7:_ZN3zim18SuggestionIteratorC2ERKS0_
libzim.so.7:_ZN3zim18SuggestionIteratorD1Ev
libzim.so.7:_ZN3zim18SuggestionIteratorD2Ev
libzim.so.7:_ZN3zim18SuggestionIteratoraSEOS0_
libzim.so.7:_ZN3zim18SuggestionIteratoraSERKS0_
libzim.so.7:_ZN3zim18SuggestionIteratordeEv
libzim.so.7:_ZN3zim18SuggestionIteratormmEi
libzim.so.7:_ZN3zim18SuggestionIteratormmEv
libzim.so.7:_ZN3zim18SuggestionIteratorppEi
libzim.so.7:_ZN3zim18SuggestionIteratorppEv
libzim.so.7:_ZN3zim18SuggestionIteratorptEv
libzim.so.7:_ZN3zim18SuggestionSearcher10setVerboseEb
libzim.so.7:_ZN3zim18SuggestionSearcher12initDatabaseEv
libzim.so.7:_ZN3zim18SuggestionSearcher7suggestERKNSt7__cxx1112basic_stringIcSt11char_traitsIcESaIcEEE
libzim.so.7:_ZN3zim18SuggestionSearcherC1EOS0_
libzim.so.7:_ZN3zim18SuggestionSearcherC1ERKNS_7ArchiveE
libzim.so.7:_ZN3zim18SuggestionSearcherC1ERKS0_
libzim.so.7:_ZN3zim18SuggestionSearcherC2EOS0_
libzim.so.7:_ZN3zim18SuggestionSearcherC2ERKNS_7ArchiveE
libzim.so.7:_ZN3zim18SuggestionSearcherC2ERKS0_
libzim.so.7:_ZN3zim18SuggestionSearcherD1Ev
libzim.so.7:_ZN3zim18SuggestionSearcherD2Ev
libzim.so.7:_ZN3zim18SuggestionSearcheraSEOS0_
libzim.so.7:_ZN3zim18SuggestionSearcheraSERKS0_
libzim.so.7:_ZN3zim19MultiPartFileReaderC1ESt10shared_ptrIKNS_12FileCompoundEE
libzim.so.7:_ZN3zim19MultiPartFileReaderC1ESt10shared_ptrIKNS_12FileCompoundEENS_8offset_tENS_7zsize_tE
libzim.so.7:_ZN3zim19MultiPartFileReaderC2ESt10shared_ptrIKNS_12FileCompoundEE
libzim.so.7:_ZN3zim19MultiPartFileReaderC2ESt10shared_ptrIKNS_12FileCompoundEENS_8offset_tENS_7zsize_tE
libzim.so.7:_ZN3zim19SuggestionResultSetC1ENS_7Archive10EntryRangeILNS_10EntryOrderE1EEE
libzim.so.7:_ZN3zim19SuggestionResultSetC1ESt10shared_ptrINS_18SuggestionDataBaseEEON6Xapian4MSetE
libzim.so.7:_ZN3zim19SuggestionResultSetC2ENS_7Archive10EntryRangeILNS_10EntryOrderE1EEE
libzim.so.7:_ZN3zim19SuggestionResultSetC2ESt10shared_ptrINS_18SuggestionDataBaseEEON6Xapian4MSetE
libzim.so.7:_ZN3zim19getDbFromAccessInfoESt4pairINSt7__cxx1112basic_stringIcSt11char_traitsIcESaIcEEEmERN6Xapian8DatabaseE
libzim.so.7:_ZN3zim20DirectDirentAccessorC1ESt10shared_ptrINS_12DirentReaderEESt10unique_ptrIKNS_6ReaderESt14default_deleteIS6_EENS_13entry_index_tE
libzim.so.7:_ZN3zim20DirectDirentAccessorC2ESt10shared_ptrINS_12DirentReaderEESt10unique_ptrIKNS_6ReaderESt14default_deleteIS6_EENS_13entry_index_tE
libzim.so.7:_ZN3zim22IndirectDirentAccessorC1ESt10shared_ptrIKNS_20DirectDirentAccessorEESt10unique_ptrIKNS_6ReaderESt14default_deleteIS7_EENS_13title_index_tE
libzim.so.7:_ZN3zim22IndirectDirentAccessorC2ESt10shared_ptrIKNS_20DirectDirentAccessorEESt10unique_ptrIKNS_6ReaderESt14default_deleteIS7_EENS_13title_index_tE
libzim.so.7:_ZN3zim22isCompressibleMimetypeERKNSt7__cxx1112basic_stringIcSt11char_traitsIcESaIcEEE
libzim.so.7:_ZN3zim27parseIllustrationPathToSizeERKNSt7__cxx1112basic_stringIcSt11char_traitsIcESaIcEEE
libzim.so.7:_ZN3zim4BlobC1EPKcm
libzim.so.7:_ZN3zim4BlobC1ERKSt10shared_ptrIKcEm
libzim.so.7:_ZN3zim4BlobC1Ev
libzim.so.7:_ZN3zim4BlobC2EPKcm
libzim.so.7:_ZN3zim4BlobC2ERKSt10shared_ptrIKcEm
libzim.so.7:_ZN3zim4BlobC2Ev
libzim.so.7:_ZN3zim4ItemC1ESt10shared_ptrINS_8FileImplEEj
libzim.so.7:_ZN3zim4ItemC2ESt10shared_ptrINS_8FileImplEEj
libzim.so.7:_ZN3zim4Uuid8generateENSt7__cxx1112basic_stringIcSt11char_traitsIcESaIcEEE
libzim.so.7:_ZN3zim4unix2FD4seekENS_8offset_tE
libzim.so.7:_ZN3zim4unix2FD5closeEv
libzim.so.7:_ZN3zim4unix2FS10removeFileERKNSt7__cxx1112basic_stringIcSt11char_traitsIcESaIcEEE
libzim.so.7:_ZN3zim4unix2FS13makeDirectoryERKNSt7__cxx1112basic_stringIcSt11char_traitsIcESaIcEEE
libzim.so.7:_ZN3zim4unix2FS4joinERKNSt7__cxx1112basic_stringIcSt11char_traitsIcESaIcEEES9_
libzim.so.7:_ZN3zim4unix2FS6removeERKNSt7__cxx1112basic_stringIcSt11char_traitsIcESaIcEEE
libzim.so.7:_ZN3zim4unix2FS6renameERKNSt7__cxx1112basic_stringIcSt11char_traitsIcESaIcEEES9_
libzim.so.7:_ZN3zim4unix2FS8openFileERKNSt7__cxx1112basic_stringIcSt11char_traitsIcESaIcEEE
libzim.so.7:_ZN3zim4unix2FS9removeDirERKNSt7__cxx1112basic_stringIcSt11char_traitsIcESaIcEEE
libzim.so.7:_ZN3zim5EntryC1ESt10shared_ptrINS_8FileImplEEj
libzim.so.7:_ZN3zim5EntryC2ESt10shared_ptrINS_8FileImplEEj
libzim.so.7:_ZN3zim5Query11setGeorangeEfff
libzim.so.7:_ZN3zim5Query8setQueryERKNSt7__cxx1112basic_stringIcSt11char_traitsIcESaIcEEE
libzim.so.7:_ZN3zim5QueryC1ERKNSt7__cxx1112basic_stringIcSt11char_traitsIcESaIcEEE
libzim.so.7:_ZN3zim5QueryC2ERKNSt7__cxx1112basic_stringIcSt11char_traitsIcESaIcEEE
libzim.so.7:_ZN3zim5splitERKNSt7__cxx1112basic_stringIcSt11char_traitsIcESaIcEEES7_
libzim.so.7:_ZN3zim6Buffer10makeBufferENS_7zsize_tE
libzim.so.7:_ZN3zim6Buffer10makeBufferEPKcNS_7zsize_tE
libzim.so.7:_ZN3zim6Buffer10makeBufferERKSt10shared_ptrIKcENS_7zsize_tE
libzim.so.7:_ZN3zim6BufferC1ERKSt10shared_ptrIKcENS_7zsize_tE
libzim.so.7:_ZN3zim6BufferC2ERKSt10shared_ptrIKcENS_7zsize_tE
libzim.so.7:_ZN3zim6Dirent15deletedMimeTypeE
libzim.so.7:_ZN3zim6Dirent16redirectMimeTypeE
libzim.so.7:_ZN3zim6Dirent18linktargetMimeTypeE
libzim.so.7:_ZN3zim6SearchC1EOS0_
libzim.so.7:_ZN3zim6SearchC1ESt10shared_ptrINS_16InternalDataBaseEERKNS_5QueryE
libzim.so.7:_ZN3zim6SearchC2EOS0_
libzim.so.7:_ZN3zim6SearchC2ESt10shared_ptrINS_16InternalDataBaseEERKNS_5QueryE
libzim.so.7:_ZN3zim6SearchD1Ev
libzim.so.7:_ZN3zim6SearchD2Ev
libzim.so.7:_ZN3zim6SearchaSEOS0_
libzim.so.7:_ZN3zim6writer10taskRunnerEPv
libzim.so.7:_ZN3zim6writer11ClusterTask12waiting_taskE
libzim.so.7:_ZN3zim6writer11ClusterTask3runEPNS0_11CreatorDataE
libzim.so.7:_ZN3zim6writer11CreatorData11addItemDataEPNS0_6DirentESt10unique_ptrINS0_15ContentProviderESt14default_deleteIS5_EEb
libzim.so.7:_ZN3zim6writer11CreatorData12closeClusterEb
libzim.so.7:_ZN3zim6writer11CreatorData12createDirentENS0_2NSERKNSt7__cxx1112basic_stringIcSt11char_traitsIcESaIcEEESA_SA_
libzim.so.7:_ZN3zim6writer11CreatorData14getMimeTypeIdxERKNSt7__cxx1112basic_stringIcSt11char_traitsIcESaIcEEE
libzim.so.7:_ZN3zim6writer11CreatorData14quitAllThreadsEv
libzim.so.7:_ZN3zim6writer11CreatorData15setEntryIndexesEv
libzim.so.7:_ZN3zim6writer11CreatorData16createItemDirentEPKNS0_4ItemE
libzim.so.7:_ZN3zim6writer11CreatorData16resolveMimeTypesEv
libzim.so.7:_ZN3zim6writer11CreatorData20createRedirectDirentENS0_2NSERKNSt7__cxx1112basic_stringIcSt11char_traitsIcESaIcEEESA_S2_SA_
libzim.so.7:_ZN3zim6writer11CreatorData22resolveRedirectIndexesEv
libzim.so.7:_ZN3zim6writer11CreatorData9addDirentEPNS0_6DirentE
libzim.so.7:_ZN3zim6writer11CreatorDataC1ERKNSt7__cxx1112basic_stringIcSt11char_traitsIcESaIcEEEbbS7_NS_11CompressionEm
libzim.so.7:_ZN3zim6writer11CreatorDataC2ERKNSt7__cxx1112basic_stringIcSt11char_traitsIcESaIcEEEbbS7_NS_11CompressionEm
libzim.so.7:_ZN3zim6writer11CreatorDataD0Ev
libzim.so.7:_ZN3zim6writer11CreatorDataD1Ev
libzim.so.7:_ZN3zim6writer11CreatorDataD2Ev
libzim.so.7:_ZN3zim6writer12FileProvider4feedEv
libzim.so.7:_ZN3zim6writer12FileProviderC1ERKNSt7__cxx1112basic_stringIcSt11char_traitsIcESaIcEEE
libzim.so.7:_ZN3zim6writer12FileProviderC2ERKNSt7__cxx1112basic_stringIcSt11char_traitsIcESaIcEEE
libzim.so.7:_ZN3zim6writer12FileProviderD0Ev
libzim.so.7:_ZN3zim6writer12FileProviderD1Ev
libzim.so.7:_ZN3zim6writer12FileProviderD2Ev
libzim.so.7:_ZN3zim6writer13XapianHandler10indexTitleEPNS0_6DirentE
libzim.so.7:_ZN3zim6writer13XapianHandler4stopEv
libzim.so.7:_ZN3zim6writer13XapianHandler5startEv
libzim.so.7:_ZN3zim6writer13XapianHandler6handleEPNS0_6DirentERKSt3mapINS0_8HintKeysEmSt4lessIS5_ESaISt4pairIKS5_mEEE
libzim.so.7:_ZN3zim6writer13XapianHandler6handleEPNS0_6DirentESt10shared_ptrINS0_4ItemEE
libzim.so.7:_ZN3zim6writer13XapianHandlerC1EPNS0_11CreatorDataEb
libzim.so.7:_ZN3zim6writer13XapianHandlerC2EPNS0_11CreatorDataEb
libzim.so.7:_ZN3zim6writer13XapianHandlerD0Ev
libzim.so.7:_ZN3zim6writer13XapianHandlerD1Ev
libzim.so.7:_ZN3zim6writer13XapianHandlerD2Ev
libzim.so.7:_ZN3zim6writer13XapianIndexer10indexTitleERKNSt7__cxx1112basic_stringIcSt11char_traitsIcESaIcEEES9_S9_
libzim.so.7:_ZN3zim6writer13XapianIndexer15indexingPreludeEv
libzim.so.7:_ZN3zim6writer13XapianIndexer16indexingPostludeEv
libzim.so.7:_ZN3zim6writer13XapianIndexer5flushEv
libzim.so.7:_ZN3zim6writer13XapianIndexerC1ERKNSt7__cxx1112basic_stringIcSt11char_traitsIcESaIcEEES9_NS0_12IndexingModeEb
libzim.so.7:_ZN3zim6writer13XapianIndexerC2ERKNSt7__cxx1112basic_stringIcSt11char_traitsIcESaIcEEES9_NS0_12IndexingModeEb
libzim.so.7:_ZN3zim6writer13XapianIndexerD0Ev
libzim.so.7:_ZN3zim6writer13XapianIndexerD1Ev
libzim.so.7:_ZN3zim6writer13XapianIndexerD2Ev
libzim.so.7:_ZN3zim6writer13clusterWriterEPv
libzim.so.7:_ZN3zim6writer14CounterHandler4stopEv
libzim.so.7:_ZN3zim6writer14CounterHandler5startEv
libzim.so.7:_ZN3zim6writer14CounterHandler6handleEPNS0_6DirentERKSt3mapINS0_8HintKeysEmSt4lessIS5_ESaISt4pairIKS5_mEEE
libzim.so.7:_ZN3zim6writer14CounterHandler6handleEPNS0_6DirentESt10shared_ptrINS0_4ItemEE
libzim.so.7:_ZN3zim6writer14CounterHandlerC1EPNS0_11CreatorDataE
libzim.so.7:_ZN3zim6writer14CounterHandlerC2EPNS0_11CreatorDataE
libzim.so.7:_ZN3zim6writer14CounterHandlerD0Ev
libzim.so.7:_ZN3zim6writer14CounterHandlerD1Ev
libzim.so.7:_ZN3zim6writer14CounterHandlerD2Ev
libzim.so.7:_ZN3zim6writer14StringProvider4feedEv
libzim.so.7:_ZN3zim6writer19TitleListingHandler4stopEv
libzim.so.7:_ZN3zim6writer19TitleListingHandler5startEv
libzim.so.7:_ZN3zim6writer19TitleListingHandler6handleEPNS0_6DirentERKSt3mapINS0_8HintKeysEmSt4lessIS5_ESaISt4pairIKS5_mEEE
libzim.so.7:_ZN3zim6writer19TitleListingHandler6handleEPNS0_6DirentESt10shared_ptrINS0_4ItemEE
libzim.so.7:_ZN3zim6writer19TitleListingHandlerC1EPNS0_11CreatorDataE
libzim.so.7:_ZN3zim6writer19TitleListingHandlerC2EPNS0_11CreatorDataE
libzim.so.7:_ZN3zim6writer19TitleListingHandlerD0Ev
libzim.so.7:_ZN3zim6writer19TitleListingHandlerD1Ev
libzim.so.7:_ZN3zim6writer19TitleListingHandlerD2Ev
libzim.so.7:_ZN3zim6writer20SharedStringProvider4feedEv
libzim.so.7:_ZN3zim6writer6DirentC1ENS0_2NSERKNSt7__cxx1112basic_stringIcSt11char_traitsIcESaIcEEESA_S2_SA_
libzim.so.7:_ZN3zim6writer6DirentC1ENS0_2NSERKNSt7__cxx1112basic_stringIcSt11char_traitsIcESaIcEEESA_t
libzim.so.7:_ZN3zim6writer6DirentC2ENS0_2NSERKNSt7__cxx1112basic_stringIcSt11char_traitsIcESaIcEEESA_S2_SA_
libzim.so.7:_ZN3zim6writer6DirentC2ENS0_2NSERKNSt7__cxx1112basic_stringIcSt11char_traitsIcESaIcEEESA_t
libzim.so.7:_ZN3zim6writer7Cluster10addContentERKNSt7__cxx1112basic_stringIcSt11char_traitsIcESaIcEEE
libzim.so.7:_ZN3zim6writer7Cluster10addContentESt10unique_ptrINS0_15ContentProviderESt14default_deleteIS3_EE
libzim.so.7:_ZN3zim6writer7Cluster10clear_dataEv
libzim.so.7:_ZN3zim6writer7Cluster14clear_raw_dataEv
libzim.so.7:_ZN3zim6writer7Cluster21clear_compressed_dataEv
libzim.so.7:_ZN3zim6writer7Cluster5closeEv
libzim.so.7:_ZN3zim6writer7Cluster8compressEv
libzim.so.7:_ZN3zim6writer7ClusterC1ENS_11CompressionE
libzim.so.7:_ZN3zim6writer7ClusterC2ENS_11CompressionE
libzim.so.7:_ZN3zim6writer7ClusterD0Ev
libzim.so.7:_ZN3zim6writer7ClusterD1Ev
libzim.so.7:_ZN3zim6writer7ClusterD2Ev
libzim.so.7:_ZN3zim6writer7Creator11addMetadataERKNSt7__cxx1112basic_stringIcSt11char_traitsIcESaIcEEES9_S9_
libzim.so.7:_ZN3zim6writer7Creator11addMetadataERKNSt7__cxx1112basic_stringIcSt11char_traitsIcESaIcEEESt10unique_ptrINS0_15ContentProviderESt14default_deleteISB_EES9_
libzim.so.7:_ZN3zim6writer7Creator13configVerboseEb
libzim.so.7:_ZN3zim6writer7Creator14addRedirectionERKNSt7__cxx1112basic_stringIcSt11char_traitsIcESaIcEEES9_S9_RKSt3mapINS0_8HintKeysEmSt4lessISB_ESaISt4pairIKSB_mEEE
libzim.so.7:_ZN3zim6writer7Creator14configIndexingEbRKNSt7__cxx1112basic_stringIcSt11char_traitsIcESaIcEEE
libzim.so.7:_ZN3zim6writer7Creator15addIllustrationEjRKNSt7__cxx1112basic_stringIcSt11char_traitsIcESaIcEEE
libzim.so.7:_ZN3zim6writer7Creator15addIllustrationEjSt10unique_ptrINS0_15ContentProviderESt14default_deleteIS3_EE
libzim.so.7:_ZN3zim6writer7Creator15configNbWorkersEj
libzim.so.7:_ZN3zim6writer7Creator16startZimCreationERKNSt7__cxx1112basic_stringIcSt11char_traitsIcESaIcEEE
libzim.so.7:_ZN3zim6writer7Creator17configClusterSizeEm
libzim.so.7:_ZN3zim6writer7Creator17configCompressionENS_11CompressionE
libzim.so.7:_ZN3zim6writer7Creator17finishZimCreationEv
libzim.so.7:_ZN3zim6writer7Creator7addItemESt10shared_ptrINS0_4ItemEE
libzim.so.7:_ZN3zim6writer7CreatorC1Ev
libzim.so.7:_ZN3zim6writer7CreatorC2Ev
libzim.so.7:_ZN3zim6writer7CreatorD0Ev
libzim.so.7:_ZN3zim6writer7CreatorD1Ev
libzim.so.7:_ZN3zim6writer7CreatorD2Ev
libzim.so.7:_ZN3zim6writer8NsAsCharENS0_2NSE
libzim.so.7:_ZN3zim6writer9IndexTask12waiting_taskE
libzim.so.7:_ZN3zim6writer9IndexTask14waitNoMoreTaskEv
libzim.so.7:_ZN3zim6writer9IndexTask3runEPNS0_11CreatorDataE
libzim.so.7:_ZN3zim7Archive14checkIntegrityENS_14IntegrityCheckE
libzim.so.7:_ZN3zim7ArchiveC1ERKNSt7__cxx1112basic_stringIcSt11char_traitsIcESaIcEEE
libzim.so.7:_ZN3zim7ArchiveC1Ei
libzim.so.7:_ZN3zim7ArchiveC1Eimm
libzim.so.7:_ZN3zim7ArchiveC2ERKNSt7__cxx1112basic_stringIcSt11char_traitsIcESaIcEEE
libzim.so.7:_ZN3zim7ArchiveC2Ei
libzim.so.7:_ZN3zim7ArchiveC2Eimm
libzim.so.7:_ZN3zim7Cluster4readERKNS_6ReaderENS_8offset_tE
libzim.so.7:_ZN3zim7ClusterC1ESt10unique_ptrINS_13IStreamReaderESt14default_deleteIS2_EENS_11CompressionEb
libzim.so.7:_ZN3zim7ClusterC2ESt10unique_ptrINS_13IStreamReaderESt14default_deleteIS2_EENS_11CompressionEb
libzim.so.7:_ZN3zim8FileImpl10getClusterENS_15cluster_index_tE
libzim.so.7:_ZN3zim8FileImpl11getChecksumB5cxx11Ev
libzim.so.7:_ZN3zim8FileImpl11readClusterENS_15cluster_index_tE
libzim.so.7:_ZN3zim8FileImpl12findxByTitleEcRKNSt7__cxx1112basic_stringIcSt11char_traitsIcESaIcEEE
libzim.so.7:_ZN3zim8FileImpl12getFilePartsENS_8offset_tENS_7zsize_tE
libzim.so.7:_ZN3zim8FileImpl13checkChecksumEv
libzim.so.7:_ZN3zim8FileImpl13getBlobOffsetENS_15cluster_index_tENS_12blob_index_tE
libzim.so.7:_ZN3zim8FileImpl13readMimeTypesEv
libzim.so.7:_ZN3zim8FileImpl14checkIntegrityENS_14IntegrityCheckE
libzim.so.7:_ZN3zim8FileImpl15checkDirentPtrsEv
libzim.so.7:_ZN3zim8FileImpl15checkTitleIndexEv
libzim.so.7:_ZN3zim8FileImpl16checkClusterPtrsEv
libzim.so.7:_ZN3zim8FileImpl16checkDirentOrderEv
libzim.so.7:_ZN3zim8FileImpl16getDirentByTitleENS_13title_index_tE
libzim.so.7:_ZN3zim8FileImpl16getTitleAccessorENS_8offset_tENS_7zsize_tERKNSt7__cxx1112basic_stringIcSt11char_traitsIcESaIcEEE
libzim.so.7:_ZN3zim8FileImpl16getTitleAccessorERKNSt7__cxx1112basic_stringIcSt11char_traitsIcESaIcEEE
libzim.so.7:_ZN3zim8FileImpl20checkDirentMimeTypesEv
libzim.so.7:_ZN3zim8FileImpl24quickCheckForCorruptFileEv
libzim.so.7:_ZN3zim8FileImpl5findxERKNSt7__cxx1112basic_stringIcSt11char_traitsIcESaIcEEE
libzim.so.7:_ZN3zim8FileImpl5findxEcRKNSt7__cxx1112basic_stringIcSt11char_traitsIcESaIcEEE
libzim.so.7:_ZN3zim8FileImpl6verifyEv
libzim.so.7:_ZN3zim8FileImpl9getDirentENS_13entry_index_tE
libzim.so.7:_ZN3zim8FileImplC1ERKNSt7__cxx1112basic_stringIcSt11char_traitsIcESaIcEEE
libzim.so.7:_ZN3zim8FileImplC1ESt10shared_ptrINS_12FileCompoundEE
libzim.so.7:_ZN3zim8FileImplC1ESt10shared_ptrINS_12FileCompoundEENS_8offset_tENS_7zsize_tE
libzim.so.7:_ZN3zim8FileImplC1Ei
libzim.so.7:_ZN3zim8FileImplC1EiNS_8offset_tENS_7zsize_tE
libzim.so.7:_ZN3zim8FileImplC2ERKNSt7__cxx1112basic_stringIcSt11char_traitsIcESaIcEEE
libzim.so.7:_ZN3zim8FileImplC2ESt10shared_ptrINS_12FileCompoundEE
libzim.so.7:_ZN3zim8FileImplC2ESt10shared_ptrINS_12FileCompoundEENS_8offset_tENS_7zsize_tE
libzim.so.7:_ZN3zim8FileImplC2Ei
libzim.so.7:_ZN3zim8FileImplC2EiNS_8offset_tENS_7zsize_tE
libzim.so.7:_ZN3zim8Searcher10addArchiveERKNS_7ArchiveE
libzim.so.7:_ZN3zim8Searcher10setVerboseEb
libzim.so.7:_ZN3zim8Searcher12initDatabaseEv
libzim.so.7:_ZN3zim8Searcher6searchERKNS_5QueryE
libzim.so.7:_ZN3zim8SearcherC1EOS0_
libzim.so.7:_ZN3zim8SearcherC1ERKNS_7ArchiveE
libzim.so.7:_ZN3zim8SearcherC1ERKS0_
libzim.so.7:_ZN3zim8SearcherC1ERKSt6vectorINS_7ArchiveESaIS2_EE
libzim.so.7:_ZN3zim8SearcherC2EOS0_
libzim.so.7:_ZN3zim8SearcherC2ERKNS_7ArchiveE
libzim.so.7:_ZN3zim8SearcherC2ERKS0_
libzim.so.7:_ZN3zim8SearcherC2ERKSt6vectorINS_7ArchiveESaIS2_EE
libzim.so.7:_ZN3zim8SearcherD1Ev
libzim.so.7:_ZN3zim8SearcherD2Ev
libzim.so.7:_ZN3zim8SearcheraSEOS0_
libzim.so.7:_ZN3zim8SearcheraSERKS0_
libzim.so.7:_ZN3zim8envValueEPKcj
libzim.so.7:_ZN3zim8validateERKNSt7__cxx1112basic_stringIcSt11char_traitsIcESaIcEEESt6bitsetILm6EE
libzim.so.7:_ZN3zimlsERSoRKNS_4UuidE
libzim.so.7:_ZN8RESOURCE9stopwords2afB5cxx11E
libzim.so.7:_ZN8RESOURCE9stopwords2arB5cxx11E
libzim.so.7:_ZN8RESOURCE9stopwords2bgB5cxx11E
libzim.so.7:_ZN8RESOURCE9stopwords2bnB5cxx11E
libzim.so.7:_ZN8RESOURCE9stopwords2brB5cxx11E
libzim.so.7:_ZN8RESOURCE9stopwords2caB5cxx11E
libzim.so.7:_ZN8RESOURCE9stopwords2csB5cxx11E
libzim.so.7:_ZN8RESOURCE9stopwords2daB5cxx11E
libzim.so.7:_ZN8RESOURCE9stopwords2deB5cxx11E
libzim.so.7:_ZN8RESOURCE9stopwords2elB5cxx11E
libzim.so.7:_ZN8RESOURCE9stopwords2enB5cxx11E
libzim.so.7:_ZN8RESOURCE9stopwords2eoB5cxx11E
libzim.so.7:_ZN8RESOURCE9stopwords2esB5cxx11E
libzim.so.7:_ZN8RESOURCE9stopwords2etB5cxx11E
libzim.so.7:_ZN8RESOURCE9stopwords2euB5cxx11E
libzim.so.7:_ZN8RESOURCE9stopwords2faB5cxx11E
libzim.so.7:_ZN8RESOURCE9stopwords2fiB5cxx11E
libzim.so.7:_ZN8RESOURCE9stopwords2frB5cxx11E
libzim.so.7:_ZN8RESOURCE9stopwords2gaB5cxx11E
libzim.so.7:_ZN8RESOURCE9stopwords2glB5cxx11E
libzim.so.7:_ZN8RESOURCE9stopwords2guB5cxx11E
libzim.so.7:_ZN8RESOURCE9stopwords2haB5cxx11E
libzim.so.7:_ZN8RESOURCE9stopwords2heB5cxx11E
libzim.so.7:_ZN8RESOURCE9stopwords2hiB5cxx11E
libzim.so.7:_ZN8RESOURCE9stopwords2hrB5cxx11E
libzim.so.7:_ZN8RESOURCE9stopwords2huB5cxx11E
libzim.so.7:_ZN8RESOURCE9stopwords2hyB5cxx11E
libzim.so.7:_ZN8RESOURCE9stopwords2idB5cxx11E
libzim.so.7:_ZN8RESOURCE9stopwords2itB5cxx11E
libzim.so.7:_ZN8RESOURCE9stopwords2jaB5cxx11E
libzim.so.7:_ZN8RESOURCE9stopwords2koB5cxx11E
libzim.so.7:_ZN8RESOURCE9stopwords2kuB5cxx11E
libzim.so.7:_ZN8RESOURCE9stopwords2laB5cxx11E
libzim.so.7:_ZN8RESOURCE9stopwords2ltB5cxx11E
libzim.so.7:_ZN8RESOURCE9stopwords2lvB5cxx11E
libzim.so.7:_ZN8RESOURCE9stopwords2mrB5cxx11E
libzim.so.7:_ZN8RESOURCE9stopwords2msB5cxx11E
libzim.so.7:_ZN8RESOURCE9stopwords2nlB5cxx11E
libzim.so.7:_ZN8RESOURCE9stopwords2noB5cxx11E
libzim.so.7:_ZN8RESOURCE9stopwords2plB5cxx11E
libzim.so.7:_ZN8RESOURCE9stopwords2ptB5cxx11E
libzim.so.7:_ZN8RESOURCE9stopwords2roB5cxx11E
libzim.so.7:_ZN8RESOURCE9stopwords2ruB5cxx11E
libzim.so.7:_ZN8RESOURCE9stopwords2skB5cxx11E
libzim.so.7:_ZN8RESOURCE9stopwords2slB5cxx11E
libzim.so.7:_ZN8RESOURCE9stopwords2soB5cxx11E
libzim.so.7:_ZN8RESOURCE9stopwords2stB5cxx11E
libzim.so.7:_ZN8RESOURCE9stopwords2svB5cxx11E
libzim.so.7:_ZN8RESOURCE9stopwords2swB5cxx11E
libzim.so.7:_ZN8RESOURCE9stopwords2thB5cxx11E
libzim.so.7:_ZN8RESOURCE9stopwords2tlB5cxx11E
libzim.so.7:_ZN8RESOURCE9stopwords2trB5cxx11E
libzim.so.7:_ZN8RESOURCE9stopwords2ukB5cxx11E
libzim.so.7:_ZN8RESOURCE9stopwords2urB5cxx11E
libzim.so.7:_ZN8RESOURCE9stopwords2viB5cxx11E
libzim.so.7:_ZN8RESOURCE9stopwords2yoB5cxx11E
libzim.so.7:_ZN8RESOURCE9stopwords2zhB5cxx11E
libzim.so.7:_ZN8RESOURCE9stopwords2zuB5cxx11E
libzim.so.7:_ZN9LZMA_INFO10stream_runEP11lzma_stream8CompStep
libzim.so.7:_ZN9LZMA_INFO17stream_end_decodeEP11lzma_stream
libzim.so.7:_ZN9LZMA_INFO17stream_end_encodeEP11lzma_stream
libzim.so.7:_ZN9LZMA_INFO17stream_run_decodeEP11lzma_stream8CompStep
libzim.so.7:_ZN9LZMA_INFO17stream_run_encodeEP11lzma_stream8CompStep
libzim.so.7:_ZN9LZMA_INFO19init_stream_decoderEP11lzma_streamPc
libzim.so.7:_ZN9LZMA_INFO19init_stream_encoderEP11lzma_streamPc
libzim.so.7:_ZN9LZMA_INFO4nameB5cxx11E
libzim.so.7:_ZN9ZSTD_INFO17stream_end_decodeEPNS_8stream_tE
libzim.so.7:_ZN9ZSTD_INFO17stream_end_encodeEPNS_8stream_tE
libzim.so.7:_ZN9ZSTD_INFO17stream_run_decodeEPNS_8stream_tE8CompStep
libzim.so.7:_ZN9ZSTD_INFO17stream_run_encodeEPNS_8stream_tE8CompStep
libzim.so.7:_ZN9ZSTD_INFO19init_stream_decoderEPNS_8stream_tEPc
libzim.so.7:_ZN9ZSTD_INFO19init_stream_encoderEPNS_8stream_tEPc
libzim.so.7:_ZN9ZSTD_INFO4nameB5cxx11E
libzim.so.7:_ZN9ZSTD_INFO8stream_tC1Ev
libzim.so.7:_ZN9ZSTD_INFO8stream_tC2Ev
libzim.so.7:_ZN9ZSTD_INFO8stream_tD1Ev
libzim.so.7:_ZN9ZSTD_INFO8stream_tD2Ev
libzim.so.7:_ZNK3zim10FileReader10get_bufferENS_8offset_tENS_7zsize_tE
libzim.so.7:_ZNK3zim10FileReader10sub_readerENS_8offset_tENS_7zsize_tE
libzim.so.7:_ZNK3zim10FileReader4readENS_8offset_tE
libzim.so.7:_ZNK3zim10FileReader4readEPcNS_8offset_tENS_7zsize_tE
libzim.so.7:_ZNK3zim10Fileheader12sanity_checkEv
libzim.so.7:_ZNK3zim10Fileheader5writeEi
libzim.so.7:_ZNK3zim12BufferReader10get_bufferENS_8offset_tENS_7zsize_tE
libzim.so.7:_ZNK3zim12BufferReader10sub_readerENS_8offset_tENS_7zsize_tE
libzim.so.7:_ZNK3zim12BufferReader4readENS_8offset_tE
libzim.so.7:_ZNK3zim12BufferReader4readEPcNS_8offset_tENS_7zsize_tE
libzim.so.7:_ZNK3zim12BufferReader4sizeEv
libzim.so.7:_ZNK3zim12BufferReader6offsetEv
libzim.so.7:_ZNK3zim12DirentReader10initDirentERNS_6DirentERKNS_6BufferE
libzim.so.7:_ZNK3zim12FileCompound8getMTimeEv
libzim.so.7:_ZNK3zim14SearchIterator10getSnippetB5cxx11Ev
libzim.so.7:_ZNK3zim14SearchIterator12getFileIndexEv
libzim.so.7:_ZNK3zim14SearchIterator12getWordCountEv
libzim.so.7:_ZNK3zim14SearchIterator7getPathB5cxx11Ev
libzim.so.7:_ZNK3zim14SearchIterator7getSizeEv
libzim.so.7:_ZNK3zim14SearchIterator8getScoreEv
libzim.so.7:_ZNK3zim14SearchIterator8getTitleB5cxx11Ev
libzim.so.7:_ZNK3zim14SearchIterator8getZimIdEv
libzim.so.7:_ZNK3zim14SearchIterator9getDbDataB5cxx11Ev
libzim.so.7:_ZNK3zim14SearchIteratordeEv
libzim.so.7:_ZNK3zim14SearchIteratoreqERKS0_
libzim.so.7:_ZNK3zim14SearchIteratorneERKS0_
libzim.so.7:_ZNK3zim14SearchIteratorptEv
libzim.so.7:_ZNK3zim15SearchResultSet3endEv
libzim.so.7:_ZNK3zim15SearchResultSet4sizeEv
libzim.so.7:_ZNK3zim15SearchResultSet5beginEv
libzim.so.7:_ZNK3zim16InternalDataBase11hasDatabaseEv
libzim.so.7:_ZNK3zim16InternalDataBase12hasValuesmapEv
libzim.so.7:_ZNK3zim16InternalDataBase8hasValueERKNSt7__cxx1112basic_stringIcSt11char_traitsIcESaIcEEE
libzim.so.7:_ZNK3zim16InternalDataBase9valueSlotERKNSt7__cxx1112basic_stringIcSt11char_traitsIcESaIcEEE
libzim.so.7:_ZNK3zim16SuggestionSearch10getEnquireEv
libzim.so.7:_ZNK3zim16SuggestionSearch10getResultsEii
libzim.so.7:_ZNK3zim16SuggestionSearch19getEstimatedMatchesEv
libzim.so.7:_ZNK3zim18SuggestionDataBase11hasDatabaseEv
libzim.so.7:_ZNK3zim18SuggestionDataBase12hasValuesmapEv
libzim.so.7:_ZNK3zim18SuggestionDataBase8hasValueERKNSt7__cxx1112basic_stringIcSt11char_traitsIcESaIcEEE
libzim.so.7:_ZNK3zim18SuggestionDataBase9valueSlotERKNSt7__cxx1112basic_stringIcSt11char_traitsIcESaIcEEE
libzim.so.7:_ZNK3zim18SuggestionIterator12getIndexPathB5cxx11Ev
libzim.so.7:_ZNK3zim18SuggestionIterator13getIndexTitleB5cxx11Ev
libzim.so.7:_ZNK3zim18SuggestionIterator15getIndexSnippetB5cxx11Ev
libzim.so.7:_ZNK3zim18SuggestionIterator8getEntryEv
libzim.so.7:_ZNK3zim18SuggestionIterator9getDbDataB5cxx11Ev
libzim.so.7:_ZNK3zim18SuggestionIteratoreqERKS0_
libzim.so.7:_ZNK3zim18SuggestionIteratorneERKS0_
libzim.so.7:_ZNK3zim19MultiPartFileReader10get_bufferENS_8offset_tENS_7zsize_tE
libzim.so.7:_ZNK3zim19MultiPartFileReader10sub_readerENS_8offset_tENS_7zsize_tE
libzim.so.7:_ZNK3zim19MultiPartFileReader4readENS_8offset_tE
libzim.so.7:_ZNK3zim19MultiPartFileReader4readEPcNS_8offset_tENS_7zsize_tE
libzim.so.7:_ZNK3zim19SuggestionResultSet3endEv
libzim.so.7:_ZNK3zim19SuggestionResultSet4sizeEv
libzim.so.7:_ZNK3zim19SuggestionResultSet5beginEv
libzim.so.7:_ZNK3zim20DirectDirentAccessor10readDirentENS_8offset_tE
libzim.so.7:_ZNK3zim20DirectDirentAccessor9getDirentENS_13entry_index_tE
libzim.so.7:_ZNK3zim20DirectDirentAccessor9getOffsetENS_13entry_index_tE
libzim.so.7:_ZNK3zim22IndirectDirentAccessor14getDirectIndexENS_13title_index_tE
libzim.so.7:_ZNK3zim22IndirectDirentAccessor9getDirentENS_13title_index_tE
libzim.so.7:_ZNK3zim4Item11getMimetypeB5cxx11Ev
libzim.so.7:_ZNK3zim4Item15getClusterIndexEv
libzim.so.7:_ZNK3zim4Item26getDirectAccessInformationB5cxx11Ev
libzim.so.7:_ZNK3zim4Item7getDataEm
libzim.so.7:_ZNK3zim4Item7getDataEmm
libzim.so.7:_ZNK3zim4Item7getPathB5cxx11Ev
libzim.so.7:_ZNK3zim4Item7getSizeEv
libzim.so.7:_ZNK3zim4Item8getTitleB5cxx11Ev
libzim.so.7:_ZNK3zim4UuidcvNSt7__cxx1112basic_stringIcSt11char_traitsIcESaIcEEEEv
libzim.so.7:_ZNK3zim4unix2FD6readAtEPcNS_7zsize_tENS_8offset_tE
libzim.so.7:_ZNK3zim4unix2FD7getSizeEv
libzim.so.7:_ZNK3zim5Entry10isRedirectEv
libzim.so.7:_ZNK3zim5Entry11getRedirectEv
libzim.so.7:_ZNK3zim5Entry16getRedirectEntryEv
libzim.so.7:_ZNK3zim5Entry7getItemEb
libzim.so.7:_ZNK3zim5Entry7getPathB5cxx11Ev
libzim.so.7:_ZNK3zim5Entry8getTitleB5cxx11Ev
libzim.so.7:_ZNK3zim6Buffer10sub_bufferENS_8offset_tENS_7zsize_tE
libzim.so.7:_ZNK3zim6Buffer4dataENS_8offset_tE
libzim.so.7:_ZNK3zim6Dirent10getLongUrlB5cxx11Ev
libzim.so.7:_ZNK3zim6Reader8can_readENS_8offset_tENS_7zsize_tE
libzim.so.7:_ZNK3zim6Search10getEnquireEv
libzim.so.7:_ZNK3zim6Search10getResultsEii
libzim.so.7:_ZNK3zim6Search19getEstimatedMatchesEv
libzim.so.7:_ZNK3zim6writer10StringItem18getContentProviderEv
libzim.so.7:_ZNK3zim6writer11CreatorData11getMimeTypeB5cxx11Et
libzim.so.7:_ZNK3zim6writer13XapianHandler13createDirentsEv
libzim.so.7:_ZNK3zim6writer13XapianHandler19getContentProvidersEv
libzim.so.7:_ZNK3zim6writer14CounterHandler13createDirentsEv
libzim.so.7:_ZNK3zim6writer14CounterHandler19getContentProvidersEv
libzim.so.7:_ZNK3zim6writer19TitleListingHandler13createDirentsEv
libzim.so.7:_ZNK3zim6writer19TitleListingHandler19getContentProvidersEv
libzim.so.7:_ZNK3zim6writer4Item12getIndexDataEv
libzim.so.7:_ZNK3zim6writer4Item15getAmendedHintsEv
libzim.so.7:_ZNK3zim6writer4Item8getHintsEv
libzim.so.7:_ZNK3zim6writer6Dirent13getRedirectNsEv
libzim.so.7:_ZNK3zim6writer6Dirent15getRedirectPathB5cxx11Ev
libzim.so.7:_ZNK3zim6writer6Dirent5writeEi
libzim.so.7:_ZNK3zim6writer7Cluster10write_dataESt8functionIFvRKNS_4BlobEEE
libzim.so.7:_ZNK3zim6writer7Cluster13write_contentESt8functionIFvRKNS_4BlobEEE
libzim.so.7:_ZNK3zim6writer7Cluster4sizeEv
libzim.so.7:_ZNK3zim6writer7Cluster5writeEi
libzim.so.7:_ZNK3zim6writer7Cluster8isClosedEv
libzim.so.7:_ZNK3zim6writer7Creator10fillHeaderEPNS_10FileheaderE
libzim.so.7:_ZNK3zim6writer7Creator14writeLastPartsEv
libzim.so.7:_ZNK3zim6writer8FileItem18getContentProviderEv
libzim.so.7:_ZNK3zim7Archive10findByPathENSt7__cxx1112basic_stringIcSt11char_traitsIcESaIcEEE
libzim.so.7:_ZNK3zim7Archive10iterByPathEv
libzim.so.7:_ZNK3zim7Archive11findByTitleENSt7__cxx1112basic_stringIcSt11char_traitsIcESaIcEEE
libzim.so.7:_ZNK3zim7Archive11getChecksumB5cxx11Ev
libzim.so.7:_ZNK3zim7Archive11getFilenameB5cxx11Ev
libzim.so.7:_ZNK3zim7Archive11getFilesizeEv
libzim.so.7:_ZNK3zim7Archive11getMetadataERKNSt7__cxx1112basic_stringIcSt11char_traitsIcESaIcEEE
libzim.so.7:_ZNK3zim7Archive11hasChecksumEv
libzim.so.7:_ZNK3zim7Archive11isMultiPartEv
libzim.so.7:_ZNK3zim7Archive11iterByTitleEv
libzim.so.7:_ZNK3zim7Archive12getMainEntryEv
libzim.so.7:_ZNK3zim7Archive12hasMainEntryEv
libzim.so.7:_ZNK3zim7Archive13getEntryCountEv
libzim.so.7:_ZNK3zim7Archive13hasTitleIndexEv
libzim.so.7:_ZNK3zim7Archive13iterEfficientEv
libzim.so.7:_ZNK3zim7Archive14getEntryByPathERKNSt7__cxx1112basic_stringIcSt11char_traitsIcESaIcEEE
libzim.so.7:_ZNK3zim7Archive14getEntryByPathEj
libzim.so.7:_ZNK3zim7Archive14getRandomEntryEv
libzim.so.7:_ZNK3zim7Archive15getArticleCountEv
libzim.so.7:_ZNK3zim7Archive15getClusterCountEv
libzim.so.7:_ZNK3zim7Archive15getEntryByTitleERKNSt7__cxx1112basic_stringIcSt11char_traitsIcESaIcEEE
libzim.so.7:_ZNK3zim7Archive15getEntryByTitleEj
libzim.so.7:_ZNK3zim7Archive15getMetadataItemERKNSt7__cxx1112basic_stringIcSt11char_traitsIcESaIcEEE
libzim.so.7:_ZNK3zim7Archive15getMetadataKeysB5cxx11Ev
libzim.so.7:_ZNK3zim7Archive15hasIllustrationEj
libzim.so.7:_ZNK3zim7Archive16getAllEntryCountEv
libzim.so.7:_ZNK3zim7Archive16getClusterOffsetEj
libzim.so.7:_ZNK3zim7Archive16hasFulltextIndexEv
libzim.so.7:_ZNK3zim7Archive17getMainEntryIndexEv
libzim.so.7:_ZNK3zim7Archive19getIllustrationItemEj
libzim.so.7:_ZNK3zim7Archive20getIllustrationSizesEv
libzim.so.7:_ZNK3zim7Archive21hasNewNamespaceSchemeEv
libzim.so.7:_ZNK3zim7Archive22getEntryByClusterOrderEj
libzim.so.7:_ZNK3zim7Archive5checkEv
libzim.so.7:_ZNK3zim7Archive7getUuidEv
libzim.so.7:_ZNK3zim7Cluster11getBlobSizeENS_12blob_index_tE
libzim.so.7:_ZNK3zim7Cluster7getBlobENS_12blob_index_tE
libzim.so.7:_ZNK3zim7Cluster7getBlobENS_12blob_index_tENS_8offset_tENS_7zsize_tE
libzim.so.7:_ZNK3zim7Cluster9getReaderENS_12blob_index_tE
libzim.so.7:_ZNK3zim8FileImpl11getFilesizeEv
libzim.so.7:_ZNK3zim8FileImpl11getMimeTypeB5cxx11Et
libzim.so.7:_ZNK3zim8FileImpl12direntLookupEv
libzim.so.7:_ZNK3zim8FileImpl12is_multiPartEv
libzim.so.7:_ZNK3zim8FileImpl15getIndexByTitleENS_13title_index_tE
libzim.so.7:_ZNK3zim8FileImpl16getClusterOffsetENS_15cluster_index_tE
libzim.so.7:_ZNK3zim8FileImpl18getFrontEntryCountEv
libzim.so.7:_ZNK3zim8FileImpl21getNamespaceEndOffsetEc
libzim.so.7:_ZNK3zim8FileImpl22getIndexByClusterOrderENS_13entry_index_tE
libzim.so.7:_ZNK3zim8FileImpl23getNamespaceBeginOffsetEc
libzim.so.7:_ZNK3zim8FileImpl24getMimeListEndUpperLimitEv
libzim.so.7:_ZNK3zim8FileImpl8getMTimeEv
libzim.so.7:zim_MD5Final
libzim.so.7:zim_MD5Init
libzim.so.7:zim_MD5Update
