libQt5Charts.so.5:_ZN8QtCharts10QChartView11qt_metacallEN11QMetaObject4CallEiPPv
libQt5Charts.so.5:_ZN8QtCharts10QChartView11qt_metacastEPKc
libQt5Charts.so.5:_ZN8QtCharts10QChartView11resizeEventEP12QResizeEvent
libQt5Charts.so.5:_ZN8QtCharts10QChartView14mouseMoveEventEP11QMouseEvent
libQt5Charts.so.5:_ZN8QtCharts10QChartView15mousePressEventEP11QMouseEvent
libQt5Charts.so.5:_ZN8QtCharts10QChartView16staticMetaObjectE
libQt5Charts.so.5:_ZN8QtCharts10QChartView17mouseReleaseEventEP11QMouseEvent
libQt5Charts.so.5:_ZN8QtCharts10QChartView8setChartEPNS_6QChartE
libQt5Charts.so.5:_ZN8QtCharts10QChartViewC1EP7QWidget
libQt5Charts.so.5:_ZN8QtCharts10QChartViewC1EPNS_6QChartEP7QWidget
libQt5Charts.so.5:_ZN8QtCharts10QChartViewC2EP7QWidget
libQt5Charts.so.5:_ZN8QtCharts10QChartViewD2Ev
libQt5Charts.so.5:_ZN8QtCharts10QPieSeries11setHoleSizeEd
libQt5Charts.so.5:_ZN8QtCharts10QPieSeries14setPieEndAngleEd
libQt5Charts.so.5:_ZN8QtCharts10QPieSeries16setPieStartAngleEd
libQt5Charts.so.5:_ZN8QtCharts10QPieSeries6appendE7QStringd
libQt5Charts.so.5:_ZN8QtCharts10QPieSeriesC1EP7QObject
libQt5Charts.so.5:_ZN8QtCharts10QValueAxis11qt_metacallEN11QMetaObject4CallEiPPv
libQt5Charts.so.5:_ZN8QtCharts10QValueAxis11qt_metacastEPKc
libQt5Charts.so.5:_ZN8QtCharts10QValueAxis12setTickCountEi
libQt5Charts.so.5:_ZN8QtCharts10QValueAxis14setLabelFormatERK7QString
libQt5Charts.so.5:_ZN8QtCharts10QValueAxis16staticMetaObjectE
libQt5Charts.so.5:_ZN8QtCharts10QValueAxis6setMaxEd
libQt5Charts.so.5:_ZN8QtCharts10QValueAxis6setMinEd
libQt5Charts.so.5:_ZN8QtCharts10QValueAxis8setRangeEdd
libQt5Charts.so.5:_ZN8QtCharts10QValueAxisC1EP7QObject
libQt5Charts.so.5:_ZN8QtCharts10QValueAxisC2EP7QObject
libQt5Charts.so.5:_ZN8QtCharts10QValueAxisD1Ev
libQt5Charts.so.5:_ZN8QtCharts10QValueAxisD2Ev
libQt5Charts.so.5:_ZN8QtCharts11QLineSeries11qt_metacallEN11QMetaObject4CallEiPPv
libQt5Charts.so.5:_ZN8QtCharts11QLineSeries11qt_metacastEPKc
libQt5Charts.so.5:_ZN8QtCharts11QLineSeries16staticMetaObjectE
libQt5Charts.so.5:_ZN8QtCharts11QLineSeriesC1EP7QObject
libQt5Charts.so.5:_ZN8QtCharts11QLineSeriesC2EP7QObject
libQt5Charts.so.5:_ZN8QtCharts11QLineSeriesD2Ev
libQt5Charts.so.5:_ZN8QtCharts13QAbstractAxis12setTitleTextERK7QString
libQt5Charts.so.5:_ZN8QtCharts13QAbstractAxis13setTitleBrushERK6QBrush
libQt5Charts.so.5:_ZN8QtCharts13QAbstractAxis14setGridLinePenERK4QPen
libQt5Charts.so.5:_ZN8QtCharts13QAbstractAxis14setLabelsColorE6QColor
libQt5Charts.so.5:_ZN8QtCharts13QAbstractAxis14setLineVisibleEb
libQt5Charts.so.5:_ZN8QtCharts13QAbstractAxis16setGridLineColorERK6QColor
libQt5Charts.so.5:_ZN8QtCharts13QAbstractAxis16setLabelsVisibleEb
libQt5Charts.so.5:_ZN8QtCharts15QAbstractSeries10attachAxisEPNS_13QAbstractAxisE
libQt5Charts.so.5:_ZN8QtCharts15QAbstractSeries12setUseOpenGLEb
libQt5Charts.so.5:_ZN8QtCharts15QAbstractSeries7setNameERK7QString
libQt5Charts.so.5:_ZN8QtCharts6QChart10setMarginsERK8QMargins
libQt5Charts.so.5:_ZN8QtCharts6QChart18setBackgroundBrushERK6QBrush
libQt5Charts.so.5:_ZN8QtCharts6QChart20setBackgroundVisibleEb
libQt5Charts.so.5:_ZN8QtCharts6QChart22setBackgroundRoundnessEd
libQt5Charts.so.5:_ZN8QtCharts6QChart7addAxisEPNS_13QAbstractAxisE6QFlagsIN2Qt13AlignmentFlagEE
libQt5Charts.so.5:_ZN8QtCharts6QChart9addSeriesEPNS_15QAbstractSeriesE
libQt5Charts.so.5:_ZN8QtCharts6QChartC1EP13QGraphicsItem6QFlagsIN2Qt10WindowTypeEE
libQt5Charts.so.5:_ZN8QtCharts6QChartD1Ev
libQt5Charts.so.5:_ZN8QtCharts7QLegend13setLabelColorE6QColor
libQt5Charts.so.5:_ZN8QtCharts9QPieSlice15setLabelVisibleEb
libQt5Charts.so.5:_ZN8QtCharts9QPieSlice6setPenERK4QPen
libQt5Charts.so.5:_ZN8QtCharts9QPieSlice8setBrushERK6QBrush
libQt5Charts.so.5:_ZN8QtCharts9QPieSlice8setValueEd
libQt5Charts.so.5:_ZN8QtCharts9QXYSeries16setPointsVisibleEb
libQt5Charts.so.5:_ZN8QtCharts9QXYSeries5clearEv
libQt5Charts.so.5:_ZN8QtCharts9QXYSeries6appendEdd
libQt5Charts.so.5:_ZN8QtCharts9QXYSeries6removeEi
libQt5Charts.so.5:_ZN8QtCharts9QXYSeries6setPenERK4QPen
libQt5Charts.so.5:_ZN8QtCharts9QXYSeries8setBrushERK6QBrush
libQt5Charts.so.5:_ZN8QtCharts9QXYSeries8setColorERK6QColor
libQt5Charts.so.5:_ZNK8QtCharts10QChartView5chartEv
libQt5Charts.so.5:_ZNK8QtCharts10QPieSeries6slicesEv
libQt5Charts.so.5:_ZNK8QtCharts10QValueAxis3maxEv
libQt5Charts.so.5:_ZNK8QtCharts10QValueAxis3minEv
libQt5Charts.so.5:_ZNK8QtCharts10QValueAxis4typeEv
libQt5Charts.so.5:_ZNK8QtCharts11QLineSeries4typeEv
libQt5Charts.so.5:_ZNK8QtCharts6QChart4axesE6QFlagsIN2Qt11OrientationEEPNS_15QAbstractSeriesE
libQt5Charts.so.5:_ZNK8QtCharts6QChart6legendEv
libQt5Charts.so.5:_ZNK8QtCharts6QChart6seriesEv
libQt5Charts.so.5:_ZNK8QtCharts9QXYSeries5colorEv
libQt5Charts.so.5:_ZNK8QtCharts9QXYSeries5countEv
libQt5Charts.so.5:_ZTIN8QtCharts10QChartViewE
libQt5Charts.so.5:_ZTIN8QtCharts10QValueAxisE
libQt5Charts.so.5:_ZTIN8QtCharts11QLineSeriesE
libQt5Core.so.5:_Z21qRegisterResourceDataiPKhS0_S0_
libQt5Core.so.5:_Z23qUnregisterResourceDataiPKhS0_S0_
libQt5Core.so.5:_Z5qrandv
libQt5Core.so.5:_Z6qsrandj
libQt5Core.so.5:_ZN10QArrayData10deallocateEPS_mm
libQt5Core.so.5:_ZN10QArrayData11shared_nullE
libQt5Core.so.5:_ZN10QByteArray11fromRawDataEPKci
libQt5Core.so.5:_ZN10QByteArray11reallocDataEj6QFlagsIN10QArrayData16AllocationOptionEE
libQt5Core.so.5:_ZN10QByteArray14trimmed_helperERS_
libQt5Core.so.5:_ZN10QByteArray6appendEPKc
libQt5Core.so.5:_ZN10QByteArray6appendEc
libQt5Core.so.5:_ZN11QDataStream16startTransactionEv
libQt5Core.so.5:_ZN11QDataStream17commitTransactionEv
libQt5Core.so.5:_ZN11QDataStream9setDeviceEP9QIODevice
libQt5Core.so.5:_ZN11QDataStreamC1Ev
libQt5Core.so.5:_ZN11QDataStreamD1Ev
libQt5Core.so.5:_ZN11QFileDevice5closeEv
libQt5Core.so.5:_ZN11QFileDevice5flushEv
libQt5Core.so.5:_ZN11QMetaObject10ConnectionD1Ev
libQt5Core.so.5:_ZN11QMetaObject14normalizedTypeEPKc
libQt5Core.so.5:_ZN11QMetaObject18connectSlotsByNameEP7QObject
libQt5Core.so.5:_ZN11QTextStreamC1EP9QIODevice
libQt5Core.so.5:_ZN11QTextStreamD1Ev
libQt5Core.so.5:_ZN11QTextStreamlsERK7QString
libQt5Core.so.5:_ZN11QTextStreamlsEc
libQt5Core.so.5:_ZN11QTextStreamlsEi
libQt5Core.so.5:_ZN11QThreadPool14globalInstanceEv
libQt5Core.so.5:_ZN11QThreadPool5startEP9QRunnablei
libQt5Core.so.5:_ZN11QTranslator4loadERK7QLocaleRK7QStringS5_S5_S5_
libQt5Core.so.5:_ZN11QTranslatorC1EP7QObject
libQt5Core.so.5:_ZN11QTranslatorD1Ev
libQt5Core.so.5:_ZN12QMapDataBase10createDataEv
libQt5Core.so.5:_ZN12QMapDataBase10createNodeEiiP12QMapNodeBaseb
libQt5Core.so.5:_ZN12QMapDataBase11shared_nullE
libQt5Core.so.5:_ZN12QMapDataBase18recalcMostLeftNodeEv
libQt5Core.so.5:_ZN12QMapDataBase20freeNodeAndRebalanceEP12QMapNodeBase
libQt5Core.so.5:_ZN12QMapDataBase8freeDataEPS_
libQt5Core.so.5:_ZN12QMapDataBase8freeTreeEP12QMapNodeBasei
libQt5Core.so.5:_ZN13QSharedMemory4lockEv
libQt5Core.so.5:_ZN13QSharedMemory6attachENS_10AccessModeE
libQt5Core.so.5:_ZN13QSharedMemory6createEiNS_10AccessModeE
libQt5Core.so.5:_ZN13QSharedMemory6detachEv
libQt5Core.so.5:_ZN13QSharedMemory6setKeyERK7QString
libQt5Core.so.5:_ZN13QSharedMemory6unlockEv
libQt5Core.so.5:_ZN13QSharedMemoryC1EP7QObject
libQt5Core.so.5:_ZN13QSharedMemoryD1Ev
libQt5Core.so.5:_ZN14QStandardPaths16writableLocationENS_16StandardLocationE
libQt5Core.so.5:_ZN16QCoreApplication13processEventsE6QFlagsIN10QEventLoop17ProcessEventsFlagEEi
libQt5Core.so.5:_ZN16QCoreApplication17installTranslatorEP11QTranslator
libQt5Core.so.5:_ZN16QCoreApplication18applicationDirPathEv
libQt5Core.so.5:_ZN16QCoreApplication4quitEv
libQt5Core.so.5:_ZN16QCoreApplication9translateEPKcS1_S1_i
libQt5Core.so.5:_ZN16QXmlStreamReader20readNextStartElementEv
libQt5Core.so.5:_ZN16QXmlStreamReader8readNextEv
libQt5Core.so.5:_ZN16QXmlStreamReaderC1EP9QIODevice
libQt5Core.so.5:_ZN16QXmlStreamReaderD1Ev
libQt5Core.so.5:_ZN16QXmlStreamWriter14writeAttributeERK7QStringS2_
libQt5Core.so.5:_ZN16QXmlStreamWriter15writeEndElementEv
libQt5Core.so.5:_ZN16QXmlStreamWriter16writeEndDocumentEv
libQt5Core.so.5:_ZN16QXmlStreamWriter17setAutoFormattingEb
libQt5Core.so.5:_ZN16QXmlStreamWriter17writeStartElementERK7QString
libQt5Core.so.5:_ZN16QXmlStreamWriter18writeStartDocumentEv
libQt5Core.so.5:_ZN16QXmlStreamWriterC1EP7QString
libQt5Core.so.5:_ZN16QXmlStreamWriterD1Ev
libQt5Core.so.5:_ZN18QFutureWatcherBase11qt_metacallEN11QMetaObject4CallEiPPv
libQt5Core.so.5:_ZN18QFutureWatcherBase11qt_metacastEPKc
libQt5Core.so.5:_ZN18QFutureWatcherBase13connectNotifyERK11QMetaMethod
libQt5Core.so.5:_ZN18QFutureWatcherBase15waitForFinishedEv
libQt5Core.so.5:_ZN18QFutureWatcherBase16disconnectNotifyERK11QMetaMethod
libQt5Core.so.5:_ZN18QFutureWatcherBase22connectOutputInterfaceEv
libQt5Core.so.5:_ZN18QFutureWatcherBase25disconnectOutputInterfaceEb
libQt5Core.so.5:_ZN18QFutureWatcherBase5eventEP6QEvent
libQt5Core.so.5:_ZN18QFutureWatcherBaseC2EP7QObject
libQt5Core.so.5:_ZN18QRegularExpressionC1ERK7QString6QFlagsINS_13PatternOptionEE
libQt5Core.so.5:_ZN18QRegularExpressionD1Ev
libQt5Core.so.5:_ZN19QProcessEnvironment17systemEnvironmentEv
libQt5Core.so.5:_ZN19QProcessEnvironment6insertERK7QStringS2_
libQt5Core.so.5:_ZN19QProcessEnvironmentC1ERKS_
libQt5Core.so.5:_ZN19QProcessEnvironmentC1Ev
libQt5Core.so.5:_ZN19QProcessEnvironmentD1Ev
libQt5Core.so.5:_ZN19QUnhandledExceptionD1Ev
libQt5Core.so.5:_ZN19QXmlStreamAttributeD1Ev
libQt5Core.so.5:_ZN20QFutureInterfaceBase11setRunnableEP9QRunnable
libQt5Core.so.5:_ZN20QFutureInterfaceBase13reportStartedEv
libQt5Core.so.5:_ZN20QFutureInterfaceBase13setThreadPoolEP11QThreadPool
libQt5Core.so.5:_ZN20QFutureInterfaceBase13waitForResultEi
libQt5Core.so.5:_ZN20QFutureInterfaceBase14reportFinishedEv
libQt5Core.so.5:_ZN20QFutureInterfaceBase15reportExceptionERK10QException
libQt5Core.so.5:_ZN20QFutureInterfaceBase15resultStoreBaseEv
libQt5Core.so.5:_ZN20QFutureInterfaceBase18reportResultsReadyEii
libQt5Core.so.5:_ZN20QFutureInterfaceBaseC2ENS_5StateE
libQt5Core.so.5:_ZN20QFutureInterfaceBaseC2ERKS_
libQt5Core.so.5:_ZN20QFutureInterfaceBaseD2Ev
libQt5Core.so.5:_ZN20QFutureInterfaceBaseaSERKS_
libQt5Core.so.5:_ZN4QDir8homePathEv
libQt5Core.so.5:_ZN5QFile4openE6QFlagsIN9QIODevice12OpenModeFlagEE
libQt5Core.so.5:_ZN5QFile6existsERK7QString
libQt5Core.so.5:_ZN5QFile6removeERK7QString
libQt5Core.so.5:_ZN5QFileC1ERK7QString
libQt5Core.so.5:_ZN5QFileD1Ev
libQt5Core.so.5:_ZN5QTime11currentTimeEv
libQt5Core.so.5:_ZN6QDebug9putStringEPK5QCharm
libQt5Core.so.5:_ZN6QDebugD1Ev
libQt5Core.so.5:_ZN6QMutex4lockEv
libQt5Core.so.5:_ZN6QMutex6unlockEv
libQt5Core.so.5:_ZN6QTimer10singleShotEiPK7QObjectPKc
libQt5Core.so.5:_ZN6QTimer11setIntervalEi
libQt5Core.so.5:_ZN6QTimer4stopEv
libQt5Core.so.5:_ZN6QTimer5startEv
libQt5Core.so.5:_ZN6QTimerC1EP7QObject
libQt5Core.so.5:_ZN7QLocaleC1Ev
libQt5Core.so.5:_ZN7QLocaleD1Ev
libQt5Core.so.5:_ZN7QObject10childEventEP11QChildEvent
libQt5Core.so.5:_ZN7QObject10timerEventEP11QTimerEvent
libQt5Core.so.5:_ZN7QObject11customEventEP6QEvent
libQt5Core.so.5:_ZN7QObject11deleteLaterEv
libQt5Core.so.5:_ZN7QObject11eventFilterEPS_P6QEvent
libQt5Core.so.5:_ZN7QObject11qt_metacallEN11QMetaObject4CallEiPPv
libQt5Core.so.5:_ZN7QObject11qt_metacastEPKc
libQt5Core.so.5:_ZN7QObject11setPropertyEPKcRK8QVariant
libQt5Core.so.5:_ZN7QObject13connectNotifyERK11QMetaMethod
libQt5Core.so.5:_ZN7QObject13setObjectNameERK7QString
libQt5Core.so.5:_ZN7QObject16disconnectNotifyERK11QMetaMethod
libQt5Core.so.5:_ZN7QObject16staticMetaObjectE
libQt5Core.so.5:_ZN7QObject18staticQtMetaObjectE
libQt5Core.so.5:_ZN7QObject5eventEP6QEvent
libQt5Core.so.5:_ZN7QObject7connectEPKS_PKcS1_S3_N2Qt14ConnectionTypeE
libQt5Core.so.5:_ZN7QObjectC2EPS_
libQt5Core.so.5:_ZN7QObjectD2Ev
libQt5Core.so.5:_ZN7QRegExp10setPatternERK7QString
libQt5Core.so.5:_ZN7QRegExp3capEi
libQt5Core.so.5:_ZN7QRegExpC1ERK7QStringN2Qt15CaseSensitivityENS_13PatternSyntaxE
libQt5Core.so.5:_ZN7QRegExpC1Ev
libQt5Core.so.5:_ZN7QRegExpD1Ev
libQt5Core.so.5:_ZN7QString11reallocDataEjb
libQt5Core.so.5:_ZN7QString14compare_helperEPK5QChariPKciN2Qt15CaseSensitivityE
libQt5Core.so.5:_ZN7QString14toUpper_helperERS_
libQt5Core.so.5:_ZN7QString14trimmed_helperERKS_
libQt5Core.so.5:_ZN7QString14trimmed_helperERS_
libQt5Core.so.5:_ZN7QString15fromUtf8_helperEPKci
libQt5Core.so.5:_ZN7QString15toLatin1_helperERKS_
libQt5Core.so.5:_ZN7QString16fromAscii_helperEPKci
libQt5Core.so.5:_ZN7QString17simplified_helperERKS_
libQt5Core.so.5:_ZN7QString17simplified_helperERS_
libQt5Core.so.5:_ZN7QString20fromLocal8Bit_helperEPKci
libQt5Core.so.5:_ZN7QString23toLatin1_helper_inplaceERS_
libQt5Core.so.5:_ZN7QString6appendE5QChar
libQt5Core.so.5:_ZN7QString6appendERKS_
libQt5Core.so.5:_ZN7QString6insertEi5QChar
libQt5Core.so.5:_ZN7QString6numberEdci
libQt5Core.so.5:_ZN7QString6numberEii
libQt5Core.so.5:_ZN7QString6numberEji
libQt5Core.so.5:_ZN7QString6numberEmi
libQt5Core.so.5:_ZN7QString6removeE5QCharN2Qt15CaseSensitivityE
libQt5Core.so.5:_ZN7QString6removeERKS_N2Qt15CaseSensitivityE
libQt5Core.so.5:_ZN7QString6resizeEi5QChar
libQt5Core.so.5:_ZN7QString7replaceERK18QRegularExpressionRKS_
libQt5Core.so.5:_ZN7QString7replaceERKS_S1_N2Qt15CaseSensitivityE
libQt5Core.so.5:_ZN7QStringC1E5QChar
libQt5Core.so.5:_ZN7QStringaSERKS_
libQt5Core.so.5:_ZN8QProcess15waitForFinishedEi
libQt5Core.so.5:_ZN8QProcess21readAllStandardOutputEv
libQt5Core.so.5:_ZN8QProcess21setProcessChannelModeENS_18ProcessChannelModeE
libQt5Core.so.5:_ZN8QProcess21setProcessEnvironmentERK19QProcessEnvironment
libQt5Core.so.5:_ZN8QProcess5startERK7QString6QFlagsIN9QIODevice12OpenModeFlagEE
libQt5Core.so.5:_ZN8QProcessC1EP7QObject
libQt5Core.so.5:_ZN8QSysInfo13kernelVersionEv
libQt5Core.so.5:_ZN8QVariantC1EPKc
libQt5Core.so.5:_ZN8QVariantC1ERK5QRect
libQt5Core.so.5:_ZN8QVariantC1ERK7QString
libQt5Core.so.5:_ZN8QVariantC1Eb
libQt5Core.so.5:_ZN8QVariantC1Ed
libQt5Core.so.5:_ZN8QVariantC1Ei
libQt5Core.so.5:_ZN8QVariantC1EiPKvj
libQt5Core.so.5:_ZN8QVariantD1Ev
libQt5Core.so.5:_ZN9QDateTime15currentDateTimeEv
libQt5Core.so.5:_ZN9QDateTimeD1Ev
libQt5Core.so.5:_ZN9QFileInfo6existsERK7QString
libQt5Core.so.5:_ZN9QFileInfoC1ERK7QString
libQt5Core.so.5:_ZN9QFileInfoD1Ev
libQt5Core.so.5:_ZN9QIODevice5writeEPKcx
libQt5Core.so.5:_ZN9QIODevice7readAllEv
libQt5Core.so.5:_ZN9QIODevice8readLineEx
libQt5Core.so.5:_ZN9QListData11detach_growEPii
libQt5Core.so.5:_ZN9QListData11shared_nullE
libQt5Core.so.5:_ZN9QListData6appendERKS_
libQt5Core.so.5:_ZN9QListData6appendEv
libQt5Core.so.5:_ZN9QListData6detachEi
libQt5Core.so.5:_ZN9QListData6insertEi
libQt5Core.so.5:_ZN9QListData6removeEi
libQt5Core.so.5:_ZN9QListData7disposeEPNS_4DataE
libQt5Core.so.5:_ZN9QListData7reallocEi
libQt5Core.so.5:_ZN9QMetaType22registerNormalizedTypeERK10QByteArrayPFvPvEPFS3_S3_PKvEi6QFlagsINS_8TypeFlagEEPK11QMetaObject
libQt5Core.so.5:_ZN9QRunnableD2Ev
libQt5Core.so.5:_ZN9QSettings8setValueERK7QStringRK8QVariant
libQt5Core.so.5:_ZN9QSettingsC1ERK7QStringNS_6FormatEP7QObject
libQt5Core.so.5:_ZN9QSettingsD1Ev
libQt5Core.so.5:_ZN9QtPrivate15ResultStoreBase9addResultEiPKv
libQt5Core.so.5:_ZN9QtPrivate16QStringList_joinEPK11QStringListPK5QChari
libQt5Core.so.5:_ZN9QtPrivate16QStringList_sortEP11QStringListN2Qt15CaseSensitivityE
libQt5Core.so.5:_ZN9QtPrivate18QStringList_filterEPK11QStringListRK7QRegExp
libQt5Core.so.5:_ZN9QtPrivate18QStringList_filterEPK11QStringListRK7QStringN2Qt15CaseSensitivityE
libQt5Core.so.5:_ZN9QtPrivate19QStringList_indexOfEPK11QStringListRK7QRegExpi
libQt5Core.so.5:_ZN9QtPrivate20QStringList_containsEPK11QStringListRK7QStringN2Qt15CaseSensitivityE
libQt5Core.so.5:_ZNK10QByteArray6isNullEv
libQt5Core.so.5:_ZNK10QStringRef5toIntEPbi
libQt5Core.so.5:_ZNK10QStringRef6toUIntEPbi
libQt5Core.so.5:_ZNK10QStringRef8toStringEv
libQt5Core.so.5:_ZNK11QFileDevice5atEndEv
libQt5Core.so.5:_ZNK11QMetaObject2trEPKcS1_i
libQt5Core.so.5:_ZNK11QMetaObject9classNameEv
libQt5Core.so.5:_ZNK11QObjectData17dynamicMetaObjectEv
libQt5Core.so.5:_ZNK12QMapNodeBase12previousNodeEv
libQt5Core.so.5:_ZNK12QMapNodeBase8nextNodeEv
libQt5Core.so.5:_ZNK13QSharedMemory10isAttachedEv
libQt5Core.so.5:_ZNK13QSharedMemory11errorStringEv
libQt5Core.so.5:_ZNK13QSharedMemory3keyEv
libQt5Core.so.5:_ZNK13QSharedMemory5errorEv
libQt5Core.so.5:_ZNK13QSharedMemory9constDataEv
libQt5Core.so.5:_ZNK14QMessageLogger7warningEv
libQt5Core.so.5:_ZNK14QMessageLogger8criticalEv
libQt5Core.so.5:_ZNK16QXmlStreamReader10attributesEv
libQt5Core.so.5:_ZNK16QXmlStreamReader4nameEv
libQt5Core.so.5:_ZNK16QXmlStreamReader5atEndEv
libQt5Core.so.5:_ZNK16QXmlStreamReader9tokenTypeEv
libQt5Core.so.5:_ZNK18QFutureWatcherBase10metaObjectEv
libQt5Core.so.5:_ZNK18QFutureWatcherBase9isRunningEv
libQt5Core.so.5:_ZNK19QProcessEnvironment12toStringListEv
libQt5Core.so.5:_ZNK20QFutureInterfaceBase10isCanceledEv
libQt5Core.so.5:_ZNK20QFutureInterfaceBase10queryStateENS_5StateE
libQt5Core.so.5:_ZNK20QFutureInterfaceBase15resultStoreBaseEv
libQt5Core.so.5:_ZNK20QFutureInterfaceBase4refTEv
libQt5Core.so.5:_ZNK20QFutureInterfaceBase5mutexEi
libQt5Core.so.5:_ZNK20QFutureInterfaceBase6derefTEv
libQt5Core.so.5:_ZNK20QXmlStreamAttributes5valueERK7QString
libQt5Core.so.5:_ZNK5QFile6existsEv
libQt5Core.so.5:_ZNK5QTime8addMSecsEi
libQt5Core.so.5:_ZNK7QLocale8languageEv
libQt5Core.so.5:_ZNK7QObject10objectNameEv
libQt5Core.so.5:_ZNK7QRegExp7indexInERK7QStringiNS_9CaretModeE
libQt5Core.so.5:_ZNK7QString10startsWithERKS_N2Qt15CaseSensitivityE
libQt5Core.so.5:_ZNK7QString3argExii5QChar
libQt5Core.so.5:_ZNK7QString3argEyii5QChar
libQt5Core.so.5:_ZNK7QString4leftEi
libQt5Core.so.5:_ZNK7QString5rightEi
libQt5Core.so.5:_ZNK7QString5splitE5QCharNS_13SplitBehaviorEN2Qt15CaseSensitivityE
libQt5Core.so.5:_ZNK7QString5splitERKS_NS_13SplitBehaviorEN2Qt15CaseSensitivityE
libQt5Core.so.5:_ZNK7QString5toIntEPbi
libQt5Core.so.5:_ZNK7QString6toUIntEPbi
libQt5Core.so.5:_ZNK7QString7compareERKS_N2Qt15CaseSensitivityE
libQt5Core.so.5:_ZNK7QString7indexOfE5QChariN2Qt15CaseSensitivityE
libQt5Core.so.5:_ZNK7QString7indexOfERKS_iN2Qt15CaseSensitivityE
libQt5Core.so.5:_ZNK7QString7toFloatEPb
libQt5Core.so.5:_ZNK7QString7toShortEPbi
libQt5Core.so.5:_ZNK7QString8endsWithERKS_N2Qt15CaseSensitivityE
libQt5Core.so.5:_ZNK8QProcess18processEnvironmentEv
libQt5Core.so.5:_ZNK8QProcess5stateEv
libQt5Core.so.5:_ZNK8QVariant5toIntEPb
libQt5Core.so.5:_ZNK8QVariant6toBoolEv
libQt5Core.so.5:_ZNK8QVariant6toRectEv
libQt5Core.so.5:_ZNK8QVariant7convertEiPv
libQt5Core.so.5:_ZNK8QVariant8toDoubleEPb
libQt5Core.so.5:_ZNK8QVariant8toStringEv
libQt5Core.so.5:_ZNK8QVariant8userTypeEv
libQt5Core.so.5:_ZNK8QVariant9constDataEv
libQt5Core.so.5:_ZNK9QDateTime8toStringERK7QString
libQt5Core.so.5:_ZNK9QFileInfo16absoluteFilePathEv
libQt5Core.so.5:_ZNK9QSettings5valueERK7QStringRK8QVariant
libQt5Core.so.5:_ZNK9QtPrivate15ResultStoreBase10filterModeEv
libQt5Core.so.5:_ZNK9QtPrivate15ResultStoreBase5countEv
libQt5Core.so.5:_ZNK9QtPrivate15ResultStoreBase8resultAtEi
libQt5Core.so.5:_ZTI10QException
libQt5Core.so.5:_ZTI18QFutureWatcherBase
libQt5Core.so.5:_ZTI20QFutureInterfaceBase
libQt5Core.so.5:_ZTI7QObject
libQt5Core.so.5:_ZTI9QRunnable
libQt5Core.so.5:_ZTV18QFutureWatcherBase
libQt5Core.so.5:_ZTV19QUnhandledException
libQt5Core.so.5:_ZeqRK7QStringS1_
libQt5Core.so.5:_ZltRK7QStringS1_
libQt5Core.so.5:_ZrsR11QDataStreamR7QString
libQt5Core.so.5:qt_version_tag
libQt5Gui.so.5:_ZN10QClipboard7setTextERK7QStringNS_4ModeE
libQt5Gui.so.5:_ZN15QGuiApplication9clipboardEv
libQt5Gui.so.5:_ZN4QPenC1ERK6QBrushdN2Qt8PenStyleENS3_11PenCapStyleENS3_12PenJoinStyleE
libQt5Gui.so.5:_ZN4QPenC1ERKS_
libQt5Gui.so.5:_ZN4QPenC1Ev
libQt5Gui.so.5:_ZN4QPenD1Ev
libQt5Gui.so.5:_ZN4QPenaSERKS_
libQt5Gui.so.5:_ZN5QFont10setStretchEi
libQt5Gui.so.5:_ZN5QFont12setPointSizeEi
libQt5Gui.so.5:_ZN5QFont12setUnderlineEb
libQt5Gui.so.5:_ZN5QFont9setFamilyERK7QString
libQt5Gui.so.5:_ZN5QFont9setWeightEi
libQt5Gui.so.5:_ZN5QFontC1ERK7QStringiib
libQt5Gui.so.5:_ZN5QFontC1Ev
libQt5Gui.so.5:_ZN5QFontD1Ev
libQt5Gui.so.5:_ZN5QIcon7addFileERK7QStringRK5QSizeNS_4ModeENS_5StateE
libQt5Gui.so.5:_ZN5QIcon9fromThemeERK7QStringRKS_
libQt5Gui.so.5:_ZN5QIconC1ERK7QString
libQt5Gui.so.5:_ZN5QIconC1Ev
libQt5Gui.so.5:_ZN5QIconD1Ev
libQt5Gui.so.5:_ZN6QBrush8setStyleEN2Qt10BrushStyleE
libQt5Gui.so.5:_ZN6QBrushC1EN2Qt11GlobalColorENS0_10BrushStyleE
libQt5Gui.so.5:_ZN6QBrushC1ERK6QColorN2Qt10BrushStyleE
libQt5Gui.so.5:_ZN6QBrushD1Ev
libQt5Gui.so.5:_ZN6QColor13setNamedColorERK7QString
libQt5Gui.so.5:_ZN6QColor7fromRgbEiiii
libQt5Gui.so.5:_ZN6QColorC1EN2Qt11GlobalColorE
libQt5Gui.so.5:_ZN6QColoraSERKS_
libQt5Gui.so.5:_ZN8QPalette8setBrushENS_10ColorGroupENS_9ColorRoleERK6QBrush
libQt5Gui.so.5:_ZN8QPaletteC1ERK6QColor
libQt5Gui.so.5:_ZN8QPaletteC1ERKS_
libQt5Gui.so.5:_ZN8QPaletteC1Ev
libQt5Gui.so.5:_ZN8QPaletteD1Ev
libQt5Gui.so.5:_ZNK13QTextDocument11toPlainTextEv
libQt5Gui.so.5:_ZNK4QPen5brushEv
libQt5Gui.so.5:_ZNK4QPen5colorEv
libQt5Gui.so.5:_ZNK4QPen5styleEv
libQt5Gui.so.5:_ZNK4QPen5widthEv
libQt5Gui.so.5:_ZNK6QColor3redEv
libQt5Gui.so.5:_ZNK6QColor4blueEv
libQt5Gui.so.5:_ZNK6QColor4nameEv
libQt5Gui.so.5:_ZNK6QColor5greenEv
libQt5Gui.so.5:_ZNK6QColorcv8QVariantEv
libQt5Gui.so.5:_ZNK8QPalette5brushENS_10ColorGroupENS_9ColorRoleE
libQt5Network.so.5:_ZN12QLocalSocket15connectToServerERK7QString6QFlagsIN9QIODevice12OpenModeFlagEE
libQt5Network.so.5:_ZN12QLocalSocket5abortEv
libQt5Network.so.5:_ZN12QLocalSocketC1EP7QObject
libQt5Network.so.5:_ZNK12QLocalSocket5stateEv
libQt5Widgets.so.5:_ZN10QBoxLayout10setSpacingEi
libQt5Widgets.so.5:_ZN10QBoxLayout10setStretchEii
libQt5Widgets.so.5:_ZN10QBoxLayout9addLayoutEP7QLayouti
libQt5Widgets.so.5:_ZN10QBoxLayout9addWidgetEP7QWidgeti6QFlagsIN2Qt13AlignmentFlagEE
libQt5Widgets.so.5:_ZN10QTabWidget10setTabTextEiRK7QString
libQt5Widgets.so.5:_ZN10QTabWidget13setTabEnabledEib
libQt5Widgets.so.5:_ZN10QTabWidget14setTabPositionENS_11TabPositionE
libQt5Widgets.so.5:_ZN10QTabWidget15setCornerWidgetEP7QWidgetN2Qt6CornerE
libQt5Widgets.so.5:_ZN10QTabWidget15setCurrentIndexEi
libQt5Widgets.so.5:_ZN10QTabWidget15setTabsClosableEb
libQt5Widgets.so.5:_ZN10QTabWidget6addTabEP7QWidgetRK7QString
libQt5Widgets.so.5:_ZN10QTabWidget9removeTabEi
libQt5Widgets.so.5:_ZN10QTabWidgetC1EP7QWidget
libQt5Widgets.so.5:_ZN11QFileDialog15getOpenFileNameEP7QWidgetRK7QStringS4_S4_PS2_6QFlagsINS_6OptionEE
libQt5Widgets.so.5:_ZN11QFileDialog15getSaveFileNameEP7QWidgetRK7QStringS4_S4_PS2_6QFlagsINS_6OptionEE
libQt5Widgets.so.5:_ZN11QGridLayout10setSpacingEi
libQt5Widgets.so.5:_ZN11QGridLayout13setRowStretchEii
libQt5Widgets.so.5:_ZN11QGridLayout16setColumnStretchEii
libQt5Widgets.so.5:_ZN11QGridLayout18setVerticalSpacingEi
libQt5Widgets.so.5:_ZN11QGridLayout20setHorizontalSpacingEi
libQt5Widgets.so.5:_ZN11QGridLayout7addItemEP11QLayoutItemiiii6QFlagsIN2Qt13AlignmentFlagEE
libQt5Widgets.so.5:_ZN11QGridLayout9addLayoutEP7QLayoutiiii6QFlagsIN2Qt13AlignmentFlagEE
libQt5Widgets.so.5:_ZN11QGridLayout9addWidgetEP7QWidgetii6QFlagsIN2Qt13AlignmentFlagEE
libQt5Widgets.so.5:_ZN11QGridLayout9addWidgetEP7QWidgetiiii6QFlagsIN2Qt13AlignmentFlagEE
libQt5Widgets.so.5:_ZN11QGridLayoutC1EP7QWidget
libQt5Widgets.so.5:_ZN11QGridLayoutC1Ev
libQt5Widgets.so.5:_ZN11QHBoxLayoutC1EP7QWidget
libQt5Widgets.so.5:_ZN11QHBoxLayoutC1Ev
libQt5Widgets.so.5:_ZN11QHeaderView13resizeSectionEii
libQt5Widgets.so.5:_ZN11QHeaderView14resizeSectionsENS_10ResizeModeE
libQt5Widgets.so.5:_ZN11QHeaderView21setDefaultSectionSizeEi
libQt5Widgets.so.5:_ZN11QHeaderView21setMinimumSectionSizeEi
libQt5Widgets.so.5:_ZN11QHeaderView21setStretchLastSectionEb
libQt5Widgets.so.5:_ZN11QHeaderView26setCascadingSectionResizesEb
libQt5Widgets.so.5:_ZN11QLayoutItem12setAlignmentE6QFlagsIN2Qt13AlignmentFlagEE
libQt5Widgets.so.5:_ZN11QListWidget10insertItemEiP15QListWidgetItem
libQt5Widgets.so.5:_ZN11QListWidget10insertItemEiRK7QString
libQt5Widgets.so.5:_ZN11QListWidget11insertItemsEiRK11QStringList
libQt5Widgets.so.5:_ZN11QListWidget13setCurrentRowEi
libQt5Widgets.so.5:_ZN11QListWidget5clearEv
libQt5Widgets.so.5:_ZN11QListWidget8takeItemEi
libQt5Widgets.so.5:_ZN11QListWidgetC1EP7QWidget
libQt5Widgets.so.5:_ZN11QMainWindow11qt_metacallEN11QMetaObject4CallEiPPv
libQt5Widgets.so.5:_ZN11QMainWindow11qt_metacastEPKc
libQt5Widgets.so.5:_ZN11QMainWindow15createPopupMenuEv
libQt5Widgets.so.5:_ZN11QMainWindow16contextMenuEventEP17QContextMenuEvent
libQt5Widgets.so.5:_ZN11QMainWindow16setCentralWidgetEP7QWidget
libQt5Widgets.so.5:_ZN11QMainWindow16staticMetaObjectE
libQt5Widgets.so.5:_ZN11QMainWindow5eventEP6QEvent
libQt5Widgets.so.5:_ZN11QMainWindowC2EP7QWidget6QFlagsIN2Qt10WindowTypeEE
libQt5Widgets.so.5:_ZN11QMainWindowD2Ev
libQt5Widgets.so.5:_ZN11QMessageBox11informationEP7QWidgetRK7QStringS4_6QFlagsINS_14StandardButtonEES6_
libQt5Widgets.so.5:_ZN11QMessageBox7warningEP7QWidgetRK7QStringS4_6QFlagsINS_14StandardButtonEES6_
libQt5Widgets.so.5:_ZN11QMessageBox8criticalEP7QWidgetRK7QStringS4_6QFlagsINS_14StandardButtonEES6_
libQt5Widgets.so.5:_ZN11QMessageBox8questionEP7QWidgetRK7QStringS4_6QFlagsINS_14StandardButtonEES6_
libQt5Widgets.so.5:_ZN11QPushButtonC1EP7QWidget
libQt5Widgets.so.5:_ZN11QScrollArea18setWidgetResizableEb
libQt5Widgets.so.5:_ZN11QScrollArea9setWidgetEP7QWidget
libQt5Widgets.so.5:_ZN11QScrollAreaC1EP7QWidget
libQt5Widgets.so.5:_ZN11QToolButton12setArrowTypeEN2Qt9ArrowTypeE
libQt5Widgets.so.5:_ZN11QToolButton12setPopupModeENS_19ToolButtonPopupModeE
libQt5Widgets.so.5:_ZN11QToolButton18setToolButtonStyleEN2Qt15ToolButtonStyleE
libQt5Widgets.so.5:_ZN11QToolButton7setMenuEP5QMenu
libQt5Widgets.so.5:_ZN11QToolButton8showMenuEv
libQt5Widgets.so.5:_ZN11QToolButtonC1EP7QWidget
libQt5Widgets.so.5:_ZN11QTreeWidget13setHeaderItemEP15QTreeWidgetItem
libQt5Widgets.so.5:_ZN11QTreeWidget14setColumnCountEi
libQt5Widgets.so.5:_ZN11QTreeWidget14setCurrentItemEP15QTreeWidgetItem
libQt5Widgets.so.5:_ZN11QTreeWidget15addTopLevelItemEP15QTreeWidgetItem
libQt5Widgets.so.5:_ZN11QTreeWidget16addTopLevelItemsERK5QListIP15QTreeWidgetItemE
libQt5Widgets.so.5:_ZN11QTreeWidget16takeTopLevelItemEi
libQt5Widgets.so.5:_ZN11QTreeWidget18insertTopLevelItemEiP15QTreeWidgetItem
libQt5Widgets.so.5:_ZN11QTreeWidget5clearEv
libQt5Widgets.so.5:_ZN11QTreeWidgetC1EP7QWidget
libQt5Widgets.so.5:_ZN11QVBoxLayoutC1EP7QWidget
libQt5Widgets.so.5:_ZN11QVBoxLayoutC1Ev
libQt5Widgets.so.5:_ZN12QActionGroupC1EP7QObject
libQt5Widgets.so.5:_ZN12QApplication4execEv
libQt5Widgets.so.5:_ZN12QApplicationC1ERiPPci
libQt5Widgets.so.5:_ZN12QApplicationD1Ev
libQt5Widgets.so.5:_ZN12QButtonGroup9addButtonEP15QAbstractButtoni
libQt5Widgets.so.5:_ZN12QButtonGroupC1EP7QObject
libQt5Widgets.so.5:_ZN12QButtonGroupD1Ev
libQt5Widgets.so.5:_ZN12QColorDialog8getColorERK6QColorP7QWidgetRK7QString6QFlagsINS_17ColorDialogOptionEE
libQt5Widgets.so.5:_ZN12QInputDialog6getIntEP7QWidgetRK7QStringS4_iiiiPb6QFlagsIN2Qt10WindowTypeEE
libQt5Widgets.so.5:_ZN12QInputDialog7getTextEP7QWidgetRK7QStringS4_N9QLineEdit8EchoModeES4_Pb6QFlagsIN2Qt10WindowTypeEES8_INS9_15InputMethodHintEE
libQt5Widgets.so.5:_ZN12QRadioButtonC1EP7QWidget
libQt5Widgets.so.5:_ZN13QGraphicsItem10setVisibleEb
libQt5Widgets.so.5:_ZN13QGraphicsView10paintEventEP11QPaintEvent
libQt5Widgets.so.5:_ZN13QGraphicsView10wheelEventEP11QWheelEvent
libQt5Widgets.so.5:_ZN13QGraphicsView12focusInEventEP11QFocusEvent
libQt5Widgets.so.5:_ZN13QGraphicsView13dragMoveEventEP14QDragMoveEvent
libQt5Widgets.so.5:_ZN13QGraphicsView13focusOutEventEP11QFocusEvent
libQt5Widgets.so.5:_ZN13QGraphicsView13keyPressEventEP9QKeyEvent
libQt5Widgets.so.5:_ZN13QGraphicsView13setRenderHintEN8QPainter10RenderHintEb
libQt5Widgets.so.5:_ZN13QGraphicsView13setupViewportEP7QWidget
libQt5Widgets.so.5:_ZN13QGraphicsView13viewportEventEP6QEvent
libQt5Widgets.so.5:_ZN13QGraphicsView14dragEnterEventEP15QDragEnterEvent
libQt5Widgets.so.5:_ZN13QGraphicsView14dragLeaveEventEP15QDragLeaveEvent
libQt5Widgets.so.5:_ZN13QGraphicsView14drawBackgroundEP8QPainterRK6QRectF
libQt5Widgets.so.5:_ZN13QGraphicsView14drawForegroundEP8QPainterRK6QRectF
libQt5Widgets.so.5:_ZN13QGraphicsView15keyReleaseEventEP9QKeyEvent
libQt5Widgets.so.5:_ZN13QGraphicsView16contextMenuEventEP17QContextMenuEvent
libQt5Widgets.so.5:_ZN13QGraphicsView16inputMethodEventEP17QInputMethodEvent
libQt5Widgets.so.5:_ZN13QGraphicsView16scrollContentsByEii
libQt5Widgets.so.5:_ZN13QGraphicsView18focusNextPrevChildEb
libQt5Widgets.so.5:_ZN13QGraphicsView18setBackgroundBrushERK6QBrush
libQt5Widgets.so.5:_ZN13QGraphicsView21mouseDoubleClickEventEP11QMouseEvent
libQt5Widgets.so.5:_ZN13QGraphicsView5eventEP6QEvent
libQt5Widgets.so.5:_ZN13QGraphicsView9drawItemsEP8QPainteriPP13QGraphicsItemPK24QStyleOptionGraphicsItem
libQt5Widgets.so.5:_ZN13QGraphicsView9dropEventEP10QDropEvent
libQt5Widgets.so.5:_ZN13QGraphicsView9showEventEP10QShowEvent
libQt5Widgets.so.5:_ZN14QDesktopWidgetC1Ev
libQt5Widgets.so.5:_ZN14QDesktopWidgetD1Ev
libQt5Widgets.so.5:_ZN14QDoubleSpinBox10setMinimumEd
libQt5Widgets.so.5:_ZN14QDoubleSpinBox11setDecimalsEi
libQt5Widgets.so.5:_ZN14QDoubleSpinBox13setSingleStepEd
libQt5Widgets.so.5:_ZN14QDoubleSpinBox8setValueEd
libQt5Widgets.so.5:_ZN14QDoubleSpinBoxC1EP7QWidget
libQt5Widgets.so.5:_ZN14QPlainTextEdit11setReadOnlyEb
libQt5Widgets.so.5:_ZN14QPlainTextEdit12setPlainTextERK7QString
libQt5Widgets.so.5:_ZN14QPlainTextEdit15appendPlainTextERK7QString
libQt5Widgets.so.5:_ZN14QPlainTextEditC1EP7QWidget
libQt5Widgets.so.5:_ZN14QStackedWidget15setCurrentIndexEi
libQt5Widgets.so.5:_ZN14QStackedWidget9addWidgetEP7QWidget
libQt5Widgets.so.5:_ZN14QStackedWidgetC1EP7QWidget
libQt5Widgets.so.5:_ZN15QAbstractButton10setCheckedEb
libQt5Widgets.so.5:_ZN15QAbstractButton11setIconSizeERK5QSize
libQt5Widgets.so.5:_ZN15QAbstractButton12setCheckableEb
libQt5Widgets.so.5:_ZN15QAbstractButton5clickEv
libQt5Widgets.so.5:_ZN15QAbstractButton7setIconERK5QIcon
libQt5Widgets.so.5:_ZN15QAbstractButton7setTextERK7QString
libQt5Widgets.so.5:_ZN15QAbstractSlider10setMaximumEi
libQt5Widgets.so.5:_ZN15QAbstractSlider10setMinimumEi
libQt5Widgets.so.5:_ZN15QAbstractSlider11setPageStepEi
libQt5Widgets.so.5:_ZN15QAbstractSlider11setTrackingEb
libQt5Widgets.so.5:_ZN15QAbstractSlider14setOrientationEN2Qt11OrientationE
libQt5Widgets.so.5:_ZN15QAbstractSlider19setInvertedControlsEb
libQt5Widgets.so.5:_ZN15QAbstractSlider21setInvertedAppearanceEb
libQt5Widgets.so.5:_ZN15QAbstractSlider8setRangeEii
libQt5Widgets.so.5:_ZN15QAbstractSlider8setValueEi
libQt5Widgets.so.5:_ZN15QGraphicsWidget18setContentsMarginsEdddd
libQt5Widgets.so.5:_ZN15QListWidgetItem8setFlagsE6QFlagsIN2Qt8ItemFlagEE
libQt5Widgets.so.5:_ZN15QListWidgetItemC1EP11QListWidgeti
libQt5Widgets.so.5:_ZN15QSystemTrayIcon10setToolTipERK7QString
libQt5Widgets.so.5:_ZN15QSystemTrayIcon10setVisibleEb
libQt5Widgets.so.5:_ZN15QSystemTrayIcon14setContextMenuEP5QMenu
libQt5Widgets.so.5:_ZN15QSystemTrayIconC1ERK5QIconP7QObject
libQt5Widgets.so.5:_ZN15QTreeWidgetItem7setDataEiiRK8QVariant
libQt5Widgets.so.5:_ZN15QTreeWidgetItem8addChildEPS_
libQt5Widgets.so.5:_ZN15QTreeWidgetItem8setFlagsE6QFlagsIN2Qt8ItemFlagEE
libQt5Widgets.so.5:_ZN15QTreeWidgetItemC1ERK11QStringListi
libQt5Widgets.so.5:_ZN15QTreeWidgetItemC1Ei
libQt5Widgets.so.5:_ZN16QAbstractSpinBox16setButtonSymbolsENS_13ButtonSymbolsE
libQt5Widgets.so.5:_ZN17QAbstractItemView15setEditTriggersE6QFlagsINS_11EditTriggerEE
libQt5Widgets.so.5:_ZN17QAbstractItemView16setSelectionModeENS_13SelectionModeE
libQt5Widgets.so.5:_ZN17QAbstractItemView19setTabKeyNavigationEb
libQt5Widgets.so.5:_ZN17QAbstractItemView23setAlternatingRowColorsEb
libQt5Widgets.so.5:_ZN19QAbstractScrollArea11eventFilterEP7QObjectP6QEvent
libQt5Widgets.so.5:_ZN19QAbstractScrollArea26setVerticalScrollBarPolicyEN2Qt15ScrollBarPolicyE
libQt5Widgets.so.5:_ZN19QGraphicsLayoutItem14setMinimumSizeERK6QSizeF
libQt5Widgets.so.5:_ZN23QTreeWidgetItemIteratorC1EP11QTreeWidget6QFlagsINS_12IteratorFlagEE
libQt5Widgets.so.5:_ZN23QTreeWidgetItemIteratorC1ERKS_
libQt5Widgets.so.5:_ZN23QTreeWidgetItemIteratorD1Ev
libQt5Widgets.so.5:_ZN23QTreeWidgetItemIteratorppEv
libQt5Widgets.so.5:_ZN5QMenu12addSeparatorEv
libQt5Widgets.so.5:_ZN5QMenuC1EP7QWidget
libQt5Widgets.so.5:_ZN6QFrame11changeEventEP6QEvent
libQt5Widgets.so.5:_ZN6QFrame12setLineWidthEi
libQt5Widgets.so.5:_ZN6QFrame13setFrameShapeENS_5ShapeE
libQt5Widgets.so.5:_ZN6QFrame14setFrameShadowENS_6ShadowE
libQt5Widgets.so.5:_ZN6QFrameC1EP7QWidget6QFlagsIN2Qt10WindowTypeEE
libQt5Widgets.so.5:_ZN6QLabel10paintEventEP11QPaintEvent
libQt5Widgets.so.5:_ZN6QLabel11changeEventEP6QEvent
libQt5Widgets.so.5:_ZN6QLabel11qt_metacallEN11QMetaObject4CallEiPPv
libQt5Widgets.so.5:_ZN6QLabel11qt_metacastEPKc
libQt5Widgets.so.5:_ZN6QLabel12focusInEventEP11QFocusEvent
libQt5Widgets.so.5:_ZN6QLabel12setAlignmentE6QFlagsIN2Qt13AlignmentFlagEE
libQt5Widgets.so.5:_ZN6QLabel13focusOutEventEP11QFocusEvent
libQt5Widgets.so.5:_ZN6QLabel13keyPressEventEP9QKeyEvent
libQt5Widgets.so.5:_ZN6QLabel13setTextFormatEN2Qt10TextFormatE
libQt5Widgets.so.5:_ZN6QLabel14mouseMoveEventEP11QMouseEvent
libQt5Widgets.so.5:_ZN6QLabel15mousePressEventEP11QMouseEvent
libQt5Widgets.so.5:_ZN6QLabel16contextMenuEventEP17QContextMenuEvent
libQt5Widgets.so.5:_ZN6QLabel17mouseReleaseEventEP11QMouseEvent
libQt5Widgets.so.5:_ZN6QLabel18focusNextPrevChildEb
libQt5Widgets.so.5:_ZN6QLabel20setOpenExternalLinksEb
libQt5Widgets.so.5:_ZN6QLabel5clearEv
libQt5Widgets.so.5:_ZN6QLabel5eventEP6QEvent
libQt5Widgets.so.5:_ZN6QLabel7setTextERK7QString
libQt5Widgets.so.5:_ZN6QLabelC1EP7QWidget6QFlagsIN2Qt10WindowTypeEE
libQt5Widgets.so.5:_ZN6QLabelC1ERK7QStringP7QWidget6QFlagsIN2Qt10WindowTypeEE
libQt5Widgets.so.5:_ZN6QLabelC2EP7QWidget6QFlagsIN2Qt10WindowTypeEE
libQt5Widgets.so.5:_ZN6QLabelD1Ev
libQt5Widgets.so.5:_ZN6QLabelD2Ev
libQt5Widgets.so.5:_ZN7QAction10setCheckedEb
libQt5Widgets.so.5:_ZN7QAction12setCheckableEb
libQt5Widgets.so.5:_ZN7QAction14setActionGroupEP12QActionGroup
libQt5Widgets.so.5:_ZN7QAction16staticMetaObjectE
libQt5Widgets.so.5:_ZN7QAction7setIconERK5QIcon
libQt5Widgets.so.5:_ZN7QAction7setTextERK7QString
libQt5Widgets.so.5:_ZN7QActionC1EP7QObject
libQt5Widgets.so.5:_ZN7QDialog10closeEventEP11QCloseEvent
libQt5Widgets.so.5:_ZN7QDialog10setVisibleEb
libQt5Widgets.so.5:_ZN7QDialog11eventFilterEP7QObjectP6QEvent
libQt5Widgets.so.5:_ZN7QDialog11qt_metacallEN11QMetaObject4CallEiPPv
libQt5Widgets.so.5:_ZN7QDialog11qt_metacastEPKc
libQt5Widgets.so.5:_ZN7QDialog11resizeEventEP12QResizeEvent
libQt5Widgets.so.5:_ZN7QDialog13keyPressEventEP9QKeyEvent
libQt5Widgets.so.5:_ZN7QDialog16contextMenuEventEP17QContextMenuEvent
libQt5Widgets.so.5:_ZN7QDialog16staticMetaObjectE
libQt5Widgets.so.5:_ZN7QDialog4doneEi
libQt5Widgets.so.5:_ZN7QDialog4execEv
libQt5Widgets.so.5:_ZN7QDialog4openEv
libQt5Widgets.so.5:_ZN7QDialog6acceptEv
libQt5Widgets.so.5:_ZN7QDialog6rejectEv
libQt5Widgets.so.5:_ZN7QDialog8setModalEb
libQt5Widgets.so.5:_ZN7QDialog9setResultEi
libQt5Widgets.so.5:_ZN7QDialog9showEventEP10QShowEvent
libQt5Widgets.so.5:_ZN7QDialogC2EP7QWidget6QFlagsIN2Qt10WindowTypeEE
libQt5Widgets.so.5:_ZN7QDialogD2Ev
libQt5Widgets.so.5:_ZN7QLayout10setSpacingEi
libQt5Widgets.so.5:_ZN7QLayout18setContentsMarginsEiiii
libQt5Widgets.so.5:_ZN7QLayout9addWidgetEP7QWidget
libQt5Widgets.so.5:_ZN7QLayout9setMarginEi
libQt5Widgets.so.5:_ZN7QSlider15setTickIntervalEi
libQt5Widgets.so.5:_ZN7QSlider15setTickPositionENS_12TickPositionE
libQt5Widgets.so.5:_ZN7QSliderC1EP7QWidget
libQt5Widgets.so.5:_ZN7QWidget10closeEventEP11QCloseEvent
libQt5Widgets.so.5:_ZN7QWidget10enterEventEP6QEvent
libQt5Widgets.so.5:_ZN7QWidget10leaveEventEP6QEvent
libQt5Widgets.so.5:_ZN7QWidget10paintEventEP11QPaintEvent
libQt5Widgets.so.5:_ZN7QWidget10setEnabledEb
libQt5Widgets.so.5:_ZN7QWidget10setPaletteERK8QPalette
libQt5Widgets.so.5:_ZN7QWidget10setToolTipERK7QString
libQt5Widgets.so.5:_ZN7QWidget10setVisibleEb
libQt5Widgets.so.5:_ZN7QWidget10showNormalEv
libQt5Widgets.so.5:_ZN7QWidget10wheelEventEP11QWheelEvent
libQt5Widgets.so.5:_ZN7QWidget11actionEventEP12QActionEvent
libQt5Widgets.so.5:_ZN7QWidget11changeEventEP6QEvent
libQt5Widgets.so.5:_ZN7QWidget11nativeEventERK10QByteArrayPvPl
libQt5Widgets.so.5:_ZN7QWidget11qt_metacallEN11QMetaObject4CallEiPPv
libQt5Widgets.so.5:_ZN7QWidget11qt_metacastEPKc
libQt5Widgets.so.5:_ZN7QWidget11resizeEventEP12QResizeEvent
libQt5Widgets.so.5:_ZN7QWidget11setGeometryERK5QRect
libQt5Widgets.so.5:_ZN7QWidget11tabletEventEP12QTabletEvent
libQt5Widgets.so.5:_ZN7QWidget12focusInEventEP11QFocusEvent
libQt5Widgets.so.5:_ZN7QWidget12setFixedSizeERK5QSize
libQt5Widgets.so.5:_ZN7QWidget13dragMoveEventEP14QDragMoveEvent
libQt5Widgets.so.5:_ZN7QWidget13focusOutEventEP11QFocusEvent
libQt5Widgets.so.5:_ZN7QWidget13keyPressEventEP9QKeyEvent
libQt5Widgets.so.5:_ZN7QWidget13setSizePolicyE11QSizePolicy
libQt5Widgets.so.5:_ZN7QWidget13setWindowIconERK5QIcon
libQt5Widgets.so.5:_ZN7QWidget13showMinimizedEv
libQt5Widgets.so.5:_ZN7QWidget14dragEnterEventEP15QDragEnterEvent
libQt5Widgets.so.5:_ZN7QWidget14dragLeaveEventEP15QDragLeaveEvent
libQt5Widgets.so.5:_ZN7QWidget14mouseMoveEventEP11QMouseEvent
libQt5Widgets.so.5:_ZN7QWidget14setMaximumSizeEii
libQt5Widgets.so.5:_ZN7QWidget14setMinimumSizeEii
libQt5Widgets.so.5:_ZN7QWidget14setWindowFlagsE6QFlagsIN2Qt10WindowTypeEE
libQt5Widgets.so.5:_ZN7QWidget14setWindowStateE6QFlagsIN2Qt11WindowStateEE
libQt5Widgets.so.5:_ZN7QWidget14setWindowTitleERK7QString
libQt5Widgets.so.5:_ZN7QWidget15keyReleaseEventEP9QKeyEvent
libQt5Widgets.so.5:_ZN7QWidget15mousePressEventEP11QMouseEvent
libQt5Widgets.so.5:_ZN7QWidget16contextMenuEventEP17QContextMenuEvent
libQt5Widgets.so.5:_ZN7QWidget16inputMethodEventEP17QInputMethodEvent
libQt5Widgets.so.5:_ZN7QWidget16setMaximumHeightEi
libQt5Widgets.so.5:_ZN7QWidget16setMinimumHeightEi
libQt5Widgets.so.5:_ZN7QWidget16staticMetaObjectE
libQt5Widgets.so.5:_ZN7QWidget17mouseReleaseEventEP11QMouseEvent
libQt5Widgets.so.5:_ZN7QWidget18focusNextPrevChildEb
libQt5Widgets.so.5:_ZN7QWidget18setContentsMarginsERK8QMargins
libQt5Widgets.so.5:_ZN7QWidget18setContentsMarginsEiiii
libQt5Widgets.so.5:_ZN7QWidget18setLayoutDirectionEN2Qt15LayoutDirectionE
libQt5Widgets.so.5:_ZN7QWidget20setContextMenuPolicyEN2Qt17ContextMenuPolicyE
libQt5Widgets.so.5:_ZN7QWidget21mouseDoubleClickEventEP11QMouseEvent
libQt5Widgets.so.5:_ZN7QWidget21setAutoFillBackgroundEb
libQt5Widgets.so.5:_ZN7QWidget4hideEv
libQt5Widgets.so.5:_ZN7QWidget4showEv
libQt5Widgets.so.5:_ZN7QWidget5closeEv
libQt5Widgets.so.5:_ZN7QWidget5eventEP6QEvent
libQt5Widgets.so.5:_ZN7QWidget5raiseEv
libQt5Widgets.so.5:_ZN7QWidget6resizeERK5QSize
libQt5Widgets.so.5:_ZN7QWidget7setFontERK5QFont
libQt5Widgets.so.5:_ZN7QWidget9addActionEP7QAction
libQt5Widgets.so.5:_ZN7QWidget9dropEventEP10QDropEvent
libQt5Widgets.so.5:_ZN7QWidget9hideEventEP10QHideEvent
libQt5Widgets.so.5:_ZN7QWidget9moveEventEP10QMoveEvent
libQt5Widgets.so.5:_ZN7QWidget9setLayoutEP7QLayout
libQt5Widgets.so.5:_ZN7QWidget9showEventEP10QShowEvent
libQt5Widgets.so.5:_ZN7QWidgetC1EPS_6QFlagsIN2Qt10WindowTypeEE
libQt5Widgets.so.5:_ZN7QWidgetC2EPS_6QFlagsIN2Qt10WindowTypeEE
libQt5Widgets.so.5:_ZN7QWidgetD2Ev
libQt5Widgets.so.5:_ZN8QSpinBox10setMaximumEi
libQt5Widgets.so.5:_ZN8QSpinBox8setRangeEii
libQt5Widgets.so.5:_ZN8QSpinBox8setValueEi
libQt5Widgets.so.5:_ZN8QSpinBox9setSuffixERK7QString
libQt5Widgets.so.5:_ZN8QSpinBoxC1EP7QWidget
libQt5Widgets.so.5:_ZN9QCheckBoxC1EP7QWidget
libQt5Widgets.so.5:_ZN9QComboBox10insertItemEiRK5QIconRK7QStringRK8QVariant
libQt5Widgets.so.5:_ZN9QComboBox10removeItemEi
libQt5Widgets.so.5:_ZN9QComboBox11insertItemsEiRK11QStringList
libQt5Widgets.so.5:_ZN9QComboBox11setItemTextEiRK7QString
libQt5Widgets.so.5:_ZN9QComboBox14setCurrentTextERK7QString
libQt5Widgets.so.5:_ZN9QComboBox15setCurrentIndexEi
libQt5Widgets.so.5:_ZN9QComboBox5clearEv
libQt5Widgets.so.5:_ZN9QComboBoxC1EP7QWidget
libQt5Widgets.so.5:_ZN9QGroupBox10setCheckedEb
libQt5Widgets.so.5:_ZN9QGroupBox12setAlignmentEi
libQt5Widgets.so.5:_ZN9QGroupBox12setCheckableEb
libQt5Widgets.so.5:_ZN9QGroupBox7setFlatEb
libQt5Widgets.so.5:_ZN9QGroupBox8setTitleERK7QString
libQt5Widgets.so.5:_ZN9QGroupBoxC1EP7QWidget
libQt5Widgets.so.5:_ZN9QLineEdit11setReadOnlyEb
libQt5Widgets.so.5:_ZN9QLineEdit5clearEv
libQt5Widgets.so.5:_ZN9QLineEdit7setTextERK7QString
libQt5Widgets.so.5:_ZN9QLineEditC1EP7QWidget
libQt5Widgets.so.5:_ZN9QListView10setSpacingEi
libQt5Widgets.so.5:_ZN9QListView7setFlowENS_4FlowE
libQt5Widgets.so.5:_ZN9QTreeView13expandToDepthEi
libQt5Widgets.so.5:_ZN9QTreeView14setIndentationEi
libQt5Widgets.so.5:_ZN9QTreeView15setHeaderHiddenEb
libQt5Widgets.so.5:_ZN9QTreeView18setItemsExpandableEb
libQt5Widgets.so.5:_ZN9QTreeView18setRootIsDecoratedEb
libQt5Widgets.so.5:_ZN9QTreeView22resizeColumnToContentsEi
libQt5Widgets.so.5:_ZN9QTreeView23setExpandsOnDoubleClickEb
libQt5Widgets.so.5:_ZNK10QTabWidget12currentIndexEv
libQt5Widgets.so.5:_ZNK10QTabWidget5countEv
libQt5Widgets.so.5:_ZNK10QTabWidget7indexOfEP7QWidget
libQt5Widgets.so.5:_ZNK11QListWidget10currentRowEv
libQt5Widgets.so.5:_ZNK11QListWidget11currentItemEv
libQt5Widgets.so.5:_ZNK11QListWidget4itemEi
libQt5Widgets.so.5:_ZNK11QListWidget5countEv
libQt5Widgets.so.5:_ZNK11QToolButton4menuEv
libQt5Widgets.so.5:_ZNK11QTreeWidget10headerItemEv
libQt5Widgets.so.5:_ZNK11QTreeWidget11currentItemEv
libQt5Widgets.so.5:_ZNK11QTreeWidget12topLevelItemEi
libQt5Widgets.so.5:_ZNK11QTreeWidget13selectedItemsEv
libQt5Widgets.so.5:_ZNK11QTreeWidget17topLevelItemCountEv
libQt5Widgets.so.5:_ZNK11QTreeWidget19indexOfTopLevelItemEP15QTreeWidgetItem
libQt5Widgets.so.5:_ZNK11QTreeWidget9findItemsERK7QString6QFlagsIN2Qt9MatchFlagEEi
libQt5Widgets.so.5:_ZNK12QButtonGroup13checkedButtonEv
libQt5Widgets.so.5:_ZNK12QButtonGroup6buttonEi
libQt5Widgets.so.5:_ZNK12QButtonGroup7buttonsEv
libQt5Widgets.so.5:_ZNK12QButtonGroup9checkedIdEv
libQt5Widgets.so.5:_ZNK13QGraphicsView16inputMethodQueryEN2Qt16InputMethodQueryE
libQt5Widgets.so.5:_ZNK13QGraphicsView8sizeHintEv
libQt5Widgets.so.5:_ZNK14QDesktopWidget17availableGeometryEPK7QWidget
libQt5Widgets.so.5:_ZNK14QDoubleSpinBox5valueEv
libQt5Widgets.so.5:_ZNK14QPlainTextEdit8documentEv
libQt5Widgets.so.5:_ZNK14QStackedWidget12currentIndexEv
libQt5Widgets.so.5:_ZNK15QAbstractButton4textEv
libQt5Widgets.so.5:_ZNK15QAbstractButton9isCheckedEv
libQt5Widgets.so.5:_ZNK15QAbstractSlider5valueEv
libQt5Widgets.so.5:_ZNK15QTreeWidgetItem5flagsEv
libQt5Widgets.so.5:_ZNK16QAbstractSpinBox4textEv
libQt5Widgets.so.5:_ZNK17QAbstractItemView12currentIndexEv
libQt5Widgets.so.5:_ZNK19QAbstractScrollArea15minimumSizeHintEv
libQt5Widgets.so.5:_ZNK19QAbstractScrollArea16viewportSizeHintEv
libQt5Widgets.so.5:_ZNK6QLabel10metaObjectEv
libQt5Widgets.so.5:_ZNK6QLabel14heightForWidthEi
libQt5Widgets.so.5:_ZNK6QLabel15minimumSizeHintEv
libQt5Widgets.so.5:_ZNK6QLabel4textEv
libQt5Widgets.so.5:_ZNK6QLabel8sizeHintEv
libQt5Widgets.so.5:_ZNK7QAction11isSeparatorEv
libQt5Widgets.so.5:_ZNK7QAction4textEv
libQt5Widgets.so.5:_ZNK7QAction9isCheckedEv
libQt5Widgets.so.5:_ZNK7QDialog15minimumSizeHintEv
libQt5Widgets.so.5:_ZNK7QDialog8sizeHintEv
libQt5Widgets.so.5:_ZNK7QWidget10metaObjectEv
libQt5Widgets.so.5:_ZNK7QWidget10redirectedEP6QPoint
libQt5Widgets.so.5:_ZNK7QWidget10sizePolicyEv
libQt5Widgets.so.5:_ZNK7QWidget11initPainterEP8QPainter
libQt5Widgets.so.5:_ZNK7QWidget11isMinimizedEv
libQt5Widgets.so.5:_ZNK7QWidget11paintEngineEv
libQt5Widgets.so.5:_ZNK7QWidget11windowTitleEv
libQt5Widgets.so.5:_ZNK7QWidget13sharedPainterEv
libQt5Widgets.so.5:_ZNK7QWidget14backgroundRoleEv
libQt5Widgets.so.5:_ZNK7QWidget14foregroundRoleEv
libQt5Widgets.so.5:_ZNK7QWidget14heightForWidthEi
libQt5Widgets.so.5:_ZNK7QWidget15minimumSizeHintEv
libQt5Widgets.so.5:_ZNK7QWidget16inputMethodQueryEN2Qt16InputMethodQueryE
libQt5Widgets.so.5:_ZNK7QWidget17hasHeightForWidthEv
libQt5Widgets.so.5:_ZNK7QWidget6layoutEv
libQt5Widgets.so.5:_ZNK7QWidget6metricEN12QPaintDevice17PaintDeviceMetricE
libQt5Widgets.so.5:_ZNK7QWidget7actionsEv
libQt5Widgets.so.5:_ZNK7QWidget7devTypeEv
libQt5Widgets.so.5:_ZNK7QWidget7paletteEv
libQt5Widgets.so.5:_ZNK7QWidget8sizeHintEv
libQt5Widgets.so.5:_ZNK8QSpinBox5valueEv
libQt5Widgets.so.5:_ZNK9QComboBox11currentDataEi
libQt5Widgets.so.5:_ZNK9QComboBox11currentTextEv
libQt5Widgets.so.5:_ZNK9QComboBox12currentIndexEv
libQt5Widgets.so.5:_ZNK9QComboBox5countEv
libQt5Widgets.so.5:_ZNK9QComboBox8findDataERK8QVarianti6QFlagsIN2Qt9MatchFlagEE
libQt5Widgets.so.5:_ZNK9QGroupBox9isCheckedEv
libQt5Widgets.so.5:_ZNK9QLineEdit4textEv
libQt5Widgets.so.5:_ZNK9QTreeView6headerEv
libQt5Widgets.so.5:_ZTI11QMainWindow
libQt5Widgets.so.5:_ZTI6QLabel
libQt5Widgets.so.5:_ZTI7QDialog
libQt5Widgets.so.5:_ZTI7QWidget
libQt5Widgets.so.5:_ZTV11QSpacerItem
libQt5Widgets.so.5:_ZThn16_NK7QWidget10redirectedEP6QPoint
libQt5Widgets.so.5:_ZThn16_NK7QWidget11initPainterEP8QPainter
libQt5Widgets.so.5:_ZThn16_NK7QWidget11paintEngineEv
libQt5Widgets.so.5:_ZThn16_NK7QWidget13sharedPainterEv
libQt5Widgets.so.5:_ZThn16_NK7QWidget6metricEN12QPaintDevice17PaintDeviceMetricE
libQt5Widgets.so.5:_ZThn16_NK7QWidget7devTypeEv
libX11.so.6:XFree
libX11.so.6:XGetAtomName
libX11.so.6:XOpenDisplay
libXrandr.so.2:XRRFreeCrtcInfo
libXrandr.so.2:XRRFreeGamma
libXrandr.so.2:XRRFreeOutputInfo
libXrandr.so.2:XRRFreeScreenResources
libXrandr.so.2:XRRGetCrtcGamma
libXrandr.so.2:XRRGetCrtcInfo
libXrandr.so.2:XRRGetOutputInfo
libXrandr.so.2:XRRGetOutputProperty
libXrandr.so.2:XRRGetScreenResources
libXrandr.so.2:XRRGetScreenSizeRange
libXrandr.so.2:XRRListOutputProperties
libXrandr.so.2:XRRQueryOutputProperty
libc.so.6:__cxa_atexit
libc.so.6:__libc_start_main
libc.so.6:__snprintf_chk
libc.so.6:__stack_chk_fail
libc.so.6:free
libc.so.6:ioctl
libc.so.6:memcpy
libc.so.6:perror
libc.so.6:strcmp
libc.so.6:strlen
libc.so.6:usleep
libgcc_s.so.1:_Unwind_Resume
libm.so.6:sqrt
libpthread.so.0:__errno_location
libpthread.so.0:close
libpthread.so.0:open
libstdc++.so.6:_ZTVN10__cxxabiv117__class_type_infoE
libstdc++.so.6:_ZTVN10__cxxabiv120__si_class_type_infoE
libstdc++.so.6:_ZTVN10__cxxabiv121__vmi_class_type_infoE
libstdc++.so.6:_ZdlPv
libstdc++.so.6:_Znwm
libstdc++.so.6:__cxa_begin_catch
libstdc++.so.6:__cxa_end_catch
libstdc++.so.6:__cxa_pure_virtual
libstdc++.so.6:__cxa_rethrow
libstdc++.so.6:__gxx_personality_v0
