nmap:FPModel
nmap:FPmean
nmap:FPscale
nmap:FPvariance
nmap:MacTable
nmap:NsockLogLevel
nmap:NsockLogger
nmap:ProxySpecHttp
nmap:ProxySpecSocks4
nmap:Snprintf
nmap:Strncpy
nmap:Vsnprintf
nmap:_IO_stdin_used
nmap:_Z10WriteSInfoPcibPKcPK16sockaddr_storagei16dist_calc_methodPKhiii
nmap:_Z10cp_strndupPKci
nmap:_Z10finddyncapP7CaptureS0_
nmap:_Z10log_vwriteiPKcP13__va_list_tag
nmap:_Z10luaopen_dbP9lua_State
nmap:_Z10max_rcvbufi
nmap:_Z10nexthdrtoahi
nmap:_Z10nse_pushbnP9lua_StateP9bignum_stb
nmap:_Z10printtimesPK6Target
nmap:_Z10reason_strtj
nmap:_Z10returnhostP14HostGroupState
nmap:_Z10runtimecapP8CapStateP7CapturePKcPi
nmap:_Z10stack_dumpP9lua_State
nmap:_Z10tracerouteRSt6vectorIP6TargetSaIS1_EE
nmap:_Z10ultra_scanRSt6vectorIP6TargetSaIS1_EEPK10scan_lists5stypeP12timeout_info
nmap:_Z10value_dumpP9lua_Stateii
nmap:_Z11bintohexstrPciPKci
nmap:_Z11bounce_scanP6TargetPtiP7ftpinfo
nmap:_Z11cp_char2strc
nmap:_Z11dumpExcludePK7addrset
nmap:_Z11getcapturesP9lua_StatePKcS2_i
nmap:_Z11hascapturesP5TTree
nmap:_Z11ip_get_dataPKvPjP15abstract_ip_hdr
nmap:_Z11isipprivatePK16sockaddr_storage
nmap:_Z11islocalhostPK16sockaddr_storage
nmap:_Z11join_quotedB5cxx11PKPKcj
nmap:_Z11logfilenamePKcP2tm
nmap:_Z11luaopen_lfsP9lua_State
nmap:_Z11nseU_tablenP9lua_Statei
nmap:_Z11nse_restoreP9lua_Statei
nmap:_Z11pcap_selectP4pcapP7timeval
nmap:_Z11pcap_selectP4pcapl
nmap:_Z11protect_xmlNSt7__cxx1112basic_stringIcSt11char_traitsIcESaIcEEE
nmap:_Z11readip_pcapP4pcapPjlP7timevalP11link_headerb
nmap:_Z11reallocprogP9lua_StateP7Patterni
nmap:_Z11resolve_allPKci
nmap:_Z11script_scanRSt6vectorIP6TargetSaIS1_EE5stype
nmap:_Z11set_versionP9lua_StatePK17serviceDeductions
nmap:_Z11xml_end_tagv
nmap:_Z11xml_newlinev
nmap:_Z11xml_open_piPKc
nmap:_Z12build_ip_rawPK7in_addrS1_hithbPKhiPKctPj
nmap:_Z12cpe_get_partPKc
nmap:_Z12getsysroutesPiPcm
nmap:_Z12gettcpopt_tsPK7tcp_hdrPjS2_
nmap:_Z12inet_socktopPK16sockaddr_storage
nmap:_Z12luaopen_dnetP9lua_State
nmap:_Z12luaopen_lpegP9lua_State
nmap:_Z12luaopen_nmapP9lua_State
nmap:_Z12luaopen_zlibP9lua_State
nmap:_Z12nmap_hexdumpPKhj
nmap:_Z12nseU_getportP9lua_StateP6TargetP4Porti
nmap:_Z12nseU_successP9lua_State
nmap:_Z12print_iflistv
nmap:_Z12printmacinfoPK6Target
nmap:_Z12scantype2str5stype
nmap:_Z12send_tcp_rawiPK7eth_nfoPK7in_addrS4_ibPhittjjhhttS5_iPKct
nmap:_Z12send_udp_rawiPK7eth_nfoP7in_addrPKS2_itPhittPKct
nmap:_Z12service_scanRSt6vectorIP6TargetSaIS1_EE
nmap:_Z12set_hostinfoP9lua_StateP6Target
nmap:_Z12set_portinfoP9lua_StatePK6TargetPK4Port
nmap:_Z12statenum2stri
nmap:_Z12xml_close_piv
nmap:_Z12xml_tag_openv
nmap:_Z12xml_unescapePKc
nmap:_Z13begin_snifferP13UltraScanInfoRSt6vectorIP6TargetSaIS3_EE
nmap:_Z13build_tcp_rawPK7in_addrS1_ithbPKhittjjhhttS3_iPKctPj
nmap:_Z13build_udp_rawPK7in_addrS1_ithbPhittPKctPj
nmap:_Z13free_servicesv
nmap:_Z13getNextHopMACPKcPKhPK16sockaddr_storageS5_Ph
nmap:_Z13get_ns_resultP13UltraScanInfoP7timeval
nmap:_Z13getinterfacesPiPcm
nmap:_Z13getpts_simplePKciPPtPi
nmap:_Z13icmp_get_dataPK8icmp_hdrPj
nmap:_Z13init_payloadsv
nmap:_Z13ipv4_get_dataPK2ipPj
nmap:_Z13ipv6_get_dataPK7ip6_hdrPjPh
nmap:_Z13keyWasPressedv
nmap:_Z13log_flush_allv
nmap:_Z13luaopen_nsockP9lua_State
nmap:_Z13mac_cache_getPK16sockaddr_storagePh
nmap:_Z13mac_cache_setPK16sockaddr_storagePh
nmap:_Z13netutil_errorPKcz
nmap:_Z13netutil_fatalPKcz
nmap:_Z13nmap_free_memv
nmap:_Z13nse_gettargetP9lua_Statei
nmap:_Z13parse_optionsiPPc
nmap:_Z13readipv4_pcapP4pcapPjlP7timevalP11link_headerb
nmap:_Z13readtcppacketPKhi
nmap:_Z13readudppacketPKhi
nmap:_Z13set_ipoptionsiPvm
nmap:_Z13sethdrincludei
nmap:_Z13xml_attributePKcS0_z
nmap:_Z13xml_start_tagPKcb
nmap:_Z13xml_write_rawPKcz
nmap:_Z14MACCorp2PrefixPKcPh
nmap:_Z14MACPrefix2CorpPKh
nmap:_Z14arg_parse_freePPc
nmap:_Z14build_icmp_rawPK7in_addrS1_ithbPhitthhPKctPj
nmap:_Z14build_igmp_rawPK7in_addrS1_ithbPhihhPKctPj
nmap:_Z14build_ipv6_rawPK8in6_addrS1_hjhiPKctPj
nmap:_Z14build_sctp_rawPK7in_addrS1_ithbPhittjPciPKctPj
nmap:_Z14compare_doublePKvS0_
nmap:_Z14devname2ipaddrPcP16sockaddr_storage
nmap:_Z14freeinterfacesv
nmap:_Z14get_arp_resultP13UltraScanInfoP7timeval
nmap:_Z14icmp_to_reasonhii
nmap:_Z14ip_is_reservedP7in_addr
nmap:_Z14ipaddr2devnamePcPK16sockaddr_storage
nmap:_Z14label_prob_cmpPKvS0_
nmap:_Z14lua_state_dumpP9lua_State
nmap:_Z14nmap_fetchfilePciPKc
nmap:_Z14nmap_mass_rdnsPP6Targeti
nmap:_Z14nmap_route_dstPK16sockaddr_storageP9route_nfo
nmap:_Z14nseU_checkportP9lua_StateiPPKc
nmap:_Z14nseU_gettargetP9lua_Statei
nmap:_Z14nseU_opttargetP9lua_StateiPPKcS3_
nmap:_Z14nseU_safeerrorP9lua_StatePKcz
nmap:_Z14nseU_setbfieldP9lua_StateiPKci
nmap:_Z14nseU_setifieldP9lua_StateiPKcx
nmap:_Z14nseU_setnfieldP9lua_StateiPKcd
nmap:_Z14nseU_setpfieldP9lua_StateiPKcPv
nmap:_Z14nseU_setsfieldP9lua_StateiPKcS2_
nmap:_Z14nseU_tracebackP9lua_State
nmap:_Z14nseU_typeerrorP9lua_StateiPKc
nmap:_Z14nseU_weaktableP9lua_StateiiPKc
nmap:_Z14nse_destructorP9lua_Statec
nmap:_Z14send_ip_packetiPK7eth_nfoPK16sockaddr_storagePKhj
nmap:_Z14sockaddr_equalPK16sockaddr_storageS1_
nmap:_Z15adjust_timeouts7timevalP12timeout_info
nmap:_Z15datalink_offseti
nmap:_Z15eth_open_cachedPKc
nmap:_Z15free_scan_listsP10scan_lists
nmap:_Z15get_dns_serversB5cxx11v
nmap:_Z15get_pcap_resultP13UltraScanInfoP7timeval
nmap:_Z15get_udp_payloadtPih
nmap:_Z15icmpv6_get_dataPK10icmpv6_hdrPj
nmap:_Z15ip_get_data_anyPKvPjP15abstract_ip_hdr
nmap:_Z15ipidclass2asciii
nmap:_Z15ippackethdrinfoPKhji
nmap:_Z15load_fp_matchesv
nmap:_Z15luaopen_libssh2P9lua_State
nmap:_Z15luaopen_opensslP9lua_State
nmap:_Z15luaopen_pcrelibP9lua_State
nmap:_Z15make_socketpairPii
nmap:_Z15nmap_raw_socketv
nmap:_Z15nseU_appendfstrP9lua_StateiPKcz
nmap:_Z15nseU_checkudataP9lua_StateiiPKc
nmap:_Z15port_reason_str11port_reason
nmap:_Z15print_xml_hostsv
nmap:_Z15printportoutputPK6TargetPK8PortList
nmap:_Z15printtraceroutePK6Target
nmap:_Z15pspectype2asciii
nmap:_Z15read_reply_pcapP4pcaplPFbPKhPK11pcap_pkthdrimEPS2_PPS3_P7timevalPiPm
nmap:_Z15resolve_numericPKctP16sockaddr_storagePmi
nmap:_Z15sendIPScanProbeP13UltraScanInfoP13HostScanStatsPK9probespec8_tryno_u
nmap:_Z15sendNDScanProbeP13UltraScanInfoP13HostScanStats8_tryno_u
nmap:_Z15set_pcap_filterPKcP4pcapS0_z
nmap:_Z15xml_end_commentv
nmap:_Z16adjust_timeouts2PK7timevalS1_P12timeout_info
nmap:_Z16build_icmpv6_rawPK8in6_addrS1_hjhtthhPKctPj
nmap:_Z16cstring_unescapePcPj
nmap:_Z16eth_close_cachedv
nmap:_Z16ftp_anon_connectP7ftpinfo
nmap:_Z16nseU_checktargetP9lua_StateiPPKcS3_
nmap:_Z16nseU_placeholderP9lua_State
nmap:_Z16parse_hex_stringPKcPm
nmap:_Z16parse_ip_optionsPKcPhiPiS2_Pcm
nmap:_Z16pcap_print_statsiP4pcap
nmap:_Z16printfinaloutputv
nmap:_Z16proto2ascii_casehi
nmap:_Z16sendArpScanProbeP13UltraScanInfoP13HostScanStats8_tryno_u
nmap:_Z16set_program_namePKc
nmap:_Z16tcppacketoptinfoPhiPci
nmap:_Z16tsseqclass2asciii
nmap:_Z16xml_root_writtenv
nmap:_Z17format_ip_optionsPKhi
nmap:_Z17identify_sequenceiPji
nmap:_Z17ipv6_get_data_anyPK7ip6_hdrPjPh
nmap:_Z17load_exclude_fileP7addrsetP8_IO_FILE
nmap:_Z17match_fingerprintPK11FingerPrintP22FingerPrintResultsIPv4PK13FingerPrintDBd
nmap:_Z17my_pcap_open_livePKciii
nmap:_Z17nmap_getprotbynumi
nmap:_Z17nseU_checkintegerP9lua_Statei
nmap:_Z17nse_nsock_get_sslP9lua_State
nmap:_Z17printosscanoutputPK6Target
nmap:_Z17random_port_cheatPti
nmap:_Z17send_ip_packet_sdiPK11sockaddr_inPKhj
nmap:_Z17solve_l2r_lr_dualPK7problemPdddd
nmap:_Z17state_reason_initP11port_reason
nmap:_Z17target_reason_strPK6Target
nmap:_Z17udp_payload_countt
nmap:_Z17write_host_headerPK6Target
nmap:_Z17write_host_statusPK6Target
nmap:_Z17xml_start_commentv
nmap:_Z17xml_write_escapedPKcz
nmap:_Z18build_tcp_raw_ipv6PK8in6_addrS1_hjhttjjhhttPKhiPKctPj
nmap:_Z18build_udp_raw_ipv6PK8in6_addrS1_hjhttPKctPj
nmap:_Z18enforce_scan_delayP7timeval
nmap:_Z18getInterfaceByNamePKci
nmap:_Z18nmap_getprotbynamePKc
nmap:_Z18nmap_getservbyporttt
nmap:_Z18nse_selectedbynameP9lua_State
nmap:_Z18printStatusMessagev
nmap:_Z18printdatafilepathsv
nmap:_Z18printscriptresultsPKSt8multisetIP12ScriptResultSt4lessIS1_ESaIS1_EE5stype
nmap:_Z18read_ns_reply_pcapP4pcapPhP12sockaddr_in6lP7timevalPbPFviPKhjS5_E
nmap:_Z18send_ip_packet_ethPK7eth_nfoPKhj
nmap:_Z18string_pool_insertPKc
nmap:_Z18string_pool_substrPKcS0_
nmap:_Z18write_xml_hosthintPK6Target
nmap:_Z18xml_open_start_tagPKcb
nmap:_Z18xml_start_documentPKc
nmap:_Z19build_sctp_raw_ipv6PK8in6_addrS1_hjhttjPciPKctPj
nmap:_Z19do_one_select_roundP13UltraScanInfoP7timeval
nmap:_Z19getFinalPacketStatsPci
nmap:_Z19get_default_ftpinfov
nmap:_Z19grab_next_host_specP8_IO_FILEbiPPKc
nmap:_Z19load_exclude_stringP7addrsetPKc
nmap:_Z19lua_push_ecdhparamsP9lua_StateP11evp_pkey_st
nmap:_Z19read_arp_reply_pcapP4pcapPhP7in_addrlP7timevalPFviPKhjS5_E
nmap:_Z19read_host_from_fileP8_IO_FILEPcm
nmap:_Z19send_frag_ip_packetiPK7eth_nfoPK11sockaddr_inPKhjj
nmap:_Z19send_tcp_raw_decoysiPK7eth_nfoPK7in_addribPhittjjhhttS5_iPKct
nmap:_Z19send_udp_raw_decoysiPK7eth_nfoPK7in_addritPhittPKct
nmap:_Z19setTargetNextHopMACP6Target
nmap:_Z19sockaddr_equal_zeroPK16sockaddr_storage
nmap:_Z19string_pool_sprintfPKcz
nmap:_Z19validate_scan_listsR10scan_listsR7NmapOps
nmap:_Z19xml_close_empty_tagv
nmap:_Z19xml_close_start_tagb
nmap:_Z19xml_write_escaped_vPKcP13__va_list_tag
nmap:_Z20addportsfromservmaskPKcPhi
nmap:_Z20compare_fingerprintsPK11FingerPrintS1_PK14FingerPrintDefid
nmap:_Z20get_ipid_sequence_16iPKji
nmap:_Z20get_ipid_sequence_32iPKji
nmap:_Z20get_ping_pcap_resultP13UltraScanInfoP7timeval
nmap:_Z20ipv6_get_fragment_idPK7ip6_hdrj
nmap:_Z20nmap_adjust_loglevelb
nmap:_Z20sendConnectScanProbeP13UltraScanInfoP13HostScanStatst8_tryno_u
nmap:_Z20seqidx2difficultystrm
nmap:_Z21apply_delayed_optionsv
nmap:_Z21get_initial_ttl_guessh
nmap:_Z21l_get_ssl_certificateP9lua_State
nmap:_Z21nmap_set_nsock_loggerv
nmap:_Z21parse_bounce_argumentP7ftpinfoPc
nmap:_Z21payload_service_matchtPKhi
nmap:_Z21proto2ascii_lowercaseh
nmap:_Z21proto2ascii_uppercaseh
nmap:_Z21ultrascan_ping_updateP13UltraScanInfoP13HostScanStatsSt14_List_iteratorIP10UltraProbeEP7timevalb
nmap:_Z22determineScanGroupSizeiPK10scan_lists
nmap:_Z22parse_fingerprint_filePKcb
nmap:_Z22printhostscriptresultsPK6Target
nmap:_Z22printserviceinfooutputPK6Target
nmap:_Z22sockaddr_equal_netmaskPK16sockaddr_storageS1_t
nmap:_Z22string_pool_insert_lenPKci
nmap:_Z22string_pool_strip_wordPKcS0_
nmap:_Z23initialize_timeout_infoP12timeout_info
nmap:_Z23ipv4_pseudoheader_cksumPK7in_addrS1_htPKv
nmap:_Z23ipv6_pseudoheader_cksumPK8in6_addrS1_hjPKv
nmap:_Z23l_parse_ssl_certificateP9lua_State
nmap:_Z23nse_nsock_init_ssl_certP9lua_State
nmap:_Z23pcap_recv_timeval_validv
nmap:_Z23print_xml_finished_openlPK7timeval
nmap:_Z23setTargetMACIfAvailableP6TargetP11link_headerPK16sockaddr_storagei
nmap:_Z24addprotocolsfromservmaskPcPh
nmap:_Z24get_max_open_descriptorsv
nmap:_Z24get_state_reason_summaryPK8PortListi
nmap:_Z24parse_single_fingerprintPK13FingerPrintDBPKc
nmap:_Z24pcap_selectable_fd_validv
nmap:_Z24send_ip_packet_eth_or_sdiPK7eth_nfoPK11sockaddr_inPKhj
nmap:_Z24set_max_open_descriptorsi
nmap:_Z24string_pool_substr_stripPKcS0_
nmap:_Z25my_pcap_get_selectable_fdP4pcap
nmap:_Z26send_ipv6_packet_eth_or_sdiPK7eth_nfoPK12sockaddr_in6PKhj
nmap:_Z26service_node_ratio_compareRK12service_nodeS1_
nmap:_Z26state_reason_summary_dinitP19port_reason_summary
nmap:_Z26target_needs_new_hostgroupPP6TargetiPKS_
nmap:_Z26traceroute_hop_cache_clearv
nmap:_Z27get_script_scan_results_objv
nmap:_Z27output_xml_scaninfo_recordsPK10scan_lists
nmap:_Z27ultrascan_host_probe_updateP13UltraScanInfoP13HostScanStatsSt14_List_iteratorIP10UltraProbeEiP7timevalb
nmap:_Z27ultrascan_port_probe_updateP13UltraScanInfoP13HostScanStatsSt14_List_iteratorIP10UltraProbeEiP7timevalb
nmap:_Z29parse_nmap_service_probe_fileP9AllProbesPKc
nmap:_Z29pcap_selectable_fd_one_to_onev
nmap:_Z31gather_logfile_resumption_statePcPiPPS_
nmap:_Z32parse_fingerprint_reference_filePKc
nmap:_Z34probe_transmission_handler_wrapperP5npoolP6neventPv
nmap:_Z34response_reception_handler_wrapperP5npoolP6neventPv
nmap:_Z40output_ports_to_machine_parseable_outputPK10scan_lists
nmap:_Z4SendiPKvmi
nmap:_Z4doNDPKcPKhPK16sockaddr_storageS5_PhPFviS2_jP7timevalE
nmap:_Z5chompPc
nmap:_Z5doArpPKcPKhPK16sockaddr_storageS5_PhPFviS2_jP7timevalE
nmap:_Z5lp_gcP9lua_State
nmap:_Z5matchP9lua_StatePKcS2_S2_P11InstructionP7Capturei
nmap:_Z5sizeiPK11Instruction
nmap:_Z6SendtoPKciPKhijP8sockaddri
nmap:_Z6genfryPhii
nmap:_Z6getptsPKcP10scan_lists
nmap:_Z6max_sdv
nmap:_Z7compileP9lua_StateP7Pattern
nmap:_Z7cp_freev
nmap:_Z7resolvePKctP16sockaddr_storagePmi
nmap:_Z7set_ttlii
nmap:_Z8checkauxP5TTreei
nmap:_Z8fp2asciiPK11FingerPrint
nmap:_Z8in_cksumPti
nmap:_Z8log_openibPKc
nmap:_Z8mergeFPsPP11FingerPrintibPK16sockaddr_storagei16dist_calc_methodPKhiiib
nmap:_Z8mmapfilePcPli
nmap:_Z8nexthostP14HostGroupStateP7addrsetPK10scan_listsi
nmap:_Z8nse_baseP9lua_State
nmap:_Z8open_nsev
nmap:_Z8recvtimeiPciiPi
nmap:_Z8shortfryPti
nmap:_Z8tty_initv
nmap:_Z8wildtestPKcS0_
nmap:_Z9arg_parsePKcPPPc
nmap:_Z9close_nsev
nmap:_Z9cp_strdupPKc
nmap:_Z9fixedlenxP5TTreeii
nmap:_Z9get_diffsPjiPKji
nmap:_Z9gettopptsdPKcP10scan_listsS0_
nmap:_Z9idle_scanP6TargetPtiPcPK10scan_lists
nmap:_Z9log_closei
nmap:_Z9log_flushi
nmap:_Z9log_writeiPKcz
nmap:_Z9nmap_mainiPPc
nmap:_Z9nse_yieldP9lua_StatelPFiS0_ilE
nmap:_Z9removeptsPKcP10scan_lists
nmap:_Z9route_dstPK16sockaddr_storageP9route_nfoPKcS1_
nmap:_Z9tocharsetP5TTreeP7Charset
nmap:_Z9xml_depthv
nmap:_ZN10FPResponseC1EPKcPKhm7timevalS4_
nmap:_ZN10FPResponseC2EPKcPKhm7timevalS4_
nmap:_ZN10FPResponseD1Ev
nmap:_ZN10FPResponseD2Ev
nmap:_ZN10FingerTest5eraseEv
nmap:_ZN10FingerTest7setAValEPKcS1_
nmap:_ZN10FingerTest8str2AValEPKcS1_
nmap:_ZN10HostOsScan10makeTOpsFPEP15HostOsScanStats
nmap:_ZN10HostOsScan10makeTSeqFPEP15HostOsScanStats
nmap:_ZN10HostOsScan10makeTWinFPEP15HostOsScanStats
nmap:_ZN10HostOsScan11processRespEP15HostOsScanStatsPK2ipjP7timeval
nmap:_ZN10HostOsScan12adjust_timesEP15HostOsScanStatsPK7OFProbePK7timeval
nmap:_ZN10HostOsScan13sendNextProbeEP15HostOsScanStats
nmap:_ZN10HostOsScan13sendT1_7ProbeEP15HostOsScanStatsi
nmap:_ZN10HostOsScan13sendTEcnProbeEP15HostOsScanStats
nmap:_ZN10HostOsScan13sendTOpsProbeEP15HostOsScanStatsi
nmap:_ZN10HostOsScan13sendTSeqProbeEP15HostOsScanStatsi
nmap:_ZN10HostOsScan13sendTUdpProbeEP15HostOsScanStatsi
nmap:_ZN10HostOsScan14sendTIcmpProbeEP15HostOsScanStatsi
nmap:_ZN10HostOsScan14send_tcp_probeEP15HostOsScanStatsibPhittjjhhttS2_iPct
nmap:_ZN10HostOsScan15processT1_7RespEP15HostOsScanStatsPK2ipi
nmap:_ZN10HostOsScan15processTEcnRespEP15HostOsScanStatsPK2ip
nmap:_ZN10HostOsScan15processTOpsRespEP15HostOsScanStatsPK7tcp_hdri
nmap:_ZN10HostOsScan15processTSeqRespEP15HostOsScanStatsPK2ipi
nmap:_ZN10HostOsScan15processTUdpRespEP15HostOsScanStatsPK2ip
nmap:_ZN10HostOsScan15processTWinRespEP15HostOsScanStatsPK7tcp_hdri
nmap:_ZN10HostOsScan16processTIcmpRespEP15HostOsScanStatsPK2ipi
nmap:_ZN10HostOsScan16reInitScanSystemEv
nmap:_ZN10HostOsScan17buildSeqProbeListEP15HostOsScanStats
nmap:_ZN10HostOsScan17buildTUIProbeListEP15HostOsScanStats
nmap:_ZN10HostOsScan20send_closedudp_probeEP15HostOsScanStatsitt
nmap:_ZN10HostOsScan20send_icmp_echo_probeEP15HostOsScanStatshbhttt
nmap:_ZN10HostOsScan21updateActiveSeqProbesEP15HostOsScanStats
nmap:_ZN10HostOsScan21updateActiveTUIProbesEP15HostOsScanStats
nmap:_ZN10HostOsScan6makeFPEP15HostOsScanStats
nmap:_ZN10HostOsScanC1EP6Target
nmap:_ZN10HostOsScanC2EP6Target
nmap:_ZN10HostOsScanD1Ev
nmap:_ZN10HostOsScanD2Ev
nmap:_ZN10IPv4Header10setVersionEv
nmap:_ZN10IPv4Header12setNextProtoEPKc
nmap:_ZN10IPv4Header12setNextProtoEh
nmap:_ZN10IPv4Header12setSumRandomEv
nmap:_ZN10IPv4Header13setFragOffsetEt
nmap:_ZN10IPv4Header13setFragOffsetEv
nmap:_ZN10IPv4Header13setNextHeaderEh
nmap:_ZN10IPv4Header13storeRecvDataEPKhm
nmap:_ZN10IPv4Header14setTotalLengthEt
nmap:_ZN10IPv4Header14setTotalLengthEv
nmap:_ZN10IPv4Header15setHeaderLengthEh
nmap:_ZN10IPv4Header15setHeaderLengthEv
nmap:_ZN10IPv4Header16getBufferPointerEv
nmap:_ZN10IPv4Header16setSourceAddressE7in_addr
nmap:_ZN10IPv4Header16setSourceAddressEj
nmap:_ZN10IPv4Header17setIdentificationEt
nmap:_ZN10IPv4Header17setIdentificationEv
nmap:_ZN10IPv4Header21setDestinationAddressE7in_addr
nmap:_ZN10IPv4Header21setDestinationAddressEj
nmap:_ZN10IPv4Header5resetEv
nmap:_ZN10IPv4Header5setDFEv
nmap:_ZN10IPv4Header5setMFEv
nmap:_ZN10IPv4Header5setRFEv
nmap:_ZN10IPv4Header6setSumEt
nmap:_ZN10IPv4Header6setSumEv
nmap:_ZN10IPv4Header6setTOSEh
nmap:_ZN10IPv4Header6setTTLEh
nmap:_ZN10IPv4Header6setTTLEv
nmap:_ZN10IPv4Header7setOptsEPKc
nmap:_ZN10IPv4Header7setOptsEPhj
nmap:_ZN10IPv4Header7unsetDFEv
nmap:_ZN10IPv4Header7unsetMFEv
nmap:_ZN10IPv4Header7unsetRFEv
nmap:_ZN10IPv4Header8validateEv
nmap:_ZN10IPv4HeaderC1Ev
nmap:_ZN10IPv4HeaderC2Ev
nmap:_ZN10IPv4HeaderD0Ev
nmap:_ZN10IPv4HeaderD1Ev
nmap:_ZN10IPv4HeaderD2Ev
nmap:_ZN10IPv6Header10setVersionEh
nmap:_ZN10IPv6Header10setVersionEv
nmap:_ZN10IPv6Header11setHopLimitEh
nmap:_ZN10IPv6Header12setFlowLabelEj
nmap:_ZN10IPv6Header13setNextHeaderEPKc
nmap:_ZN10IPv6Header13setNextHeaderEh
nmap:_ZN10IPv6Header13storeRecvDataEPKhm
nmap:_ZN10IPv6Header15setTrafficClassEh
nmap:_ZN10IPv6Header16getBufferPointerEv
nmap:_ZN10IPv6Header16setPayloadLengthEt
nmap:_ZN10IPv6Header16setPayloadLengthEv
nmap:_ZN10IPv6Header16setSourceAddressE8in6_addr
nmap:_ZN10IPv6Header16setSourceAddressEPh
nmap:_ZN10IPv6Header21setDestinationAddressE8in6_addr
nmap:_ZN10IPv6Header21setDestinationAddressEPh
nmap:_ZN10IPv6Header5resetEv
nmap:_ZN10IPv6Header8validateEv
nmap:_ZN10IPv6HeaderC1Ev
nmap:_ZN10IPv6HeaderC2Ev
nmap:_ZN10IPv6HeaderD0Ev
nmap:_ZN10IPv6HeaderD1Ev
nmap:_ZN10IPv6HeaderD2Ev
nmap:_ZN10NewTargets10get_numberEv
nmap:_ZN10NewTargets10get_queuedEv
nmap:_ZN10NewTargets11new_targetsE
nmap:_ZN10NewTargets16free_new_targetsEv
nmap:_ZN10NewTargets4pushEPKc
nmap:_ZN10NewTargets4readB5cxx11Ev
nmap:_ZN10NewTargets6insertEPKc
nmap:_ZN10OsScanInfo18findIncompleteHostEPK16sockaddr_storage
nmap:_ZN10OsScanInfo18nextIncompleteHostEv
nmap:_ZN10OsScanInfo20removeCompletedHostsEv
nmap:_ZN10OsScanInfoC1ERSt6vectorIP6TargetSaIS2_EE
nmap:_ZN10OsScanInfoC2ERSt6vectorIP6TargetSaIS2_EE
nmap:_ZN10OsScanInfoD1Ev
nmap:_ZN10OsScanInfoD2Ev
nmap:_ZN10ServiceNFO11resetProbesEb
nmap:_ZN10ServiceNFO12currentProbeEv
nmap:_ZN10ServiceNFO14addServiceCharEci
nmap:_ZN10ServiceNFO16addServiceStringEPKci
nmap:_ZN10ServiceNFO16probe_timemsleftEPK12ServiceProbePK7timeval
nmap:_ZN10ServiceNFO16probe_timemsusedEPK12ServiceProbePK7timeval
nmap:_ZN10ServiceNFO21getServiceFingerprintEPi
nmap:_ZN10ServiceNFO23addToServiceFingerprintEPKcPKhi
nmap:_ZN10ServiceNFO23getcurrentproberesponseEPi
nmap:_ZN10ServiceNFO28appendtocurrentproberesponseEPKhi
nmap:_ZN10ServiceNFO9nextProbeEb
nmap:_ZN10ServiceNFOC1EP9AllProbes
nmap:_ZN10ServiceNFOC2EP9AllProbes
nmap:_ZN10ServiceNFOD1Ev
nmap:_ZN10ServiceNFOD2Ev
nmap:_ZN10UltraProbe10setConnectEt
nmap:_ZN10UltraProbe5setIPEPKhjPK9probespec
nmap:_ZN10UltraProbe5setNDEPKhj
nmap:_ZN10UltraProbe6setARPEPKhj
nmap:_ZN10UltraProbeC1Ev
nmap:_ZN10UltraProbeC2Ev
nmap:_ZN10UltraProbeD1Ev
nmap:_ZN10UltraProbeD2Ev
nmap:_ZN10l2r_lr_fun15get_nr_variableEv
nmap:_ZN10l2r_lr_fun2HvEPdS0_
nmap:_ZN10l2r_lr_fun2XvEPdS0_
nmap:_ZN10l2r_lr_fun3XTvEPdS0_
nmap:_ZN10l2r_lr_fun3funEPd
nmap:_ZN10l2r_lr_fun4gradEPdS0_
nmap:_ZN10l2r_lr_funC1EPK7problemdd
nmap:_ZN10l2r_lr_funC2EPK7problemdd
nmap:_ZN10l2r_lr_funD0Ev
nmap:_ZN10l2r_lr_funD1Ev
nmap:_ZN10l2r_lr_funD2Ev
nmap:_ZN11FingerPrint5eraseEv
nmap:_ZN11PacketTrace12traceConnectEhPK8sockaddriiiPK7timeval
nmap:_ZN11PacketTrace5traceEiPKhjP7timeval
nmap:_ZN11PacketTrace7traceNDEiPKhjP7timeval
nmap:_ZN11PacketTrace8traceArpEiPKhjP7timeval
nmap:_ZN11TargetGroup10parse_exprEPKci
nmap:_ZN11TargetGroup13get_next_hostEP16sockaddr_storagePm
nmap:_ZN11TargetGroupD1Ev
nmap:_ZN11TargetGroupD2Ev
nmap:_ZN11port_reason11set_ip_addrEPK16sockaddr_storage
nmap:_ZN12ConnectProbeC1Ev
nmap:_ZN12ConnectProbeC2Ev
nmap:_ZN12ConnectProbeD1Ev
nmap:_ZN12ConnectProbeD2Ev
nmap:_ZN12HssPredicate2ssE
nmap:_ZN12ICMPv4Header11setIDNumberEt
nmap:_ZN12ICMPv4Header11setLifetimeEt
nmap:_ZN12ICMPv4Header11setReservedEj
nmap:_ZN12ICMPv4Header11setSequenceEt
nmap:_ZN12ICMPv4Header12validateCodeEhh
nmap:_ZN12ICMPv4Header12validateTypeEh
nmap:_ZN12ICMPv4Header12validateTypeEv
nmap:_ZN12ICMPv4Header13setIdentifierEt
nmap:_ZN12ICMPv4Header13storeRecvDataEPKhm
nmap:_ZN12ICMPv4Header14setAddressMaskE7in_addr
nmap:_ZN12ICMPv4Header15setNumAddressesEh
nmap:_ZN12ICMPv4Header16getBufferPointerEv
nmap:_ZN12ICMPv4Header16setAddrEntrySizeEh
nmap:_ZN12ICMPv4Header16setOutputLinkMTUEj
nmap:_ZN12ICMPv4Header17addRouterAdvEntryE7in_addrj
nmap:_ZN12ICMPv4Header17setGatewayAddressE7in_addr
nmap:_ZN12ICMPv4Header17setReturnHopCountEt
nmap:_ZN12ICMPv4Header18setOutputLinkSpeedEj
nmap:_ZN12ICMPv4Header18setSecurityPointerEt
nmap:_ZN12ICMPv4Header19setOutboundHopCountEt
nmap:_ZN12ICMPv4Header19setParameterPointerEh
nmap:_ZN12ICMPv4Header19setReceiveTimestampEj
nmap:_ZN12ICMPv4Header20setTransmitTimestampEj
nmap:_ZN12ICMPv4Header21setOriginateTimestampEj
nmap:_ZN12ICMPv4Header5resetEv
nmap:_ZN12ICMPv4Header6setSumEt
nmap:_ZN12ICMPv4Header6setSumEv
nmap:_ZN12ICMPv4Header7setCodeEh
nmap:_ZN12ICMPv4Header7setTypeEh
nmap:_ZN12ICMPv4Header8validateEv
nmap:_ZN12ICMPv4Header9setUnusedEj
nmap:_ZN12ICMPv4HeaderC1Ev
nmap:_ZN12ICMPv4HeaderC2Ev
nmap:_ZN12ICMPv4HeaderD0Ev
nmap:_ZN12ICMPv4HeaderD1Ev
nmap:_ZN12ICMPv4HeaderD2Ev
nmap:_ZN12ICMPv6Header10setPointerEj
nmap:_ZN12ICMPv6Header11setMaxDelayEt
nmap:_ZN12ICMPv6Header11setReservedEj
nmap:_ZN12ICMPv6Header11setSequenceEj
nmap:_ZN12ICMPv6Header11setSequenceEt
nmap:_ZN12ICMPv6Header12validateCodeEhh
nmap:_ZN12ICMPv6Header12validateTypeEh
nmap:_ZN12ICMPv6Header12validateTypeEv
nmap:_ZN12ICMPv6Header13setIdentifierEt
nmap:_ZN12ICMPv6Header13storeRecvDataEPKhm
nmap:_ZN12ICMPv6Header16getBufferPointerEv
nmap:_ZN12ICMPv6Header16setNodeInfoFlagsEt
nmap:_ZN12ICMPv6Header16setReachableTimeEj
nmap:_ZN12ICMPv6Header16setSegmentNumberEh
nmap:_ZN12ICMPv6Header16setTargetAddressE8in6_addr
nmap:_ZN12ICMPv6Header17setRouterLifetimeEt
nmap:_ZN12ICMPv6Header18setCurrentHopLimitEh
nmap:_ZN12ICMPv6Header19setMulticastAddressE8in6_addr
nmap:_ZN12ICMPv6Header21setDestinationAddressE8in6_addr
nmap:_ZN12ICMPv6Header22setRetransmissionTimerEj
nmap:_ZN12ICMPv6Header4setAEb
nmap:_ZN12ICMPv6Header4setCEb
nmap:_ZN12ICMPv6Header4setGEb
nmap:_ZN12ICMPv6Header4setLEb
nmap:_ZN12ICMPv6Header4setSEb
nmap:_ZN12ICMPv6Header4setTEb
nmap:_ZN12ICMPv6Header5resetEv
nmap:_ZN12ICMPv6Header6setMTUEj
nmap:_ZN12ICMPv6Header6setSumEt
nmap:_ZN12ICMPv6Header6setSumEv
nmap:_ZN12ICMPv6Header7setCodeEh
nmap:_ZN12ICMPv6Header7setTypeEh
nmap:_ZN12ICMPv6Header8setFlagsEh
nmap:_ZN12ICMPv6Header8setNonceEPKh
nmap:_ZN12ICMPv6Header8setNonceEm
nmap:_ZN12ICMPv6Header8setQtypeEt
nmap:_ZN12ICMPv6Header8validateEv
nmap:_ZN12ICMPv6Header9setUnusedEj
nmap:_ZN12ICMPv6HeaderC1Ev
nmap:_ZN12ICMPv6HeaderC2Ev
nmap:_ZN12ICMPv6HeaderD0Ev
nmap:_ZN12ICMPv6HeaderD1Ev
nmap:_ZN12ICMPv6HeaderD2Ev
nmap:_ZN12PacketParser11is_responseEP13PacketElementS1_
nmap:_ZN12PacketParser12parse_packetEPKhmb
nmap:_ZN12PacketParser14payload_offsetEPKhmb
nmap:_ZN12PacketParser15freePacketChainEP13PacketElement
nmap:_ZN12PacketParser18dummy_print_packetEPKhmb
nmap:_ZN12PacketParser18header_type2stringEi
nmap:_ZN12PacketParser18test_packet_parserEP13PacketElement
nmap:_ZN12PacketParser20find_transport_layerEP13PacketElement
nmap:_ZN12PacketParser23dummy_print_packet_typeEPKhmb
nmap:_ZN12PacketParser5resetEv
nmap:_ZN12PacketParser5splitEPKhm
nmap:_ZN12PacketParser5splitEPKhmb
nmap:_ZN12PacketParserC1Ev
nmap:_ZN12PacketParserC2Ev
nmap:_ZN12PacketParserD1Ev
nmap:_ZN12PacketParserD2Ev
nmap:_ZN12ScriptResult14set_output_tabEP9lua_Statei
nmap:_ZN12ScriptResult5clearEv
nmap:_ZN12ServiceGroupC1ERSt6vectorIP6TargetSaIS2_EEP9AllProbes
nmap:_ZN12ServiceGroupC2ERSt6vectorIP6TargetSaIS2_EEP9AllProbes
nmap:_ZN12ServiceGroupD1Ev
nmap:_ZN12ServiceGroupD2Ev
nmap:_ZN12ServiceProbe13setPortVectorEPSt6vectorItSaItEEPKci
nmap:_ZN12ServiceProbe14setProbeStringEPKhi
nmap:_ZN12ServiceProbe15setProbeDetailsEPci
nmap:_ZN12ServiceProbe16setProbablePortsE19service_tunnel_typePKci
nmap:_ZN12ServiceProbe8addMatchEPKci
nmap:_ZN12ServiceProbe9setRarityEPKci
nmap:_ZN12ServiceProbe9testMatchEPKhii
nmap:_ZN12ServiceProbeC1Ev
nmap:_ZN12ServiceProbeC2Ev
nmap:_ZN12ServiceProbeD1Ev
nmap:_ZN12ServiceProbeD2Ev
nmap:_ZN13FingerPrintDBC1Ev
nmap:_ZN13FingerPrintDBC2Ev
nmap:_ZN13FingerPrintDBD1Ev
nmap:_ZN13FingerPrintDBD2Ev
nmap:_ZN13FingerTestDefC1ERK8ShortStrILh5EEPPKc
nmap:_ZN13FingerTestDefC2ERK8ShortStrILh5EEPPKc
nmap:_ZN13HostScanStats12dismissBenchEv
nmap:_ZN13HostScanStats14boostScanDelayEv
nmap:_ZN13HostScanStats15retransmitBenchEv
nmap:_ZN13HostScanStats16moveProbeToBenchESt14_List_iteratorIP10UltraProbeE
nmap:_ZN13HostScanStats17markProbeTimedoutESt14_List_iteratorIP10UltraProbeE
nmap:_ZN13HostScanStats23destroyOutstandingProbeESt14_List_iteratorIP10UltraProbeE
nmap:_ZN13HostScanStats27destroyAllOutstandingProbesEv
nmap:_ZN13HostScanStats9probeSentEj
nmap:_ZN13HostScanStatsC1EP6TargetP13UltraScanInfo
nmap:_ZN13HostScanStatsC2EP6TargetP13UltraScanInfo
nmap:_ZN13HostScanStatsD1Ev
nmap:_ZN13HostScanStatsD2Ev
nmap:_ZN13PacketElementC1Ev
nmap:_ZN13PacketElementC2Ev
nmap:_ZN13RoutingHeader10addAddressE8in6_addr
nmap:_ZN13RoutingHeader13getNextHeaderEv
nmap:_ZN13RoutingHeader13setNextHeaderEh
nmap:_ZN13RoutingHeader13storeRecvDataEPKhm
nmap:_ZN13RoutingHeader14getRoutingTypeEv
nmap:_ZN13RoutingHeader14setRoutingTypeEh
nmap:_ZN13RoutingHeader15getSegmentsLeftEv
nmap:_ZN13RoutingHeader15setSegmentsLeftEh
nmap:_ZN13RoutingHeader16getBufferPointerEv
nmap:_ZN13RoutingHeader5resetEv
nmap:_ZN13RoutingHeader8validateEv
nmap:_ZN13RoutingHeaderC1Ev
nmap:_ZN13RoutingHeaderC2Ev
nmap:_ZN13RoutingHeaderD0Ev
nmap:_ZN13RoutingHeaderD1Ev
nmap:_ZN13RoutingHeaderD2Ev
nmap:_ZN13UltraScanInfo17log_current_ratesEib
nmap:_ZN13UltraScanInfo18nextIncompleteHostEv
nmap:_ZN13UltraScanInfo20removeCompletedHostsEv
nmap:_ZN13UltraScanInfo4InitERSt6vectorIP6TargetSaIS2_EEPK10scan_lists5stype
nmap:_ZN13UltraScanInfoC1Ev
nmap:_ZN13UltraScanInfoC2Ev
nmap:_ZN13UltraScanInfoD1Ev
nmap:_ZN13UltraScanInfoD2Ev
nmap:_ZN13reason_stringC1EPKcS1_
nmap:_ZN13reason_stringC1Ev
nmap:_ZN13reason_stringC2EPKcS1_
nmap:_ZN13reason_stringC2Ev
nmap:_ZN14DestOptsHeaderC1Ev
nmap:_ZN14DestOptsHeaderC2Ev
nmap:_ZN14DestOptsHeaderD0Ev
nmap:_ZN14DestOptsHeaderD1Ev
nmap:_ZN14DestOptsHeaderD2Ev
nmap:_ZN14EthernetHeader12setEtherTypeEt
nmap:_ZN14EthernetHeader13storeRecvDataEPKhm
nmap:_ZN14EthernetHeader16getBufferPointerEv
nmap:_ZN14EthernetHeader5resetEv
nmap:_ZN14EthernetHeader8validateEv
nmap:_ZN14EthernetHeader9setDstMACEPh
nmap:_ZN14EthernetHeader9setSrcMACEPKh
nmap:_ZN14EthernetHeaderC1Ev
nmap:_ZN14EthernetHeaderC2Ev
nmap:_ZN14EthernetHeaderD0Ev
nmap:_ZN14EthernetHeaderD1Ev
nmap:_ZN14EthernetHeaderD2Ev
nmap:_ZN14FingerPrintDef10test_attrsE
nmap:_ZN14FingerPrintDef12parseTestStrEPKcS1_
nmap:_ZN14FingerPrintDefC1Ev
nmap:_ZN14FingerPrintDefC2Ev
nmap:_ZN14FragmentHeader13getNextHeaderEv
nmap:_ZN14FragmentHeader13setNextHeaderEh
nmap:_ZN14FragmentHeader13storeRecvDataEPKhm
nmap:_ZN14FragmentHeader16getBufferPointerEv
nmap:_ZN14FragmentHeader17getIdentificationEv
nmap:_ZN14FragmentHeader17setIdentificationEj
nmap:_ZN14FragmentHeader4getMEv
nmap:_ZN14FragmentHeader4setMEb
nmap:_ZN14FragmentHeader5resetEv
nmap:_ZN14FragmentHeader8validateEv
nmap:_ZN14FragmentHeader9getOffsetEv
nmap:_ZN14FragmentHeader9setOffsetEt
nmap:_ZN14FragmentHeaderC1Ev
nmap:_ZN14FragmentHeaderC2Ev
nmap:_ZN14FragmentHeaderD0Ev
nmap:_ZN14FragmentHeaderD1Ev
nmap:_ZN14FragmentHeaderD2Ev
nmap:_ZN14GroupScanStats9probeSentEj
nmap:_ZN14GroupScanStatsC1EP13UltraScanInfo
nmap:_ZN14GroupScanStatsC2EP13UltraScanInfo
nmap:_ZN14GroupScanStatsD1Ev
nmap:_ZN14GroupScanStatsD2Ev
nmap:_ZN14HopByHopHeader10addPaddingEv
nmap:_ZN14HopByHopHeader13getNextHeaderEv
nmap:_ZN14HopByHopHeader13setNextHeaderEh
nmap:_ZN14HopByHopHeader13storeRecvDataEPKhm
nmap:_ZN14HopByHopHeader16getBufferPointerEv
nmap:_ZN14HopByHopHeader5resetEv
nmap:_ZN14HopByHopHeader8validateEv
nmap:_ZN14HopByHopHeader9addOptionEhhPKh
nmap:_ZN14HopByHopHeaderC1Ev
nmap:_ZN14HopByHopHeaderC2Ev
nmap:_ZN14HopByHopHeaderD0Ev
nmap:_ZN14HopByHopHeaderD1Ev
nmap:_ZN14HopByHopHeaderD2Ev
nmap:_ZN14HostGroupState15next_expressionEv
nmap:_ZN14HostGroupState5deferEP6Target
nmap:_ZN14HostGroupState7undeferEv
nmap:_ZN14HostGroupStateC1EiiiPPKc
nmap:_ZN14HostGroupStateC2EiiiPPKc
nmap:_ZN14HostGroupStateD1Ev
nmap:_ZN14HostGroupStateD2Ev
nmap:_ZN14HostOsScanInfoC1EP6TargetP10OsScanInfo
nmap:_ZN14HostOsScanInfoC2EP6TargetP10OsScanInfo
nmap:_ZN14HostOsScanInfoD1Ev
nmap:_ZN14HostOsScanInfoD2Ev
nmap:_ZN14l2r_l2_svc_fun15get_nr_variableEv
nmap:_ZN14l2r_l2_svc_fun2HvEPdS0_
nmap:_ZN14l2r_l2_svc_fun2XvEPdS0_
nmap:_ZN14l2r_l2_svc_fun3funEPd
nmap:_ZN14l2r_l2_svc_fun4gradEPdS0_
nmap:_ZN14l2r_l2_svc_fun5subXvEPdS0_
nmap:_ZN14l2r_l2_svc_fun6subXTvEPdS0_
nmap:_ZN14l2r_l2_svc_funC1EPK7problemdd
nmap:_ZN14l2r_l2_svc_funC2EPK7problemdd
nmap:_ZN14l2r_l2_svc_funD0Ev
nmap:_ZN14l2r_l2_svc_funD1Ev
nmap:_ZN14l2r_l2_svc_funD2Ev
nmap:_ZN15ConnectScanInfo6sendOKEv
nmap:_ZN15ConnectScanInfo7clearSDEi
nmap:_ZN15ConnectScanInfo7watchSDEi
nmap:_ZN15ConnectScanInfo9getSocketEv
nmap:_ZN15ConnectScanInfoC1Ev
nmap:_ZN15ConnectScanInfoC2Ev
nmap:_ZN15ConnectScanInfoD1Ev
nmap:_ZN15ConnectScanInfoD2Ev
nmap:_ZN15FingerPrintScan10attr_namesE
nmap:_ZN15FingerPrintScan5parseEPKcS1_
nmap:_ZN15HostOsScanStats11addNewProbeE11OFProbeTypei
nmap:_ZN15HostOsScanStats13initScanStatsEv
nmap:_ZN15HostOsScanStats14getActiveProbeE11OFProbeTypei
nmap:_ZN15HostOsScanStats17removeActiveProbeESt14_List_iteratorIP7OFProbeE
nmap:_ZN15HostOsScanStats21moveProbeToActiveListESt14_List_iteratorIP7OFProbeE
nmap:_ZN15HostOsScanStats21moveProbeToUnSendListESt14_List_iteratorIP7OFProbeE
nmap:_ZN15HostOsScanStatsC1EP6Target
nmap:_ZN15HostOsScanStatsC2EP6Target
nmap:_ZN15HostOsScanStatsD1Ev
nmap:_ZN15HostOsScanStatsD2Ev
nmap:_ZN15NmapOutputTable14printableTableEPi
nmap:_ZN15NmapOutputTable16addItemFormattedEjjbPKcz
nmap:_ZN15NmapOutputTable7addItemEjjbPKci
nmap:_ZN15NmapOutputTable7addItemEjjbbPKci
nmap:_ZN15NmapOutputTable8emptyRowEj
nmap:_ZN15NmapOutputTableC1Eii
nmap:_ZN15NmapOutputTableC2Eii
nmap:_ZN15NmapOutputTableD1Ev
nmap:_ZN15NmapOutputTableD2Ev
nmap:_ZN15PacketRateMeter18getCurrentByteRateEPK7timevalb
nmap:_ZN15PacketRateMeter20getCurrentPacketRateEPK7timevalb
nmap:_ZN15PacketRateMeter4stopEPK7timeval
nmap:_ZN15PacketRateMeter5startEPK7timeval
nmap:_ZN15PacketRateMeter6updateEjPK7timeval
nmap:_ZN15PacketRateMeterC1Ed
nmap:_ZN15PacketRateMeterC2Ed
nmap:_ZN15Solver_MCSVM_CS17solve_sub_problemEdidiPd
nmap:_ZN15Solver_MCSVM_CS5SolveEPd
nmap:_ZN15Solver_MCSVM_CS9be_shrunkEiiidd
nmap:_ZN15Solver_MCSVM_CSC1EPK7problemiPddi
nmap:_ZN15Solver_MCSVM_CSC2EPK7problemiPddi
nmap:_ZN15Solver_MCSVM_CSD1Ev
nmap:_ZN15Solver_MCSVM_CSD2Ev
nmap:_ZN15TracerouteState12lookup_probeEPK16sockaddr_storaget
nmap:_ZN15TracerouteState12read_repliesEl
nmap:_ZN15TracerouteState12resolve_hopsEv
nmap:_ZN15TracerouteState12set_host_hopEP9HostStatehPK16sockaddr_storagef
nmap:_ZN15TracerouteState13cull_timeoutsEv
nmap:_ZN15TracerouteState13transfer_hopsEv
nmap:_ZN15TracerouteState15send_new_probesEv
nmap:_ZN15TracerouteState16next_active_hostEv
nmap:_ZN15TracerouteState21remove_finished_hostsEv
nmap:_ZN15TracerouteState21set_host_hop_timedoutEP9HostStateh
nmap:_ZN15TracerouteStateC1ERSt6vectorIP6TargetSaIS2_EE
nmap:_ZN15TracerouteStateC2ERSt6vectorIP6TargetSaIS2_EE
nmap:_ZN15TracerouteStateD1Ev
nmap:_ZN15TracerouteStateD2Ev
nmap:_ZN15reason_map_typeC1Ev
nmap:_ZN15reason_map_typeC2Ev
nmap:_ZN16FPNetworkControl13handle_eventsEv
nmap:_ZN16FPNetworkControl13request_slotsEm
nmap:_ZN16FPNetworkControl13scheduleProbeEP7FPProbei
nmap:_ZN16FPNetworkControl13setup_snifferEPKcS1_
nmap:_ZN16FPNetworkControl14cc_report_dropEv
nmap:_ZN16FPNetworkControl14cc_update_sentEi
nmap:_ZN16FPNetworkControl15register_callerEP6FPHost
nmap:_ZN16FPNetworkControl17unregister_callerEP6FPHost
nmap:_ZN16FPNetworkControl18cc_update_receivedEv
nmap:_ZN16FPNetworkControl23cc_report_final_timeoutEv
nmap:_ZN16FPNetworkControl26probe_transmission_handlerEP5npoolP6neventPv
nmap:_ZN16FPNetworkControl26response_reception_handlerEP5npoolP6neventPv
nmap:_ZN16FPNetworkControl4initEPKc7devtype
nmap:_ZN16FPNetworkControl7cc_initEv
nmap:_ZN16FPNetworkControlC1Ev
nmap:_ZN16FPNetworkControlC2Ev
nmap:_ZN16FPNetworkControlD1Ev
nmap:_ZN16FPNetworkControlD2Ev
nmap:_ZN16NetBlockHostname13apply_netmaskEi
nmap:_ZN16NetBlockHostname4nextEP16sockaddr_storagePm
nmap:_ZN16NetBlockHostname7resolveEv
nmap:_ZN16NetBlockHostnameC1EPKci
nmap:_ZN16NetBlockHostnameC2EPKci
nmap:_ZN17ScanProgressMeter10printStatsEdPK7timeval
nmap:_ZN17ScanProgressMeter12mayBePrintedEPK7timeval
nmap:_ZN17ScanProgressMeter14beginOrEndTaskEPK7timevalPKcb
nmap:_ZN17ScanProgressMeter21printStatsIfNecessaryEdPK7timeval
nmap:_ZN17ScanProgressMeterC1EPKc
nmap:_ZN17ScanProgressMeterC2EPKc
nmap:_ZN17ScanProgressMeterD1Ev
nmap:_ZN17ScanProgressMeterD2Ev
nmap:_ZN17ServiceProbeMatch9InitMatchEPKci
nmap:_ZN17ServiceProbeMatch9testMatchEPKhi
nmap:_ZN17ServiceProbeMatchC1Ev
nmap:_ZN17ServiceProbeMatchC2Ev
nmap:_ZN17ServiceProbeMatchD1Ev
nmap:_ZN17ServiceProbeMatchD2Ev
nmap:_ZN17serviceDeductions5eraseEv
nmap:_ZN17serviceDeductionsC1Ev
nmap:_ZN17serviceDeductionsC2Ev
nmap:_ZN17ultra_timing_vals10drop_groupEjPK21scan_performance_varsPK7timeval
nmap:_ZN17ultra_timing_vals3ackEPK21scan_performance_varsd
nmap:_ZN17ultra_timing_vals4dropEjPK21scan_performance_varsPK7timeval
nmap:_ZN17ultra_timing_vals8cc_scaleEPK21scan_performance_vars
nmap:_ZN18FingerPrintResults16OmitSubmissionFPEv
nmap:_ZN18FingerPrintResults19getOSClassificationEv
nmap:_ZN18FingerPrintResults22populateClassificationEv
nmap:_ZN18FingerPrintResults27classAlreadyExistsInResultsEP17OS_Classification
nmap:_ZN18FingerPrintResults6cp_dupEPKci
nmap:_ZN18FingerPrintResults6cp_hexEj
nmap:_ZN18FingerPrintResultsC1Ev
nmap:_ZN18FingerPrintResultsC2Ev
nmap:_ZN18FingerPrintResultsD0Ev
nmap:_ZN18FingerPrintResultsD1Ev
nmap:_ZN18FingerPrintResultsD2Ev
nmap:_ZN18NetBlockIPv4Ranges13apply_netmaskEi
nmap:_ZN18NetBlockIPv4Ranges4nextEP16sockaddr_storagePm
nmap:_ZN18NetBlockIPv4Ranges8set_addrEPK11sockaddr_in
nmap:_ZN18NetBlockIPv4RangesC1Ev
nmap:_ZN18NetBlockIPv4RangesC2Ev
nmap:_ZN19NetBlockIPv6Netmask13apply_netmaskEi
nmap:_ZN19NetBlockIPv6Netmask4nextEP16sockaddr_storagePm
nmap:_ZN19NetBlockIPv6Netmask8set_addrEPK12sockaddr_in6
nmap:_ZN21TransportLayerElement16compute_checksumEv
nmap:_ZN21scan_performance_vars4initEv
nmap:_ZN22FingerPrintResultsIPv4C1Ev
nmap:_ZN22FingerPrintResultsIPv4C2Ev
nmap:_ZN22FingerPrintResultsIPv4D0Ev
nmap:_ZN22FingerPrintResultsIPv4D1Ev
nmap:_ZN22FingerPrintResultsIPv4D2Ev
nmap:_ZN22FingerPrintResultsIPv616OmitSubmissionFPEv
nmap:_ZN22FingerPrintResultsIPv6C1Ev
nmap:_ZN22FingerPrintResultsIPv6C2Ev
nmap:_ZN22FingerPrintResultsIPv6D0Ev
nmap:_ZN22FingerPrintResultsIPv6D1Ev
nmap:_ZN22FingerPrintResultsIPv6D2Ev
nmap:_ZN27ultra_scan_performance_vars4initEv
nmap:_ZN3DNS5Query15parseFromBufferEPKhmm
nmap:_ZN3DNS6Answer15parseFromBufferEPKhmm
nmap:_ZN3DNS6AnsweraSERKS0_
nmap:_ZN3DNS6Packet15parseFromBufferEPKhm
nmap:_ZN3DNS7Factory13progressiveIdE
nmap:_ZN3DNS7Factory13putDomainNameERKNSt7__cxx1112basic_stringIcSt11char_traitsIcESaIcEEEPhmm
nmap:_ZN3DNS7Factory15parseDomainNameERNSt7__cxx1112basic_stringIcSt11char_traitsIcESaIcEEEPKhmm
nmap:_ZN3DNS7Factory16parseUnsignedIntERjPKhmm
nmap:_ZN3DNS7Factory16putUnsignedShortEtPhmm
nmap:_ZN3DNS7Factory18buildSimpleRequestERKNSt7__cxx1112basic_stringIcSt11char_traitsIcESaIcEEENS_11RECORD_TYPEEPhm
nmap:_ZN3DNS7Factory18parseUnsignedShortERtPKhmm
nmap:_ZN3DNS7Factory19buildReverseRequestERK16sockaddr_storagePhm
nmap:_ZN3DNS7Factory7ipToPtrERK16sockaddr_storageRNSt7__cxx1112basic_stringIcSt11char_traitsIcESaIcEEE
nmap:_ZN3DNS7Factory7ptrToIpERKNSt7__cxx1112basic_stringIcSt11char_traitsIcESaIcEEER16sockaddr_storage
nmap:_ZN3DNS8A_Record15parseFromBufferEPKhmm
nmap:_ZN4Port17freeScriptResultsEv
nmap:_ZN4PortC1Ev
nmap:_ZN4PortC2Ev
nmap:_ZN4TRON16set_print_stringEPFvPKcE
nmap:_ZN4TRON4infoEPKcz
nmap:_ZN4TRON4trcgEdPdS0_S0_
nmap:_ZN4TRON4tronEPd
nmap:_ZN4TRON8norm_infEiPd
nmap:_ZN4TRONC1EPK8functiondi
nmap:_ZN4TRONC2EPK8functiondi
nmap:_ZN4TROND1Ev
nmap:_ZN4TROND2Ev
nmap:_ZN5Probe13token_counterE
nmap:_ZN5Probe4makeEP9HostState9probespech
nmap:_ZN5Probe4sendEiP10eth_handleP7timeval
nmap:_ZN5Probe6resendEiP10eth_handleP7timeval
nmap:_ZN5ProbeC1EP9HostState9probespech
nmap:_ZN5ProbeC2EP9HostState9probespech
nmap:_ZN5ProbeD0Ev
nmap:_ZN5ProbeD1Ev
nmap:_ZN5ProbeD2Ev
nmap:_ZN6FPHost10update_RTOEib
nmap:_ZN6FPHost14fail_one_probeEv
nmap:_ZN6FPHost16getTargetAddressEv
nmap:_ZN6FPHost19choose_osscan_portsEv
nmap:_ZN6FPHost7__resetEv
nmap:_ZN6FPHostC1Ev
nmap:_ZN6FPHostC2Ev
nmap:_ZN6FPHostD0Ev
nmap:_ZN6FPHostD1Ev
nmap:_ZN6FPHostD2Ev
nmap:_ZN6OSScan12os_scan_ipv4ERSt6vectorIP6TargetSaIS2_EE
nmap:_ZN6OSScan12os_scan_ipv6ERSt6vectorIP6TargetSaIS2_EE
nmap:_ZN6OSScan17chunk_and_do_scanERSt6vectorIP6TargetSaIS2_EEi
nmap:_ZN6OSScan5resetEv
nmap:_ZN6OSScan7os_scanERSt6vectorIP6TargetSaIS2_EE
nmap:_ZN6OSScanC1Ev
nmap:_ZN6OSScanC2Ev
nmap:_ZN6OSScanD1Ev
nmap:_ZN6OSScanD2Ev
nmap:_ZN6Target10setNextHopEPK16sockaddr_storagem
nmap:_ZN6Target11setHostNameEPKc
nmap:_ZN6Target12FreeInternalEv
nmap:_ZN6Target13osscanSetFlagEi
nmap:_ZN6Target13setMACAddressEPKh
nmap:_ZN6Target13setTargetNameEPKc
nmap:_ZN6Target14setDeviceNamesEPKcS1_
nmap:_ZN6Target16setSrcMACAddressEPKh
nmap:_ZN6Target16stopTimeOutClockEPK7timeval
nmap:_ZN6Target17setSourceSockAddrEPK16sockaddr_storagem
nmap:_ZN6Target17setTargetSockAddrEPK16sockaddr_storagem
nmap:_ZN6Target17startTimeOutClockEPK7timeval
nmap:_ZN6Target20setDirectlyConnectedEb
nmap:_ZN6Target20setNextHopMACAddressEPKh
nmap:_ZN6Target22GenerateSourceIPStringEv
nmap:_ZN6Target22GenerateTargetIPStringEv
nmap:_ZN6Target6setMTUEi
nmap:_ZN6TargetC1Ev
nmap:_ZN6TargetC2Ev
nmap:_ZN6TargetD1Ev
nmap:_ZN6TargetD2Ev
nmap:_ZN7FPHost611getResponseEPKc
nmap:_ZN7FPHost616build_probe_listEv
nmap:_ZN7FPHost620set_done_and_wrap_upEv
nmap:_ZN7FPHost64doneEv
nmap:_ZN7FPHost64initEP6TargetP16FPNetworkControl
nmap:_ZN7FPHost65resetEv
nmap:_ZN7FPHost66finishEv
nmap:_ZN7FPHost68callbackEPKhmPK7timeval
nmap:_ZN7FPHost68fill_FPREP22FingerPrintResultsIPv6
nmap:_ZN7FPHost68getProbeEPKc
nmap:_ZN7FPHost68scheduleEv
nmap:_ZN7FPHost6C1EP6TargetP16FPNetworkControl
nmap:_ZN7FPHost6C2EP6TargetP16FPNetworkControl
nmap:_ZN7FPHost6D0Ev
nmap:_ZN7FPHost6D1Ev
nmap:_ZN7FPHost6D2Ev
nmap:_ZN7FPProbe10isResponseEP13PacketElement
nmap:_ZN7FPProbe10setProbeIDEPKc
nmap:_ZN7FPProbe11setTimeSentEv
nmap:_ZN7FPProbe13resetTimeSentEv
nmap:_ZN7FPProbe16incrementRepliesEv
nmap:_ZN7FPProbe19changeSourceAddressEP8in6_addr
nmap:_ZN7FPProbe24incrementRetransmissionsEv
nmap:_ZN7FPProbe5resetEv
nmap:_ZN7FPProbe8setTimedEv
nmap:_ZN7FPProbe9setFailedEv
nmap:_ZN7FPProbeC1Ev
nmap:_ZN7FPProbeC2Ev
nmap:_ZN7FPProbeD1Ev
nmap:_ZN7FPProbeD2Ev
nmap:_ZN7NmapOps10InitializeEv
nmap:_ZN7NmapOps13XSLStyleSheetEv
nmap:_ZN7NmapOps13chooseScriptsEPc
nmap:_ZN7NmapOps13setMaxOSTriesEi
nmap:_ZN7NmapOps14SourceSockAddrEP16sockaddr_storagePm
nmap:_ZN7NmapOps14TimeSinceStartEPK7timeval
nmap:_ZN7NmapOps15ValidateOptionsEv
nmap:_ZN7NmapOps16setMaxRttTimeoutEi
nmap:_ZN7NmapOps16setMinRttTimeoutEi
nmap:_ZN7NmapOps16setXSLStyleSheetEPKc
nmap:_ZN7NmapOps17setMaxHostGroupSzEj
nmap:_ZN7NmapOps17setMinHostGroupSzEj
nmap:_ZN7NmapOps17setSourceSockAddrEP16sockaddr_storagem
nmap:_ZN7NmapOps18setSpoofMACAddressEPh
nmap:_ZN7NmapOps20setInitialRttTimeoutEi
nmap:_ZN7NmapOps21setMaxRetransmissionsEi
nmap:_ZN7NmapOps2pfEv
nmap:_ZN7NmapOps6ReInitEv
nmap:_ZN7NmapOps7RawScanEv
nmap:_ZN7NmapOps7TCPScanEv
nmap:_ZN7NmapOps7UDPScanEv
nmap:_ZN7NmapOps8SCTPScanEv
nmap:_ZN7NmapOpsC1Ev
nmap:_ZN7NmapOpsC2Ev
nmap:_ZN7NmapOpsD1Ev
nmap:_ZN7NmapOpsD2Ev
nmap:_ZN7OFProbeC1Ev
nmap:_ZN7OFProbeC2Ev
nmap:_ZN7RawData13storeRecvDataEPKhm
nmap:_ZN7RawData16getBufferPointerEPi
nmap:_ZN7RawData16getBufferPointerEv
nmap:_ZN7RawData5resetEv
nmap:_ZN7RawData5storeEPKc
nmap:_ZN7RawData5storeEPKhm
nmap:_ZN7RawData8validateEv
nmap:_ZN7RawDataC1Ev
nmap:_ZN7RawDataC2Ev
nmap:_ZN7RawDataD0Ev
nmap:_ZN7RawDataD1Ev
nmap:_ZN7RawDataD2Ev
nmap:_ZN8CharPool3dupEPKci
nmap:_ZN8CharPool5clearEv
nmap:_ZN8CharPoolC1Em
nmap:_ZN8CharPoolC2Em
nmap:_ZN8FPEngine10bpf_filterERSt6vectorIP6TargetSaIS2_EE
nmap:_ZN8FPEngineC1Ev
nmap:_ZN8FPEngineC2Ev
nmap:_ZN8FPEngineD0Ev
nmap:_ZN8FPEngineD1Ev
nmap:_ZN8FPEngineD2Ev
nmap:_ZN8FPPacket11setEthernetEPKhS1_PKc
nmap:_ZN8FPPacket7__resetEv
nmap:_ZN8FPPacket7setTimeEPK7timeval
nmap:_ZN8FPPacket9resetTimeEv
nmap:_ZN8FPPacket9setPacketEP13PacketElement
nmap:_ZN8FPPacketC1Ev
nmap:_ZN8FPPacketC2Ev
nmap:_ZN8FPPacketD1Ev
nmap:_ZN8FPPacketD2Ev
nmap:_ZN8NetBlock10parse_exprEPKci
nmap:_ZN8PortList10createPortEth
nmap:_ZN8PortList10forgetPortEth
nmap:_ZN8PortList11freePortMapEv
nmap:_ZN8PortList12getPortStateEth
nmap:_ZN8PortList12port_map_revE
nmap:_ZN8PortList12setPortStateEthi
nmap:_ZN8PortList13portIsDefaultEth
nmap:_ZN8PortList14setStateReasonEththPK16sockaddr_storage
nmap:_ZN8PortList15addScriptResultEtiP12ScriptResult
nmap:_ZN8PortList15port_list_countE
nmap:_ZN8PortList17initializePortMapEiPti
nmap:_ZN8PortList19setDefaultPortStateEhi
nmap:_ZN8PortList22setServiceProbeResultsEti17serviceprobestatePKc19service_tunnel_typeS2_S2_S2_S2_S2_S2_PKSt6vectorIS2_SaIS2_EES2_
nmap:_ZN8PortList8port_mapE
nmap:_ZN8PortList8setIdStrEPKc
nmap:_ZN8PortListC1Ev
nmap:_ZN8PortListC2Ev
nmap:_ZN8PortListD1Ev
nmap:_ZN8PortListD2Ev
nmap:_ZN9ARPHeader11getSenderIPEv
nmap:_ZN9ARPHeader11getTargetIPEv
nmap:_ZN9ARPHeader11setSenderIPE7in_addr
nmap:_ZN9ARPHeader11setTargetIPE7in_addr
nmap:_ZN9ARPHeader12getHwAddrLenEv
nmap:_ZN9ARPHeader12getSenderMACEv
nmap:_ZN9ARPHeader12getTargetMACEv
nmap:_ZN9ARPHeader12setHwAddrLenEh
nmap:_ZN9ARPHeader12setHwAddrLenEv
nmap:_ZN9ARPHeader12setSenderMACEPKh
nmap:_ZN9ARPHeader12setTargetMACEPh
nmap:_ZN9ARPHeader13storeRecvDataEPKhm
nmap:_ZN9ARPHeader15getHardwareTypeEv
nmap:_ZN9ARPHeader15getProtoAddrLenEv
nmap:_ZN9ARPHeader15getProtocolTypeEv
nmap:_ZN9ARPHeader15setHardwareTypeEt
nmap:_ZN9ARPHeader15setHardwareTypeEv
nmap:_ZN9ARPHeader15setProtoAddrLenEh
nmap:_ZN9ARPHeader15setProtoAddrLenEv
nmap:_ZN9ARPHeader15setProtocolTypeEt
nmap:_ZN9ARPHeader15setProtocolTypeEv
nmap:_ZN9ARPHeader16getBufferPointerEv
nmap:_ZN9ARPHeader5resetEv
nmap:_ZN9ARPHeader8validateEv
nmap:_ZN9ARPHeader9getOpCodeEv
nmap:_ZN9ARPHeader9setOpCodeEt
nmap:_ZN9ARPHeaderC1Ev
nmap:_ZN9ARPHeaderC2Ev
nmap:_ZN9ARPHeaderD0Ev
nmap:_ZN9ARPHeaderD1Ev
nmap:_ZN9ARPHeaderD2Ev
nmap:_ZN9AllProbes16compileFallbacksEv
nmap:_ZN9AllProbes17service_scan_freeEv
nmap:_ZN9AllProbes17service_scan_initEv
nmap:_ZN9AllProbes19check_excluded_portEti
nmap:_ZN9AllProbes9global_APE
nmap:_ZN9AllProbesC1Ev
nmap:_ZN9AllProbesC2Ev
nmap:_ZN9AllProbesD1Ev
nmap:_ZN9AllProbesD2Ev
nmap:_ZN9FPEngine67os_scanERSt6vectorIP6TargetSaIS2_EE
nmap:_ZN9FPEngine6C1Ev
nmap:_ZN9FPEngine6C2Ev
nmap:_ZN9FPEngine6D0Ev
nmap:_ZN9FPEngine6D1Ev
nmap:_ZN9FPEngine6D2Ev
nmap:_ZN9HostState10insert_hopEhPK16sockaddr_storagef
nmap:_ZN9HostState12cancel_probeESt14_List_iteratorIP5ProbeE
nmap:_ZN9HostState14distance_guessEPK6Target
nmap:_ZN9HostState15send_next_probeEiP10eth_handle
nmap:_ZN9HostState19cancel_probes_aboveEh
nmap:_ZN9HostState19cancel_probes_belowEh
nmap:_ZN9HostState7link_toEP3Hop
nmap:_ZN9HostState8next_ttlEv
nmap:_ZN9HostState9get_probeEPK6Target
nmap:_ZN9HostStateC1EP6Target
nmap:_ZN9HostStateC2EP6Target
nmap:_ZN9HostStateD1Ev
nmap:_ZN9HostStateD2Ev
nmap:_ZN9RateMeter14getCurrentRateEPK7timevalb
nmap:_ZN9RateMeter4stopEPK7timeval
nmap:_ZN9RateMeter5isSetEPK7timeval
nmap:_ZN9RateMeter5startEPK7timeval
nmap:_ZN9RateMeter6updateEdPK7timeval
nmap:_ZN9RateMeterC1Ed
nmap:_ZN9RateMeterC2Ed
nmap:_ZN9ScanStatsC1Ev
nmap:_ZN9ScanStatsC2Ev
nmap:_ZN9TCPHeader10setOptionsEPKhm
nmap:_ZN9TCPHeader11optcode2strEh
nmap:_ZN9TCPHeader11setReservedEh
nmap:_ZN9TCPHeader12setSumRandomE7in_addrS0_
nmap:_ZN9TCPHeader12setSumRandomEv
nmap:_ZN9TCPHeader13setSourcePortEt
nmap:_ZN9TCPHeader13setUrgPointerEt
nmap:_ZN9TCPHeader13storeRecvDataEPKhm
nmap:_ZN9TCPHeader16getBufferPointerEv
nmap:_ZN9TCPHeader18setDestinationPortEt
nmap:_ZN9TCPHeader5resetEv
nmap:_ZN9TCPHeader6setACKEv
nmap:_ZN9TCPHeader6setAckEj
nmap:_ZN9TCPHeader6setCWREv
nmap:_ZN9TCPHeader6setECEEv
nmap:_ZN9TCPHeader6setECNEv
nmap:_ZN9TCPHeader6setFINEv
nmap:_ZN9TCPHeader6setPSHEv
nmap:_ZN9TCPHeader6setRSTEv
nmap:_ZN9TCPHeader6setSYNEv
nmap:_ZN9TCPHeader6setSeqEj
nmap:_ZN9TCPHeader6setSumE7in_addrS0_
nmap:_ZN9TCPHeader6setSumEt
nmap:_ZN9TCPHeader6setSumEv
nmap:_ZN9TCPHeader6setURGEv
nmap:_ZN9TCPHeader8setFlagsEh
nmap:_ZN9TCPHeader8unsetACKEv
nmap:_ZN9TCPHeader8unsetCWREv
nmap:_ZN9TCPHeader8unsetECEEv
nmap:_ZN9TCPHeader8unsetECNEv
nmap:_ZN9TCPHeader8unsetFINEv
nmap:_ZN9TCPHeader8unsetPSHEv
nmap:_ZN9TCPHeader8unsetRSTEv
nmap:_ZN9TCPHeader8unsetSYNEv
nmap:_ZN9TCPHeader8unsetURGEv
nmap:_ZN9TCPHeader8validateEv
nmap:_ZN9TCPHeader9setOffsetEh
nmap:_ZN9TCPHeader9setOffsetEv
nmap:_ZN9TCPHeader9setWindowEt
nmap:_ZN9TCPHeaderC1Ev
nmap:_ZN9TCPHeaderC2Ev
nmap:_ZN9TCPHeaderD0Ev
nmap:_ZN9TCPHeaderD1Ev
nmap:_ZN9TCPHeaderD2Ev
nmap:_ZN9UDPHeader12setSumRandomE7in_addrS0_
nmap:_ZN9UDPHeader12setSumRandomEv
nmap:_ZN9UDPHeader13setSourcePortEt
nmap:_ZN9UDPHeader13storeRecvDataEPKhm
nmap:_ZN9UDPHeader14setTotalLengthEt
nmap:_ZN9UDPHeader14setTotalLengthEv
nmap:_ZN9UDPHeader16getBufferPointerEv
nmap:_ZN9UDPHeader18setDestinationPortEt
nmap:_ZN9UDPHeader5resetEv
nmap:_ZN9UDPHeader6setSumE7in_addrS0_
nmap:_ZN9UDPHeader6setSumEt
nmap:_ZN9UDPHeader6setSumEv
nmap:_ZN9UDPHeader8validateEv
nmap:_ZN9UDPHeaderC1Ev
nmap:_ZN9UDPHeaderC2Ev
nmap:_ZN9UDPHeaderD0Ev
nmap:_ZN9UDPHeaderD1Ev
nmap:_ZN9UDPHeaderD2Ev
nmap:_ZNK10FingerTest11getAValNameEh
nmap:_ZNK10FingerTest12getMaxPointsEv
nmap:_ZNK10FingerTest7getAValEPKc
nmap:_ZNK10HostOsScan10hostSendOKEP15HostOsScanStatsP7timeval
nmap:_ZNK10HostOsScan11nextTimeoutEP15HostOsScanStatsP7timeval
nmap:_ZNK10HostOsScan13hostSeqSendOKEP15HostOsScanStatsP7timeval
nmap:_ZNK10HostOsScan16timeProbeTimeoutEP15HostOsScanStats
nmap:_ZNK10HostOsScan17get_tcpopt_stringEPK7tcp_hdriPci
nmap:_ZNK10IPv4Header10getVersionEv
nmap:_ZNK10IPv4Header11protocol_idEv
nmap:_ZNK10IPv4Header12getNextProtoEv
nmap:_ZNK10IPv4Header12printOptionsEv
nmap:_ZNK10IPv4Header13getFragOffsetEv
nmap:_ZNK10IPv4Header13getNextHeaderEv
nmap:_ZNK10IPv4Header14getTotalLengthEv
nmap:_ZNK10IPv4Header15getHeaderLengthEv
nmap:_ZNK10IPv4Header16getAddressLengthEv
nmap:_ZNK10IPv4Header16getOptionsStringEv
nmap:_ZNK10IPv4Header16getSourceAddressEP7in_addr
nmap:_ZNK10IPv4Header16getSourceAddressEv
nmap:_ZNK10IPv4Header17getIdentificationEv
nmap:_ZNK10IPv4Header21getDestinationAddressEP7in_addr
nmap:_ZNK10IPv4Header21getDestinationAddressEv
nmap:_ZNK10IPv4Header5getDFEv
nmap:_ZNK10IPv4Header5getMFEv
nmap:_ZNK10IPv4Header5getRFEv
nmap:_ZNK10IPv4Header5printEP8_IO_FILEi
nmap:_ZNK10IPv4Header6getSumEv
nmap:_ZNK10IPv4Header6getTOSEv
nmap:_ZNK10IPv4Header6getTTLEv
nmap:_ZNK10IPv4Header7getOptsEPi
nmap:_ZNK10IPv4Header7getOptsEv
nmap:_ZNK10IPv6Header10getVersionEv
nmap:_ZNK10IPv6Header11getHopLimitEv
nmap:_ZNK10IPv6Header11protocol_idEv
nmap:_ZNK10IPv6Header12getFlowLabelEv
nmap:_ZNK10IPv6Header13getNextHeaderEv
nmap:_ZNK10IPv6Header15getTrafficClassEv
nmap:_ZNK10IPv6Header16getAddressLengthEv
nmap:_ZNK10IPv6Header16getPayloadLengthEv
nmap:_ZNK10IPv6Header16getSourceAddressEP8in6_addr
nmap:_ZNK10IPv6Header16getSourceAddressEv
nmap:_ZNK10IPv6Header21getDestinationAddressEP8in6_addr
nmap:_ZNK10IPv6Header21getDestinationAddressEv
nmap:_ZNK10IPv6Header5printEP8_IO_FILEi
nmap:_ZNK10UltraProbe16check_proto_portEhtt
nmap:_ZNK10UltraProbe5dportEv
nmap:_ZNK10UltraProbe5sportEv
nmap:_ZNK10UltraProbe6icmpidEv
nmap:_ZNK10UltraProbe6tcpseqEv
nmap:_ZNK10UltraProbe8sctpvtagEv
nmap:_ZNK11TargetGroup13get_namedhostEv
nmap:_ZNK11TargetGroup17get_resolved_nameEv
nmap:_ZNK11TargetGroup19get_unscanned_addrsB5cxx11Ev
nmap:_ZNK11TargetGroup19is_resolved_addressEPK16sockaddr_storage
nmap:_ZNK12HssPredicateclEPK13HostScanStatsS2_
nmap:_ZNK12ICMPv4Header11getIDNumberEv
nmap:_ZNK12ICMPv4Header11getLifetimeEv
nmap:_ZNK12ICMPv4Header11getReservedEv
nmap:_ZNK12ICMPv4Header11getSequenceEv
nmap:_ZNK12ICMPv4Header11protocol_idEv
nmap:_ZNK12ICMPv4Header11type2stringEii
nmap:_ZNK12ICMPv4Header13getIdentifierEv
nmap:_ZNK12ICMPv4Header14getAddressMaskEv
nmap:_ZNK12ICMPv4Header15getNumAddressesEv
nmap:_ZNK12ICMPv4Header16getAddrEntrySizeEv
nmap:_ZNK12ICMPv4Header16getOutputLinkMTUEv
nmap:_ZNK12ICMPv4Header17getGatewayAddressEv
nmap:_ZNK12ICMPv4Header17getReturnHopCountEv
nmap:_ZNK12ICMPv4Header18getOutputLinkSpeedEv
nmap:_ZNK12ICMPv4Header18getSecurityPointerEv
nmap:_ZNK12ICMPv4Header19getOutboundHopCountEv
nmap:_ZNK12ICMPv4Header19getParameterPointerEv
nmap:_ZNK12ICMPv4Header19getReceiveTimestampEv
nmap:_ZNK12ICMPv4Header19getRouterAdvEntriesEPi
nmap:_ZNK12ICMPv4Header20getTransmitTimestampEv
nmap:_ZNK12ICMPv4Header21getOriginateTimestampEv
nmap:_ZNK12ICMPv4Header27getICMPHeaderLengthFromTypeEh
nmap:_ZNK12ICMPv4Header5printEP8_IO_FILEi
nmap:_ZNK12ICMPv4Header6getSumEv
nmap:_ZNK12ICMPv4Header7getCodeEv
nmap:_ZNK12ICMPv4Header7getTypeEv
nmap:_ZNK12ICMPv4Header7isErrorEv
nmap:_ZNK12ICMPv4Header9getUnusedEv
nmap:_ZNK12ICMPv6Header10getPointerEv
nmap:_ZNK12ICMPv6Header11getMaxDelayEv
nmap:_ZNK12ICMPv6Header11getReservedEv
nmap:_ZNK12ICMPv6Header11getSequenceEv
nmap:_ZNK12ICMPv6Header11protocol_idEv
nmap:_ZNK12ICMPv6Header11type2stringEii
nmap:_ZNK12ICMPv6Header13getIdentifierEv
nmap:_ZNK12ICMPv6Header16getNodeInfoFlagsEv
nmap:_ZNK12ICMPv6Header16getReachableTimeEv
nmap:_ZNK12ICMPv6Header16getSegmentNumberEv
nmap:_ZNK12ICMPv6Header16getTargetAddressEv
nmap:_ZNK12ICMPv6Header17getRouterLifetimeEv
nmap:_ZNK12ICMPv6Header18getCurrentHopLimitEv
nmap:_ZNK12ICMPv6Header19getMulticastAddressEv
nmap:_ZNK12ICMPv6Header21getDestinationAddressEv
nmap:_ZNK12ICMPv6Header22getRetransmissionTimerEv
nmap:_ZNK12ICMPv6Header23getHeaderLengthFromTypeEh
nmap:_ZNK12ICMPv6Header4getAEv
nmap:_ZNK12ICMPv6Header4getCEv
nmap:_ZNK12ICMPv6Header4getGEv
nmap:_ZNK12ICMPv6Header4getLEv
nmap:_ZNK12ICMPv6Header4getSEv
nmap:_ZNK12ICMPv6Header4getTEv
nmap:_ZNK12ICMPv6Header5printEP8_IO_FILEi
nmap:_ZNK12ICMPv6Header6getMTUEv
nmap:_ZNK12ICMPv6Header6getSumEv
nmap:_ZNK12ICMPv6Header7getCodeEv
nmap:_ZNK12ICMPv6Header7getTypeEv
nmap:_ZNK12ICMPv6Header7isErrorEv
nmap:_ZNK12ICMPv6Header8getFlagsEv
nmap:_ZNK12ICMPv6Header8getNonceEv
nmap:_ZNK12ICMPv6Header8getQtypeEv
nmap:_ZNK12ICMPv6Header9getUnusedEv
nmap:_ZNK12ScriptResult14get_output_strB5cxx11Ev
nmap:_ZNK12ScriptResult9write_xmlEv
nmap:_ZNK12ServiceProbe14portIsProbableE19service_tunnel_typet
nmap:_ZNK12ServiceProbe17serviceIsPossibleEPKc
nmap:_ZNK13HostScanStats11nextTimeoutEP7timeval
nmap:_ZNK13HostScanStats12allowedTrynoEPbS0_
nmap:_ZNK13HostScanStats12probeTimeoutEv
nmap:_ZNK13HostScanStats14freshPortsLeftEv
nmap:_ZNK13HostScanStats15probeExpireTimeEPK10UltraProbe
nmap:_ZNK13HostScanStats17numFreshPortsLeftEv
nmap:_ZNK13HostScanStats6sendOKEP7timeval
nmap:_ZNK13HostScanStats9completedEv
nmap:_ZNK13HostScanStats9getTimingEP17ultra_timing_vals
nmap:_ZNK13RoutingHeader11protocol_idEv
nmap:_ZNK13RoutingHeader5printEP8_IO_FILEi
nmap:_ZNK13UltraScanInfo16numProbesPerHostEv
nmap:_ZNK13UltraScanInfo17log_overall_ratesEi
nmap:_ZNK13UltraScanInfo21getCompletionFractionEv
nmap:_ZNK13UltraScanInfo26numIncompleteHostsLessThanEj
nmap:_ZNK13UltraScanInfo6sendOKEP7timeval
nmap:_ZNK13UltraScanInfo8findHostEP16sockaddr_storage
nmap:_ZNK13UltraScanInfo9isRawScanEv
nmap:_ZNK14DestOptsHeader11protocol_idEv
nmap:_ZNK14DestOptsHeader5printEP8_IO_FILEi
nmap:_ZNK14EthernetHeader11protocol_idEv
nmap:_ZNK14EthernetHeader12getEtherTypeEv
nmap:_ZNK14EthernetHeader5printEP8_IO_FILEi
nmap:_ZNK14EthernetHeader9getDstMACEv
nmap:_ZNK14EthernetHeader9getSrcMACEv
nmap:_ZNK14FragmentHeader11protocol_idEv
nmap:_ZNK14FragmentHeader5printEP8_IO_FILEi
nmap:_ZNK14GroupScanStats6sendOKEP7timeval
nmap:_ZNK14HopByHopHeader11protocol_idEv
nmap:_ZNK14HopByHopHeader5printEP8_IO_FILEi
nmap:_ZNK15FingerPrintScan8scan2strEv
nmap:_ZNK15HostOsScanStats11timingRatioEv
nmap:_ZNK15HostOsScanStats12fill_eth_nfoEP7eth_nfoP10eth_handle
nmap:_ZNK15PacketRateMeter11getNumBytesEv
nmap:_ZNK15PacketRateMeter13getNumPacketsEv
nmap:_ZNK15PacketRateMeter18getOverallByteRateEPK7timeval
nmap:_ZNK15PacketRateMeter20getOverallPacketRateEPK7timeval
nmap:_ZNK15TracerouteState19completion_fractionEv
nmap:_ZNK16NetBlockHostname3strB5cxx11Ev
nmap:_ZNK17ServiceProbeMatch13getVersionStrEPKhiPiiPciS3_iS3_iS3_iS3_iS3_iS3_iS3_iS3_i
nmap:_ZNK17serviceDeductions25populateFullVersionStringEPcm
nmap:_ZNK18NetBlockIPv4Ranges3strB5cxx11Ev
nmap:_ZNK19NetBlockIPv6Netmask3strB5cxx11Ev
nmap:_ZNK22FingerPrintResultsIPv49merge_fprEPK6Targetbb
nmap:_ZNK22FingerPrintResultsIPv69merge_fprEPK6Targetbb
nmap:_ZNK4Port18getNmapServiceNameEPci
nmap:_ZNK5Probe10may_resendEv
nmap:_ZNK5Probe11is_timedoutEP7timeval
nmap:_ZNK6Target10MACAddressEv
nmap:_ZNK6Target10deviceNameEv
nmap:_ZNK6Target10v4sourceipEv
nmap:_ZNK6Target10v6sourceipEv
nmap:_ZNK6Target13SrcMACAddressEv
nmap:_ZNK6Target14SourceSockAddrEP16sockaddr_storagePm
nmap:_ZNK6Target14SourceSockAddrEv
nmap:_ZNK6Target14TargetSockAddrEP16sockaddr_storagePm
nmap:_ZNK6Target14TargetSockAddrEv
nmap:_ZNK6Target14deviceFullNameEv
nmap:_ZNK6Target15osscanPerformedEv
nmap:_ZNK6Target17NextHopMACAddressEv
nmap:_ZNK6Target17directlyConnectedEv
nmap:_ZNK6Target24directlyConnectedOrUnsetEv
nmap:_ZNK6Target2afEv
nmap:_ZNK6Target3MTUEv
nmap:_ZNK6Target6NameIPEPcm
nmap:_ZNK6Target6NameIPEv
nmap:_ZNK6Target6sourceEv
nmap:_ZNK6Target6v4hostEv
nmap:_ZNK6Target7nextHopEP16sockaddr_storagePm
nmap:_ZNK6Target8timedOutEPK7timeval
nmap:_ZNK6Target8v4hostipEv
nmap:_ZNK6Target8v6hostipEv
nmap:_ZNK7FPProbe10getProbeIDEv
nmap:_ZNK7FPProbe10getRepliesEv
nmap:_ZNK7FPProbe11getTimeSentEv
nmap:_ZNK7FPProbe11probeFailedEv
nmap:_ZNK7FPProbe18getRetransmissionsEv
nmap:_ZNK7FPProbe7isTimedEv
nmap:_ZNK7NmapOps14SourceSockAddrEv
nmap:_ZNK7OFProbe7typestrEv
nmap:_ZNK7RawData11protocol_idEv
nmap:_ZNK7RawData5printEP8_IO_FILEi
nmap:_ZNK8FPPacket11getEthernetEv
nmap:_ZNK8FPPacket15getPacketBufferEPm
nmap:_ZNK8FPPacket6is_setEv
nmap:_ZNK8FPPacket7getTimeEv
nmap:_ZNK8FPPacket9getLengthEv
nmap:_ZNK8FPPacket9getPacketEv
nmap:_ZNK8NetBlock19is_resolved_addressEPK16sockaddr_storage
nmap:_ZNK8PortList10lookupPortEth
nmap:_ZNK8PortList12hasOpenPortsEv
nmap:_ZNK8PortList12isTCPwrappedEt
nmap:_ZNK8PortList14getStateCountsEi
nmap:_ZNK8PortList14getStateCountsEii
nmap:_ZNK8PortList14isIgnoredStateEiPi
nmap:_ZNK8PortList15numIgnoredPortsEv
nmap:_ZNK8PortList16nextIgnoredStateEi
nmap:_ZNK8PortList16numIgnoredStatesEv
nmap:_ZNK8PortList20getServiceDeductionsEtiP17serviceDeductions
nmap:_ZNK8PortList7mapPortEPtPh
nmap:_ZNK8PortList8nextPortEPK4PortPS0_ii
nmap:_ZNK8PortList8numPortsEv
nmap:_ZNK9ARPHeader11protocol_idEv
nmap:_ZNK9ARPHeader5printEP8_IO_FILEi
nmap:_ZNK9AllProbes10isExcludedEti
nmap:_ZNK9AllProbes14getProbeByNameEPKci
nmap:_ZNK9HostState11is_finishedEv
nmap:_ZNK9HostState15has_more_probesEv
nmap:_ZNK9HostState16child_parent_ttlEhPP3HopS2_
nmap:_ZNK9HostState19completion_fractionEv
nmap:_ZNK9RateMeter11elapsedTimeEPK7timeval
nmap:_ZNK9RateMeter14getOverallRateEPK7timeval
nmap:_ZNK9RateMeter8getTotalEv
nmap:_ZNK9ScanStats6sendOKEv
nmap:_ZNK9TCPHeader10getFlags16Ev
nmap:_ZNK9TCPHeader10getOptionsEPm
nmap:_ZNK9TCPHeader11getReservedEv
nmap:_ZNK9TCPHeader11protocol_idEv
nmap:_ZNK9TCPHeader13getSourcePortEv
nmap:_ZNK9TCPHeader13getUrgPointerEv
nmap:_ZNK9TCPHeader18__tcppacketoptinfoEPKhiPci
nmap:_ZNK9TCPHeader18getDestinationPortEv
nmap:_ZNK9TCPHeader5printEP8_IO_FILEi
nmap:_ZNK9TCPHeader6getACKEv
nmap:_ZNK9TCPHeader6getAckEv
nmap:_ZNK9TCPHeader6getCWREv
nmap:_ZNK9TCPHeader6getECEEv
nmap:_ZNK9TCPHeader6getECNEv
nmap:_ZNK9TCPHeader6getFINEv
nmap:_ZNK9TCPHeader6getPSHEv
nmap:_ZNK9TCPHeader6getRSTEv
nmap:_ZNK9TCPHeader6getSYNEv
nmap:_ZNK9TCPHeader6getSeqEv
nmap:_ZNK9TCPHeader6getSumEv
nmap:_ZNK9TCPHeader6getURGEv
nmap:_ZNK9TCPHeader8getFlagsEv
nmap:_ZNK9TCPHeader9getOffsetEv
nmap:_ZNK9TCPHeader9getOptionEj
nmap:_ZNK9TCPHeader9getWindowEv
nmap:_ZNK9UDPHeader11protocol_idEv
nmap:_ZNK9UDPHeader13getSourcePortEv
nmap:_ZNK9UDPHeader14getTotalLengthEv
nmap:_ZNK9UDPHeader18getDestinationPortEv
nmap:_ZNK9UDPHeader5printEP8_IO_FILEi
nmap:_ZNK9UDPHeader6getSumEv
nmap:__bss_start
nmap:__data_start
nmap:__nsock_log_internal
nmap:_edata
nmap:_end
nmap:_start
nmap:addr_bcast
nmap:addr_btom
nmap:addr_btos
nmap:addr_cmp
nmap:addr_mtob
nmap:addr_net
nmap:addr_ntoa
nmap:addr_ntop
nmap:addr_ntos
nmap:addr_pton
nmap:addr_stob
nmap:addr_ston
nmap:addrset_add_file
nmap:addrset_add_spec
nmap:addrset_contains
nmap:addrset_free
nmap:addrset_new
nmap:addrset_print
nmap:alloc_vsprintf
nmap:arp_add
nmap:arp_close
nmap:arp_delete
nmap:arp_get
nmap:arp_loop
nmap:arp_open
nmap:block_socket
nmap:check_parameter
nmap:check_probability_model
nmap:cross_validation
nmap:daxpy_
nmap:ddot_
nmap:destroy_param
nmap:dnrm2_
nmap:do_actual_pcap_read
nmap:dscal_
nmap:dup_socket
nmap:engine_epoll
nmap:engine_poll
nmap:engine_select
nmap:error
nmap:escape_windows_command_arg
nmap:eth_close
nmap:eth_get
nmap:eth_ntoa
nmap:eth_ntop
nmap:eth_open
nmap:eth_pton
nmap:eth_send
nmap:eth_set
nmap:event_delete
nmap:event_dispatch_and_delete
nmap:event_new
nmap:event_timedout
nmap:executable_path
nmap:fatal
nmap:file_is_readable
nmap:filespace_init
nmap:format_bytecount
nmap:forward_event
nmap:free_and_destroy_model
nmap:free_model_content
nmap:fs_cat
nmap:fs_free
nmap:fselect
nmap:ftp
nmap:get_event_id_type
nmap:get_io_engine
nmap:get_labels
nmap:get_localaddr_string
nmap:get_new_event_id
nmap:get_nr_class
nmap:get_nr_feature
nmap:get_peeraddr_string
nmap:get_random_bytes
nmap:get_random_int
nmap:get_random_u16
nmap:get_random_u32
nmap:get_random_u64
nmap:get_random_u8
nmap:get_random_uint
nmap:get_random_unique_u32
nmap:get_random_ushort
nmap:get_unixsock_path
nmap:gh_heap_find
nmap:gh_heap_free
nmap:gh_heap_init
nmap:gh_heap_push
nmap:gh_heap_remove
nmap:gh_perror
nmap:global_netctl
nmap:handle_connect_result
nmap:handle_pcap_read_result
nmap:handle_read_result
nmap:handle_timer_result
nmap:handle_write_result
nmap:hexdump
nmap:inet_ntop_ez
nmap:inheritable_socket
nmap:intf_close
nmap:intf_get
nmap:intf_get_dst
nmap:intf_get_index
nmap:intf_get_src
nmap:intf_loop
nmap:intf_open
nmap:intf_set
nmap:ip6_checksum
nmap:ip6_ntoa
nmap:ip6_ntop
nmap:ip6_pton
nmap:ip_add_option
nmap:ip_checksum
nmap:ip_cksum_add
nmap:ip_ntoa
nmap:ip_ntop
nmap:ip_pton
nmap:load_model
nmap:local_time
nmap:luaL_addgsub
nmap:luaL_addlstring
nmap:luaL_addstring
nmap:luaL_addvalue
nmap:luaL_argerror
nmap:luaL_buffinit
nmap:luaL_buffinitsize
nmap:luaL_callmeta
nmap:luaL_checkany
nmap:luaL_checkinteger
nmap:luaL_checklstring
nmap:luaL_checknumber
nmap:luaL_checkoption
nmap:luaL_checkstack
nmap:luaL_checktype
nmap:luaL_checkudata
nmap:luaL_checkversion_
nmap:luaL_error
nmap:luaL_execresult
nmap:luaL_fileresult
nmap:luaL_getmetafield
nmap:luaL_getsubtable
nmap:luaL_gsub
nmap:luaL_len
nmap:luaL_loadbufferx
nmap:luaL_loadfilex
nmap:luaL_loadstring
nmap:luaL_newmetatable
nmap:luaL_newstate
nmap:luaL_openlibs
nmap:luaL_optinteger
nmap:luaL_optlstring
nmap:luaL_optnumber
nmap:luaL_prepbuffsize
nmap:luaL_pushresult
nmap:luaL_pushresultsize
nmap:luaL_ref
nmap:luaL_requiref
nmap:luaL_setfuncs
nmap:luaL_setmetatable
nmap:luaL_testudata
nmap:luaL_tolstring
nmap:luaL_traceback
nmap:luaL_typeerror
nmap:luaL_unref
nmap:luaL_where
nmap:lua_absindex
nmap:lua_arith
nmap:lua_atpanic
nmap:lua_callk
nmap:lua_checkstack
nmap:lua_close
nmap:lua_closeslot
nmap:lua_compare
nmap:lua_concat
nmap:lua_copy
nmap:lua_createtable
nmap:lua_dump
nmap:lua_error
nmap:lua_gc
nmap:lua_getallocf
nmap:lua_getfield
nmap:lua_getglobal
nmap:lua_gethook
nmap:lua_gethookcount
nmap:lua_gethookmask
nmap:lua_geti
nmap:lua_getinfo
nmap:lua_getiuservalue
nmap:lua_getlocal
nmap:lua_getmetatable
nmap:lua_getstack
nmap:lua_gettable
nmap:lua_gettop
nmap:lua_getupvalue
nmap:lua_ident
nmap:lua_iscfunction
nmap:lua_isinteger
nmap:lua_isnumber
nmap:lua_isstring
nmap:lua_isuserdata
nmap:lua_isyieldable
nmap:lua_len
nmap:lua_load
nmap:lua_newstate
nmap:lua_newthread
nmap:lua_newuserdatauv
nmap:lua_next
nmap:lua_pcallk
nmap:lua_pushboolean
nmap:lua_pushcclosure
nmap:lua_pushfstring
nmap:lua_pushinteger
nmap:lua_pushlightuserdata
nmap:lua_pushlstring
nmap:lua_pushnil
nmap:lua_pushnumber
nmap:lua_pushstring
nmap:lua_pushthread
nmap:lua_pushvalue
nmap:lua_pushvfstring
nmap:lua_rawequal
nmap:lua_rawget
nmap:lua_rawgeti
nmap:lua_rawgetp
nmap:lua_rawlen
nmap:lua_rawset
nmap:lua_rawseti
nmap:lua_rawsetp
nmap:lua_resetthread
nmap:lua_resume
nmap:lua_rotate
nmap:lua_setallocf
nmap:lua_setcstacklimit
nmap:lua_setfield
nmap:lua_setglobal
nmap:lua_sethook
nmap:lua_seti
nmap:lua_setiuservalue
nmap:lua_setlocal
nmap:lua_setmetatable
nmap:lua_settable
nmap:lua_settop
nmap:lua_setupvalue
nmap:lua_setwarnf
nmap:lua_status
nmap:lua_stringtonumber
nmap:lua_toboolean
nmap:lua_tocfunction
nmap:lua_toclose
nmap:lua_tointegerx
nmap:lua_tolstring
nmap:lua_tonumberx
nmap:lua_topointer
nmap:lua_tothread
nmap:lua_touserdata
nmap:lua_type
nmap:lua_typename
nmap:lua_upvalueid
nmap:lua_upvaluejoin
nmap:lua_version
nmap:lua_warning
nmap:lua_xmove
nmap:lua_yieldk
nmap:luaopen_base
nmap:luaopen_coroutine
nmap:luaopen_debug
nmap:luaopen_io
nmap:luaopen_math
nmap:luaopen_os
nmap:luaopen_package
nmap:luaopen_string
nmap:luaopen_table
nmap:luaopen_utf8
nmap:main
nmap:maximize_fdlimit
nmap:mkstr
nmap:n_ctime
nmap:n_gmtime
nmap:n_localtime
nmap:nbase_adler32
nmap:nbase_crc32
nmap:nbase_crc32c
nmap:nbase_set_log
nmap:nevent_delete
nmap:nrand_get
nmap:nrand_init
nmap:nse_eof
nmap:nse_errorcode
nmap:nse_id
nmap:nse_iod
nmap:nse_readbuf
nmap:nse_readpcap
nmap:nse_status
nmap:nse_status2str
nmap:nse_type
nmap:nse_type2str
nmap:nsi_set_ssl_session
nmap:nsi_ssl_post_connect_verify
nmap:nsock_connect_internal
nmap:nsock_connect_sctp
nmap:nsock_connect_ssl
nmap:nsock_connect_tcp
nmap:nsock_connect_udp
nmap:nsock_connect_unixsock_datagram
nmap:nsock_connect_unixsock_stream
nmap:nsock_connect_vsock_datagram
nmap:nsock_connect_vsock_stream
nmap:nsock_event_cancel
nmap:nsock_get_loglevel
nmap:nsock_gettimeofday
nmap:nsock_iod_check_ssl
nmap:nsock_iod_delete
nmap:nsock_iod_get_communication_info
nmap:nsock_iod_get_peerport
nmap:nsock_iod_get_read_count
nmap:nsock_iod_get_sd
nmap:nsock_iod_get_ssl
nmap:nsock_iod_get_ssl_session
nmap:nsock_iod_get_udata
nmap:nsock_iod_get_write_count
nmap:nsock_iod_id
nmap:nsock_iod_is_pcap
nmap:nsock_iod_linktype
nmap:nsock_iod_new
nmap:nsock_iod_new2
nmap:nsock_iod_set_hostname
nmap:nsock_iod_set_ipoptions
nmap:nsock_iod_set_localaddr
nmap:nsock_iod_set_udata
nmap:nsock_list_engines
nmap:nsock_loop
nmap:nsock_loop_quit
nmap:nsock_pcap_open
nmap:nsock_pcap_read_packet
nmap:nsock_pool_add_event
nmap:nsock_pool_delete
nmap:nsock_pool_dtls_init
nmap:nsock_pool_get_error
nmap:nsock_pool_get_udata
nmap:nsock_pool_new
nmap:nsock_pool_set_broadcast
nmap:nsock_pool_set_device
nmap:nsock_pool_set_proxychain
nmap:nsock_pool_set_udata
nmap:nsock_pool_ssl_init
nmap:nsock_printf
nmap:nsock_proxy_ev_dispatch
nmap:nsock_proxychain_delete
nmap:nsock_proxychain_new
nmap:nsock_read
nmap:nsock_readbytes
nmap:nsock_readlines
nmap:nsock_reconnect_ssl
nmap:nsock_sendto
nmap:nsock_set_default_engine
nmap:nsock_set_log_function
nmap:nsock_set_loglevel
nmap:nsock_setup_udp
nmap:nsock_timer_create
nmap:nsock_tod
nmap:nsock_trace_handler_callback
nmap:nsock_write
nmap:nsp_ssl_cleanup
nmap:numsiblings
nmap:o
nmap:parse_long
nmap:path_get_basename
nmap:path_get_dirname
nmap:pcap_read_on_nonselect
nmap:pfatal
nmap:ports
nmap:posix_io_operations
nmap:posix_iod_connect
nmap:posix_iod_read
nmap:posix_iod_write
nmap:prbWindowSz
nmap:predict
nmap:predict_probability
nmap:predict_values
nmap:process_event
nmap:process_expired_events
nmap:process_iod_events
nmap:proxy_chain_context_delete
nmap:proxy_chain_context_new
nmap:proxy_resolve
nmap:reason_map
nmap:replacenonprintable
nmap:route_add
nmap:route_close
nmap:route_delete
nmap:route_get
nmap:route_loop
nmap:route_open
nmap:safe_malloc
nmap:safe_realloc
nmap:safe_zalloc
nmap:save_model
nmap:set_print_string_function
nmap:sockaddr_storage_cmp
nmap:sockaddr_storage_equal
nmap:sockaddr_storage_inet_pton
nmap:sockaddr_storage_iptop
nmap:socket_bindtodevice
nmap:socket_count_zero
nmap:socket_errno
nmap:socket_strerror
nmap:strchr_p
nmap:train
nmap:tval2msecs
nmap:tval2secs
nmap:tval_unit
nmap:unblock_socket
nmap:update_first_events
