goldendict:_IO_stdin_used
goldendict:_Z12addAudioLinkRKNSt7__cxx1112basic_stringIcSt11char_traitsIcESaIcEEES6_
goldendict:_Z12gdCDebugImplRK16QLoggingCategoryPKcz
goldendict:_Z14decompressZlibB5cxx11PKcj
goldendict:_Z14decompressZstdB5cxx11PKcj
goldendict:_Z14doDeferredInitRSt6vectorI4sptrIN10Dictionary5ClassEESaIS3_EE
goldendict:_Z14gdCWarningImplRK16QLoggingCategoryPKcz
goldendict:_Z14isRECORDBrokenv
goldendict:_Z14zlibDecompressPKcj
goldendict:_Z15decompressBzip2B5cxx11PKcj
goldendict:_Z15decompressLzma2B5cxx11PKcjb
goldendict:_Z16gdCodecForLocalev
goldendict:_Z16gdMessageHandler9QtMsgTypeRK18QMessageLogContextRK7QString
goldendict:_Z16loadDictionariesP7QWidgetbRKN6Config5ClassERSt6vectorI4sptrIN10Dictionary5ClassEESaIS9_EER21QNetworkAccessManagerb
goldendict:_Z16parseCommandLineRK7QString
goldendict:_Z16renameAtomicallyRK7QStringS1_
goldendict:_Z17wildcardsToRegexpRK7QString
goldendict:_Z19makeAudioLinkScriptRKNSt7__cxx1112basic_stringIcSt11char_traitsIcESaIcEEES6_
goldendict:_Z20dictionaryResourceLcv
goldendict:_Z20qInitResources_flagsv
goldendict:_Z23qCleanupResources_flagsv
goldendict:_Z24qInitResources_resourcesv
goldendict:_Z25installTerminationHandlerv
goldendict:_Z27qCleanupResources_resourcesv
goldendict:_Z27stopAndDestroySynchronouslyP14ExternalViewer
goldendict:_Z7gdDebugPKcz
goldendict:_Z9gdWarningPKcz
goldendict:_ZN10DictServer16makeDictionariesERK7QVectorIN6Config10DictServerEE
goldendict:_ZN10DictdFiles16makeDictionariesERKSt6vectorINSt7__cxx1112basic_stringIcSt11char_traitsIcESaIcEEESaIS6_EERKS6_RN10Dictionary12InitializingE
goldendict:_ZN10Dictionary11DataRequest11getFullDataEv
goldendict:_ZN10Dictionary11DataRequest11qt_metacallEN11QMetaObject4CallEiPPv
goldendict:_ZN10Dictionary11DataRequest11qt_metacastEPKc
goldendict:_ZN10Dictionary11DataRequest12getDataSliceEmmPv
goldendict:_ZN10Dictionary11DataRequest16staticMetaObjectE
goldendict:_ZN10Dictionary11DataRequest8dataSizeEv
goldendict:_ZN10Dictionary16makeDictionaryIdERKSt6vectorINSt7__cxx1112basic_stringIcSt11char_traitsIcESaIcEEESaIS6_EE
goldendict:_ZN10Dictionary17WordSearchRequest11qt_metacallEN11QMetaObject4CallEiPPv
goldendict:_ZN10Dictionary17WordSearchRequest11qt_metacastEPKc
goldendict:_ZN10Dictionary17WordSearchRequest12matchesCountEv
goldendict:_ZN10Dictionary17WordSearchRequest13getAllMatchesEv
goldendict:_ZN10Dictionary17WordSearchRequest16staticMetaObjectE
goldendict:_ZN10Dictionary17WordSearchRequest8addMatchERKNS_9WordMatchE
goldendict:_ZN10Dictionary17WordSearchRequestixEm
goldendict:_ZN10Dictionary18needToRebuildIndexERKSt6vectorINSt7__cxx1112basic_stringIcSt11char_traitsIcESaIcEEESaIS6_EERKS6_
goldendict:_ZN10Dictionary21WebMultimediaDownload10isAudioUrlERK4QUrl
goldendict:_ZN10Dictionary21WebMultimediaDownload11qt_metacallEN11QMetaObject4CallEiPPv
goldendict:_ZN10Dictionary21WebMultimediaDownload11qt_metacastEPKc
goldendict:_ZN10Dictionary21WebMultimediaDownload13replyFinishedEP13QNetworkReply
goldendict:_ZN10Dictionary21WebMultimediaDownload16staticMetaObjectE
goldendict:_ZN10Dictionary21WebMultimediaDownload6cancelEv
goldendict:_ZN10Dictionary21WebMultimediaDownloadC1ERK4QUrlR21QNetworkAccessManager
goldendict:_ZN10Dictionary21WebMultimediaDownloadC2ERK4QUrlR21QNetworkAccessManager
goldendict:_ZN10Dictionary26generateRandomDictionaryIdEv
goldendict:_ZN10Dictionary5Class10isolateCSSER7QStringRKS1_
goldendict:_ZN10Dictionary5Class11getResourceERKNSt7__cxx1112basic_stringIcSt11char_traitsIcESaIcEEE
goldendict:_ZN10Dictionary5Class12deferredInitEv
goldendict:_ZN10Dictionary5Class12stemmedMatchERKNSt7__cxx1112basic_stringIwSt11char_traitsIwESaIwEEEjjm
goldendict:_ZN10Dictionary5Class13getNativeIconEv
goldendict:_ZN10Dictionary5Class14getDescriptionEv
goldendict:_ZN10Dictionary5Class15getMainFilenameEv
goldendict:_ZN10Dictionary5Class16getSearchResultsERK7QStringibiibbP11QThreadPool
goldendict:_ZN10Dictionary5Class16loadIconFromFileERK7QStringb
goldendict:_ZN10Dictionary5Class20getAlternateWritingsERKNSt7__cxx1112basic_stringIwSt11char_traitsIwESaIwEEE
goldendict:_ZN10Dictionary5Class23findHeadwordsForSynonymERKNSt7__cxx1112basic_stringIwSt11char_traitsIwESaIwEEE
goldendict:_ZN10Dictionary5Class7getIconEv
goldendict:_ZN10Dictionary5Class8loadIconEv
goldendict:_ZN10Dictionary5ClassC2ERKNSt7__cxx1112basic_stringIcSt11char_traitsIcESaIcEEERKSt6vectorIS6_SaIS6_EE
goldendict:_ZN10Dictionary7Request10isFinishedEv
goldendict:_ZN10Dictionary7Request11qt_metacallEN11QMetaObject4CallEiPPv
goldendict:_ZN10Dictionary7Request11qt_metacastEPKc
goldendict:_ZN10Dictionary7Request14getErrorStringEv
goldendict:_ZN10Dictionary7Request14setErrorStringERK7QString
goldendict:_ZN10Dictionary7Request16staticMetaObjectE
goldendict:_ZN10Dictionary7Request6finishEv
goldendict:_ZN10Dictionary7Request6updateEv
goldendict:_ZN10Dictionary7Request7updatedEv
goldendict:_ZN10Dictionary7Request8finishedEv
goldendict:_ZN10FsEncoding6decodeEPKc
goldendict:_ZN10FsEncoding6decodeERKNSt7__cxx1112basic_stringIcSt11char_traitsIcESaIcEEE
goldendict:_ZN10FsEncoding6encodeB5cxx11ERK7QString
goldendict:_ZN10FsEncoding6encodeERKNSt7__cxx1112basic_stringIcSt11char_traitsIcESaIcEEE
goldendict:_ZN10FsEncoding6encodeERKNSt7__cxx1112basic_stringIwSt11char_traitsIwESaIwEEE
goldendict:_ZN10FsEncoding7dirnameERKNSt7__cxx1112basic_stringIcSt11char_traitsIcESaIcEEE
goldendict:_ZN10FsEncoding8basenameERKNSt7__cxx1112basic_stringIcSt11char_traitsIcESaIcEEE
goldendict:_ZN10FsEncoding9separatorEv
goldendict:_ZN10FtsHelpers12makeFTSIndexEPN13BtreeIndexing15BtreeDictionaryER10QAtomicInt
goldendict:_ZN10FtsHelpers17FTSResultsRequest10fullSearchER11QStringListR7QRegExp
goldendict:_ZN10FtsHelpers17FTSResultsRequest11indexSearchERN13BtreeIndexing10BtreeIndexE4sptrIN14ChunkedStorage6ReaderEER11QStringListS9_
goldendict:_ZN10FtsHelpers17FTSResultsRequest13checkArticlesERK7QVectorIjERK11QStringListRK7QRegExp
goldendict:_ZN10FtsHelpers17FTSResultsRequest15fullIndexSearchERN13BtreeIndexing10BtreeIndexE4sptrIN14ChunkedStorage6ReaderEER11QStringListS9_R7QRegExp
goldendict:_ZN10FtsHelpers17FTSResultsRequest19combinedIndexSearchERN13BtreeIndexing10BtreeIndexE4sptrIN14ChunkedStorage6ReaderEER11QStringListS9_R7QRegExp
goldendict:_ZN10FtsHelpers17FTSResultsRequest3runEv
goldendict:_ZN10FtsHelpers17parseSearchStringERK7QStringR11QStringListS4_R7QRegExpibiRb
goldendict:_ZN10FtsHelpers18ftsIndexIsOldOrBadERKNSt7__cxx1112basic_stringIcSt11char_traitsIcESaIcEEEPN13BtreeIndexing15BtreeDictionaryE
goldendict:_ZN10FtsHelpers18parseArticleForFtsEjR7QStringR4QMapIS0_7QVectorIjEEb
goldendict:_ZN10FtsHelpers25FTSResultsRequestRunnable3runEv
goldendict:_ZN10FtsHelpers9isCJKCharEt
goldendict:_ZN10GdAppStyle11qt_metacallEN11QMetaObject4CallEiPPv
goldendict:_ZN10GdAppStyle11qt_metacastEPKc
goldendict:_ZN10GdAppStyle16staticMetaObjectE
goldendict:_ZN10GdAppStyleC1EP11QProxyStyle
goldendict:_ZN10GdAppStyleC2EP11QProxyStyle
goldendict:_ZN10HotKeyEdit11eventFilterEP7QObjectP6QEvent
goldendict:_ZN10HotKeyEdit11qt_metacallEN11QMetaObject4CallEiPPv
goldendict:_ZN10HotKeyEdit11qt_metacastEPKc
goldendict:_ZN10HotKeyEdit13keyPressEventEP9QKeyEvent
goldendict:_ZN10HotKeyEdit15keyReleaseEventEP9QKeyEvent
goldendict:_ZN10HotKeyEdit16staticMetaObjectE
goldendict:_ZN10HotKeyEdit18renderCurrentValueEv
goldendict:_ZN10HotKeyEdit9setHotKeyERKN6Config6HotKeyE
goldendict:_ZN10HotKeyEditC1EP7QWidget
goldendict:_ZN10HotKeyEditC2EP7QWidget
goldendict:_ZN10IconButton10paintEventEP11QPaintEvent
goldendict:_ZN10IconButton11qt_metacallEN11QMetaObject4CallEiPPv
goldendict:_ZN10IconButton11qt_metacastEPKc
goldendict:_ZN10IconButton16staticMetaObjectE
goldendict:_ZN10IconButton7animateEb
goldendict:_ZN10IconButtonC1EP7QWidget
goldendict:_ZN10IconButtonC2EP7QWidget
goldendict:_ZN10IndexedZip11openZipFileERK7QString
goldendict:_ZN10IndexedZip7hasFileERKNSt7__cxx1112basic_stringIwSt11char_traitsIwESaIwEEE
goldendict:_ZN10IndexedZip8loadFileERKNSt7__cxx1112basic_stringIwSt11char_traitsIwESaIwEEERSt6vectorIcSaIcEE
goldendict:_ZN10IndexedZip8loadFileEjRSt6vectorIcSaIcEE
goldendict:_ZN10IndexedZip9indexFileERN13BtreeIndexing12IndexedWordsEPj
goldendict:_ZN10MainWindow10closeEventEP11QCloseEvent
goldendict:_ZN10MainWindow10commitDataER15QSessionManager
goldendict:_ZN10MainWindow10commitDataEv
goldendict:_ZN10MainWindow10getPrinterEv
goldendict:_ZN10MainWindow10hideGDHelpEv
goldendict:_ZN10MainWindow10pageLoadedEP11ArticleView
goldendict:_ZN10MainWindow10showGDHelpEv
goldendict:_ZN10MainWindow10visitForumEv
goldendict:_ZN10MainWindow10wheelEventEP11QWheelEvent
goldendict:_ZN10MainWindow11backClickedEv
goldendict:_ZN10MainWindow11closeGDHelpEv
goldendict:_ZN10MainWindow11eventFilterEP7QObjectP6QEvent
goldendict:_ZN10MainWindow11iconChangedEP11ArticleViewRK5QIcon
goldendict:_ZN10MainWindow11qt_metacallEN11QMetaObject4CallEiPPv
goldendict:_ZN10MainWindow11qt_metacastEPKc
goldendict:_ZN10MainWindow11tabSwitchedEi
goldendict:_ZN10MainWindow11typingEventERK7QString
goldendict:_ZN10MainWindow12closeAllTabsEv
goldendict:_ZN10MainWindow12createNewTabEbRK7QString
goldendict:_ZN10MainWindow12ctrlReleasedEv
goldendict:_ZN10MainWindow12setAutostartEb
goldendict:_ZN10MainWindow12titleChangedEP11ArticleViewRK7QString
goldendict:_ZN10MainWindow12wordReceivedERK7QString
goldendict:_ZN10MainWindow13closeRestTabsEv
goldendict:_ZN10MainWindow13createTabListEv
goldendict:_ZN10MainWindow13doWordsZoomInEv
goldendict:_ZN10MainWindow13focusWordListEv
goldendict:_ZN10MainWindow13forceX11FocusEv
goldendict:_ZN10MainWindow13makeScanPopupEv
goldendict:_ZN10MainWindow13setExpandModeEb
goldendict:_ZN10MainWindow13showDictsPaneEv
goldendict:_ZN10MainWindow13visitHomepageEv
goldendict:_ZN10MainWindow14ctrlTabPressedEv
goldendict:_ZN10MainWindow14doWordsZoomOutEv
goldendict:_ZN10MainWindow14editDictionaryEPN10Dictionary5ClassE
goldendict:_ZN10MainWindow14forwardClickedEv
goldendict:_ZN10MainWindow14getActiveDictsEv
goldendict:_ZN10MainWindow14installHotKeysEv
goldendict:_ZN10MainWindow14phraseReceivedERKN6Config11InputPhraseE
goldendict:_ZN10MainWindow14setGroupByNameERK7QStringb
goldendict:_ZN10MainWindow14showMainWindowEv
goldendict:_ZN10MainWindow14switchToWindowEP7QAction
goldendict:_ZN10MainWindow14updateTrayIconEv
goldendict:_ZN10MainWindow15addGlobalActionEP7QActionPKc
goldendict:_ZN10MainWindow15applyZoomFactorEv
goldendict:_ZN10MainWindow15clickOnDictPaneERK7QString
goldendict:_ZN10MainWindow15closeCurrentTabEv
goldendict:_ZN10MainWindow15doWordsZoomBaseEv
goldendict:_ZN10MainWindow15editPreferencesEv
goldendict:_ZN10MainWindow15fillWindowsMenuEv
goldendict:_ZN10MainWindow15hotKeyActivatedEi
goldendict:_ZN10MainWindow15mousePressEventEP11QMouseEvent
goldendict:_ZN10MainWindow15showGDHelpForIDERK7QString
goldendict:_ZN10MainWindow15showHistoryItemERK7QString
goldendict:_ZN10MainWindow15switchToNextTabEv
goldendict:_ZN10MainWindow15switchToPrevTabEv
goldendict:_ZN10MainWindow15toggleScanPopupEv
goldendict:_ZN10MainWindow15updateGroupListEv
goldendict:_ZN10MainWindow16addWordToHistoryERK7QString
goldendict:_ZN10MainWindow16applyWebSettingsEv
goldendict:_ZN10MainWindow16editCurrentGroupEv
goldendict:_ZN10MainWindow16editDictionariesEj
goldendict:_ZN10MainWindow16focusArticleViewEv
goldendict:_ZN10MainWindow16headwordReceivedERK7QStringS2_
goldendict:_ZN10MainWindow16jumpToDictionaryEP15QListWidgetItemb
goldendict:_ZN10MainWindow16makeDictionariesEv
goldendict:_ZN10MainWindow16openConfigFolderEv
goldendict:_ZN10MainWindow16openLinkInNewTabERK4QUrlS2_RK7QStringRK4QMapIS3_S3_E
goldendict:_ZN10MainWindow16staticMetaObjectE
goldendict:_ZN10MainWindow16tabMenuRequestedE6QPoint
goldendict:_ZN10MainWindow16toggleMainWindowEbb
goldendict:_ZN10MainWindow16updateStatusLineEv
goldendict:_ZN10MainWindow17applyQtStyleSheetERK7QStringS2_
goldendict:_ZN10MainWindow17scanEnableToggledEb
goldendict:_ZN10MainWindow17setupNetworkCacheEi
goldendict:_ZN10MainWindow17tabCloseRequestedEi
goldendict:_ZN10MainWindow17trayIconActivatedEN15QSystemTrayIcon16ActivationReasonE
goldendict:_ZN10MainWindow17unescapeTabHeaderERK7QString
goldendict:_ZN10MainWindow17updateHistoryMenuEv
goldendict:_ZN10MainWindow17updateWindowTitleEv
goldendict:_ZN10MainWindow18addWordToFavoritesERK7QStringj
goldendict:_ZN10MainWindow18applyProxySettingsEv
goldendict:_ZN10MainWindow18checkForNewReleaseEv
goldendict:_ZN10MainWindow18focusTranslateLineEv
goldendict:_ZN10MainWindow18on_print_triggeredEv
goldendict:_ZN10MainWindow18showDictionaryInfoERK7QString
goldendict:_ZN10MainWindow18showTranslationForERK7QString
goldendict:_ZN10MainWindow18showTranslationForERK7QStringRK11QStringListRK7QRegExpb
goldendict:_ZN10MainWindow18showTranslationForERKN6Config11InputPhraseEjRK7QString
goldendict:_ZN10MainWindow18tabFavoritesFolderEi
goldendict:_ZN10MainWindow19applyWordsZoomLevelEv
goldendict:_ZN10MainWindow19currentGroupChangedERK7QString
goldendict:_ZN10MainWindow19on_newTab_triggeredEv
goldendict:_ZN10MainWindow19proxyAuthenticationERK13QNetworkProxyP14QAuthenticator
goldendict:_ZN10MainWindow19sendWordToInputLineERK7QString
goldendict:_ZN10MainWindow19setPopupGroupByNameERK7QString
goldendict:_ZN10MainWindow19showFTSIndexingNameERK7QString
goldendict:_ZN10MainWindow19updateDictionaryBarEv
goldendict:_ZN10MainWindow19updateFavoritesMenuEv
goldendict:_ZN10MainWindow20activeArticleChangedEPK11ArticleViewRK7QString
goldendict:_ZN10MainWindow20closeHeadwordsDialogEv
goldendict:_ZN10MainWindow20dictionaryBarToggledEb
goldendict:_ZN10MainWindow20focusHeadwordsDialogEv
goldendict:_ZN10MainWindow20openDictionaryFolderERK7QString
goldendict:_ZN10MainWindow20showStatusBarMessageERK7QStringiRK7QPixmap
goldendict:_ZN10MainWindow20updateSuggestionListERK7QString
goldendict:_ZN10MainWindow20updateSuggestionListEv
goldendict:_ZN10MainWindow21addAllTabsToFavoritesEv
goldendict:_ZN10MainWindow21forceAddWordToHistoryERK7QString
goldendict:_ZN10MainWindow21foundDictsPaneClickedEP15QListWidgetItem
goldendict:_ZN10MainWindow21getCurrentArticleViewEv
goldendict:_ZN10MainWindow21headwordFromFavoritesERK7QStringS2_
goldendict:_ZN10MainWindow21storeResourceSavePathERK7QString
goldendict:_ZN10MainWindow21translateInputChangedERK7QString
goldendict:_ZN10MainWindow21wordListItemActivatedEP15QListWidgetItem
goldendict:_ZN10MainWindow22dictsListItemActivatedEP15QListWidgetItem
goldendict:_ZN10MainWindow22on_pageSetup_triggeredEv
goldendict:_ZN10MainWindow22setExpandOptionalPartsEb
goldendict:_ZN10MainWindow22showDefinitionInNewTabERK7QStringjS2_RK4QMapIS0_S0_E
goldendict:_ZN10MainWindow22toggleMenuBarTriggeredEb
goldendict:_ZN10MainWindow22translateInputFinishedEb
goldendict:_ZN10MainWindow22updateFoundInDictsListEv
goldendict:_ZN10MainWindow22updateSearchPaneAndBarEb
goldendict:_ZN10MainWindow23adjustCurrentZoomFactorEv
goldendict:_ZN10MainWindow23fillWordListFromHistoryEv
goldendict:_ZN10MainWindow23latestReleaseReplyReadyEv
goldendict:_ZN10MainWindow23prepareNewReleaseChecksEv
goldendict:_ZN10MainWindow23showDictionaryHeadwordsEP7QWidgetPN10Dictionary5ClassE
goldendict:_ZN10MainWindow23showDictionaryHeadwordsERK7QString
goldendict:_ZN10MainWindow24addCurrentTabToFavoritesEv
goldendict:_ZN10MainWindow24addGlobalActionsToDialogEP7QDialog
goldendict:_ZN10MainWindow24mutedDictionariesChangedEv
goldendict:_ZN10MainWindow24on_alwaysOnTop_triggeredEb
goldendict:_ZN10MainWindow24on_rescanFiles_triggeredEv
goldendict:_ZN10MainWindow24on_saveArticle_triggeredEv
goldendict:_ZN10MainWindow24showFullTextSearchDialogEv
goldendict:_ZN10MainWindow24updateBackForwardButtonsEv
goldendict:_ZN10MainWindow24wordListSelectionChangedEv
goldendict:_ZN10MainWindow25closeFullTextSearchDialogEv
goldendict:_ZN10MainWindow25dictsListSelectionChangedEv
goldendict:_ZN10MainWindow25on_clearHistory_triggeredEv
goldendict:_ZN10MainWindow25on_printPreview_triggeredEv
goldendict:_ZN10MainWindow25showDictBarNamesTriggeredEv
goldendict:_ZN10MainWindow26dictsPaneVisibilityChangedEb
goldendict:_ZN10MainWindow26handleAddToFavoritesButtonEv
goldendict:_ZN10MainWindow26isWordPresentedInFavoritesERK7QStringj
goldendict:_ZN10MainWindow26on_exportHistory_triggeredEv
goldendict:_ZN10MainWindow26on_importHistory_triggeredEv
goldendict:_ZN10MainWindow26printPreviewPaintRequestedEP8QPrinter
goldendict:_ZN10MainWindow26updateCurrentGroupPropertyEv
goldendict:_ZN10MainWindow27applyMutedDictionariesStateEv
goldendict:_ZN10MainWindow27respondToTranslationRequestERKN6Config11InputPhraseEbRK7QString
goldendict:_ZN10MainWindow27updatePronounceAvailabilityEv
goldendict:_ZN10MainWindow28on_exportFavorites_triggeredEv
goldendict:_ZN10MainWindow28on_importFavorites_triggeredEv
goldendict:_ZN10MainWindow28on_showHideHistory_triggeredEv
goldendict:_ZN10MainWindow29handleBackForwardMouseButtonsEP11QMouseEvent
goldendict:_ZN10MainWindow29switchExpandOptionalPartsModeEv
goldendict:_ZN10MainWindow30foundDictsContextMenuRequestedERK6QPoint
goldendict:_ZN10MainWindow30on_actionCloseToTray_triggeredEv
goldendict:_ZN10MainWindow30on_showHideFavorites_triggeredEv
goldendict:_ZN10MainWindow31addGroupComboBoxActionsToDialogEP7QDialogP13GroupComboBox
goldendict:_ZN10MainWindow32scaleArticlesByCurrentZoomFactorEv
goldendict:_ZN10MainWindow32setTranslateBoxTextAndKeepSuffixE7QStringNS_14WildcardPolicyENS_17TranslateBoxPopupE
goldendict:_ZN10MainWindow32useSmallIconsInToolbarsTriggeredEv
goldendict:_ZN10MainWindow33setTranslateBoxTextAndClearSuffixERK7QStringNS_14WildcardPolicyENS_17TranslateBoxPopupE
goldendict:_ZN10MainWindow34messageFromAnotherInstanceReceivedERK7QString
goldendict:_ZN10MainWindow34on_ExportFavoritesToList_triggeredEv
goldendict:_ZN10MainWindow36removeGroupComboBoxActionsFromDialogEP7QDialogP13GroupComboBox
goldendict:_ZN10MainWindow6unzoomEv
goldendict:_ZN10MainWindow6zoominEv
goldendict:_ZN10MainWindow7quitAppEv
goldendict:_ZN10MainWindow7zoomoutEv
goldendict:_ZN10MainWindow9addNewTabEv
goldendict:_ZN10MainWindow9handleEscEv
goldendict:_ZN10MainWindow9pronounceEP11ArticleView
goldendict:_ZN10MainWindow9showAboutEv
goldendict:_ZN10MainWindowC1ERN6Config5ClassE
goldendict:_ZN10MainWindowC2ERN6Config5ClassE
goldendict:_ZN10MainWindowD0Ev
goldendict:_ZN10MainWindowD1Ev
goldendict:_ZN10MainWindowD2Ev
goldendict:_ZN10PathsModel10addNewPathERK7QString
goldendict:_ZN10PathsModel10removePathEi
goldendict:_ZN10PathsModel11qt_metacallEN11QMetaObject4CallEiPPv
goldendict:_ZN10PathsModel11qt_metacastEPKc
goldendict:_ZN10PathsModel16staticMetaObjectE
goldendict:_ZN10PathsModel7setDataERK11QModelIndexRK8QVarianti
goldendict:_ZN10PathsModelC1EP7QWidgetRK7QVectorIN6Config4PathEE
goldendict:_ZN10PathsModelC2EP7QWidgetRK7QVectorIN6Config4PathEE
goldendict:_ZN10WordFinder11prefixMatchERK7QStringRKSt6vectorI4sptrIN10Dictionary5ClassEESaIS7_EEm6QFlagsINS5_7FeatureEE
goldendict:_ZN10WordFinder11qt_metacallEN11QMetaObject4CallEiPPv
goldendict:_ZN10WordFinder11qt_metacastEPKc
goldendict:_ZN10WordFinder11startSearchEv
goldendict:_ZN10WordFinder12stemmedMatchERK7QStringRKSt6vectorI4sptrIN10Dictionary5ClassEESaIS7_EEjjm6QFlagsINS5_7FeatureEE
goldendict:_ZN10WordFinder13updateResultsEv
goldendict:_ZN10WordFinder14cancelSearchesEv
goldendict:_ZN10WordFinder15expressionMatchERK7QStringRKSt6vectorI4sptrIN10Dictionary5ClassEESaIS7_EEm6QFlagsINS5_7FeatureEE
goldendict:_ZN10WordFinder15requestFinishedEv
goldendict:_ZN10WordFinder16staticMetaObjectE
goldendict:_ZN10WordFinder5clearEv
goldendict:_ZN10WordFinder6cancelEv
goldendict:_ZN10WordFinder7updatedEv
goldendict:_ZN10WordFinder8finishedEv
goldendict:_ZN10WordFinderC1EP7QObject
goldendict:_ZN10WordFinderC2EP7QObject
goldendict:_ZN10WordFinderD0Ev
goldendict:_ZN10WordFinderD1Ev
goldendict:_ZN10WordFinderD2Ev
goldendict:_ZN11ArticleView10copyAsTextEv
goldendict:_ZN11ArticleView10openSearchEv
goldendict:_ZN11ArticleView10pageLoadedEPS_
goldendict:_ZN11ArticleView11cleanupTempEv
goldendict:_ZN11ArticleView11closeSearchEv
goldendict:_ZN11ArticleView11eventFilterEP7QObjectP6QEvent
goldendict:_ZN11ArticleView11iconChangedEPS_RK5QIcon
goldendict:_ZN11ArticleView11linkClickedERK4QUrl
goldendict:_ZN11ArticleView11linkHoveredERK7QStringS2_S2_
goldendict:_ZN11ArticleView11qt_metacallEN11QMetaObject4CallEiPPv
goldendict:_ZN11ArticleView11qt_metacastEPKc
goldendict:_ZN11ArticleView11typingEventERK7QString
goldendict:_ZN11ArticleView12canGoForwardEv
goldendict:_ZN11ArticleView12loadFinishedEb
goldendict:_ZN11ArticleView12saveResourceERK4QUrlRK7QString
goldendict:_ZN11ArticleView12saveResourceERK4QUrlS2_RK7QString
goldendict:_ZN11ArticleView12titleChangedEPS_RK7QString
goldendict:_ZN11ArticleView13doubleClickedE6QPoint
goldendict:_ZN11ArticleView13setExpandModeEb
goldendict:_ZN11ArticleView13showDictsPaneEv
goldendict:_ZN11ArticleView14closePopupMenuEv
goldendict:_ZN11ArticleView14isExternalLinkERK4QUrl
goldendict:_ZN11ArticleView14isSearchOpenedEv
goldendict:_ZN11ArticleView14pasteTriggeredEv
goldendict:_ZN11ArticleView14showDefinitionERK7QStringRK11QStringListRK7QRegExpjb
goldendict:_ZN11ArticleView14showDefinitionERK7QStringjS2_RK4QMapIS0_S0_E
goldendict:_ZN11ArticleView14showDefinitionERKN6Config11InputPhraseEjRK7QStringRK4QMapIS4_S4_E
goldendict:_ZN11ArticleView15getArticlesListEv
goldendict:_ZN11ArticleView15isFramedArticleERK7QString
goldendict:_ZN11ArticleView16audioPlayerErrorERK7QString
goldendict:_ZN11ArticleView16getMutedForGroupEj
goldendict:_ZN11ArticleView16handleUrlChangedERK4QUrl
goldendict:_ZN11ArticleView16jumpToDictionaryERK7QStringb
goldendict:_ZN11ArticleView16moveOneArticleUpEv
goldendict:_ZN11ArticleView16openLinkInNewTabERK4QUrlS2_RK7QStringRK4QMapIS3_S3_E
goldendict:_ZN11ArticleView16reloadStyleSheetEv
goldendict:_ZN11ArticleView16setGroupComboBoxEPK13GroupComboBox
goldendict:_ZN11ArticleView16showAnticipationEv
goldendict:_ZN11ArticleView16staticMetaObjectE
goldendict:_ZN11ArticleView16statusBarMessageERK7QStringiRK7QPixmap
goldendict:_ZN11ArticleView17getCurrentArticleEv
goldendict:_ZN11ArticleView17sendWordToHistoryERK7QString
goldendict:_ZN11ArticleView17setCurrentArticleERK7QStringb
goldendict:_ZN11ArticleView18attachToJavaScriptEv
goldendict:_ZN11ArticleView18getActiveArticleIdEv
goldendict:_ZN11ArticleView18handleTitleChangedERK7QString
goldendict:_ZN11ArticleView18moveOneArticleDownEv
goldendict:_ZN11ArticleView19highlightFTSResultsEv
goldendict:_ZN11ArticleView19saveHistoryUserDataEv
goldendict:_ZN11ArticleView19sendWordToInputLineERK7QString
goldendict:_ZN11ArticleView19updateMutedContentsEv
goldendict:_ZN11ArticleView20activeArticleChangedEPKS_RK7QString
goldendict:_ZN11ArticleView20contextMenuRequestedERK6QPoint
goldendict:_ZN11ArticleView20performFindOperationEbbb
goldendict:_ZN11ArticleView20selectCurrentArticleEv
goldendict:_ZN11ArticleView21forceAddWordToHistoryERK7QString
goldendict:_ZN11ArticleView21on_searchNext_clickedEv
goldendict:_ZN11ArticleView21storeResourceSavePathERK7QString
goldendict:_ZN11ArticleView22showDefinitionInNewTabERK7QStringjS2_RK4QMapIS0_S0_E
goldendict:_ZN11ArticleView23performFtsFindOperationEb
goldendict:_ZN11ArticleView24onJsActiveArticleChangedERK7QString
goldendict:_ZN11ArticleView24on_ftsSearchNext_clickedEv
goldendict:_ZN11ArticleView24on_searchText_textEditedEv
goldendict:_ZN11ArticleView24resourceDownloadFinishedEv
goldendict:_ZN11ArticleView24scrollToFromDictionaryIdERK7QString
goldendict:_ZN11ArticleView25highlightAllFtsOccurencesE6QFlagsIN8QWebPage8FindFlagEE
goldendict:_ZN11ArticleView25on_searchPrevious_clickedEv
goldendict:_ZN11ArticleView25setSelectionBySingleClickEb
goldendict:_ZN11ArticleView25switchExpandOptionalPartsEv
goldendict:_ZN11ArticleView26receiveExpandOptionalPartsEb
goldendict:_ZN11ArticleView26tryMangleWebsiteClickedUrlER4QUrlR4QMapI7QStringS3_E
goldendict:_ZN11ArticleView27on_searchText_returnPressedEv
goldendict:_ZN11ArticleView28on_ftsSearchPrevious_clickedEv
goldendict:_ZN11ArticleView28on_searchCloseButton_clickedEv
goldendict:_ZN11ArticleView29on_highlightAllButton_clickedEv
goldendict:_ZN11ArticleView30on_searchCaseSensitive_clickedEv
goldendict:_ZN11ArticleView36updateCurrentArticleFromCurrentFrameEP9QWebFrame
goldendict:_ZN11ArticleView4backEv
goldendict:_ZN11ArticleView4loadERK4QUrl
goldendict:_ZN11ArticleView6reloadEv
goldendict:_ZN11ArticleView6toHtmlEv
goldendict:_ZN11ArticleView6zoomInEv
goldendict:_ZN11ArticleView7forwardEv
goldendict:_ZN11ArticleView7inspectEv
goldendict:_ZN11ArticleView7zoomOutEv
goldendict:_ZN11ArticleView8getGroupERK4QUrl
goldendict:_ZN11ArticleView8getTitleEv
goldendict:_ZN11ArticleView8handleF3EP7QObjectP6QEvent
goldendict:_ZN11ArticleView8hasSoundEv
goldendict:_ZN11ArticleView8openLinkERK4QUrlS2_RK7QStringRK4QMapIS3_S3_E
goldendict:_ZN11ArticleView9canGoBackEv
goldendict:_ZN11ArticleView9playSoundEv
goldendict:_ZN11ArticleView9showEventEP10QShowEvent
goldendict:_ZN11ArticleViewC1EP7QWidgetR27ArticleNetworkAccessManagerRK14QScopedPointerI20AudioPlayerInterface21QScopedPointerDeleterIS5_EERKSt6vectorI4sptrIN10Dictionary5ClassEESaISF_EERKN9Instances6GroupsEbRKN6Config5ClassER7QActionPSS_PK13GroupComboBox
goldendict:_ZN11ArticleViewC2EP7QWidgetR27ArticleNetworkAccessManagerRK14QScopedPointerI20AudioPlayerInterface21QScopedPointerDeleterIS5_EERKSt6vectorI4sptrIN10Dictionary5ClassEESaISF_EERKN9Instances6GroupsEbRKN6Config5ClassER7QActionPSS_PK13GroupComboBox
goldendict:_ZN11ArticleViewD0Ev
goldendict:_ZN11ArticleViewD1Ev
goldendict:_ZN11ArticleViewD2Ev
goldendict:_ZN11ExtLineEdit11iconClickedEv
goldendict:_ZN11ExtLineEdit11qt_metacallEN11QMetaObject4CallEiPPv
goldendict:_ZN11ExtLineEdit11qt_metacastEPKc
goldendict:_ZN11ExtLineEdit11resizeEventEP12QResizeEvent
goldendict:_ZN11ExtLineEdit13updateButtonsE7QString
goldendict:_ZN11ExtLineEdit13updateMarginsEv
goldendict:_ZN11ExtLineEdit15setButtonPixmapENS_4SideERK7QPixmap
goldendict:_ZN11ExtLineEdit16setButtonToolTipENS_4SideERK7QString
goldendict:_ZN11ExtLineEdit16setButtonVisibleENS_4SideEb
goldendict:_ZN11ExtLineEdit16staticMetaObjectE
goldendict:_ZN11ExtLineEdit17leftButtonClickedEv
goldendict:_ZN11ExtLineEdit17setButtonAutoHideENS_4SideEb
goldendict:_ZN11ExtLineEdit18rightButtonClickedEv
goldendict:_ZN11ExtLineEdit20setButtonFocusPolicyENS_4SideEN2Qt11FocusPolicyE
goldendict:_ZN11ExtLineEdit21updateButtonPositionsEv
goldendict:_ZN11ExtLineEditC1EP7QWidget
goldendict:_ZN11ExtLineEditC2EP7QWidget
goldendict:_ZN11ExtLineEditD0Ev
goldendict:_ZN11ExtLineEditD1Ev
goldendict:_ZN11ExtLineEditD2Ev
goldendict:_ZN11Preferences11qt_metacallEN11QMetaObject4CallEiPPv
goldendict:_ZN11Preferences11qt_metacastEPKc
goldendict:_ZN11Preferences13helpRequestedEv
goldendict:_ZN11Preferences14getPreferencesEv
goldendict:_ZN11Preferences14sideAltClickedEb
goldendict:_ZN11Preferences15sideCtrlClickedEb
goldendict:_ZN11Preferences15wholeAltClickedEb
goldendict:_ZN11Preferences16sideShiftClickedEb
goldendict:_ZN11Preferences16staticMetaObjectE
goldendict:_ZN11Preferences16wholeCtrlClickedEb
goldendict:_ZN11Preferences17wholeShiftClickedEb
goldendict:_ZN11Preferences18customProxyToggledEb
goldendict:_ZN11Preferences19showScanFlagToggledEb
goldendict:_ZN11Preferences21on_buttonBox_acceptedEv
goldendict:_ZN11Preferences22enableScanPopupToggledEb
goldendict:_ZN11Preferences28on_useExternalPlayer_toggledEb
goldendict:_ZN11Preferences30on_collapseBigArticles_toggledEb
goldendict:_ZN11Preferences31enableScanPopupModifiersToggledEb
goldendict:_ZN11Preferences32on_enableClipboardHotkey_toggledEb
goldendict:_ZN11Preferences33on_enableMainWindowHotkey_toggledEb
goldendict:_ZN11Preferences33on_limitInputPhraseLength_toggledEb
goldendict:_ZN11Preferences35on_maxNetworkCacheSize_valueChangedEi
goldendict:_ZN11Preferences51on_scanPopupUnpinnedWindowFlags_currentIndexChangedEi
goldendict:_ZN11Preferences9closeHelpEv
goldendict:_ZN11PreferencesC1EP7QWidgetRN6Config5ClassE
goldendict:_ZN11PreferencesC2EP7QWidgetRN6Config5ClassE
goldendict:_ZN11QtLocalPeer11qt_metacallEN11QMetaObject4CallEiPPv
goldendict:_ZN11QtLocalPeer11qt_metacastEPKc
goldendict:_ZN11QtLocalPeer11sendMessageERK7QStringi
goldendict:_ZN11QtLocalPeer15messageReceivedERK7QString
goldendict:_ZN11QtLocalPeer16staticMetaObjectE
goldendict:_ZN11QtLocalPeer17receiveConnectionEv
goldendict:_ZN11QtLocalPeer3ackE
goldendict:_ZN11QtLocalPeer8isClientEv
goldendict:_ZN11QtLocalPeerC1EP7QObjectRK7QString
goldendict:_ZN11QtLocalPeerC2EP7QObjectRK7QString
goldendict:_ZN12ArticleMaker11qt_metacallEN11QMetaObject4CallEiPPv
goldendict:_ZN12ArticleMaker11qt_metacastEPKc
goldendict:_ZN12ArticleMaker14adjustFilePathER7QString
goldendict:_ZN12ArticleMaker15setDisplayStyleERK7QStringS2_
goldendict:_ZN12ArticleMaker16makeNotFoundBodyB5cxx11ERK7QStringS2_
goldendict:_ZN12ArticleMaker16staticMetaObjectE
goldendict:_ZN12ArticleMaker21setCollapseParametersEbi
goldendict:_ZN12ArticleMaker22setExpandOptionalPartsEb
goldendict:_ZN12ArticleMakerC1ERKSt6vectorI4sptrIN10Dictionary5ClassEESaIS4_EERKS0_IN9Instances5GroupESaISA_EERK7QStringSH_
goldendict:_ZN12ArticleMakerC2ERKSt6vectorI4sptrIN10Dictionary5ClassEESaIS4_EERKS0_IN9Instances5GroupESaISA_EERK7QStringSH_
goldendict:_ZN12HistoryModel11qt_metacallEN11QMetaObject4CallEiPPv
goldendict:_ZN12HistoryModel11qt_metacastEPKc
goldendict:_ZN12HistoryModel14historyChangedEv
goldendict:_ZN12HistoryModel16staticMetaObjectE
goldendict:_ZN12HistoryModelC1EP7HistoryP7QObject
goldendict:_ZN12HistoryModelC2EP7HistoryP7QObject
goldendict:_ZN12HotkeyStructC1Ejjjii
goldendict:_ZN12HotkeyStructC2Ejjjii
goldendict:_ZN12Initializing10closeEventEP11QCloseEvent
goldendict:_ZN12Initializing11qt_metacallEN11QMetaObject4CallEiPPv
goldendict:_ZN12Initializing11qt_metacastEPKc
goldendict:_ZN12Initializing16staticMetaObjectE
goldendict:_ZN12Initializing6rejectEv
goldendict:_ZN12Initializing8indexingERK7QString
goldendict:_ZN12InitializingC1EP7QWidgetb
goldendict:_ZN12InitializingC2EP7QWidgetb
goldendict:_ZN12QtLP_Private12QtLockedFile4lockENS0_8LockModeEb
goldendict:_ZN12QtLP_Private12QtLockedFile4openE6QFlagsIN9QIODevice12OpenModeFlagEE
goldendict:_ZN12QtLP_Private12QtLockedFile6unlockEv
goldendict:_ZN12QtLP_Private12QtLockedFileC1ERK7QString
goldendict:_ZN12QtLP_Private12QtLockedFileC1Ev
goldendict:_ZN12QtLP_Private12QtLockedFileC2ERK7QString
goldendict:_ZN12QtLP_Private12QtLockedFileC2Ev
goldendict:_ZN12QtLP_Private12QtLockedFileD0Ev
goldendict:_ZN12QtLP_Private12QtLockedFileD1Ev
goldendict:_ZN12QtLP_Private12QtLockedFileD2Ev
goldendict:_ZN12TranslateBox10onTextEditEv
goldendict:_ZN12TranslateBox11eventFilterEP7QObjectP6QEvent
goldendict:_ZN12TranslateBox11qt_metacallEN11QMetaObject4CallEiPPv
goldendict:_ZN12TranslateBox11qt_metacastEPKc
goldendict:_ZN12TranslateBox13setSizePolicyE11QSizePolicy
goldendict:_ZN12TranslateBox13translateLineEv
goldendict:_ZN12TranslateBox15setPopupEnabledEb
goldendict:_ZN12TranslateBox16staticMetaObjectE
goldendict:_ZN12TranslateBox18rightButtonClickedEv
goldendict:_ZN12TranslateBox7setTextE7QStringb
goldendict:_ZN12TranslateBox8wordListEv
goldendict:_ZN12TranslateBox9showPopupEv
goldendict:_ZN12TranslateBoxC1EP7QWidget
goldendict:_ZN12TranslateBoxC2EP7QWidget
goldendict:_ZN12VoiceEngines16makeDictionariesERK7QVectorIN6Config11VoiceEngineEE
goldendict:_ZN12VoiceEngines22VoiceEnginesDictionary10getArticleERKNSt7__cxx1112basic_stringIwSt11char_traitsIwESaIwEEERKSt6vectorIS6_SaIS6_EES8_b
goldendict:_ZN12VoiceEngines22VoiceEnginesDictionary11prefixMatchERKNSt7__cxx1112basic_stringIwSt11char_traitsIwESaIwEEEm
goldendict:_ZN12VoiceEngines22VoiceEnginesDictionary8loadIconEv
goldendict:_ZN13BtreeIndexing10BtreeIndex12findArticlesERKNSt7__cxx1112basic_stringIwSt11char_traitsIwESaIwEEEb
goldendict:_ZN13BtreeIndexing10BtreeIndex15getAllHeadwordsER4QSetI7QStringE
goldendict:_ZN13BtreeIndexing10BtreeIndex16findArticleLinksEP7QVectorINS_15WordArticleLinkEEP4QSetIjEPS5_I7QStringEP10QAtomicInt
goldendict:_ZN13BtreeIndexing10BtreeIndex19findAllArticleLinksER7QVectorINS_15WordArticleLinkEE
goldendict:_ZN13BtreeIndexing10BtreeIndex23getHeadwordsFromOffsetsER5QListIjER7QVectorI7QStringEP10QAtomicInt
goldendict:_ZN13BtreeIndexing10BtreeIndex28findChainOffsetExactOrPrefixERKNSt7__cxx1112basic_stringIwSt11char_traitsIwESaIwEEERbRSt6vectorIcSaIcEERjRPKc
goldendict:_ZN13BtreeIndexing10BtreeIndex8readNodeEjRSt6vectorIcSaIcEE
goldendict:_ZN13BtreeIndexing10BtreeIndex9antialiasERKNSt7__cxx1112basic_stringIwSt11char_traitsIwESaIwEEERSt6vectorINS_15WordArticleLinkESaISA_EEb
goldendict:_ZN13BtreeIndexing10BtreeIndex9openIndexERKNS_9IndexInfoERN4File5ClassER5Mutex
goldendict:_ZN13BtreeIndexing10BtreeIndex9readChainERPKc
goldendict:_ZN13BtreeIndexing10BtreeIndexC1Ev
goldendict:_ZN13BtreeIndexing10BtreeIndexC2Ev
goldendict:_ZN13BtreeIndexing10buildIndexERKNS_12IndexedWordsERN4File5ClassE
goldendict:_ZN13BtreeIndexing12IndexedWords13addSingleWordERKNSt7__cxx1112basic_stringIwSt11char_traitsIwESaIwEEEj
goldendict:_ZN13BtreeIndexing12IndexedWords7addWordERKNSt7__cxx1112basic_stringIwSt11char_traitsIwESaIwEEEjj
goldendict:_ZN13BtreeIndexing15BtreeDictionary11prefixMatchERKNSt7__cxx1112basic_stringIwSt11char_traitsIwESaIwEEEm
goldendict:_ZN13BtreeIndexing15BtreeDictionary12getHeadwordsER11QStringList
goldendict:_ZN13BtreeIndexing15BtreeDictionary12stemmedMatchERKNSt7__cxx1112basic_stringIwSt11char_traitsIwESaIwEEEjjm
goldendict:_ZN13BtreeIndexing15BtreeDictionary14ensureInitDoneB5cxx11Ev
goldendict:_ZN13BtreeIndexing15BtreeDictionary14getArticleTextEjR7QStringS2_
goldendict:_ZN13BtreeIndexing15BtreeDictionaryC2ERKNSt7__cxx1112basic_stringIcSt11char_traitsIcESaIcEEERKSt6vectorIS6_SaIS6_EE
goldendict:_ZN13BtreeIndexing22BtreeWordSearchRequest11findMatchesEv
goldendict:_ZN13BtreeIndexing22BtreeWordSearchRequest3runEv
goldendict:_ZN13BtreeIndexing22BtreeWordSearchRequestC1ERNS_15BtreeDictionaryERKNSt7__cxx1112basic_stringIwSt11char_traitsIwESaIwEEEjibmb
goldendict:_ZN13BtreeIndexing22BtreeWordSearchRequestC2ERNS_15BtreeDictionaryERKNSt7__cxx1112basic_stringIwSt11char_traitsIwESaIwEEEjibmb
goldendict:_ZN13BtreeIndexing22BtreeWordSearchRequestD0Ev
goldendict:_ZN13BtreeIndexing22BtreeWordSearchRequestD1Ev
goldendict:_ZN13BtreeIndexing22BtreeWordSearchRequestD2Ev
goldendict:_ZN13BtreeIndexing23BtreeWordSearchRunnable3runEv
goldendict:_ZN13DictHeadwords11closeDialogEv
goldendict:_ZN13DictHeadwords11eventFilterEP7QObjectP6QEvent
goldendict:_ZN13DictHeadwords11itemClickedERK11QModelIndex
goldendict:_ZN13DictHeadwords11qt_metacallEN11QMetaObject4CallEiPPv
goldendict:_ZN13DictHeadwords11qt_metacastEPKc
goldendict:_ZN13DictHeadwords13filterChangedEv
goldendict:_ZN13DictHeadwords13helpRequestedEv
goldendict:_ZN13DictHeadwords15okButtonClickedEv
goldendict:_ZN13DictHeadwords16headwordSelectedERK7QStringS2_
goldendict:_ZN13DictHeadwords16staticMetaObjectE
goldendict:_ZN13DictHeadwords17saveHeadersToFileEv
goldendict:_ZN13DictHeadwords19exportButtonClickedEv
goldendict:_ZN13DictHeadwords19showHeadwordsNumberEv
goldendict:_ZN13DictHeadwords21autoApplyStateChangedEi
goldendict:_ZN13DictHeadwords21filterChangedInternalEv
goldendict:_ZN13DictHeadwords5setupEPN10Dictionary5ClassE
goldendict:_ZN13DictHeadwords6rejectEv
goldendict:_ZN13DictHeadwords7savePosEv
goldendict:_ZN13DictHeadwordsC1EP7QWidgetRN6Config5ClassEPN10Dictionary5ClassE
goldendict:_ZN13DictHeadwordsC2EP7QWidgetRN6Config5ClassEPN10Dictionary5ClassE
goldendict:_ZN13DictHeadwordsD0Ev
goldendict:_ZN13DictHeadwordsD1Ev
goldendict:_ZN13DictHeadwordsD2Ev
goldendict:_ZN13DictListModel10insertRowsEiiRK11QModelIndex
goldendict:_ZN13DictListModel10removeRowsEiiRK11QModelIndex
goldendict:_ZN13DictListModel11qt_metacallEN11QMetaObject4CallEiPPv
goldendict:_ZN13DictListModel11qt_metacastEPKc
goldendict:_ZN13DictListModel11setAsSourceEv
goldendict:_ZN13DictListModel14contentChangedEv
goldendict:_ZN13DictListModel16filterDuplicatesEv
goldendict:_ZN13DictListModel16staticMetaObjectE
goldendict:_ZN13DictListModel18removeSelectedRowsEP19QItemSelectionModel
goldendict:_ZN13DictListModel26addSelectedUniqueFromModelEP19QItemSelectionModel
goldendict:_ZN13DictListModel6addRowERK11QModelIndex4sptrIN10Dictionary5ClassEE
goldendict:_ZN13DictListModel7setDataERK11QModelIndexRK8QVarianti
goldendict:_ZN13DictListModel8populateERKSt6vectorI4sptrIN10Dictionary5ClassEESaIS4_EE
goldendict:_ZN13DictListModel8populateERKSt6vectorI4sptrIN10Dictionary5ClassEESaIS4_EES8_
goldendict:_ZN13DictionaryBar11eventFilterEP7QObjectP6QEvent
goldendict:_ZN13DictionaryBar11qt_metacallEN11QMetaObject4CallEiPPv
goldendict:_ZN13DictionaryBar11qt_metacastEPKc
goldendict:_ZN13DictionaryBar14closePopupMenuEv
goldendict:_ZN13DictionaryBar15setDictionariesERKSt6vectorI4sptrIN10Dictionary5ClassEESaIS4_EE
goldendict:_ZN13DictionaryBar15showContextMenuEP17QContextMenuEventb
goldendict:_ZN13DictionaryBar16contextMenuEventEP17QContextMenuEvent
goldendict:_ZN13DictionaryBar16dictsPaneClickedERK7QString
goldendict:_ZN13DictionaryBar16staticMetaObjectE
goldendict:_ZN13DictionaryBar18actionWasTriggeredEP7QAction
goldendict:_ZN13DictionaryBar18editGroupRequestedEv
goldendict:_ZN13DictionaryBar18showDictionaryInfoERK7QString
goldendict:_ZN13DictionaryBar20openDictionaryFolderERK7QString
goldendict:_ZN13DictionaryBar21setDictionaryIconSizeEi
goldendict:_ZN13DictionaryBar23showDictionaryHeadwordsERK7QString
goldendict:_ZN13DictionaryBar24mutedDictionariesChangedEv
goldendict:_ZN13DictionaryBarC1EP7QWidgetRN6Config6EventsERK7QStringRKt
goldendict:_ZN13DictionaryBarC2EP7QWidgetRN6Config6EventsERK7QStringRKt
goldendict:_ZN13GDCommandLine16handleUriSchemesEv
goldendict:_ZN13GDCommandLineC1EiPPc
goldendict:_ZN13GDCommandLineC2EiPPc
goldendict:_ZN13GreekTranslit10GreekTableC1Ev
goldendict:_ZN13GreekTranslit10GreekTableC2Ev
goldendict:_ZN13GreekTranslit14makeDictionaryEv
goldendict:_ZN13GroupComboBox11popupGroupsEv
goldendict:_ZN13GroupComboBox11qt_metacallEN11QMetaObject4CallEiPPv
goldendict:_ZN13GroupComboBox11qt_metacastEPKc
goldendict:_ZN13GroupComboBox15selectNextGroupEv
goldendict:_ZN13GroupComboBox15setCurrentGroupEj
goldendict:_ZN13GroupComboBox16getExternActionsEv
goldendict:_ZN13GroupComboBox16staticMetaObjectE
goldendict:_ZN13GroupComboBox19selectPreviousGroupEv
goldendict:_ZN13GroupComboBox4fillERKN9Instances6GroupsE
goldendict:_ZN13GroupComboBox5eventEP6QEvent
goldendict:_ZN13GroupComboBoxC1EP7QWidget
goldendict:_ZN13GroupComboBoxC2EP7QWidget
goldendict:_ZN13HotkeyWrapper10checkStateEjj
goldendict:_ZN13HotkeyWrapper10unregisterEv
goldendict:_ZN13HotkeyWrapper11keyRecordedEjj
goldendict:_ZN13HotkeyWrapper11qt_metacallEN11QMetaObject4CallEiPPv
goldendict:_ZN13HotkeyWrapper11qt_metacastEPKc
goldendict:_ZN13HotkeyWrapper12setGlobalKeyEii6QFlagsIN2Qt16KeyboardModifierEEi
goldendict:_ZN13HotkeyWrapper15hotkeyActivatedEi
goldendict:_ZN13HotkeyWrapper16staticMetaObjectE
goldendict:_ZN13HotkeyWrapper17handleRecordEventEP20XRecordInterceptData
goldendict:_ZN13HotkeyWrapper19recordEventCallbackEPcP20XRecordInterceptData
goldendict:_ZN13HotkeyWrapper3runEv
goldendict:_ZN13HotkeyWrapper4initEv
goldendict:_ZN13HotkeyWrapper7grabKeyEjj
goldendict:_ZN13HotkeyWrapper8waitKey2Ev
goldendict:_ZN13HotkeyWrapper9nativeKeyEi
goldendict:_ZN13HotkeyWrapper9ungrabKeyESt23_Rb_tree_const_iteratorISt4pairIjjEE
goldendict:_ZN13HotkeyWrapperC1EP7QObject
goldendict:_ZN13HotkeyWrapperC2EP7QObject
goldendict:_ZN13HotkeyWrapperD0Ev
goldendict:_ZN13HotkeyWrapperD1Ev
goldendict:_ZN13HotkeyWrapperD2Ev
goldendict:_ZN13KeyboardState21checkModifiersPressedEi
goldendict:_ZN13MainStatusBar11eventFilterEP7QObjectP6QEvent
goldendict:_ZN13MainStatusBar11qt_metacallEN11QMetaObject4CallEiPPv
goldendict:_ZN13MainStatusBar11qt_metacastEPKc
goldendict:_ZN13MainStatusBar11showMessageERK7QStringiRK7QPixmap
goldendict:_ZN13MainStatusBar12clearMessageEv
goldendict:_ZN13MainStatusBar15mousePressEventEP11QMouseEvent
goldendict:_ZN13MainStatusBar16staticMetaObjectE
goldendict:_ZN13MainStatusBar20setBackgroundMessageERK7QString
goldendict:_ZN13MainStatusBar7refreshEv
goldendict:_ZN13MainStatusBarC1EP7QWidget
goldendict:_ZN13MainStatusBarC2EP7QWidget
goldendict:_ZN13MainTabWidget10tabRemovedEi
goldendict:_ZN13MainTabWidget11eventFilterEP7QObjectP6QEvent
goldendict:_ZN13MainTabWidget11qt_metacallEN11QMetaObject4CallEiPPv
goldendict:_ZN13MainTabWidget11qt_metacastEPKc
goldendict:_ZN13MainTabWidget11tabInsertedEi
goldendict:_ZN13MainTabWidget13doubleClickedEv
goldendict:_ZN13MainTabWidget16setHideSingleTabEb
goldendict:_ZN13MainTabWidget16staticMetaObjectE
goldendict:_ZN13MainTabWidget22updateTabBarVisibilityEv
goldendict:_ZN13MainTabWidgetC1EP7QWidget
goldendict:_ZN13MainTabWidgetC2EP7QWidget
goldendict:_ZN13OrderAndProps11qt_metacallEN11QMetaObject4CallEiPPv
goldendict:_ZN13OrderAndProps11qt_metacastEPKc
goldendict:_ZN13OrderAndProps13filterChangedERK7QString
goldendict:_ZN13OrderAndProps15dictListFocusedEv
goldendict:_ZN13OrderAndProps15showDictNumbersEv
goldendict:_ZN13OrderAndProps16staticMetaObjectE
goldendict:_ZN13OrderAndProps18describeDictionaryEP14DictListWidgetRK11QModelIndex
goldendict:_ZN13OrderAndProps20contextMenuRequestedERK6QPoint
goldendict:_ZN13OrderAndProps23inactiveDictListFocusedEv
goldendict:_ZN13OrderAndProps23showDictionaryHeadwordsERK7QString
goldendict:_ZN13OrderAndProps26dictionarySelectionChangedERK14QItemSelection
goldendict:_ZN13OrderAndProps28disableDictionaryDescriptionEv
goldendict:_ZN13OrderAndProps34inactiveDictionarySelectionChangedERK14QItemSelection
goldendict:_ZN13OrderAndPropsC1EP7QWidgetRKN6Config5GroupES5_RKSt6vectorI4sptrIN10Dictionary5ClassEESaISA_EE
goldendict:_ZN13OrderAndPropsC2EP7QWidgetRKN6Config5GroupES5_RKSt6vectorI4sptrIN10Dictionary5ClassEESaISA_EE
goldendict:_ZN13ProgramsModel11qt_metacallEN11QMetaObject4CallEiPPv
goldendict:_ZN13ProgramsModel11qt_metacastEPKc
goldendict:_ZN13ProgramsModel13addNewProgramEv
goldendict:_ZN13ProgramsModel13removeProgramEi
goldendict:_ZN13ProgramsModel16staticMetaObjectE
goldendict:_ZN13ProgramsModel7setDataERK11QModelIndexRK8QVarianti
goldendict:_ZN13ProgramsModelC1EP7QWidgetRK7QVectorIN6Config7ProgramEE
goldendict:_ZN13ProgramsModelC2EP7QWidgetRK7QVectorIN6Config7ProgramEE
goldendict:_ZN13WebSitesModel10addNewSiteEv
goldendict:_ZN13WebSitesModel10removeSiteEi
goldendict:_ZN13WebSitesModel11qt_metacallEN11QMetaObject4CallEiPPv
goldendict:_ZN13WebSitesModel11qt_metacastEPKc
goldendict:_ZN13WebSitesModel16staticMetaObjectE
goldendict:_ZN13WebSitesModel7setDataERK11QModelIndexRK8QVarianti
goldendict:_ZN13WebSitesModelC1EP7QWidgetRK7QVectorIN6Config7WebSiteEE
goldendict:_ZN13WebSitesModelC2EP7QWidgetRK7QVectorIN6Config7WebSiteEE
goldendict:_ZN14ArticleRequest11qt_metacallEN11QMetaObject4CallEiPPv
goldendict:_ZN14ArticleRequest11qt_metacastEPKc
goldendict:_ZN14ArticleRequest12appendToDataERKNSt7__cxx1112basic_stringIcSt11char_traitsIcESaIcEEE
goldendict:_ZN14ArticleRequest12bodyFinishedEv
goldendict:_ZN14ArticleRequest13escapeSpacingB5cxx11ERK7QString
goldendict:_ZN14ArticleRequest14splitIntoWordsERK7QString
goldendict:_ZN14ArticleRequest16staticMetaObjectE
goldendict:_ZN14ArticleRequest17altSearchFinishedEv
goldendict:_ZN14ArticleRequest17findEndOfCloseDivERK7QStringi
goldendict:_ZN14ArticleRequest21stemmedSearchFinishedEv
goldendict:_ZN14ArticleRequest22compoundSearchNextStepEb
goldendict:_ZN14ArticleRequest22individualWordFinishedEv
goldendict:_ZN14ArticleRequest24makeSplittedWordCompoundEv
goldendict:_ZN14ArticleRequest6cancelEv
goldendict:_ZN14ArticleRequest8linkWordB5cxx11ERK7QString
goldendict:_ZN14ArticleRequestC1ERKN6Config11InputPhraseERK7QStringRK4QMapIS4_S4_ERKSt6vectorI4sptrIN10Dictionary5ClassEESaISF_EERKNSt7__cxx1112basic_stringIcSt11char_traitsIcESaIcEEEibb
goldendict:_ZN14ArticleRequestC2ERKN6Config11InputPhraseERK7QStringRK4QMapIS4_S4_ERKSt6vectorI4sptrIN10Dictionary5ClassEESaISF_EERKNSt7__cxx1112basic_stringIcSt11char_traitsIcESaIcEEEibb
goldendict:_ZN14ArticleWebView10wheelEventEP11QWheelEvent
goldendict:_ZN14ArticleWebView11qt_metacallEN11QMetaObject4CallEiPPv
goldendict:_ZN14ArticleWebView11qt_metacastEPKc
goldendict:_ZN14ArticleWebView12focusInEventEP11QFocusEvent
goldendict:_ZN14ArticleWebView13doubleClickedE6QPoint
goldendict:_ZN14ArticleWebView15mousePressEventEP11QMouseEvent
goldendict:_ZN14ArticleWebView16staticMetaObjectE
goldendict:_ZN14ArticleWebView17mouseReleaseEventEP11QMouseEvent
goldendict:_ZN14ArticleWebView17triggerPageActionEN8QWebPage9WebActionEb
goldendict:_ZN14ArticleWebView21mouseDoubleClickEventEP11QMouseEvent
goldendict:_ZN14ArticleWebView5eventEP6QEvent
goldendict:_ZN14ArticleWebView5setUpEPN6Config5ClassE
goldendict:_ZN14ArticleWebViewC1EP7QWidget
goldendict:_ZN14ArticleWebViewC2EP7QWidget
goldendict:_ZN14ArticleWebViewD0Ev
goldendict:_ZN14ArticleWebViewD1Ev
goldendict:_ZN14ArticleWebViewD2Ev
goldendict:_ZN14ChunkedStorage6Reader8getBlockEjRSt6vectorIcSaIcEE
goldendict:_ZN14ChunkedStorage6ReaderC1ERN4File5ClassEj
goldendict:_ZN14ChunkedStorage6ReaderC2ERN4File5ClassEj
goldendict:_ZN14ChunkedStorage6Writer10addToBlockEPKvm
goldendict:_ZN14ChunkedStorage6Writer13startNewBlockEv
goldendict:_ZN14ChunkedStorage6Writer16saveCurrentChunkEv
goldendict:_ZN14ChunkedStorage6Writer6finishEv
goldendict:_ZN14ChunkedStorage6WriterC1ERN4File5ClassE
goldendict:_ZN14ChunkedStorage6WriterC2ERN4File5ClassE
goldendict:_ZN14CompletionList11eventFilterEP7QObjectP6QEvent
goldendict:_ZN14CompletionList11qt_metacallEN11QMetaObject4CallEiPPv
goldendict:_ZN14CompletionList11qt_metacastEPKc
goldendict:_ZN14CompletionList16staticMetaObjectE
goldendict:_ZN14CompletionList18acceptCurrentEntryEv
goldendict:_ZN14CompletionListC1EP12TranslateBox
goldendict:_ZN14CompletionListC2EP12TranslateBox
goldendict:_ZN14DictListWidget11qt_metacallEN11QMetaObject4CallEiPPv
goldendict:_ZN14DictListWidget11qt_metacastEPKc
goldendict:_ZN14DictListWidget11setAsSourceEv
goldendict:_ZN14DictListWidget12focusInEventEP11QFocusEvent
goldendict:_ZN14DictListWidget12rowsInsertedERK11QModelIndexii
goldendict:_ZN14DictListWidget16staticMetaObjectE
goldendict:_ZN14DictListWidget20rowsAboutToBeRemovedERK11QModelIndexii
goldendict:_ZN14DictListWidget8gotFocusEv
goldendict:_ZN14DictListWidget8populateERKSt6vectorI4sptrIN10Dictionary5ClassEESaIS4_EE
goldendict:_ZN14DictListWidget8populateERKSt6vectorI4sptrIN10Dictionary5ClassEESaIS4_EES8_
goldendict:_ZN14DictListWidget9dropEventEP10QDropEvent
goldendict:_ZN14DictListWidgetC1EP7QWidget
goldendict:_ZN14DictListWidgetC2EP7QWidget
goldendict:_ZN14DictListWidgetD0Ev
goldendict:_ZN14DictListWidgetD1Ev
goldendict:_ZN14DictListWidgetD2Ev
goldendict:_ZN14ExternalViewer11qt_metacallEN11QMetaObject4CallEiPPv
goldendict:_ZN14ExternalViewer11qt_metacastEPKc
goldendict:_ZN14ExternalViewer16staticMetaObjectE
goldendict:_ZN14ExternalViewer17stopSynchronouslyEv
goldendict:_ZN14ExternalViewer4stopEv
goldendict:_ZN14ExternalViewer5startEv
goldendict:_ZN14ExternalViewerC1EPKciRK7QStringS4_P7QObject
goldendict:_ZN14ExternalViewerC2EPKciRK7QStringS4_P7QObject
goldendict:_ZN14FavoritesModel10expandItemERK11QModelIndex
goldendict:_ZN14FavoritesModel10pathToItemERK11QModelIndex
goldendict:_ZN14FavoritesModel10removeRowsEiiRK11QModelIndex
goldendict:_ZN14FavoritesModel11addHeadwordERK7QStringRK11QModelIndex
goldendict:_ZN14FavoritesModel11forceFolderERK7QStringRK11QModelIndex
goldendict:_ZN14FavoritesModel11qt_metacallEN11QMetaObject4CallEiPPv
goldendict:_ZN14FavoritesModel11qt_metacastEPKc
goldendict:_ZN14FavoritesModel11storeFolderEP8TreeItemR8QDomNode
goldendict:_ZN14FavoritesModel12addNewFolderERK11QModelIndex
goldendict:_ZN14FavoritesModel12dropMimeDataEPK9QMimeDataN2Qt10DropActionEiiRK11QModelIndex
goldendict:_ZN14FavoritesModel12getDataInXmlER10QByteArray
goldendict:_ZN14FavoritesModel12itemExpandedERK11QModelIndex
goldendict:_ZN14FavoritesModel13itemCollapsedERK11QModelIndex
goldendict:_ZN14FavoritesModel14addNewHeadwordERK7QStringS2_
goldendict:_ZN14FavoritesModel14removeHeadwordERK7QStringS2_
goldendict:_ZN14FavoritesModel14setDataFromXmlERK7QString
goldendict:_ZN14FavoritesModel16findItemInFolderERK7QStringiRK11QModelIndex
goldendict:_ZN14FavoritesModel16staticMetaObjectE
goldendict:_ZN14FavoritesModel17isHeadwordPresentERK7QStringS2_
goldendict:_ZN14FavoritesModel18checkNodeForExpandEPK8TreeItemRK11QModelIndex
goldendict:_ZN14FavoritesModel18getDataInPlainTextER7QString
goldendict:_ZN14FavoritesModel21removeItemsForIndexesERK5QListI11QModelIndexE
goldendict:_ZN14FavoritesModel22checkAllNodesForExpandEv
goldendict:_ZN14FavoritesModel5levelERK11QModelIndex
goldendict:_ZN14FavoritesModel7setDataERK11QModelIndexRK8QVarianti
goldendict:_ZN14FavoritesModel8readDataEv
goldendict:_ZN14FavoritesModel8saveDataEv
goldendict:_ZN14FavoritesModel9addFolderEP8TreeItemR8QDomNode
goldendict:_ZN14FavoritesModelC1E7QStringP7QObject
goldendict:_ZN14FavoritesModelC2E7QStringP7QObject
goldendict:_ZN14FavoritesModelD0Ev
goldendict:_ZN14FavoritesModelD1Ev
goldendict:_ZN14FavoritesModelD2Ev
goldendict:_ZN14GermanTranslit11GermanTableC1Ev
goldendict:_ZN14GermanTranslit11GermanTableC2Ev
goldendict:_ZN14GermanTranslit14makeDictionaryEv
goldendict:_ZN14HunspellMorpho13findDataFilesERK7QString
goldendict:_ZN14HunspellMorpho16makeDictionariesERKN6Config8HunspellE
goldendict:_ZN14ProcessWrapper11findProcessEPKcj
goldendict:_ZN14ProcessWrapper13processExistsEj
goldendict:_ZN14ProcessWrapper16currentProcessIdEv
goldendict:_ZN14ProcessWrapperC1Ev
goldendict:_ZN14ProcessWrapperC2Ev
goldendict:_ZN14SoundDirsModel11qt_metacallEN11QMetaObject4CallEiPPv
goldendict:_ZN14SoundDirsModel11qt_metacastEPKc
goldendict:_ZN14SoundDirsModel14addNewSoundDirERK7QStringS2_
goldendict:_ZN14SoundDirsModel14removeSoundDirEi
goldendict:_ZN14SoundDirsModel16staticMetaObjectE
goldendict:_ZN14SoundDirsModel7setDataERK11QModelIndexRK8QVarianti
goldendict:_ZN14SoundDirsModelC1EP7QWidgetRK7QVectorIN6Config8SoundDirEE
goldendict:_ZN14SoundDirsModelC2EP7QWidgetRK7QVectorIN6Config8SoundDirEE
goldendict:_ZN14StylesComboBox11qt_metacallEN11QMetaObject4CallEiPPv
goldendict:_ZN14StylesComboBox11qt_metacastEPKc
goldendict:_ZN14StylesComboBox15setCurrentStyleERK7QString
goldendict:_ZN14StylesComboBox16staticMetaObjectE
goldendict:_ZN14StylesComboBox4fillEv
goldendict:_ZN14StylesComboBoxC1EP7QWidget
goldendict:_ZN14StylesComboBoxC2EP7QWidget
goldendict:_ZN15AllowFrameReply10applyErrorEN13QNetworkReply12NetworkErrorE
goldendict:_ZN15AllowFrameReply11qt_metacallEN11QMetaObject4CallEiPPv
goldendict:_ZN15AllowFrameReply11qt_metacastEPKc
goldendict:_ZN15AllowFrameReply13applyMetaDataEv
goldendict:_ZN15AllowFrameReply16readDataFromBaseEv
goldendict:_ZN15AllowFrameReply16staticMetaObjectE
goldendict:_ZN15AllowFrameReply17setReadBufferSizeEx
goldendict:_ZN15AllowFrameReply8readDataEPcx
goldendict:_ZN15AllowFrameReplyC1EP13QNetworkReply
goldendict:_ZN15AllowFrameReplyC2EP13QNetworkReply
goldendict:_ZN15DictGroupWidget11qt_metacallEN11QMetaObject4CallEiPPv
goldendict:_ZN15DictGroupWidget11qt_metacastEPKc
goldendict:_ZN15DictGroupWidget12showDictInfoERK6QPoint
goldendict:_ZN15DictGroupWidget16staticMetaObjectE
goldendict:_ZN15DictGroupWidget17removeCurrentItemERK11QModelIndex
goldendict:_ZN15DictGroupWidget18groupIconActivatedEi
goldendict:_ZN15DictGroupWidget18showDictionaryInfoERK7QString
goldendict:_ZN15DictGroupWidgetC1EP7QWidgetRKSt6vectorI4sptrIN10Dictionary5ClassEESaIS6_EERKN6Config5GroupE
goldendict:_ZN15DictGroupWidgetC2EP7QWidgetRKSt6vectorI4sptrIN10Dictionary5ClassEESaIS6_EERKN6Config5GroupE
goldendict:_ZN15DictsPaneWidget11qt_metacallEN11QMetaObject4CallEiPPv
goldendict:_ZN15DictsPaneWidget11qt_metacastEPKc
goldendict:_ZN15DictsPaneWidget16staticMetaObjectE
goldendict:_ZN15MediaWikisModel10addNewWikiEv
goldendict:_ZN15MediaWikisModel10removeWikiEi
goldendict:_ZN15MediaWikisModel11qt_metacallEN11QMetaObject4CallEiPPv
goldendict:_ZN15MediaWikisModel11qt_metacastEPKc
goldendict:_ZN15MediaWikisModel16staticMetaObjectE
goldendict:_ZN15MediaWikisModel7setDataERK11QModelIndexRK8QVarianti
goldendict:_ZN15MediaWikisModelC1EP7QWidgetRK7QVectorIN6Config9MediaWikiEE
goldendict:_ZN15MediaWikisModelC2EP7QWidgetRK7QVectorIN6Config9MediaWikiEE
goldendict:_ZN15QuickFilterLine11mapToSourceERK11QModelIndex
goldendict:_ZN15QuickFilterLine11qt_metacallEN11QMetaObject4CallEiPPv
goldendict:_ZN15QuickFilterLine11qt_metacastEPKc
goldendict:_ZN15QuickFilterLine13filterChangedERK7QString
goldendict:_ZN15QuickFilterLine13keyPressEventEP9QKeyEvent
goldendict:_ZN15QuickFilterLine15focusFilterLineEv
goldendict:_ZN15QuickFilterLine16staticMetaObjectE
goldendict:_ZN15QuickFilterLine17emitFilterChangedEv
goldendict:_ZN15QuickFilterLine21filterChangedInternalEv
goldendict:_ZN15QuickFilterLine7applyToEP17QAbstractItemView
goldendict:_ZN15QuickFilterLineC1EP7QWidget
goldendict:_ZN15QuickFilterLineC2EP7QWidget
goldendict:_ZN15QuickFilterLineD0Ev
goldendict:_ZN15QuickFilterLineD1Ev
goldendict:_ZN15QuickFilterLineD2Ev
goldendict:_ZN15RussianTranslit12RussianTableC1Ev
goldendict:_ZN15RussianTranslit12RussianTableC2Ev
goldendict:_ZN15RussianTranslit14makeDictionaryEv
goldendict:_ZN15Transliteration25TransliterationDictionary20getAlternateWritingsERKNSt7__cxx1112basic_stringIwSt11char_traitsIwESaIwEEE
goldendict:_ZN15Transliteration25TransliterationDictionaryC1ERKNSt7__cxx1112basic_stringIcSt11char_traitsIcESaIcEEES8_5QIconRKNS_5TableEb
goldendict:_ZN15Transliteration25TransliterationDictionaryC2ERKNSt7__cxx1112basic_stringIcSt11char_traitsIcESaIcEEES8_5QIconRKNS_5TableEb
goldendict:_ZN15Transliteration29BaseTransliterationDictionary10getArticleERKNSt7__cxx1112basic_stringIwSt11char_traitsIwESaIwEEERKSt6vectorIS6_SaIS6_EES8_b
goldendict:_ZN15Transliteration29BaseTransliterationDictionary11prefixMatchERKNSt7__cxx1112basic_stringIwSt11char_traitsIwESaIwEEEm
goldendict:_ZN15Transliteration29BaseTransliterationDictionary12getWordCountEv
goldendict:_ZN15Transliteration29BaseTransliterationDictionary13getPropertiesB5cxx11Ev
goldendict:_ZN15Transliteration29BaseTransliterationDictionary15getArticleCountEv
goldendict:_ZN15Transliteration29BaseTransliterationDictionary23findHeadwordsForSynonymERKNSt7__cxx1112basic_stringIwSt11char_traitsIwESaIwEEE
goldendict:_ZN15Transliteration29BaseTransliterationDictionary7getNameB5cxx11Ev
goldendict:_ZN15Transliteration29BaseTransliterationDictionaryC2ERKNSt7__cxx1112basic_stringIcSt11char_traitsIcESaIcEEES8_5QIconb
goldendict:_ZN15Transliteration5Table3insEPKcS2_
goldendict:_ZN16ArticleInspector11qt_metacallEN11QMetaObject4CallEiPPv
goldendict:_ZN16ArticleInspector11qt_metacastEPKc
goldendict:_ZN16ArticleInspector12beforeClosedEv
goldendict:_ZN16ArticleInspector16openedInspectorsB5cxx11E
goldendict:_ZN16ArticleInspector16staticMetaObjectE
goldendict:_ZN16ArticleInspector9showEventEP10QShowEvent
goldendict:_ZN16ArticleInspectorC1EPN6Config5ClassEP7QWidget
goldendict:_ZN16ArticleInspectorC2EPN6Config5ClassEP7QWidget
goldendict:_ZN16ArticleInspectorD0Ev
goldendict:_ZN16ArticleInspectorD1Ev
goldendict:_ZN16ArticleInspectorD2Ev
goldendict:_ZN16DictGroupsWidget11addNewGroupERK7QString
goldendict:_ZN16DictGroupsWidget11contextMenuERK6QPoint
goldendict:_ZN16DictGroupsWidget11qt_metacallEN11QMetaObject4CallEiPPv
goldendict:_ZN16DictGroupsWidget11qt_metacastEPKc
goldendict:_ZN16DictGroupsWidget13addAutoGroupsEv
goldendict:_ZN16DictGroupsWidget13combineGroupsEii
goldendict:_ZN16DictGroupsWidget14addUniqueGroupERK7QString
goldendict:_ZN16DictGroupsWidget14tabDataChangedEv
goldendict:_ZN16DictGroupsWidget15removeAllGroupsEv
goldendict:_ZN16DictGroupsWidget16staticMetaObjectE
goldendict:_ZN16DictGroupsWidget18removeCurrentGroupEv
goldendict:_ZN16DictGroupsWidget18renameCurrentGroupERK7QString
goldendict:_ZN16DictGroupsWidget18showDictionaryInfoERK7QString
goldendict:_ZN16DictGroupsWidget8populateERKN6Config6GroupsERKSt6vectorI4sptrIN10Dictionary5ClassEESaIS8_EESC_
goldendict:_ZN16DictGroupsWidgetC1EP7QWidget
goldendict:_ZN16DictGroupsWidgetC2EP7QWidget
goldendict:_ZN16DictServersModel11qt_metacallEN11QMetaObject4CallEiPPv
goldendict:_ZN16DictServersModel11qt_metacastEPKc
goldendict:_ZN16DictServersModel12addNewServerEv
goldendict:_ZN16DictServersModel12removeServerEi
goldendict:_ZN16DictServersModel16staticMetaObjectE
goldendict:_ZN16DictServersModel7setDataERK11QModelIndexRK8QVarianti
goldendict:_ZN16DictServersModelC1EP7QWidgetRK7QVectorIN6Config10DictServerEE
goldendict:_ZN16DictServersModelC2EP7QWidgetRK7QVectorIN6Config10DictServerEE
goldendict:_ZN16EditDictionaries11qt_metacallEN11QMetaObject4CallEiPPv
goldendict:_ZN16EditDictionaries11qt_metacastEPKc
goldendict:_ZN16EditDictionaries13helpRequestedEv
goldendict:_ZN16EditDictionaries13rescanSourcesEv
goldendict:_ZN16EditDictionaries16buttonBoxClickedEP15QAbstractButton
goldendict:_ZN16EditDictionaries16staticMetaObjectE
goldendict:_ZN16EditDictionaries18showDictionaryInfoERK7QString
goldendict:_ZN16EditDictionaries20acceptChangedSourcesEb
goldendict:_ZN16EditDictionaries22on_tabs_currentChangedEi
goldendict:_ZN16EditDictionaries23showDictionaryHeadwordsERK7QString
goldendict:_ZN16EditDictionaries4saveEv
goldendict:_ZN16EditDictionaries6acceptEv
goldendict:_ZN16EditDictionaries9closeHelpEv
goldendict:_ZN16EditDictionaries9editGroupEj
goldendict:_ZN16EditDictionariesC1EP7QWidgetRN6Config5ClassERSt6vectorI4sptrIN10Dictionary5ClassEESaIS9_EERN9Instances6GroupsER21QNetworkAccessManager
goldendict:_ZN16EditDictionariesC2EP7QWidgetRN6Config5ClassERSt6vectorI4sptrIN10Dictionary5ClassEESaIS9_EERN9Instances6GroupsER21QNetworkAccessManager
goldendict:_ZN16LoadDictionaries10handlePathERKN6Config4PathE
goldendict:_ZN16LoadDictionaries11qt_metacallEN11QMetaObject4CallEiPPv
goldendict:_ZN16LoadDictionaries11qt_metacastEPKc
goldendict:_ZN16LoadDictionaries16staticMetaObjectE
goldendict:_ZN16LoadDictionaries18indexingDictionaryERKNSt7__cxx1112basic_stringIcSt11char_traitsIcESaIcEEE
goldendict:_ZN16LoadDictionaries24indexingDictionarySignalERK7QString
goldendict:_ZN16LoadDictionaries3runEv
goldendict:_ZN16LoadDictionariesC1ERKN6Config5ClassE
goldendict:_ZN16LoadDictionariesC2ERKN6Config5ClassE
goldendict:_ZN17ExpandableToolBar11qt_metacallEN11QMetaObject4CallEiPPv
goldendict:_ZN17ExpandableToolBar11qt_metacastEPKc
goldendict:_ZN17ExpandableToolBar16staticMetaObjectE
goldendict:_ZN17FavoritesMimeData11qt_metacallEN11QMetaObject4CallEiPPv
goldendict:_ZN17FavoritesMimeData11qt_metacastEPKc
goldendict:_ZN17FavoritesMimeData16staticMetaObjectE
goldendict:_ZN17HistoryPaneWidget11eventFilterEP7QObjectP6QEvent
goldendict:_ZN17HistoryPaneWidget11qt_metacallEN11QMetaObject4CallEiPPv
goldendict:_ZN17HistoryPaneWidget11qt_metacastEPKc
goldendict:_ZN17HistoryPaneWidget13onItemClickedERK11QModelIndex
goldendict:_ZN17HistoryPaneWidget14showCustomMenuERK6QPoint
goldendict:_ZN17HistoryPaneWidget16staticMetaObjectE
goldendict:_ZN17HistoryPaneWidget17copySelectedItemsEv
goldendict:_ZN17HistoryPaneWidget18onSelectionChangedERK14QItemSelection
goldendict:_ZN17HistoryPaneWidget19deleteSelectedItemsEv
goldendict:_ZN17HistoryPaneWidget19updateHistoryCountsEv
goldendict:_ZN17HistoryPaneWidget20historyItemRequestedERK7QString
goldendict:_ZN17HistoryPaneWidget24emitHistoryItemRequestedERK11QModelIndex
goldendict:_ZN17HistoryPaneWidget5setUpEPN6Config5ClassEP7HistoryP5QMenu
goldendict:_ZN17HistoryPaneWidgetD0Ev
goldendict:_ZN17HistoryPaneWidgetD1Ev
goldendict:_ZN17HistoryPaneWidgetD2Ev
goldendict:_ZN17ProgramTypeEditor11qt_metacallEN11QMetaObject4CallEiPPv
goldendict:_ZN17ProgramTypeEditor11qt_metacastEPKc
goldendict:_ZN17ProgramTypeEditor14getNameForTypeEi
goldendict:_ZN17ProgramTypeEditor16staticMetaObjectE
goldendict:_ZN17ProgramTypeEditor7setTypeEi
goldendict:_ZN17ProgramTypeEditorC1EP7QWidget
goldendict:_ZN17ProgramTypeEditorC2EP7QWidget
goldendict:_ZN17SecurityWhiteList7swlCopyERKS_
goldendict:_ZN17SecurityWhiteList9setOriginERK4QUrl
goldendict:_ZN17SecurityWhiteList9swlDeleteEv
goldendict:_ZN17SecurityWhiteListaSERKS_
goldendict:_ZN18ArticleViewJsProxy11qt_metacallEN11QMetaObject4CallEiPPv
goldendict:_ZN18ArticleViewJsProxy11qt_metacastEPKc
goldendict:_ZN18ArticleViewJsProxy16staticMetaObjectE
goldendict:_ZN18AudioPlayerFactory14setPreferencesERKN6Config11PreferencesE
goldendict:_ZN18AudioPlayerFactory23setAudioPlaybackProgramER19ExternalAudioPlayer
goldendict:_ZN18AudioPlayerFactory5resetEv
goldendict:_ZN18AudioPlayerFactoryC1ERKN6Config11PreferencesE
goldendict:_ZN18AudioPlayerFactoryC2ERKN6Config11PreferencesE
goldendict:_ZN18BelarusianTranslit16makeDictionariesEv
goldendict:_ZN18HunspellDictsModel10changePathERK7QString
goldendict:_ZN18HunspellDictsModel11qt_metacallEN11QMetaObject4CallEiPPv
goldendict:_ZN18HunspellDictsModel11qt_metacastEPKc
goldendict:_ZN18HunspellDictsModel16staticMetaObjectE
goldendict:_ZN18HunspellDictsModel7setDataERK11QModelIndexRK8QVarianti
goldendict:_ZN18HunspellDictsModelC1EP7QWidgetRKN6Config8HunspellE
goldendict:_ZN18HunspellDictsModelC2EP7QWidgetRKN6Config8HunspellE
goldendict:_ZN18QHotkeyApplication11qt_metacallEN11QMetaObject4CallEiPPv
goldendict:_ZN18QHotkeyApplication11qt_metacastEPKc
goldendict:_ZN18QHotkeyApplication15addDataCommiterER13DataCommitter
goldendict:_ZN18QHotkeyApplication15registerWrapperEP13HotkeyWrapper
goldendict:_ZN18QHotkeyApplication16staticMetaObjectE
goldendict:_ZN18QHotkeyApplication17unregisterWrapperEP13HotkeyWrapper
goldendict:_ZN18QHotkeyApplication18hotkeyAppSaveStateER15QSessionManager
goldendict:_ZN18QHotkeyApplication18removeDataCommiterER13DataCommitter
goldendict:_ZN18QHotkeyApplication19hotkeyAppCommitDataER15QSessionManager
goldendict:_ZN18QHotkeyApplicationC1ERK7QStringRiPPc
goldendict:_ZN18QHotkeyApplicationC1ERiPPc
goldendict:_ZN18QHotkeyApplicationC2ERK7QStringRiPPc
goldendict:_ZN18QHotkeyApplicationC2ERiPPc
goldendict:_ZN19BlockedNetworkReply11qt_metacallEN11QMetaObject4CallEiPPv
goldendict:_ZN19BlockedNetworkReply11qt_metacastEPKc
goldendict:_ZN19BlockedNetworkReply12finishedSlotEv
goldendict:_ZN19BlockedNetworkReply14finishedSignalEv
goldendict:_ZN19BlockedNetworkReply16staticMetaObjectE
goldendict:_ZN19BlockedNetworkReplyC1EP7QObject
goldendict:_ZN19BlockedNetworkReplyC2EP7QObject
goldendict:_ZN19ExternalAudioPlayer11qt_metacallEN11QMetaObject4CallEiPPv
goldendict:_ZN19ExternalAudioPlayer11qt_metacastEPKc
goldendict:_ZN19ExternalAudioPlayer11startViewerEv
goldendict:_ZN19ExternalAudioPlayer16staticMetaObjectE
goldendict:_ZN19ExternalAudioPlayer17onViewerDestroyedEP7QObject
goldendict:_ZN19ExternalAudioPlayer20setPlayerCommandLineERK7QString
goldendict:_ZN19ExternalAudioPlayer4playEPKci
goldendict:_ZN19ExternalAudioPlayer4stopEv
goldendict:_ZN19ExternalAudioPlayerC1Ev
goldendict:_ZN19ExternalAudioPlayerC2Ev
goldendict:_ZN19ExternalAudioPlayerD0Ev
goldendict:_ZN19ExternalAudioPlayerD1Ev
goldendict:_ZN19ExternalAudioPlayerD2Ev
goldendict:_ZN19FavoritesPaneWidget10timerEventEP11QTimerEvent
goldendict:_ZN19FavoritesPaneWidget11addHeadwordERK7QStringS2_
goldendict:_ZN19FavoritesPaneWidget11eventFilterEP7QObjectP6QEvent
goldendict:_ZN19FavoritesPaneWidget11qt_metacallEN11QMetaObject4CallEiPPv
goldendict:_ZN19FavoritesPaneWidget11qt_metacastEPKc
goldendict:_ZN19FavoritesPaneWidget12getDataInXmlER10QByteArray
goldendict:_ZN19FavoritesPaneWidget13onItemClickedERK11QModelIndex
goldendict:_ZN19FavoritesPaneWidget14removeHeadwordERK7QStringS2_
goldendict:_ZN19FavoritesPaneWidget14setDataFromXmlERK7QString
goldendict:_ZN19FavoritesPaneWidget14showCustomMenuERK6QPoint
goldendict:_ZN19FavoritesPaneWidget15setSaveIntervalEj
goldendict:_ZN19FavoritesPaneWidget16staticMetaObjectE
goldendict:_ZN19FavoritesPaneWidget17copySelectedItemsEv
goldendict:_ZN19FavoritesPaneWidget17isHeadwordPresentERK7QStringS2_
goldendict:_ZN19FavoritesPaneWidget18getDataInPlainTextER7QString
goldendict:_ZN19FavoritesPaneWidget18onSelectionChangedERK14QItemSelection
goldendict:_ZN19FavoritesPaneWidget19deleteSelectedItemsEv
goldendict:_ZN19FavoritesPaneWidget22favoritesItemRequestedERK7QStringS2_
goldendict:_ZN19FavoritesPaneWidget26emitFavoritesItemRequestedERK11QModelIndex
goldendict:_ZN19FavoritesPaneWidget5setUpEPN6Config5ClassEP5QMenu
goldendict:_ZN19FavoritesPaneWidget8saveDataEv
goldendict:_ZN19FavoritesPaneWidget9addFolderEv
goldendict:_ZN19FavoritesPaneWidgetD0Ev
goldendict:_ZN19FavoritesPaneWidgetD1Ev
goldendict:_ZN19FavoritesPaneWidgetD2Ev
goldendict:_ZN19QtSingleApplication11qt_metacallEN11QMetaObject4CallEiPPv
goldendict:_ZN19QtSingleApplication11qt_metacastEPKc
goldendict:_ZN19QtSingleApplication11sendMessageERK7QStringi
goldendict:_ZN19QtSingleApplication14activateWindowEv
goldendict:_ZN19QtSingleApplication15messageReceivedERK7QString
goldendict:_ZN19QtSingleApplication16staticMetaObjectE
goldendict:_ZN19QtSingleApplication19setActivationWindowEP7QWidgetb
goldendict:_ZN19QtSingleApplication7sysInitERK7QString
goldendict:_ZN19QtSingleApplication9isRunningEv
goldendict:_ZN19QtSingleApplicationC1ERK7QStringRiPPc
goldendict:_ZN19QtSingleApplicationC1ERiPPcb
goldendict:_ZN19QtSingleApplicationC2ERK7QStringRiPPc
goldendict:_ZN19QtSingleApplicationC2ERiPPcb
goldendict:_ZN20ArticleResourceReply10reqUpdatedEv
goldendict:_ZN20ArticleResourceReply11qt_metacallEN11QMetaObject4CallEiPPv
goldendict:_ZN20ArticleResourceReply11qt_metacastEPKc
goldendict:_ZN20ArticleResourceReply11reqFinishedEv
goldendict:_ZN20ArticleResourceReply12finishedSlotEv
goldendict:_ZN20ArticleResourceReply13readyReadSlotEv
goldendict:_ZN20ArticleResourceReply14finishedSignalEv
goldendict:_ZN20ArticleResourceReply15readyReadSignalEv
goldendict:_ZN20ArticleResourceReply16staticMetaObjectE
goldendict:_ZN20ArticleResourceReply8readDataEPcx
goldendict:_ZN20ArticleResourceReplyC1EP7QObjectRK15QNetworkRequestRK4sptrIN10Dictionary11DataRequestEERK7QString
goldendict:_ZN20ArticleResourceReplyC2EP7QObjectRK15QNetworkRequestRK4sptrIN10Dictionary11DataRequestEERK7QString
goldendict:_ZN20ArticleResourceReplyD0Ev
goldendict:_ZN20ArticleResourceReplyD1Ev
goldendict:_ZN20ArticleResourceReplyD2Ev
goldendict:_ZN20AudioPlayerInterface11qt_metacallEN11QMetaObject4CallEiPPv
goldendict:_ZN20AudioPlayerInterface11qt_metacastEPKc
goldendict:_ZN20AudioPlayerInterface16staticMetaObjectE
goldendict:_ZN20AudioPlayerInterface5errorE7QString
goldendict:_ZN20WordListItemDelegateC1EP21QAbstractItemDelegate
goldendict:_ZN20WordListItemDelegateC2EP21QAbstractItemDelegate
goldendict:_ZN21MultimediaAudioPlayer11qt_metacallEN11QMetaObject4CallEiPPv
goldendict:_ZN21MultimediaAudioPlayer11qt_metacastEPKc
goldendict:_ZN21MultimediaAudioPlayer16staticMetaObjectE
goldendict:_ZN21MultimediaAudioPlayer18onMediaPlayerErrorEv
goldendict:_ZN21MultimediaAudioPlayer4playEPKci
goldendict:_ZN21MultimediaAudioPlayer4stopEv
goldendict:_ZN21MultimediaAudioPlayerC1Ev
goldendict:_ZN21MultimediaAudioPlayerC2Ev
goldendict:_ZN21ResourceToSaveHandler10addRequestE4sptrIN10Dictionary11DataRequestEE
goldendict:_ZN21ResourceToSaveHandler11qt_metacallEN11QMetaObject4CallEiPPv
goldendict:_ZN21ResourceToSaveHandler11qt_metacastEPKc
goldendict:_ZN21ResourceToSaveHandler16downloadFinishedEv
goldendict:_ZN21ResourceToSaveHandler16staticMetaObjectE
goldendict:_ZN21ResourceToSaveHandler16statusBarMessageERK7QStringiRK7QPixmap
goldendict:_ZN21ResourceToSaveHandler4doneEv
goldendict:_ZN21ResourceToSaveHandlerC1EP11ArticleViewRK7QString
goldendict:_ZN21ResourceToSaveHandlerC2EP11ArticleViewRK7QString
goldendict:_ZN25ArticleSaveProgressDialog11qt_metacallEN11QMetaObject4CallEiPPv
goldendict:_ZN25ArticleSaveProgressDialog11qt_metacastEPKc
goldendict:_ZN25ArticleSaveProgressDialog16staticMetaObjectE
goldendict:_ZN27ArticleNetworkAccessManager11getResourceERK4QUrlR7QString
goldendict:_ZN27ArticleNetworkAccessManager13createRequestEN21QNetworkAccessManager9OperationERK15QNetworkRequestP9QIODevice
goldendict:_ZN2gd9normalizeERKNSt7__cxx1112basic_stringIwSt11char_traitsIwESaIwEEE
goldendict:_ZN2gd9toQStringERKNSt7__cxx1112basic_stringIwSt11char_traitsIwESaIwEEE
goldendict:_ZN2gd9toWStringB5cxx11ERK7QString
goldendict:_ZN3Bgl16makeDictionariesERKSt6vectorINSt7__cxx1112basic_stringIcSt11char_traitsIcESaIcEEESaIS6_EERKS6_RN10Dictionary12InitializingE
goldendict:_ZN3Dsl16makeDictionariesERKSt6vectorINSt7__cxx1112basic_stringIcSt11char_traitsIcESaIcEEESaIS6_EERKS6_RN10Dictionary12InitializingEij
goldendict:_ZN3Dsl7Details10ArticleDom17atSignFirstInLineEv
goldendict:_ZN3Dsl7Details10ArticleDom7openTagERKNSt7__cxx1112basic_stringIwSt11char_traitsIwESaIwEEES9_RNS2_4listIPNS1_4NodeESaISC_EEE
goldendict:_ZN3Dsl7Details10ArticleDom8closeTagERKNSt7__cxx1112basic_stringIwSt11char_traitsIwESaIwEEERNS2_4listIPNS1_4NodeESaISC_EEEb
goldendict:_ZN3Dsl7Details10ArticleDom8nextCharEv
goldendict:_ZN3Dsl7Details10ArticleDomC1ERKNSt7__cxx1112basic_stringIwSt11char_traitsIwESaIwEEERKNS3_IcS4_IcESaIcEEES9_
goldendict:_ZN3Dsl7Details10ArticleDomC2ERKNSt7__cxx1112basic_stringIwSt11char_traitsIwESaIwEEERKNS3_IcS4_IcESaIcEEES9_
goldendict:_ZN3Dsl7Details10DslScanner12readNextLineERNSt7__cxx1112basic_stringIwSt11char_traitsIwESaIwEEERm
goldendict:_ZN3Dsl7Details10DslScanner27readNextLineWithoutCommentsERNSt7__cxx1112basic_stringIwSt11char_traitsIwESaIwEEERm
goldendict:_ZN3Dsl7Details10DslScannerC1ERKNSt7__cxx1112basic_stringIcSt11char_traitsIcESaIcEEE
goldendict:_ZN3Dsl7Details10DslScannerC2ERKNSt7__cxx1112basic_stringIcSt11char_traitsIcESaIcEEE
goldendict:_ZN3Dsl7Details10DslScannerD1Ev
goldendict:_ZN3Dsl7Details10DslScannerD2Ev
goldendict:_ZN3Dsl7Details11unescapeDslERNSt7__cxx1112basic_stringIwSt11char_traitsIwESaIwEEE
goldendict:_ZN3Dsl7Details12expandTildesERNSt7__cxx1112basic_stringIwSt11char_traitsIwESaIwEEERKS6_
goldendict:_ZN3Dsl7Details13isAtSignFirstERKNSt7__cxx1112basic_stringIwSt11char_traitsIwESaIwEEE
goldendict:_ZN3Dsl7Details13stripCommentsERNSt7__cxx1112basic_stringIwSt11char_traitsIwESaIwEEERb
goldendict:_ZN3Dsl7Details15dslLanguageToIdERKNSt7__cxx1112basic_stringIwSt11char_traitsIwESaIwEEE
goldendict:_ZN3Dsl7Details16findCodeForDslIdB5cxx11Ei
goldendict:_ZN3Dsl7Details17normalizeHeadwordERNSt7__cxx1112basic_stringIwSt11char_traitsIwESaIwEEE
goldendict:_ZN3Dsl7Details19expandOptionalPartsERNSt7__cxx1112basic_stringIwSt11char_traitsIwESaIwEEEPNS1_4listIS6_SaIS6_EEEmb
goldendict:_ZN3Dsl7Details20processUnsortedPartsERNSt7__cxx1112basic_stringIwSt11char_traitsIwESaIwEEEb
goldendict:_ZN3Dsl7Details8DslIconv18getEncodingNameForENS0_11DslEncodingE
goldendict:_ZN3Dsl7Details8DslIconv6reinitENS0_11DslEncodingE
goldendict:_ZN3Dsl7Details8DslIconvC1ENS0_11DslEncodingE
goldendict:_ZN3Dsl7Details8DslIconvC2ENS0_11DslEncodingE
goldendict:_ZN3FTS11FtsIndexing10doIndexingEv
goldendict:_ZN3FTS11FtsIndexing11qt_metacallEN11QMetaObject4CallEiPPv
goldendict:_ZN3FTS11FtsIndexing11qt_metacastEPKc
goldendict:_ZN3FTS11FtsIndexing12stopIndexingEv
goldendict:_ZN3FTS11FtsIndexing15newIndexingNameE7QString
goldendict:_ZN3FTS11FtsIndexing15nowIndexingNameEv
goldendict:_ZN3FTS11FtsIndexing16staticMetaObjectE
goldendict:_ZN3FTS11FtsIndexing17setNowIndexedNameE7QString
goldendict:_ZN3FTS11FtsIndexingC1ERKSt6vectorI4sptrIN10Dictionary5ClassEESaIS5_EE
goldendict:_ZN3FTS11FtsIndexingC2ERKSt6vectorI4sptrIN10Dictionary5ClassEESaIS5_EE
goldendict:_ZN3FTS18HeadwordsListModel10addResultsERK11QModelIndexRK5QListINS_11FtsHeadwordEE
goldendict:_ZN3FTS18HeadwordsListModel11qt_metacallEN11QMetaObject4CallEiPPv
goldendict:_ZN3FTS18HeadwordsListModel11qt_metacastEPKc
goldendict:_ZN3FTS18HeadwordsListModel14contentChangedEv
goldendict:_ZN3FTS18HeadwordsListModel16staticMetaObjectE
goldendict:_ZN3FTS18HeadwordsListModel5clearEv
goldendict:_ZN3FTS18addSortedHeadwordsER5QListINS_11FtsHeadwordEERKS2_
goldendict:_ZN3FTS20FullTextSearchDialog10stopSearchEv
goldendict:_ZN3FTS20FullTextSearchDialog11closeDialogEv
goldendict:_ZN3FTS20FullTextSearchDialog11eventFilterEP7QObjectP6QEvent
goldendict:_ZN3FTS20FullTextSearchDialog11itemClickedERK11QModelIndex
goldendict:_ZN3FTS20FullTextSearchDialog11qt_metacallEN11QMetaObject4CallEiPPv
goldendict:_ZN3FTS20FullTextSearchDialog11qt_metacastEPKc
goldendict:_ZN3FTS20FullTextSearchDialog13helpRequestedEv
goldendict:_ZN3FTS20FullTextSearchDialog14setLimitsUsingEv
goldendict:_ZN3FTS20FullTextSearchDialog15showDictNumbersEv
goldendict:_ZN3FTS20FullTextSearchDialog16staticMetaObjectE
goldendict:_ZN3FTS20FullTextSearchDialog17searchReqFinishedEv
goldendict:_ZN3FTS20FullTextSearchDialog18setNewIndexingNameE7QString
goldendict:_ZN3FTS20FullTextSearchDialog18showTranslationForERK7QStringRK11QStringListRK7QRegExpb
goldendict:_ZN3FTS20FullTextSearchDialog18updateDictionariesEv
goldendict:_ZN3FTS20FullTextSearchDialog23ignoreDiacriticsClickedEv
goldendict:_ZN3FTS20FullTextSearchDialog23ignoreWordsOrderClickedEv
goldendict:_ZN3FTS20FullTextSearchDialog6acceptEv
goldendict:_ZN3FTS20FullTextSearchDialog6rejectEv
goldendict:_ZN3FTS20FullTextSearchDialog8saveDataEv
goldendict:_ZN3FTS20FullTextSearchDialogC1EP7QWidgetRN6Config5ClassERKSt6vectorI4sptrIN10Dictionary5ClassEESaISA_EERKS6_IN9Instances5GroupESaISG_EERNS_11FtsIndexingE
goldendict:_ZN3FTS20FullTextSearchDialogC2EP7QWidgetRN6Config5ClassERKSt6vectorI4sptrIN10Dictionary5ClassEESaISA_EERKS6_IN9Instances5GroupESaISG_EERNS_11FtsIndexingE
goldendict:_ZN3FTS20FullTextSearchDialogD0Ev
goldendict:_ZN3FTS20FullTextSearchDialogD1Ev
goldendict:_ZN3FTS20FullTextSearchDialogD2Ev
goldendict:_ZN3FTS8Indexing11qt_metacallEN11QMetaObject4CallEiPPv
goldendict:_ZN3FTS8Indexing11qt_metacastEPKc
goldendict:_ZN3FTS8Indexing16staticMetaObjectE
goldendict:_ZN3FTS8Indexing19sendNowIndexingNameE7QString
goldendict:_ZN3FTS8Indexing3runEv
goldendict:_ZN3Gls10GlsScanner12readNextLineERNSt7__cxx1112basic_stringIwSt11char_traitsIwESaIwEEERm
goldendict:_ZN3Gls10GlsScannerC1ERKNSt7__cxx1112basic_stringIcSt11char_traitsIcESaIcEEE
goldendict:_ZN3Gls10GlsScannerC2ERKNSt7__cxx1112basic_stringIcSt11char_traitsIcESaIcEEE
goldendict:_ZN3Gls10GlsScannerD1Ev
goldendict:_ZN3Gls10GlsScannerD2Ev
goldendict:_ZN3Gls16makeDictionariesERKSt6vectorINSt7__cxx1112basic_stringIcSt11char_traitsIcESaIcEEESaIS6_EERKS6_RN10Dictionary12InitializingE
goldendict:_ZN3Lsa16makeDictionariesERKSt6vectorINSt7__cxx1112basic_stringIcSt11char_traitsIcESaIcEEESaIS6_EERKS6_RN10Dictionary12InitializingE
goldendict:_ZN3Mdx13MdxDictionary10getArticleERKNSt7__cxx1112basic_stringIwSt11char_traitsIwESaIwEEERKSt6vectorIS6_SaIS6_EES8_b
goldendict:_ZN3Mdx13MdxDictionary11getResourceERKNSt7__cxx1112basic_stringIcSt11char_traitsIcESaIcEEE
goldendict:_ZN3Mdx13MdxDictionary11loadArticleEjRNSt7__cxx1112basic_stringIcSt11char_traitsIcESaIcEEEb
goldendict:_ZN3Mdx13MdxDictionary12deferredInitEv
goldendict:_ZN3Mdx13MdxDictionary12makeFTSIndexER10QAtomicIntb
goldendict:_ZN3Mdx13MdxDictionary14doDeferredInitEv
goldendict:_ZN3Mdx13MdxDictionary14ensureInitDoneB5cxx11Ev
goldendict:_ZN3Mdx13MdxDictionary14filterResourceERK7QStringRS1_
goldendict:_ZN3Mdx13MdxDictionary14getArticleTextEjR7QStringS2_
goldendict:_ZN3Mdx13MdxDictionary14getDescriptionEv
goldendict:_ZN3Mdx13MdxDictionary15removeDirectoryERK7QString
goldendict:_ZN3Mdx13MdxDictionary16getSearchResultsERK7QStringibiibbP11QThreadPool
goldendict:_ZN3Mdx13MdxDictionary17getCachedFileNameE7QString
goldendict:_ZN3Mdx13MdxDictionary8loadIconEv
goldendict:_ZN3Mdx13MdxDictionaryC1ERKNSt7__cxx1112basic_stringIcSt11char_traitsIcESaIcEEES8_RKSt6vectorIS6_SaIS6_EE
goldendict:_ZN3Mdx13MdxDictionaryC2ERKNSt7__cxx1112basic_stringIcSt11char_traitsIcESaIcEEES8_RKSt6vectorIS6_SaIS6_EE
goldendict:_ZN3Mdx13MdxDictionaryD0Ev
goldendict:_ZN3Mdx13MdxDictionaryD1Ev
goldendict:_ZN3Mdx13MdxDictionaryD2Ev
goldendict:_ZN3Mdx16makeDictionariesERKSt6vectorINSt7__cxx1112basic_stringIcSt11char_traitsIcESaIcEEESaIS6_EERKS6_RN10Dictionary12InitializingE
goldendict:_ZN3Mdx17MdxArticleRequest3runEv
goldendict:_ZN3Mdx18MddResourceRequest3runEv
goldendict:_ZN3Mdx25MdxArticleRequestRunnable3runEv
goldendict:_ZN3Mdx26MddResourceRequestRunnable3runEv
goldendict:_ZN3Zim11readArticleERNS_7ZimFileEjRNSt7__cxx1112basic_stringIcSt11char_traitsIcESaIcEEEPSt3setIjSt4lessIjESaIjEE
goldendict:_ZN3Zim13ZimDictionary10getArticleERKNSt7__cxx1112basic_stringIwSt11char_traitsIwESaIwEEERKSt6vectorIS6_SaIS6_EES8_b
goldendict:_ZN3Zim13ZimDictionary11getResourceERKNSt7__cxx1112basic_stringIcSt11char_traitsIcESaIcEEE
goldendict:_ZN3Zim13ZimDictionary11loadArticleEjRNSt7__cxx1112basic_stringIcSt11char_traitsIcESaIcEEEPSt3setIjSt4lessIjESaIjEEb
goldendict:_ZN3Zim13ZimDictionary12loadResourceERNSt7__cxx1112basic_stringIcSt11char_traitsIcESaIcEEES7_
goldendict:_ZN3Zim13ZimDictionary12makeFTSIndexER10QAtomicIntb
goldendict:_ZN3Zim13ZimDictionary14getArticleTextEjR7QStringS2_
goldendict:_ZN3Zim13ZimDictionary14getArticleTextEjR7QStringS2_PSt3setIjSt4lessIjESaIjEE
goldendict:_ZN3Zim13ZimDictionary14getDescriptionEv
goldendict:_ZN3Zim13ZimDictionary16getSearchResultsERK7QStringibiibbP11QThreadPool
goldendict:_ZN3Zim13ZimDictionary25sortArticlesOffsetsForFTSER7QVectorIjER10QAtomicInt
goldendict:_ZN3Zim13ZimDictionary7convertERKNSt7__cxx1112basic_stringIcSt11char_traitsIcESaIcEEE
goldendict:_ZN3Zim13ZimDictionary8loadIconEv
goldendict:_ZN3Zim13ZimDictionaryC1ERKNSt7__cxx1112basic_stringIcSt11char_traitsIcESaIcEEES8_RKSt6vectorIS6_SaIS6_EE
goldendict:_ZN3Zim13ZimDictionaryC2ERKNSt7__cxx1112basic_stringIcSt11char_traitsIcESaIcEEES8_RKSt6vectorIS6_SaIS6_EE
goldendict:_ZN3Zim13ZimDictionaryD0Ev
goldendict:_ZN3Zim13ZimDictionaryD1Ev
goldendict:_ZN3Zim13ZimDictionaryD2Ev
goldendict:_ZN3Zim15indexIsOldOrBadERKNSt7__cxx1112basic_stringIcSt11char_traitsIcESaIcEEE
goldendict:_ZN3Zim16makeDictionariesERKSt6vectorINSt7__cxx1112basic_stringIcSt11char_traitsIcESaIcEEESaIS6_EERKS6_RN10Dictionary12InitializingEj
goldendict:_ZN3Zim17ZimArticleRequest3runEv
goldendict:_ZN3Zim17getArticleClusterERNS_7ZimFileEj
goldendict:_ZN3Zim18ZimResourceRequest3runEv
goldendict:_ZN3Zim25ZimArticleRequestRunnable3runEv
goldendict:_ZN3Zim26ZimResourceRequestRunnable3runEv
goldendict:_ZN3Zim7ZimFile10clearCacheEv
goldendict:_ZN3Zim7ZimFile11setFileNameERK7QString
goldendict:_ZN3Zim7ZimFile14getClusterDataB5cxx11EjRj
goldendict:_ZN3Zim7ZimFile18redirectedMimeTypeERKNS_13RedirectEntryE
goldendict:_ZN3Zim7ZimFile4openEv
goldendict:_ZN3Zim7ZimFileC1ERK7QString
goldendict:_ZN3Zim7ZimFileC1Ev
goldendict:_ZN3Zim7ZimFileC2ERK7QString
goldendict:_ZN3Zim7ZimFileC2Ev
goldendict:_ZN3Zim7ZimFileD1Ev
goldendict:_ZN3Zim7ZimFileD2Ev
goldendict:_ZN4Aard16makeDictionariesERKSt6vectorINSt7__cxx1112basic_stringIcSt11char_traitsIcESaIcEEESaIS6_EERKS6_RN10Dictionary12InitializingEj
goldendict:_ZN4File12loadFromFileERKNSt7__cxx1112basic_stringIcSt11char_traitsIcESaIcEEERSt6vectorIcS4_E
goldendict:_ZN4File15tryPossibleNameERKNSt7__cxx1112basic_stringIcSt11char_traitsIcESaIcEEERS5_
goldendict:_ZN4File18tryPossibleZipNameERKNSt7__cxx1112basic_stringIcSt11char_traitsIcESaIcEEERS5_
goldendict:_ZN4File5Class11readRecordsEPvxm
goldendict:_ZN4File5Class12writeRecordsEPKvxm
goldendict:_ZN4File5Class16flushWriteBufferEv
goldendict:_ZN4File5Class18releaseWriteBufferEv
goldendict:_ZN4File5Class3eofEv
goldendict:_ZN4File5Class4fileEv
goldendict:_ZN4File5Class4getsB5cxx11Eb
goldendict:_ZN4File5Class4getsEPcib
goldendict:_ZN4File5Class4openEPKcS2_
goldendict:_ZN4File5Class4readEPvx
goldendict:_ZN4File5Class4seekEx
goldendict:_ZN4File5Class4tellEv
goldendict:_ZN4File5Class5closeEv
goldendict:_ZN4File5Class5writeEPKvx
goldendict:_ZN4File5Class6rewindEv
goldendict:_ZN4File5Class7seekCurEx
goldendict:_ZN4File5Class7seekEndEx
goldendict:_ZN4File5ClassC1EPKcS2_
goldendict:_ZN4File5ClassC1ERKNSt7__cxx1112basic_stringIcSt11char_traitsIcESaIcEEEPKc
goldendict:_ZN4File5ClassC2EPKcS2_
goldendict:_ZN4File5ClassC2ERKNSt7__cxx1112basic_stringIcSt11char_traitsIcESaIcEEEPKc
goldendict:_ZN4File5ClassD1Ev
goldendict:_ZN4File5ClassD2Ev
goldendict:_ZN4File6existsEPKc
goldendict:_ZN4Help10HelpWindow11qt_metacallEN11QMetaObject4CallEiPPv
goldendict:_ZN4Help10HelpWindow11qt_metacastEPKc
goldendict:_ZN4Help10HelpWindow11showHelpForERK7QString
goldendict:_ZN4Help10HelpWindow14forwardEnabledEb
goldendict:_ZN4Help10HelpWindow15applyZoomFactorEv
goldendict:_ZN4Help10HelpWindow15backwardEnabledEb
goldendict:_ZN4Help10HelpWindow16staticMetaObjectE
goldendict:_ZN4Help10HelpWindow19contentsItemClickedERK11QModelIndex
goldendict:_ZN4Help10HelpWindow6acceptEv
goldendict:_ZN4Help10HelpWindow6rejectEv
goldendict:_ZN4Help10HelpWindow6zoomInEv
goldendict:_ZN4Help10HelpWindow7zoomOutEv
goldendict:_ZN4Help10HelpWindow8zoomBaseEv
goldendict:_ZN4Help10HelpWindow9needCloseEv
goldendict:_ZN4Help10HelpWindowC1EP7QWidgetRN6Config5ClassE
goldendict:_ZN4Help10HelpWindowC2EP7QWidgetRN6Config5ClassE
goldendict:_ZN4Help10HelpWindowD0Ev
goldendict:_ZN4Help10HelpWindowD1Ev
goldendict:_ZN4Help10HelpWindowD2Ev
goldendict:_ZN4Help11HelpBrowser11linkClickedERK4QUrl
goldendict:_ZN4Help11HelpBrowser11qt_metacallEN11QMetaObject4CallEiPPv
goldendict:_ZN4Help11HelpBrowser11qt_metacastEPKc
goldendict:_ZN4Help11HelpBrowser12loadResourceEiRK4QUrl
goldendict:_ZN4Help11HelpBrowser16staticMetaObjectE
goldendict:_ZN4Help11HelpBrowser18showHelpForKeywordERK7QString
goldendict:_ZN4Help11HelpBrowserC1EP15QHelpEngineCoreP7QWidget
goldendict:_ZN4Help11HelpBrowserC2EP15QHelpEngineCoreP7QWidget
goldendict:_ZN4Html12unescapeUtf8ERKNSt7__cxx1112basic_stringIcSt11char_traitsIcESaIcEEEb
goldendict:_ZN4Html19escapeForJavaScriptERKNSt7__cxx1112basic_stringIcSt11char_traitsIcESaIcEEE
goldendict:_ZN4Html6escapeERKNSt7__cxx1112basic_stringIcSt11char_traitsIcESaIcEEE
goldendict:_ZN4Html8unescapeERK7QStringb
goldendict:_ZN4Html9preformatERKNSt7__cxx1112basic_stringIcSt11char_traitsIcESaIcEEEb
goldendict:_ZN4Slob14SlobDictionary10getArticleERKNSt7__cxx1112basic_stringIwSt11char_traitsIwESaIwEEERKSt6vectorIS6_SaIS6_EES8_b
goldendict:_ZN4Slob14SlobDictionary11getResourceERKNSt7__cxx1112basic_stringIcSt11char_traitsIcESaIcEEE
goldendict:_ZN4Slob14SlobDictionary11loadArticleEjRNSt7__cxx1112basic_stringIcSt11char_traitsIcESaIcEEE
goldendict:_ZN4Slob14SlobDictionary11readArticleEjRNSt7__cxx1112basic_stringIcSt11char_traitsIcESaIcEEERNS_8RefEntryE
goldendict:_ZN4Slob14SlobDictionary12loadResourceERNSt7__cxx1112basic_stringIcSt11char_traitsIcESaIcEEES7_
goldendict:_ZN4Slob14SlobDictionary12makeFTSIndexER10QAtomicIntb
goldendict:_ZN4Slob14SlobDictionary13getArticlePosEj
goldendict:_ZN4Slob14SlobDictionary14getArticleTextEjR7QStringS2_
goldendict:_ZN4Slob14SlobDictionary14getDescriptionEv
goldendict:_ZN4Slob14SlobDictionary15removeDirectoryERK7QString
goldendict:_ZN4Slob14SlobDictionary16getSearchResultsERK7QStringibiibbP11QThreadPool
goldendict:_ZN4Slob14SlobDictionary7convertERKNSt7__cxx1112basic_stringIcSt11char_traitsIcESaIcEEERKNS_8RefEntryE
goldendict:_ZN4Slob14SlobDictionary8loadIconEv
goldendict:_ZN4Slob14SlobDictionaryC1ERKNSt7__cxx1112basic_stringIcSt11char_traitsIcESaIcEEES8_RKSt6vectorIS6_SaIS6_EE
goldendict:_ZN4Slob14SlobDictionaryC2ERKNSt7__cxx1112basic_stringIcSt11char_traitsIcESaIcEEES8_RKSt6vectorIS6_SaIS6_EE
goldendict:_ZN4Slob14SlobDictionaryD0Ev
goldendict:_ZN4Slob14SlobDictionaryD1Ev
goldendict:_ZN4Slob14SlobDictionaryD2Ev
goldendict:_ZN4Slob15indexIsOldOrBadERKNSt7__cxx1112basic_stringIcSt11char_traitsIcESaIcEEE
goldendict:_ZN4Slob16makeDictionariesERKSt6vectorINSt7__cxx1112basic_stringIcSt11char_traitsIcESaIcEEESaIS6_EERKS6_RN10Dictionary12InitializingEj
goldendict:_ZN4Slob18SlobArticleRequest3runEv
goldendict:_ZN4Slob19SlobResourceRequest3runEv
goldendict:_ZN4Slob26SlobArticleRequestRunnable3runEv
goldendict:_ZN4Slob27SlobResourceRequestRunnable3runEv
goldendict:_ZN4Slob8SlobFile10readStringEj
goldendict:_ZN4Slob8SlobFile11getRefEntryEjRNS_8RefEntryE
goldendict:_ZN4Slob8SlobFile12readTinyTextEv
goldendict:_ZN4Slob8SlobFile13readLargeTextEv
goldendict:_ZN4Slob8SlobFile19getRefEntryAtOffsetEyRNS_8RefEntryE
goldendict:_ZN4Slob8SlobFile19getSortedRefOffsetsEv
goldendict:_ZN4Slob8SlobFile4openERK7QString
goldendict:_ZN4Slob8SlobFile7getItemERKNS_8RefEntryEPNSt7__cxx1112basic_stringIcSt11char_traitsIcESaIcEEE
goldendict:_ZN4Slob8SlobFile8readTextEv
goldendict:_ZN4Slob8SlobFileD1Ev
goldendict:_ZN4Slob8SlobFileD2Ev
goldendict:_ZN4Utf86decodeEPKcmPw
goldendict:_ZN4Utf86decodeERKNSt7__cxx1112basic_stringIcSt11char_traitsIcESaIcEEE
goldendict:_ZN4Utf86encodeEPKwmPc
goldendict:_ZN4Utf86encodeERKNSt7__cxx1112basic_stringIwSt11char_traitsIwESaIwEEE
goldendict:_ZN4Utf87isspaceEi
goldendict:_ZN4Xdxf13getLanguageIdERK7QString
goldendict:_ZN4Xdxf16makeDictionariesERKSt6vectorINSt7__cxx1112basic_stringIcSt11char_traitsIcESaIcEEESaIS6_EERKS6_RN10Dictionary12InitializingE
goldendict:_ZN5About11qt_metacallEN11QMetaObject4CallEiPPv
goldendict:_ZN5About11qt_metacastEPKc
goldendict:_ZN5About16staticMetaObjectE
goldendict:_ZN5AboutC1EP7QWidget
goldendict:_ZN5AboutC2EP7QWidget
goldendict:_ZN5Forvo16makeDictionariesERN10Dictionary12InitializingERKN6Config5ForvoER21QNetworkAccessManager
goldendict:_ZN5Forvo19ForvoArticleRequest11qt_metacallEN11QMetaObject4CallEiPPv
goldendict:_ZN5Forvo19ForvoArticleRequest11qt_metacastEPKc
goldendict:_ZN5Forvo19ForvoArticleRequest15requestFinishedEP13QNetworkReply
goldendict:_ZN5Forvo19ForvoArticleRequest16staticMetaObjectE
goldendict:_ZN5Forvo19ForvoArticleRequest6cancelEv
goldendict:_ZN5Forvo19ForvoArticleRequest8addQueryER21QNetworkAccessManagerRKNSt7__cxx1112basic_stringIwSt11char_traitsIwESaIwEEE
goldendict:_ZN5Forvo19ForvoArticleRequestC1ERKNSt7__cxx1112basic_stringIwSt11char_traitsIwESaIwEEERKSt6vectorIS6_SaIS6_EERK7QStringSG_RKNS2_IcS3_IcESaIcEEER21QNetworkAccessManager
goldendict:_ZN5Forvo19ForvoArticleRequestC2ERKNSt7__cxx1112basic_stringIwSt11char_traitsIwESaIwEEERKSt6vectorIS6_SaIS6_EERK7QStringSG_RKNS2_IcS3_IcESaIcEEER21QNetworkAccessManager
goldendict:_ZN5Iconv4Utf8E
goldendict:_ZN5Iconv6reinitEPKcS1_
goldendict:_ZN5Iconv6toUtf8B5cxx11EPKcPKvm
goldendict:_ZN5Iconv7GdWcharE
goldendict:_ZN5Iconv7Utf16LeE
goldendict:_ZN5Iconv7convertERPKvRmRPvS3_
goldendict:_ZN5Iconv9toWstringB5cxx11EPKcPKvm
goldendict:_ZN5IconvC1EPKcS1_
goldendict:_ZN5IconvC2EPKcS1_
goldendict:_ZN5IconvD1Ev
goldendict:_ZN5IconvD2Ev
goldendict:_ZN5Mdict11MdictParser10readHeaderER11QDataStream
goldendict:_ZN5Mdict11MdictParser10readNumberER11QDataStream
goldendict:_ZN5Mdict11MdictParser11RecordIndex7bsearchERKSt6vectorIS1_SaIS1_EEx
goldendict:_ZN5Mdict11MdictParser11readU8OrU16ER11QDataStreamb
goldendict:_ZN5Mdict11MdictParser12checkAdler32EPKcjj
goldendict:_ZN5Mdict11MdictParser15readRecordBlockERSt6vectorISt4pairIx7QStringESaIS4_EERNS0_13RecordHandlerE
goldendict:_ZN5Mdict11MdictParser18splitHeadWordBlockERK10QByteArray
goldendict:_ZN5Mdict11MdictParser20decryptHeadWordIndexEPcx
goldendict:_ZN5Mdict11MdictParser20parseCompressedBlockExPKcxR10QByteArray
goldendict:_ZN5Mdict11MdictParser20readRecordBlockInfosEv
goldendict:_ZN5Mdict11MdictParser20substituteStylesheetER7QStringRKSt3mapIiSt4pairIS1_S1_ESt4lessIiESaIS4_IKiS5_EEE
goldendict:_ZN5Mdict11MdictParser21readNextHeadWordIndexERSt6vectorISt4pairIx7QStringESaIS4_EE
goldendict:_ZN5Mdict11MdictParser22readHeadWordBlockInfosER11QDataStream
goldendict:_ZN5Mdict11MdictParser23decodeHeadWordBlockInfoERK10QByteArray
goldendict:_ZN5Mdict11MdictParser4openEPKc
goldendict:_ZN5Mdict11MdictParser7toUtf16EPKcS2_m
goldendict:_ZN5Mdict11MdictParserC1Ev
goldendict:_ZN5Mdict11MdictParserC2Ev
goldendict:_ZN5Mutex4LockC1ERS_
goldendict:_ZN5Mutex4LockC2ERS_
goldendict:_ZN5Mutex4LockD1Ev
goldendict:_ZN5Mutex4LockD2Ev
goldendict:_ZN5Sdict16makeDictionariesERKSt6vectorINSt7__cxx1112basic_stringIcSt11char_traitsIcESaIcEEESaIS6_EERKS6_RN10Dictionary12InitializingE
goldendict:_ZN6Config10getHelpDirEv
goldendict:_ZN6Config11PreferencesC1Ev
goldendict:_ZN6Config11PreferencesC2Ev
goldendict:_ZN6Config11ProxyServerC1Ev
goldendict:_ZN6Config11ProxyServerC2Ev
goldendict:_ZN6Config11getCacheDirEv
goldendict:_ZN6Config11getIndexDirEv
goldendict:_ZN6Config11spwfFromIntEi
goldendict:_ZN6Config12getConfigDirEv
goldendict:_ZN6Config12getStylesDirEv
goldendict:_ZN6Config14getPidFileNameEv
goldendict:_ZN6Config17getConfigFileNameEv
goldendict:_ZN6Config17getProgramDataDirEv
goldendict:_ZN6Config17isPortableVersionEv
goldendict:_ZN6Config18getHistoryFileNameEv
goldendict:_ZN6Config18getNetworkCacheDirEv
goldendict:_ZN6Config18getUserCssFileNameEv
goldendict:_ZN6Config20getUserQtCssFileNameEv
goldendict:_ZN6Config21InternalPlayerBackend12anyAvailableEv
goldendict:_ZN6Config21InternalPlayerBackend14defaultBackendEv
goldendict:_ZN6Config21InternalPlayerBackend8nameListEv
goldendict:_ZN6Config21getFavoritiesFileNameEv
goldendict:_ZN6Config23getUserCssPrintFileNameEv
goldendict:_ZN6Config27getPortableVersionMorphoDirEv
goldendict:_ZN6Config31getPortableVersionDictionaryDirEv
goldendict:_ZN6Config4loadEv
goldendict:_ZN6Config4saveERKNS_5ClassE
goldendict:_ZN6Config5Class8getGroupEj
goldendict:_ZN6Config6Events11qt_metacallEN11QMetaObject4CallEiPPv
goldendict:_ZN6Config6Events11qt_metacastEPKc
goldendict:_ZN6Config6Events16staticMetaObjectE
goldendict:_ZN6Config6Events24mutedDictionariesChangedEv
goldendict:_ZN6Config6Events30signalMutedDictionariesChangedEv
goldendict:_ZN6Config6HotKeyC1ERK12QKeySequence
goldendict:_ZN6Config6HotKeyC1Ev
goldendict:_ZN6Config6HotKeyC2ERK12QKeySequence
goldendict:_ZN6Config6HotKeyC2Ev
goldendict:_ZN6Config6RomajiC1Ev
goldendict:_ZN6Config6RomajiC2Ev
goldendict:_ZN6Config9getLocDirEv
goldendict:_ZN6Ffmpeg11AudioPlayer11qt_metacallEN11QMetaObject4CallEiPPv
goldendict:_ZN6Ffmpeg11AudioPlayer11qt_metacastEPKc
goldendict:_ZN6Ffmpeg11AudioPlayer16staticMetaObjectE
goldendict:_ZN6Ffmpeg12AudioService10playMemoryEPKci
goldendict:_ZN6Ffmpeg12AudioService11qt_metacallEN11QMetaObject4CallEiPPv
goldendict:_ZN6Ffmpeg12AudioService11qt_metacastEPKc
goldendict:_ZN6Ffmpeg12AudioService13cancelPlayingEb
goldendict:_ZN6Ffmpeg12AudioService16staticMetaObjectE
goldendict:_ZN6Ffmpeg12AudioService4stopEv
goldendict:_ZN6Ffmpeg12AudioService5errorERK7QString
goldendict:_ZN6Ffmpeg12AudioService8instanceEv
goldendict:_ZN6Ffmpeg12AudioServiceC1Ev
goldendict:_ZN6Ffmpeg12AudioServiceC2Ev
goldendict:_ZN6Ffmpeg12AudioServiceD0Ev
goldendict:_ZN6Ffmpeg12AudioServiceD1Ev
goldendict:_ZN6Ffmpeg12AudioServiceD2Ev
goldendict:_ZN6Ffmpeg13DecoderThread11qt_metacallEN11QMetaObject4CallEiPPv
goldendict:_ZN6Ffmpeg13DecoderThread11qt_metacastEPKc
goldendict:_ZN6Ffmpeg13DecoderThread12deviceMutex_E
goldendict:_ZN6Ffmpeg13DecoderThread16staticMetaObjectE
goldendict:_ZN6Ffmpeg13DecoderThread3runEv
goldendict:_ZN6Ffmpeg13DecoderThread5errorERK7QString
goldendict:_ZN6Ffmpeg13DecoderThread6cancelEb
goldendict:_ZN6Ffmpeg13DecoderThreadC1ERK10QByteArrayP7QObject
goldendict:_ZN6Ffmpeg13DecoderThreadC2ERK10QByteArrayP7QObject
goldendict:_ZN6Ffmpeg13DecoderThreadD0Ev
goldendict:_ZN6Ffmpeg13DecoderThreadD1Ev
goldendict:_ZN6Ffmpeg13DecoderThreadD2Ev
goldendict:_ZN6Ffmpeg14DecoderContext10closeCodecEv
goldendict:_ZN6Ffmpeg14DecoderContext14normalizeAudioEP7AVFrameRSt6vectorIcSaIcEE
goldendict:_ZN6Ffmpeg14DecoderContext16openOutputDeviceER7QString
goldendict:_ZN6Ffmpeg14DecoderContext17closeOutputDeviceEv
goldendict:_ZN6Ffmpeg14DecoderContext4playER7QString
goldendict:_ZN6Ffmpeg14DecoderContext9openCodecER7QString
goldendict:_ZN6Ffmpeg14DecoderContext9playFrameEP7AVFrame
goldendict:_ZN6Ffmpeg14DecoderContextC1ERK10QByteArrayR10QAtomicInt
goldendict:_ZN6Ffmpeg14DecoderContextC2ERK10QByteArrayR10QAtomicInt
goldendict:_ZN6Ffmpeg14DecoderContextD1Ev
goldendict:_ZN6Ffmpeg14DecoderContextD2Ev
goldendict:_ZN6GdTiff11tiffMapProcEPvPS0_Pm
goldendict:_ZN6GdTiff12tiffReadProcEPvS0_l
goldendict:_ZN6GdTiff12tiffSeekProcEPvmi
goldendict:_ZN6GdTiff12tiffSizeProcEPv
goldendict:_ZN6GdTiff12tiffToQImageEPKciR6QImage
goldendict:_ZN6GdTiff13tiffCloseProcEPv
goldendict:_ZN6GdTiff13tiffUnmapProcEPvS0_m
goldendict:_ZN6GdTiff13tiffWriteProcEPvS0_l
goldendict:_ZN6Groups10addToGroupEv
goldendict:_ZN6Groups11qt_metacallEN11QMetaObject4CallEiPPv
goldendict:_ZN6Groups11qt_metacastEPKc
goldendict:_ZN6Groups12countChangedEv
goldendict:_ZN6Groups12showDictInfoERK6QPoint
goldendict:_ZN6Groups13addAutoGroupsEv
goldendict:_ZN6Groups13removeCurrentEv
goldendict:_ZN6Groups13renameCurrentEv
goldendict:_ZN6Groups13switchToGroupEP7QAction
goldendict:_ZN6Groups14fillGroupsMenuEv
goldendict:_ZN6Groups15removeFromGroupEv
goldendict:_ZN6Groups16staticMetaObjectE
goldendict:_ZN6Groups18showDictionaryInfoERK7QString
goldendict:_ZN6Groups21updateDictionaryOrderERKN6Config5GroupE
goldendict:_ZN6Groups6addNewEv
goldendict:_ZN6Groups9editGroupEj
goldendict:_ZN6Groups9removeAllEv
goldendict:_ZN6GroupsC1EP7QWidgetRKSt6vectorI4sptrIN10Dictionary5ClassEESaIS6_EERKN6Config6GroupsERKNSB_5GroupE
goldendict:_ZN6GroupsC2EP7QWidgetRKSt6vectorI4sptrIN10Dictionary5ClassEESaIS6_EERKN6Config6GroupsERKNSB_5GroupE
goldendict:_ZN6Romaji15HepburnHiraganaC1Ev
goldendict:_ZN6Romaji15HepburnHiraganaC2Ev
goldendict:_ZN6Romaji15HepburnKatakanaC1Ev
goldendict:_ZN6Romaji15HepburnKatakanaC2Ev
goldendict:_ZN6Romaji16makeDictionariesERKN6Config6RomajiE
goldendict:_ZN7Babylon11bgl_readnumEi
goldendict:_ZN7Babylon13convertToUtf8ERNSt7__cxx1112basic_stringIcSt11char_traitsIcESaIcEEEj
goldendict:_ZN7Babylon4openEv
goldendict:_ZN7Babylon4readERNSt7__cxx1112basic_stringIcSt11char_traitsIcESaIcEEES6_
goldendict:_ZN7Babylon5closeEv
goldendict:_ZN7Babylon9readBlockER9bgl_block
goldendict:_ZN7Babylon9readEntryEPNS_15ResourceHandlerE
goldendict:_ZN7BabylonC1ENSt7__cxx1112basic_stringIcSt11char_traitsIcESaIcEEE
goldendict:_ZN7BabylonC2ENSt7__cxx1112basic_stringIcSt11char_traitsIcESaIcEEE
goldendict:_ZN7BabylonD1Ev
goldendict:_ZN7BabylonD2Ev
goldendict:_ZN7Country17englishNametoIso2ERK7QString
goldendict:_ZN7Folding12isWhitespaceEw
goldendict:_ZN7Folding13foldDiacriticEPKwmRm
goldendict:_ZN7Folding14applyPunctOnlyERKNSt7__cxx1112basic_stringIwSt11char_traitsIwESaIwEEE
goldendict:_ZN7Folding14foldCaseSimpleEw
goldendict:_ZN7Folding14trimWhitespaceERKNSt7__cxx1112basic_stringIwSt11char_traitsIwESaIwEEE
goldendict:_ZN7Folding15foldedDiacriticEPKwmRm
goldendict:_ZN7Folding15isCombiningMarkEw
goldendict:_ZN7Folding17applyFullCaseOnlyERKNSt7__cxx1112basic_stringIwSt11char_traitsIwESaIwEEE
goldendict:_ZN7Folding19applyDiacriticsOnlyERKNSt7__cxx1112basic_stringIwSt11char_traitsIwESaIwEEE
goldendict:_ZN7Folding19applySimpleCaseOnlyERKNSt7__cxx1112basic_stringIwSt11char_traitsIwESaIwEEE
goldendict:_ZN7Folding19applyWhitespaceOnlyERKNSt7__cxx1112basic_stringIwSt11char_traitsIwESaIwEEE
goldendict:_ZN7Folding19normalizeWhitespaceERNSt7__cxx1112basic_stringIwSt11char_traitsIwESaIwEEE
goldendict:_ZN7Folding21escapeWildcardSymbolsERK7QString
goldendict:_ZN7Folding21trimWhitespaceOrPunctERKNSt7__cxx1112basic_stringIwSt11char_traitsIwESaIwEEE
goldendict:_ZN7Folding23unescapeWildcardSymbolsERK7QString
goldendict:_ZN7Folding27applyWhitespaceAndPunctOnlyERKNSt7__cxx1112basic_stringIwSt11char_traitsIwESaIwEEE
goldendict:_ZN7Folding5applyERKNSt7__cxx1112basic_stringIwSt11char_traitsIwESaIwEEEb
goldendict:_ZN7Folding7isPunctEw
goldendict:_ZN7Folding8foldCaseEwPw
goldendict:_ZN7History10setMaxSizeEj
goldendict:_ZN7History10timerEventEP11QTimerEvent
goldendict:_ZN7History11qt_metacallEN11QMetaObject4CallEiPPv
goldendict:_ZN7History11qt_metacastEPKc
goldendict:_ZN7History12itemsChangedEv
goldendict:_ZN7History15setSaveIntervalEj
goldendict:_ZN7History16staticMetaObjectE
goldendict:_ZN7History21ensureSizeConstraintsEv
goldendict:_ZN7History4saveEv
goldendict:_ZN7History5clearEv
goldendict:_ZN7History7addItemERKNS_4ItemE
goldendict:_ZN7History7getItemEi
goldendict:_ZN7HistoryC1ENS_4LoadEjj
goldendict:_ZN7HistoryC1Ejj
goldendict:_ZN7HistoryC2ENS_4LoadEjj
goldendict:_ZN7HistoryC2Ejj
goldendict:_ZN7Sources11qt_metacallEN11QMetaObject4CallEiPPv
goldendict:_ZN7Sources11qt_metacastEPKc
goldendict:_ZN7Sources15fitPathsColumnsEv
goldendict:_ZN7Sources16staticMetaObjectE
goldendict:_ZN7Sources17on_rescan_clickedEv
goldendict:_ZN7Sources18on_addPath_clickedEv
goldendict:_ZN7Sources19fitSoundDirsColumnsEv
goldendict:_ZN7Sources21on_addProgram_clickedEv
goldendict:_ZN7Sources21on_addWebSite_clickedEv
goldendict:_ZN7Sources21on_removePath_clickedEv
goldendict:_ZN7Sources22on_addSoundDir_clickedEv
goldendict:_ZN7Sources23fitHunspellDictsColumnsEv
goldendict:_ZN7Sources23on_addMediaWiki_clickedEv
goldendict:_ZN7Sources24on_addDictServer_clickedEv
goldendict:_ZN7Sources24on_removeProgram_clickedEv
goldendict:_ZN7Sources24on_removeWebSite_clickedEv
goldendict:_ZN7Sources25on_removeSoundDir_clickedEv
goldendict:_ZN7Sources26on_removeMediaWiki_clickedEv
goldendict:_ZN7Sources27on_removeDictServer_clickedEv
goldendict:_ZN7Sources29on_changeHunspellPath_clickedEv
goldendict:_ZN7Sources6rescanEv
goldendict:_ZN7SourcesC1EP7QWidgetRKN6Config5ClassE
goldendict:_ZN7SourcesC2EP7QWidgetRKN6Config5ClassE
goldendict:_ZN7WebSite16makeDictionariesERK7QVectorIN6Config7WebSiteEER21QNetworkAccessManager
goldendict:_ZN7WebSite23WebSiteDataRequestSlots11qt_metacallEN11QMetaObject4CallEiPPv
goldendict:_ZN7WebSite23WebSiteDataRequestSlots11qt_metacastEPKc
goldendict:_ZN7WebSite23WebSiteDataRequestSlots16staticMetaObjectE
goldendict:_ZN7ZipFile12SplitZipFile11setFileNameERK7QString
goldendict:_ZN7ZipFile12SplitZipFile18calcAbsoluteOffsetExt
goldendict:_ZN7ZipFile12SplitZipFileC1ERK7QString
goldendict:_ZN7ZipFile12SplitZipFileC2ERK7QString
goldendict:_ZN7ZipFile13readNextEntryERNS_12SplitZipFileERNS_15CentralDirEntryE
goldendict:_ZN7ZipFile15readLocalHeaderERNS_12SplitZipFileERNS_15LocalFileHeaderE
goldendict:_ZN7ZipFile20positionAtCentralDirERNS_12SplitZipFileE
goldendict:_ZN8DictInfo11qt_metacallEN11QMetaObject4CallEiPPv
goldendict:_ZN8DictInfo11qt_metacastEPKc
goldendict:_ZN8DictInfo16staticMetaObjectE
goldendict:_ZN8DictInfo19on_OKButton_clickedEv
goldendict:_ZN8DictInfo21on_openFolder_clickedEv
goldendict:_ZN8DictInfo25on_editDictionary_clickedEv
goldendict:_ZN8DictInfo26on_headwordsButton_clickedEv
goldendict:_ZN8DictInfo7savePosEi
goldendict:_ZN8DictInfo8showInfoE4sptrIN10Dictionary5ClassEE
goldendict:_ZN8DictInfoC1ERN6Config5ClassEP7QWidget
goldendict:_ZN8DictInfoC2ERN6Config5ClassEP7QWidget
goldendict:_ZN8Filetype11isNameOfCSSERKNSt7__cxx1112basic_stringIcSt11char_traitsIcESaIcEEE
goldendict:_ZN8Filetype11isNameOfSvgERKNSt7__cxx1112basic_stringIcSt11char_traitsIcESaIcEEE
goldendict:_ZN8Filetype12isNameOfTiffERKNSt7__cxx1112basic_stringIcSt11char_traitsIcESaIcEEE
goldendict:_ZN8Filetype13isNameOfSoundERKNSt7__cxx1112basic_stringIcSt11char_traitsIcESaIcEEE
goldendict:_ZN8Filetype13isNameOfVideoERKNSt7__cxx1112basic_stringIcSt11char_traitsIcESaIcEEE
goldendict:_ZN8Filetype14simplifyStringERKNSt7__cxx1112basic_stringIcSt11char_traitsIcESaIcEEEb
goldendict:_ZN8Filetype15isNameOfPictureERKNSt7__cxx1112basic_stringIcSt11char_traitsIcESaIcEEE
goldendict:_ZN8Gestures14GDPinchGestureC1EP7QObject
goldendict:_ZN8Gestures14GDPinchGestureC2EP7QObject
goldendict:_ZN8Gestures14GDSwipeGestureC1EP7QObject
goldendict:_ZN8Gestures14GDSwipeGestureC2EP7QObject
goldendict:_ZN8Gestures18GDPinchGestureTypeE
goldendict:_ZN8Gestures18GDSwipeGestureTypeE
goldendict:_ZN8Gestures18handleGestureEventEP7QObjectP6QEventRNS_13GestureResultER6QPoint
goldendict:_ZN8Gestures19registerRecognizersEv
goldendict:_ZN8Gestures20getVerticalDirectionEd
goldendict:_ZN8Gestures21unregisterRecognizersEv
goldendict:_ZN8Gestures22getHorizontalDirectionEd
goldendict:_ZN8Gestures24GDPinchGestureRecognizer14IN_SCALE_LIMITE
goldendict:_ZN8Gestures24GDPinchGestureRecognizer15OUT_SCALE_LIMITE
goldendict:_ZN8Gestures24GDPinchGestureRecognizer5resetEP8QGesture
goldendict:_ZN8Gestures24GDPinchGestureRecognizer6createEP7QObject
goldendict:_ZN8Gestures24GDPinchGestureRecognizer9recognizeEP8QGestureP7QObjectP6QEvent
goldendict:_ZN8Gestures24GDSwipeGestureRecognizer12computeAngleEii
goldendict:_ZN8Gestures24GDSwipeGestureRecognizer5resetEP8QGesture
goldendict:_ZN8Gestures24GDSwipeGestureRecognizer6createEP7QObject
goldendict:_ZN8Gestures24GDSwipeGestureRecognizer9recognizeEP8QGestureP7QObjectP6QEvent
goldendict:_ZN8Gestures25isFewTouchPointsPresentedEv
goldendict:_ZN8Language16countryCodeForIdEj
goldendict:_ZN8Language16englishNameForIdEj
goldendict:_ZN8Language18localizedNameForIdEj
goldendict:_ZN8Language20localizedStringForIdEj
goldendict:_ZN8Language21getBabylonLangByIndexEi
goldendict:_ZN8Language26findBlgLangIDByEnglishNameERKNSt7__cxx1112basic_stringIwSt11char_traitsIwESaIwEEE
goldendict:_ZN8MRUQMenu11eventFilterEP7QObjectP6QEvent
goldendict:_ZN8MRUQMenu11qt_metacallEN11QMetaObject4CallEiPPv
goldendict:_ZN8MRUQMenu11qt_metacastEPKc
goldendict:_ZN8MRUQMenu12ctrlReleasedEv
goldendict:_ZN8MRUQMenu16staticMetaObjectE
goldendict:_ZN8MRUQMenuC1E7QStringP7QWidget
goldendict:_ZN8MRUQMenuC2E7QStringP7QWidget
goldendict:_ZN8Programs11RunInstance11qt_metacallEN11QMetaObject4CallEiPPv
goldendict:_ZN8Programs11RunInstance11qt_metacastEPKc
goldendict:_ZN8Programs11RunInstance15processFinishedEv
goldendict:_ZN8Programs11RunInstance16staticMetaObjectE
goldendict:_ZN8Programs11RunInstance21handleProcessFinishedEv
goldendict:_ZN8Programs11RunInstance5startERKN6Config7ProgramERK7QStringRS5_
goldendict:_ZN8Programs11RunInstance8finishedE10QByteArray7QString
goldendict:_ZN8Programs11RunInstanceC1Ev
goldendict:_ZN8Programs11RunInstanceC2Ev
goldendict:_ZN8Programs16makeDictionariesERK7QVectorIN6Config7ProgramEE
goldendict:_ZN8Programs18ProgramDataRequest11qt_metacallEN11QMetaObject4CallEiPPv
goldendict:_ZN8Programs18ProgramDataRequest11qt_metacastEPKc
goldendict:_ZN8Programs18ProgramDataRequest16instanceFinishedE10QByteArray7QString
goldendict:_ZN8Programs18ProgramDataRequest16staticMetaObjectE
goldendict:_ZN8Programs18ProgramDataRequest6cancelEv
goldendict:_ZN8Programs18ProgramDataRequestC1ERK7QStringRKN6Config7ProgramE
goldendict:_ZN8Programs18ProgramDataRequestC2ERK7QStringRKN6Config7ProgramE
goldendict:_ZN8Programs24ProgramWordSearchRequest11qt_metacallEN11QMetaObject4CallEiPPv
goldendict:_ZN8Programs24ProgramWordSearchRequest11qt_metacastEPKc
goldendict:_ZN8Programs24ProgramWordSearchRequest16instanceFinishedE10QByteArray7QString
goldendict:_ZN8Programs24ProgramWordSearchRequest16staticMetaObjectE
goldendict:_ZN8Programs24ProgramWordSearchRequest6cancelEv
goldendict:_ZN8Programs24ProgramWordSearchRequestC1ERK7QStringRKN6Config7ProgramE
goldendict:_ZN8Programs24ProgramWordSearchRequestC2ERK7QStringRKN6Config7ProgramE
goldendict:_ZN8ScanFlag10hideWindowEv
goldendict:_ZN8ScanFlag11qt_metacallEN11QMetaObject4CallEiPPv
goldendict:_ZN8ScanFlag11qt_metacastEPKc
goldendict:_ZN8ScanFlag12showScanFlagEv
goldendict:_ZN8ScanFlag13showScanPopupEv
goldendict:_ZN8ScanFlag16staticMetaObjectE
goldendict:_ZN8ScanFlag17pushButtonClickedEv
goldendict:_ZN8ScanFlagC1EP7QWidget
goldendict:_ZN8ScanFlagC2EP7QWidget
goldendict:_ZN8ScanFlagD0Ev
goldendict:_ZN8ScanFlagD1Ev
goldendict:_ZN8ScanFlagD2Ev
goldendict:_ZN8SoundDir16makeDictionariesERK7QVectorIN6Config8SoundDirEERKNSt7__cxx1112basic_stringIcSt11char_traitsIcESaIcEEERN10Dictionary12InitializingE
goldendict:_ZN8Stardict16makeDictionariesERKSt6vectorINSt7__cxx1112basic_stringIcSt11char_traitsIcESaIcEEESaIS6_EERKS6_RN10Dictionary12InitializingEj
goldendict:_ZN8TreeItem11appendChildEPS_
goldendict:_ZN8TreeItem11deleteChildEi
goldendict:_ZN8TreeItem11insertChildEiPS_
goldendict:_ZN8TreeItem12haveAncestorEPS_
goldendict:_ZN8TreeItem12haveSameItemEPS_b
goldendict:_ZN8TreeItem6parentEv
goldendict:_ZN8TreeItem7setDataERK8QVariant
goldendict:_ZN8TreeItemC1ERK8QVariantPS_NS_4TypeE
goldendict:_ZN8TreeItemC2ERK8QVariantPS_NS_4TypeE
goldendict:_ZN8TreeItemD1Ev
goldendict:_ZN8TreeItemD2Ev
goldendict:_ZN8TreeView9dropEventEP10QDropEvent
goldendict:_ZN8WordList11qt_metacallEN11QMetaObject4CallEiPPv
goldendict:_ZN8WordList11qt_metacastEPKc
goldendict:_ZN8WordList11resizeEventEP12QResizeEvent
goldendict:_ZN8WordList12attachFinderEP10WordFinder
goldendict:_ZN8WordList14contentChangedEv
goldendict:_ZN8WordList16staticMetaObjectE
goldendict:_ZN8WordList16statusBarMessageERK7QStringiRK7QPixmap
goldendict:_ZN8WordList18prefixMatchUpdatedEv
goldendict:_ZN8WordList18updateMatchResultsEb
goldendict:_ZN8WordList19prefixMatchFinishedEv
goldendict:_ZN8WordList20refreshTranslateLineEv
goldendict:_ZN8WordListC1EP7QWidget
goldendict:_ZN8WordListC2EP7QWidget
goldendict:_ZN9Instances11updateNamesERN6Config5ClassERKSt6vectorI4sptrIN10Dictionary5ClassEESaIS7_EE
goldendict:_ZN9Instances11updateNamesERN6Config5GroupERKSt6vectorI4sptrIN10Dictionary5ClassEESaIS7_EE
goldendict:_ZN9Instances11updateNamesERN6Config6GroupsERKSt6vectorI4sptrIN10Dictionary5ClassEESaIS7_EE
goldendict:_ZN9Instances12iconFromDataERK10QByteArray
goldendict:_ZN9Instances25complementDictionaryOrderERNS_5GroupERKS0_RKSt6vectorI4sptrIN10Dictionary5ClassEESaIS8_EE
goldendict:_ZN9Instances5Group15makeConfigGroupEv
goldendict:_ZN9Instances5GroupC1ERK7QString
goldendict:_ZN9Instances5GroupC1ERKN6Config5GroupERKSt6vectorI4sptrIN10Dictionary5ClassEESaIS9_EES4_
goldendict:_ZN9Instances5GroupC2ERK7QString
goldendict:_ZN9Instances5GroupC2ERKN6Config5GroupERKSt6vectorI4sptrIN10Dictionary5ClassEESaIS9_EES4_
goldendict:_ZN9Instances6Groups9findGroupEj
goldendict:_ZN9LangCoder10intToCode2Ej
goldendict:_ZN9LangCoder10langStructEj
goldendict:_ZN9LangCoder13isLanguageRTLEj
goldendict:_ZN9LangCoder14findIdsForNameERK7QString
goldendict:_ZN9LangCoder17findIdForLanguageERKNSt7__cxx1112basic_stringIwSt11char_traitsIwESaIwEEE
goldendict:_ZN9LangCoder18findIdsForFilenameERK7QString
goldendict:_ZN9LangCoder22findIdForLanguageCode3EPKc
goldendict:_ZN9LangCoder4iconEj
goldendict:_ZN9LangCoder6decodeEj
goldendict:_ZN9LangCoder7guessIdERK7QString
goldendict:_ZN9LangCoderC1Ev
goldendict:_ZN9LangCoderC2Ev
goldendict:_ZN9MediaWiki16makeDictionariesERN10Dictionary12InitializingERK7QVectorIN6Config9MediaWikiEER21QNetworkAccessManager
goldendict:_ZN9MediaWiki25MediaWikiDataRequestSlots11qt_metacallEN11QMetaObject4CallEiPPv
goldendict:_ZN9MediaWiki25MediaWikiDataRequestSlots11qt_metacastEPKc
goldendict:_ZN9MediaWiki25MediaWikiDataRequestSlots16staticMetaObjectE
goldendict:_ZN9MediaWiki31MediaWikiWordSearchRequestSlots11qt_metacallEN11QMetaObject4CallEiPPv
goldendict:_ZN9MediaWiki31MediaWikiWordSearchRequestSlots11qt_metacastEPKc
goldendict:_ZN9MediaWiki31MediaWikiWordSearchRequestSlots16staticMetaObjectE
goldendict:_ZN9MouseOver11qt_metacallEN11QMetaObject4CallEiPPv
goldendict:_ZN9MouseOver11qt_metacastEPKc
goldendict:_ZN9MouseOver15enableMouseOverEv
goldendict:_ZN9MouseOver16disableMouseOverEv
goldendict:_ZN9MouseOver16staticMetaObjectE
goldendict:_ZN9MouseOver7hoveredERK7QStringb
goldendict:_ZN9MouseOver8instanceEv
goldendict:_ZN9MouseOverC1Ev
goldendict:_ZN9MouseOverC2Ev
goldendict:_ZN9MouseOverD0Ev
goldendict:_ZN9MouseOverD1Ev
goldendict:_ZN9MouseOverD2Ev
goldendict:_ZN9RIPEMD1286digestEPh
goldendict:_ZN9RIPEMD1286updateEPKhm
goldendict:_ZN9RIPEMD1289transformEPKh
goldendict:_ZN9RIPEMD128C1Ev
goldendict:_ZN9RIPEMD128C2Ev
goldendict:_ZN9ScanPopup10closeEventEP11QCloseEvent
goldendict:_ZN9ScanPopup10enterEventEP6QEvent
goldendict:_ZN9ScanPopup10hideWindowEv
goldendict:_ZN9ScanPopup10leaveEventEP6QEvent
goldendict:_ZN9ScanPopup10pageLoadedEP11ArticleView
goldendict:_ZN9ScanPopup11altModePollEv
goldendict:_ZN9ScanPopup11engagePopupEbb
goldendict:_ZN9ScanPopup11eventFilterEP7QObjectP6QEvent
goldendict:_ZN9ScanPopup11qt_metacallEN11QMetaObject4CallEiPPv
goldendict:_ZN9ScanPopup11qt_metacastEPKc
goldendict:_ZN9ScanPopup11typingEventERK7QString
goldendict:_ZN9ScanPopup12hideScanFlagEv
goldendict:_ZN9ScanPopup12mouseHoveredERK7QStringb
goldendict:_ZN9ScanPopup12showScanFlagEb
goldendict:_ZN9ScanPopup12titleChangedEP11ArticleViewRK7QString
goldendict:_ZN9ScanPopup13escapePressedEv
goldendict:_ZN9ScanPopup13mouseGrabPollEv
goldendict:_ZN9ScanPopup13setExpandModeEb
goldendict:_ZN9ScanPopup13translateWordERK7QString
goldendict:_ZN9ScanPopup14altModeExpiredEv
goldendict:_ZN9ScanPopup14elideInputWordEv
goldendict:_ZN9ScanPopup14enableScanningEv
goldendict:_ZN9ScanPopup14getActiveDictsEv
goldendict:_ZN9ScanPopup14interceptMouseEv
goldendict:_ZN9ScanPopup14mouseMoveEventEP11QMouseEvent
goldendict:_ZN9ScanPopup14saveConfigDataEv
goldendict:_ZN9ScanPopup14setGroupByNameERK7QString
goldendict:_ZN9ScanPopup15applyZoomFactorEv
goldendict:_ZN9ScanPopup15disableScanningEv
goldendict:_ZN9ScanPopup15handleInputWordERK7QStringb
goldendict:_ZN9ScanPopup15mousePressEventEP11QMouseEvent
goldendict:_ZN9ScanPopup15showEngagePopupEv
goldendict:_ZN9ScanPopup16clipboardChangedEN10QClipboard4ModeE
goldendict:_ZN9ScanPopup16hideTimerExpiredEv
goldendict:_ZN9ScanPopup16pinButtonClickedEb
goldendict:_ZN9ScanPopup16reactOnMouseMoveERK6QPoint
goldendict:_ZN9ScanPopup16staticMetaObjectE
goldendict:_ZN9ScanPopup16switchExpandModeEv
goldendict:_ZN9ScanPopup16uninterceptMouseEv
goldendict:_ZN9ScanPopup17mouseReleaseEventEP11QMouseEvent
goldendict:_ZN9ScanPopup17sendWordToHistoryERK7QString
goldendict:_ZN9ScanPopup17setViewExpandModeEb
goldendict:_ZN9ScanPopup18alwaysOnTopClickedEb
goldendict:_ZN9ScanPopup18editGroupRequestedEj
goldendict:_ZN9ScanPopup18editGroupRequestedEv
goldendict:_ZN9ScanPopup18focusTranslateLineEv
goldendict:_ZN9ScanPopup18requestWindowFocusEv
goldendict:_ZN9ScanPopup18showDictionaryInfoERK7QString
goldendict:_ZN9ScanPopup18showTranslationForERKN6Config11InputPhraseE
goldendict:_ZN9ScanPopup19applyWordsZoomLevelEv
goldendict:_ZN9ScanPopup19currentGroupChangedERK7QString
goldendict:_ZN9ScanPopup19prefixMatchFinishedEv
goldendict:_ZN9ScanPopup19sendWordToFavoritesERK7QStringj
goldendict:_ZN9ScanPopup19updateDictionaryBarEv
goldendict:_ZN9ScanPopup20openDictionaryFolderERK7QString
goldendict:_ZN9ScanPopup20showStatusBarMessageERK7QStringiRK7QPixmap
goldendict:_ZN9ScanPopup20updateSuggestionListERK7QString
goldendict:_ZN9ScanPopup20updateSuggestionListEv
goldendict:_ZN9ScanPopup21forceAddWordToHistoryERK7QString
goldendict:_ZN9ScanPopup21setDictionaryIconSizeEv
goldendict:_ZN9ScanPopup21translateInputChangedERK7QString
goldendict:_ZN9ScanPopup21wordListItemActivatedEP15QListWidgetItem
goldendict:_ZN9ScanPopup22sendPhraseToMainWindowERKN6Config11InputPhraseE
goldendict:_ZN9ScanPopup22translateInputFinishedEv
goldendict:_ZN9ScanPopup23on_goBackButton_clickedEv
goldendict:_ZN9ScanPopup24mutedDictionariesChangedEv
goldendict:_ZN9ScanPopup24updateBackForwardButtonsEv
goldendict:_ZN9ScanPopup25on_sendWordButton_clickedEv
goldendict:_ZN9ScanPopup26isWordPresentedInFavoritesERK7QStringj
goldendict:_ZN9ScanPopup26on_goForwardButton_clickedEv
goldendict:_ZN9ScanPopup26on_pronounceButton_clickedEv
goldendict:_ZN9ScanPopup26translateWordFromClipboardEN10QClipboard4ModeE
goldendict:_ZN9ScanPopup26translateWordFromClipboardEv
goldendict:_ZN9ScanPopup26translateWordFromSelectionEv
goldendict:_ZN9ScanPopup28on_showDictionaryBar_clickedEb
goldendict:_ZN9ScanPopup29switchExpandOptionalPartsModeEv
goldendict:_ZN9ScanPopup36on_sendWordToFavoritesButton_clickedEv
goldendict:_ZN9ScanPopup9closeMenuEv
goldendict:_ZN9ScanPopup9delayShowEv
goldendict:_ZN9ScanPopup9moveEventEP10QMoveEvent
goldendict:_ZN9ScanPopup9showEventEP10QShowEvent
goldendict:_ZN9ScanPopupC1EP7QWidgetRN6Config5ClassER27ArticleNetworkAccessManagerRK14QScopedPointerI20AudioPlayerInterface21QScopedPointerDeleterIS8_EERKSt6vectorI4sptrIN10Dictionary5ClassEESaISI_EERKN9Instances6GroupsER7History
goldendict:_ZN9ScanPopupC2EP7QWidgetRN6Config5ClassER27ArticleNetworkAccessManagerRK14QScopedPointerI20AudioPlayerInterface21QScopedPointerDeleterIS8_EERKSt6vectorI4sptrIN10Dictionary5ClassEESaISI_EERKN9Instances6GroupsER7History
goldendict:_ZN9ScanPopupD0Ev
goldendict:_ZN9ScanPopupD1Ev
goldendict:_ZN9ScanPopupD2Ev
goldendict:_ZN9SplitFile9SplitFile10appendFileERK7QString
goldendict:_ZN9SplitFile9SplitFile4openE6QFlagsIN9QIODevice12OpenModeFlagEE
goldendict:_ZN9SplitFile9SplitFile4readEPcx
goldendict:_ZN9SplitFile9SplitFile4readEx
goldendict:_ZN9SplitFile9SplitFile4seekEy
goldendict:_ZN9SplitFile9SplitFile5closeEv
goldendict:_ZN9SplitFile9SplitFile7getCharEPc
goldendict:_ZN9SplitFile9SplitFileC2Ev
goldendict:_ZN9SplitFile9SplitFileD1Ev
goldendict:_ZN9SplitFile9SplitFileD2Ev
goldendict:_ZN9Xdxf2Html11fakeElementER12QDomDocument
goldendict:_ZN9Xdxf2Html14convertToRomanB5cxx11Eii
goldendict:_ZN9Xdxf2Html7convertERKNSt7__cxx1112basic_stringIcSt11char_traitsIcESaIcEEENS_9DICT_TYPEEPKSt3mapIS5_S5_St4lessIS5_ESaISt4pairIS6_S5_EEEPN10Dictionary5ClassEP10IndexedZipbjP7QString
goldendict:_ZN9ZipSounds16makeDictionariesERKSt6vectorINSt7__cxx1112basic_stringIcSt11char_traitsIcESaIcEEESaIS6_EERKS6_RN10Dictionary12InitializingE
goldendict:_ZNK10Dictionary11DataRequest10metaObjectEv
goldendict:_ZNK10Dictionary17WordSearchRequest10metaObjectEv
goldendict:_ZNK10Dictionary21WebMultimediaDownload10metaObjectEv
goldendict:_ZNK10Dictionary7Request10metaObjectEv
goldendict:_ZNK10GdAppStyle10metaObjectEv
goldendict:_ZNK10GdAppStyle11pixelMetricEN6QStyle11PixelMetricEPK12QStyleOptionPK7QWidget
goldendict:_ZNK10GdAppStyle19dictionaryBarButtonEPK7QWidget
goldendict:_ZNK10HotKeyEdit10metaObjectEv
goldendict:_ZNK10HotKeyEdit9getHotKeyEv
goldendict:_ZNK10IconButton10metaObjectEv
goldendict:_ZNK10MainWindow10metaObjectEv
goldendict:_ZNK10PathsModel10headerDataEiN2Qt11OrientationEi
goldendict:_ZNK10PathsModel10metaObjectEv
goldendict:_ZNK10PathsModel11columnCountERK11QModelIndex
goldendict:_ZNK10PathsModel4dataERK11QModelIndexi
goldendict:_ZNK10PathsModel5flagsERK11QModelIndex
goldendict:_ZNK10PathsModel5indexEiiRK11QModelIndex
goldendict:_ZNK10PathsModel6parentERK11QModelIndex
goldendict:_ZNK10PathsModel8rowCountERK11QModelIndex
goldendict:_ZNK10WordFinder10metaObjectEv
goldendict:_ZNK11ArticleView10metaObjectEv
goldendict:_ZNK11ArticleView15minimumSizeHintEv
goldendict:_ZNK11ArticleView5printEP8QPrinter
goldendict:_ZNK11ArticleView9getPhraseEv
goldendict:_ZNK11ExtLineEdit10metaObjectEv
goldendict:_ZNK11ExtLineEdit12buttonPixmapENS_4SideE
goldendict:_ZNK11ExtLineEdit15isButtonVisibleENS_4SideE
goldendict:_ZNK11Preferences10metaObjectEv
goldendict:_ZNK11QtLocalPeer10metaObjectEv
goldendict:_ZNK12ArticleMaker10metaObjectEv
goldendict:_ZNK12ArticleMaker13makeEmptyPageEv
goldendict:_ZNK12ArticleMaker14makeHtmlHeaderB5cxx11ERK7QStringS2_b
goldendict:_ZNK12ArticleMaker15makePicturePageERKNSt7__cxx1112basic_stringIcSt11char_traitsIcESaIcEEE
goldendict:_ZNK12ArticleMaker17makeDefinitionForERKN6Config11InputPhraseEjRK4QMapI7QStringS5_ERK4QSetIS5_ERK11QStringListb
goldendict:_ZNK12ArticleMaker19makeNotFoundTextForERK7QStringS2_
goldendict:_ZNK12HistoryModel10metaObjectEv
goldendict:_ZNK12HistoryModel4dataERK11QModelIndexi
goldendict:_ZNK12HistoryModel8rowCountERK11QModelIndex
goldendict:_ZNK12Initializing10metaObjectEv
goldendict:_ZNK12QtLP_Private12QtLockedFile8isLockedEv
goldendict:_ZNK12QtLP_Private12QtLockedFile8lockModeEv
goldendict:_ZNK12TranslateBox10metaObjectEv
goldendict:_ZNK13DictHeadwords10metaObjectEv
goldendict:_ZNK13DictListModel10metaObjectEv
goldendict:_ZNK13DictListModel20supportedDropActionsEv
goldendict:_ZNK13DictListModel22getCurrentDictionariesEv
goldendict:_ZNK13DictListModel4dataERK11QModelIndexi
goldendict:_ZNK13DictListModel5flagsERK11QModelIndex
goldendict:_ZNK13DictListModel8rowCountERK11QModelIndex
goldendict:_ZNK13DictionaryBar10metaObjectEv
goldendict:_ZNK13GroupComboBox10metaObjectEv
goldendict:_ZNK13GroupComboBox15getCurrentGroupEv
goldendict:_ZNK13HotkeyWrapper10metaObjectEv
goldendict:_ZNK13HotkeyWrapper12isKeyGrabbedEjj
goldendict:_ZNK13HotkeyWrapper20isCopyToClipboardKeyEjj
goldendict:_ZNK13MainStatusBar10metaObjectEv
goldendict:_ZNK13MainStatusBar14currentMessageEv
goldendict:_ZNK13MainStatusBar8hasImageEv
goldendict:_ZNK13MainTabWidget10metaObjectEv
goldendict:_ZNK13OrderAndProps10metaObjectEv
goldendict:_ZNK13OrderAndProps25getCurrentDictionaryOrderEv
goldendict:_ZNK13OrderAndProps30getCurrentInactiveDictionariesEv
goldendict:_ZNK13ProgramsModel10headerDataEiN2Qt11OrientationEi
goldendict:_ZNK13ProgramsModel10metaObjectEv
goldendict:_ZNK13ProgramsModel11columnCountERK11QModelIndex
goldendict:_ZNK13ProgramsModel4dataERK11QModelIndexi
goldendict:_ZNK13ProgramsModel5flagsERK11QModelIndex
goldendict:_ZNK13ProgramsModel5indexEiiRK11QModelIndex
goldendict:_ZNK13ProgramsModel6parentERK11QModelIndex
goldendict:_ZNK13ProgramsModel8rowCountERK11QModelIndex
goldendict:_ZNK13WebSitesModel10headerDataEiN2Qt11OrientationEi
goldendict:_ZNK13WebSitesModel10metaObjectEv
goldendict:_ZNK13WebSitesModel11columnCountERK11QModelIndex
goldendict:_ZNK13WebSitesModel4dataERK11QModelIndexi
goldendict:_ZNK13WebSitesModel5flagsERK11QModelIndex
goldendict:_ZNK13WebSitesModel5indexEiiRK11QModelIndex
goldendict:_ZNK13WebSitesModel6parentERK11QModelIndex
goldendict:_ZNK13WebSitesModel8rowCountERK11QModelIndex
goldendict:_ZNK14ArticleRequest10metaObjectEv
goldendict:_ZNK14ArticleWebView10metaObjectEv
goldendict:_ZNK14CompletionList10metaObjectEv
goldendict:_ZNK14CompletionList15preferredHeightEv
goldendict:_ZNK14DictListWidget10metaObjectEv
goldendict:_ZNK14DictListWidget22getCurrentDictionariesEv
goldendict:_ZNK14ExternalViewer10metaObjectEv
goldendict:_ZNK14FavoritesModel10headerDataEiN2Qt11OrientationEi
goldendict:_ZNK14FavoritesModel10metaObjectEv
goldendict:_ZNK14FavoritesModel11columnCountERK11QModelIndex
goldendict:_ZNK14FavoritesModel17getTextForIndexesERK5QListI11QModelIndexE
goldendict:_ZNK14FavoritesModel20supportedDropActionsEv
goldendict:_ZNK14FavoritesModel4dataERK11QModelIndexi
goldendict:_ZNK14FavoritesModel5flagsERK11QModelIndex
goldendict:_ZNK14FavoritesModel5indexEiiRK11QModelIndex
goldendict:_ZNK14FavoritesModel6parentERK11QModelIndex
goldendict:_ZNK14FavoritesModel7getItemERK11QModelIndex
goldendict:_ZNK14FavoritesModel8mimeDataERK5QListI11QModelIndexE
goldendict:_ZNK14FavoritesModel8rowCountERK11QModelIndex
goldendict:_ZNK14FavoritesModel9mimeTypesEv
goldendict:_ZNK14SoundDirsModel10headerDataEiN2Qt11OrientationEi
goldendict:_ZNK14SoundDirsModel10metaObjectEv
goldendict:_ZNK14SoundDirsModel11columnCountERK11QModelIndex
goldendict:_ZNK14SoundDirsModel4dataERK11QModelIndexi
goldendict:_ZNK14SoundDirsModel5flagsERK11QModelIndex
goldendict:_ZNK14SoundDirsModel5indexEiiRK11QModelIndex
goldendict:_ZNK14SoundDirsModel6parentERK11QModelIndex
goldendict:_ZNK14SoundDirsModel8rowCountERK11QModelIndex
goldendict:_ZNK14StylesComboBox10metaObjectEv
goldendict:_ZNK14StylesComboBox15getCurrentStyleEv
goldendict:_ZNK15AllowFrameReply10metaObjectEv
goldendict:_ZNK15AllowFrameReply14bytesAvailableEv
goldendict:_ZNK15DictGroupWidget10metaObjectEv
goldendict:_ZNK15DictGroupWidget9makeGroupEv
goldendict:_ZNK15DictsPaneWidget10metaObjectEv
goldendict:_ZNK15MediaWikisModel10headerDataEiN2Qt11OrientationEi
goldendict:_ZNK15MediaWikisModel10metaObjectEv
goldendict:_ZNK15MediaWikisModel11columnCountERK11QModelIndex
goldendict:_ZNK15MediaWikisModel4dataERK11QModelIndexi
goldendict:_ZNK15MediaWikisModel5flagsERK11QModelIndex
goldendict:_ZNK15MediaWikisModel5indexEiiRK11QModelIndex
goldendict:_ZNK15MediaWikisModel6parentERK11QModelIndex
goldendict:_ZNK15MediaWikisModel8rowCountERK11QModelIndex
goldendict:_ZNK15QuickFilterLine10metaObjectEv
goldendict:_ZNK16ArticleInspector10metaObjectEv
goldendict:_ZNK16DictGroupsWidget10makeGroupsEv
goldendict:_ZNK16DictGroupsWidget10metaObjectEv
goldendict:_ZNK16DictGroupsWidget15getCurrentModelEv
goldendict:_ZNK16DictGroupsWidget19getCurrentGroupNameEv
goldendict:_ZNK16DictGroupsWidget24getCurrentSelectionModelEv
goldendict:_ZNK16DictServersModel10headerDataEiN2Qt11OrientationEi
goldendict:_ZNK16DictServersModel10metaObjectEv
goldendict:_ZNK16DictServersModel11columnCountERK11QModelIndex
goldendict:_ZNK16DictServersModel4dataERK11QModelIndexi
goldendict:_ZNK16DictServersModel5flagsERK11QModelIndex
goldendict:_ZNK16DictServersModel5indexEiiRK11QModelIndex
goldendict:_ZNK16DictServersModel6parentERK11QModelIndex
goldendict:_ZNK16DictServersModel8rowCountERK11QModelIndex
goldendict:_ZNK16EditDictionaries10metaObjectEv
goldendict:_ZNK16EditDictionaries16isSourcesChangedEv
goldendict:_ZNK16LoadDictionaries10metaObjectEv
goldendict:_ZNK17ExpandableToolBar10metaObjectEv
goldendict:_ZNK17FavoritesMimeData10metaObjectEv
goldendict:_ZNK17HistoryPaneWidget10metaObjectEv
goldendict:_ZNK17ProgramTypeEditor10metaObjectEv
goldendict:_ZNK17ProgramTypeEditor7getTypeEv
goldendict:_ZNK18ArticleViewJsProxy10metaObjectEv
goldendict:_ZNK18HunspellDictsModel10headerDataEiN2Qt11OrientationEi
goldendict:_ZNK18HunspellDictsModel10metaObjectEv
goldendict:_ZNK18HunspellDictsModel11columnCountERK11QModelIndex
goldendict:_ZNK18HunspellDictsModel4dataERK11QModelIndexi
goldendict:_ZNK18HunspellDictsModel5flagsERK11QModelIndex
goldendict:_ZNK18HunspellDictsModel5indexEiiRK11QModelIndex
goldendict:_ZNK18HunspellDictsModel6parentERK11QModelIndex
goldendict:_ZNK18HunspellDictsModel8rowCountERK11QModelIndex
goldendict:_ZNK18QHotkeyApplication10metaObjectEv
goldendict:_ZNK19BlockedNetworkReply10metaObjectEv
goldendict:_ZNK19ExternalAudioPlayer10metaObjectEv
goldendict:_ZNK19FavoritesPaneWidget10metaObjectEv
goldendict:_ZNK19QtSingleApplication10metaObjectEv
goldendict:_ZNK19QtSingleApplication16activationWindowEv
goldendict:_ZNK19QtSingleApplication2idEv
goldendict:_ZNK20ArticleResourceReply10metaObjectEv
goldendict:_ZNK20ArticleResourceReply14bytesAvailableEv
goldendict:_ZNK20AudioPlayerInterface10metaObjectEv
goldendict:_ZNK20WordListItemDelegate5paintEP8QPainterRK20QStyleOptionViewItemRK11QModelIndex
goldendict:_ZNK21MultimediaAudioPlayer10metaObjectEv
goldendict:_ZNK21ResourceToSaveHandler10metaObjectEv
goldendict:_ZNK25ArticleSaveProgressDialog10metaObjectEv
goldendict:_ZNK3Dsl7Details10ArticleDom4Node12renderAsTextB5cxx11Eb
goldendict:_ZNK3FTS11FtsHeadword10trimQuotesERK7QString
goldendict:_ZNK3FTS11FtsHeadwordltERKS0_
goldendict:_ZNK3FTS11FtsIndexing10metaObjectEv
goldendict:_ZNK3FTS18HeadwordsListModel10metaObjectEv
goldendict:_ZNK3FTS18HeadwordsListModel12getDictIndexERK7QString
goldendict:_ZNK3FTS18HeadwordsListModel4dataERK11QModelIndexi
goldendict:_ZNK3FTS18HeadwordsListModel8rowCountERK11QModelIndex
goldendict:_ZNK3FTS20FullTextSearchDialog10metaObjectEv
goldendict:_ZNK3FTS8Indexing10metaObjectEv
goldendict:_ZNK4Help10HelpWindow10metaObjectEv
goldendict:_ZNK4Help11HelpBrowser10metaObjectEv
goldendict:_ZNK5About10metaObjectEv
goldendict:_ZNK5Forvo19ForvoArticleRequest10metaObjectEv
goldendict:_ZNK6Config11Preferences19sanitizeInputPhraseERK7QString
goldendict:_ZNK6Config21InternalPlayerBackend14isQtmultimediaEv
goldendict:_ZNK6Config21InternalPlayerBackend8isFfmpegEv
goldendict:_ZNK6Config5Class8getGroupEj
goldendict:_ZNK6Config6Events10metaObjectEv
goldendict:_ZNK6Config6HotKey13toKeySequenceEv
goldendict:_ZNK6Ffmpeg11AudioPlayer10metaObjectEv
goldendict:_ZNK6Ffmpeg12AudioService10metaObjectEv
goldendict:_ZNK6Ffmpeg13DecoderThread10metaObjectEv
goldendict:_ZNK6Groups10metaObjectEv
goldendict:_ZNK6Groups9getGroupsEv
goldendict:_ZNK7History10metaObjectEv
goldendict:_ZNK7History4sizeEv
goldendict:_ZNK7Sources10metaObjectEv
goldendict:_ZNK7Sources11getHunspellEv
goldendict:_ZNK7Sources15getVoiceEnginesEv
goldendict:_ZNK7Sources18getTransliterationEv
goldendict:_ZNK7Sources8getForvoEv
goldendict:_ZNK7WebSite23WebSiteDataRequestSlots10metaObjectEv
goldendict:_ZNK7ZipFile12SplitZipFile12lastModifiedEv
goldendict:_ZNK8DictInfo10metaObjectEv
goldendict:_ZNK8MRUQMenu10metaObjectEv
goldendict:_ZNK8Programs11RunInstance10metaObjectEv
goldendict:_ZNK8Programs18ProgramDataRequest10metaObjectEv
goldendict:_ZNK8Programs24ProgramWordSearchRequest10metaObjectEv
goldendict:_ZNK8ScanFlag10metaObjectEv
goldendict:_ZNK8TreeItem10childCountEv
goldendict:_ZNK8TreeItem13duplicateItemEPS_
goldendict:_ZNK8TreeItem20getTextFromAllChildsEv
goldendict:_ZNK8TreeItem3rowEv
goldendict:_ZNK8TreeItem4dataEv
goldendict:_ZNK8TreeItem5childEi
goldendict:_ZNK8TreeItem5flagsEv
goldendict:_ZNK8TreeItem8fullPathEv
goldendict:_ZNK8WordList10metaObjectEv
goldendict:_ZNK9Instances5Group22checkMutedDictionariesEP4QSetI7QStringE
goldendict:_ZNK9Instances5Group8makeIconEv
goldendict:_ZNK9Instances6Groups9findGroupEj
goldendict:_ZNK9MediaWiki25MediaWikiDataRequestSlots10metaObjectEv
goldendict:_ZNK9MediaWiki31MediaWikiWordSearchRequestSlots10metaObjectEv
goldendict:_ZNK9MouseOver10metaObjectEv
goldendict:_ZNK9ScanPopup10metaObjectEv
goldendict:_ZNK9ScanPopup19unpinnedWindowFlagsEv
goldendict:_ZNK9SplitFile9SplitFile12getFilenamesERSt6vectorINSt7__cxx1112basic_stringIcSt11char_traitsIcESaIcEEESaIS7_EE
goldendict:_ZNK9SplitFile9SplitFile3posEv
goldendict:_ZTI10GdAppStyle
goldendict:_ZTI10HotKeyEdit
goldendict:_ZTI10IconButton
goldendict:_ZTI10MainWindow
goldendict:_ZTI10PathsModel
goldendict:_ZTI10WordFinder
goldendict:_ZTI11ArticleView
goldendict:_ZTI11ExtLineEdit
goldendict:_ZTI11Preferences
goldendict:_ZTI11QtLocalPeer
goldendict:_ZTI12ArticleMaker
goldendict:_ZTI12HistoryModel
goldendict:_ZTI12Initializing
goldendict:_ZTI12TranslateBox
goldendict:_ZTI13DictHeadwords
goldendict:_ZTI13DictListModel
goldendict:_ZTI13DictionaryBar
goldendict:_ZTI13GroupComboBox
goldendict:_ZTI13HotkeyWrapper
goldendict:_ZTI13MainStatusBar
goldendict:_ZTI13MainTabWidget
goldendict:_ZTI13OrderAndProps
goldendict:_ZTI13ProgramsModel
goldendict:_ZTI13WebSitesModel
goldendict:_ZTI14ArticleRequest
goldendict:_ZTI14ArticleWebView
goldendict:_ZTI14CompletionList
goldendict:_ZTI14DictListWidget
goldendict:_ZTI14ExternalViewer
goldendict:_ZTI14FavoritesModel
goldendict:_ZTI14SoundDirsModel
goldendict:_ZTI14StylesComboBox
goldendict:_ZTI15AllowFrameReply
goldendict:_ZTI15DictGroupWidget
goldendict:_ZTI15DictsPaneWidget
goldendict:_ZTI15MediaWikisModel
goldendict:_ZTI15QuickFilterLine
goldendict:_ZTI16ArticleInspector
goldendict:_ZTI16DictGroupsWidget
goldendict:_ZTI16DictServersModel
goldendict:_ZTI16EditDictionaries
goldendict:_ZTI16LoadDictionaries
goldendict:_ZTI17ExpandableToolBar
goldendict:_ZTI17FavoritesMimeData
goldendict:_ZTI17HistoryPaneWidget
goldendict:_ZTI17ProgramTypeEditor
goldendict:_ZTI18ArticleViewJsProxy
goldendict:_ZTI18HunspellDictsModel
goldendict:_ZTI18QHotkeyApplication
goldendict:_ZTI19BlockedNetworkReply
goldendict:_ZTI19ExternalAudioPlayer
goldendict:_ZTI19FavoritesPaneWidget
goldendict:_ZTI19QtSingleApplication
goldendict:_ZTI20ArticleResourceReply
goldendict:_ZTI20AudioPlayerInterface
goldendict:_ZTI20WordListItemDelegate
goldendict:_ZTI21MultimediaAudioPlayer
goldendict:_ZTI21ResourceToSaveHandler
goldendict:_ZTI25ArticleSaveProgressDialog
goldendict:_ZTI27ArticleNetworkAccessManager
goldendict:_ZTI5About
goldendict:_ZTI6Groups
goldendict:_ZTI7History
goldendict:_ZTI7Sources
goldendict:_ZTI8DictInfo
goldendict:_ZTI8MRUQMenu
goldendict:_ZTI8ScanFlag
goldendict:_ZTI8TreeView
goldendict:_ZTI8WordList
goldendict:_ZTI9MouseOver
goldendict:_ZTI9ScanPopup
goldendict:_ZTIN10Dictionary11DataRequestE
goldendict:_ZTIN10Dictionary17WordSearchRequestE
goldendict:_ZTIN10Dictionary21WebMultimediaDownloadE
goldendict:_ZTIN10Dictionary5ClassE
goldendict:_ZTIN10Dictionary7RequestE
goldendict:_ZTIN10FtsHelpers25FTSResultsRequestRunnableE
goldendict:_ZTIN12QtLP_Private12QtLockedFileE
goldendict:_ZTIN12VoiceEngines22VoiceEnginesDictionaryE
goldendict:_ZTIN13BtreeIndexing15BtreeDictionaryE
goldendict:_ZTIN13BtreeIndexing22BtreeWordSearchRequestE
goldendict:_ZTIN13BtreeIndexing23BtreeWordSearchRunnableE
goldendict:_ZTIN15Transliteration25TransliterationDictionaryE
goldendict:_ZTIN15Transliteration29BaseTransliterationDictionaryE
goldendict:_ZTIN3FTS11FtsIndexingE
goldendict:_ZTIN3FTS18HeadwordsListModelE
goldendict:_ZTIN3FTS20FullTextSearchDialogE
goldendict:_ZTIN3FTS8IndexingE
goldendict:_ZTIN3Mdx13MdxDictionaryE
goldendict:_ZTIN3Mdx25MdxArticleRequestRunnableE
goldendict:_ZTIN3Mdx26MddResourceRequestRunnableE
goldendict:_ZTIN3Zim13ZimDictionaryE
goldendict:_ZTIN3Zim25ZimArticleRequestRunnableE
goldendict:_ZTIN3Zim26ZimResourceRequestRunnableE
goldendict:_ZTIN3Zim7ZimFileE
goldendict:_ZTIN4Help10HelpWindowE
goldendict:_ZTIN4Help11HelpBrowserE
goldendict:_ZTIN4Slob14SlobDictionaryE
goldendict:_ZTIN4Slob26SlobArticleRequestRunnableE
goldendict:_ZTIN4Slob27SlobResourceRequestRunnableE
goldendict:_ZTIN5Forvo19ForvoArticleRequestE
goldendict:_ZTIN6Config6EventsE
goldendict:_ZTIN6Ffmpeg11AudioPlayerE
goldendict:_ZTIN6Ffmpeg12AudioServiceE
goldendict:_ZTIN6Ffmpeg13DecoderThreadE
goldendict:_ZTIN7WebSite23WebSiteDataRequestSlotsE
goldendict:_ZTIN7ZipFile12SplitZipFileE
goldendict:_ZTIN8Gestures24GDPinchGestureRecognizerE
goldendict:_ZTIN8Gestures24GDSwipeGestureRecognizerE
goldendict:_ZTIN8Programs11RunInstanceE
goldendict:_ZTIN8Programs18ProgramDataRequestE
goldendict:_ZTIN8Programs24ProgramWordSearchRequestE
goldendict:_ZTIN9MediaWiki25MediaWikiDataRequestSlotsE
goldendict:_ZTIN9MediaWiki31MediaWikiWordSearchRequestSlotsE
goldendict:_ZTS10GdAppStyle
goldendict:_ZTS10HotKeyEdit
goldendict:_ZTS10IconButton
goldendict:_ZTS10MainWindow
goldendict:_ZTS10PathsModel
goldendict:_ZTS10WordFinder
goldendict:_ZTS11ArticleView
goldendict:_ZTS11ExtLineEdit
goldendict:_ZTS11Preferences
goldendict:_ZTS11QtLocalPeer
goldendict:_ZTS12ArticleMaker
goldendict:_ZTS12HistoryModel
goldendict:_ZTS12Initializing
goldendict:_ZTS12TranslateBox
goldendict:_ZTS13DictHeadwords
goldendict:_ZTS13DictListModel
goldendict:_ZTS13DictionaryBar
goldendict:_ZTS13GroupComboBox
goldendict:_ZTS13HotkeyWrapper
goldendict:_ZTS13MainStatusBar
goldendict:_ZTS13MainTabWidget
goldendict:_ZTS13OrderAndProps
goldendict:_ZTS13ProgramsModel
goldendict:_ZTS13WebSitesModel
goldendict:_ZTS14ArticleRequest
goldendict:_ZTS14ArticleWebView
goldendict:_ZTS14CompletionList
goldendict:_ZTS14DictListWidget
goldendict:_ZTS14ExternalViewer
goldendict:_ZTS14FavoritesModel
goldendict:_ZTS14SoundDirsModel
goldendict:_ZTS14StylesComboBox
goldendict:_ZTS15AllowFrameReply
goldendict:_ZTS15DictGroupWidget
goldendict:_ZTS15DictsPaneWidget
goldendict:_ZTS15MediaWikisModel
goldendict:_ZTS15QuickFilterLine
goldendict:_ZTS16ArticleInspector
goldendict:_ZTS16DictGroupsWidget
goldendict:_ZTS16DictServersModel
goldendict:_ZTS16EditDictionaries
goldendict:_ZTS16LoadDictionaries
goldendict:_ZTS17ExpandableToolBar
goldendict:_ZTS17FavoritesMimeData
goldendict:_ZTS17HistoryPaneWidget
goldendict:_ZTS17ProgramTypeEditor
goldendict:_ZTS18ArticleViewJsProxy
goldendict:_ZTS18HunspellDictsModel
goldendict:_ZTS18QHotkeyApplication
goldendict:_ZTS19BlockedNetworkReply
goldendict:_ZTS19ExternalAudioPlayer
goldendict:_ZTS19FavoritesPaneWidget
goldendict:_ZTS19QtSingleApplication
goldendict:_ZTS20ArticleResourceReply
goldendict:_ZTS20AudioPlayerInterface
goldendict:_ZTS20WordListItemDelegate
goldendict:_ZTS21MultimediaAudioPlayer
goldendict:_ZTS21ResourceToSaveHandler
goldendict:_ZTS25ArticleSaveProgressDialog
goldendict:_ZTS27ArticleNetworkAccessManager
goldendict:_ZTS5About
goldendict:_ZTS6Groups
goldendict:_ZTS7History
goldendict:_ZTS7Sources
goldendict:_ZTS8DictInfo
goldendict:_ZTS8MRUQMenu
goldendict:_ZTS8ScanFlag
goldendict:_ZTS8TreeView
goldendict:_ZTS8WordList
goldendict:_ZTS9MouseOver
goldendict:_ZTS9ScanPopup
goldendict:_ZTSN10Dictionary11DataRequestE
goldendict:_ZTSN10Dictionary17WordSearchRequestE
goldendict:_ZTSN10Dictionary21WebMultimediaDownloadE
goldendict:_ZTSN10Dictionary5ClassE
goldendict:_ZTSN10Dictionary7RequestE
goldendict:_ZTSN10FtsHelpers25FTSResultsRequestRunnableE
goldendict:_ZTSN12QtLP_Private12QtLockedFileE
goldendict:_ZTSN12VoiceEngines22VoiceEnginesDictionaryE
goldendict:_ZTSN13BtreeIndexing15BtreeDictionaryE
goldendict:_ZTSN13BtreeIndexing22BtreeWordSearchRequestE
goldendict:_ZTSN13BtreeIndexing23BtreeWordSearchRunnableE
goldendict:_ZTSN15Transliteration25TransliterationDictionaryE
goldendict:_ZTSN15Transliteration29BaseTransliterationDictionaryE
goldendict:_ZTSN3FTS11FtsIndexingE
goldendict:_ZTSN3FTS18HeadwordsListModelE
goldendict:_ZTSN3FTS20FullTextSearchDialogE
goldendict:_ZTSN3FTS8IndexingE
goldendict:_ZTSN3Mdx13MdxDictionaryE
goldendict:_ZTSN3Mdx25MdxArticleRequestRunnableE
goldendict:_ZTSN3Mdx26MddResourceRequestRunnableE
goldendict:_ZTSN3Zim13ZimDictionaryE
goldendict:_ZTSN3Zim25ZimArticleRequestRunnableE
goldendict:_ZTSN3Zim26ZimResourceRequestRunnableE
goldendict:_ZTSN3Zim7ZimFileE
goldendict:_ZTSN4Help10HelpWindowE
goldendict:_ZTSN4Help11HelpBrowserE
goldendict:_ZTSN4Slob14SlobDictionaryE
goldendict:_ZTSN4Slob26SlobArticleRequestRunnableE
goldendict:_ZTSN4Slob27SlobResourceRequestRunnableE
goldendict:_ZTSN5Forvo19ForvoArticleRequestE
goldendict:_ZTSN6Config6EventsE
goldendict:_ZTSN6Ffmpeg11AudioPlayerE
goldendict:_ZTSN6Ffmpeg12AudioServiceE
goldendict:_ZTSN6Ffmpeg13DecoderThreadE
goldendict:_ZTSN7WebSite23WebSiteDataRequestSlotsE
goldendict:_ZTSN7ZipFile12SplitZipFileE
goldendict:_ZTSN8Gestures24GDPinchGestureRecognizerE
goldendict:_ZTSN8Gestures24GDSwipeGestureRecognizerE
goldendict:_ZTSN8Programs11RunInstanceE
goldendict:_ZTSN8Programs18ProgramDataRequestE
goldendict:_ZTSN8Programs24ProgramWordSearchRequestE
goldendict:_ZTSN9MediaWiki25MediaWikiDataRequestSlotsE
goldendict:_ZTSN9MediaWiki31MediaWikiWordSearchRequestSlotsE
goldendict:_ZTV10GdAppStyle
goldendict:_ZTV10HotKeyEdit
goldendict:_ZTV10IconButton
goldendict:_ZTV10MainWindow
goldendict:_ZTV10PathsModel
goldendict:_ZTV10WordFinder
goldendict:_ZTV11ArticleView
goldendict:_ZTV11ExtLineEdit
goldendict:_ZTV11Preferences
goldendict:_ZTV11QtLocalPeer
goldendict:_ZTV12ArticleMaker
goldendict:_ZTV12HistoryModel
goldendict:_ZTV12Initializing
goldendict:_ZTV12TranslateBox
goldendict:_ZTV13DictHeadwords
goldendict:_ZTV13DictListModel
goldendict:_ZTV13DictionaryBar
goldendict:_ZTV13GroupComboBox
goldendict:_ZTV13HotkeyWrapper
goldendict:_ZTV13MainStatusBar
goldendict:_ZTV13MainTabWidget
goldendict:_ZTV13OrderAndProps
goldendict:_ZTV13ProgramsModel
goldendict:_ZTV13WebSitesModel
goldendict:_ZTV14ArticleRequest
goldendict:_ZTV14ArticleWebView
goldendict:_ZTV14CompletionList
goldendict:_ZTV14DictListWidget
goldendict:_ZTV14ExternalViewer
goldendict:_ZTV14FavoritesModel
goldendict:_ZTV14SoundDirsModel
goldendict:_ZTV14StylesComboBox
goldendict:_ZTV15AllowFrameReply
goldendict:_ZTV15DictGroupWidget
goldendict:_ZTV15DictsPaneWidget
goldendict:_ZTV15MediaWikisModel
goldendict:_ZTV15QuickFilterLine
goldendict:_ZTV16ArticleInspector
goldendict:_ZTV16DictGroupsWidget
goldendict:_ZTV16DictServersModel
goldendict:_ZTV16EditDictionaries
goldendict:_ZTV16LoadDictionaries
goldendict:_ZTV17ExpandableToolBar
goldendict:_ZTV17FavoritesMimeData
goldendict:_ZTV17HistoryPaneWidget
goldendict:_ZTV17ProgramTypeEditor
goldendict:_ZTV18ArticleViewJsProxy
goldendict:_ZTV18HunspellDictsModel
goldendict:_ZTV18QHotkeyApplication
goldendict:_ZTV19BlockedNetworkReply
goldendict:_ZTV19ExternalAudioPlayer
goldendict:_ZTV19FavoritesPaneWidget
goldendict:_ZTV19QtSingleApplication
goldendict:_ZTV20ArticleResourceReply
goldendict:_ZTV20AudioPlayerInterface
goldendict:_ZTV20WordListItemDelegate
goldendict:_ZTV21MultimediaAudioPlayer
goldendict:_ZTV21ResourceToSaveHandler
goldendict:_ZTV25ArticleSaveProgressDialog
goldendict:_ZTV27ArticleNetworkAccessManager
goldendict:_ZTV5About
goldendict:_ZTV6Groups
goldendict:_ZTV7History
goldendict:_ZTV7Sources
goldendict:_ZTV8DictInfo
goldendict:_ZTV8MRUQMenu
goldendict:_ZTV8ScanFlag
goldendict:_ZTV8TreeView
goldendict:_ZTV8WordList
goldendict:_ZTV9MouseOver
goldendict:_ZTV9ScanPopup
goldendict:_ZTVN10Dictionary11DataRequestE
goldendict:_ZTVN10Dictionary17WordSearchRequestE
goldendict:_ZTVN10Dictionary21WebMultimediaDownloadE
goldendict:_ZTVN10Dictionary5ClassE
goldendict:_ZTVN10Dictionary7RequestE
goldendict:_ZTVN10FtsHelpers25FTSResultsRequestRunnableE
goldendict:_ZTVN12QtLP_Private12QtLockedFileE
goldendict:_ZTVN12VoiceEngines22VoiceEnginesDictionaryE
goldendict:_ZTVN13BtreeIndexing15BtreeDictionaryE
goldendict:_ZTVN13BtreeIndexing22BtreeWordSearchRequestE
goldendict:_ZTVN13BtreeIndexing23BtreeWordSearchRunnableE
goldendict:_ZTVN15Transliteration25TransliterationDictionaryE
goldendict:_ZTVN15Transliteration29BaseTransliterationDictionaryE
goldendict:_ZTVN3FTS11FtsIndexingE
goldendict:_ZTVN3FTS18HeadwordsListModelE
goldendict:_ZTVN3FTS20FullTextSearchDialogE
goldendict:_ZTVN3FTS8IndexingE
goldendict:_ZTVN3Mdx13MdxDictionaryE
goldendict:_ZTVN3Mdx25MdxArticleRequestRunnableE
goldendict:_ZTVN3Mdx26MddResourceRequestRunnableE
goldendict:_ZTVN3Zim13ZimDictionaryE
goldendict:_ZTVN3Zim25ZimArticleRequestRunnableE
goldendict:_ZTVN3Zim26ZimResourceRequestRunnableE
goldendict:_ZTVN3Zim7ZimFileE
goldendict:_ZTVN4Help10HelpWindowE
goldendict:_ZTVN4Help11HelpBrowserE
goldendict:_ZTVN4Slob14SlobDictionaryE
goldendict:_ZTVN4Slob26SlobArticleRequestRunnableE
goldendict:_ZTVN4Slob27SlobResourceRequestRunnableE
goldendict:_ZTVN5Forvo19ForvoArticleRequestE
goldendict:_ZTVN6Config6EventsE
goldendict:_ZTVN6Ffmpeg11AudioPlayerE
goldendict:_ZTVN6Ffmpeg12AudioServiceE
goldendict:_ZTVN6Ffmpeg13DecoderThreadE
goldendict:_ZTVN7WebSite23WebSiteDataRequestSlotsE
goldendict:_ZTVN7ZipFile12SplitZipFileE
goldendict:_ZTVN8Gestures24GDPinchGestureRecognizerE
goldendict:_ZTVN8Gestures24GDSwipeGestureRecognizerE
goldendict:_ZTVN8Programs11RunInstanceE
goldendict:_ZTVN8Programs18ProgramDataRequestE
goldendict:_ZTVN8Programs24ProgramWordSearchRequestE
goldendict:_ZTVN9MediaWiki25MediaWikiDataRequestSlotsE
goldendict:_ZTVN9MediaWiki31MediaWikiWordSearchRequestSlotsE
goldendict:_ZThn16_N10MainWindowD0Ev
goldendict:_ZThn16_N10MainWindowD1Ev
goldendict:_ZThn16_N11ArticleViewD0Ev
goldendict:_ZThn16_N11ArticleViewD1Ev
goldendict:_ZThn16_N11ExtLineEditD0Ev
goldendict:_ZThn16_N11ExtLineEditD1Ev
goldendict:_ZThn16_N13DictHeadwordsD0Ev
goldendict:_ZThn16_N13DictHeadwordsD1Ev
goldendict:_ZThn16_N14ArticleWebViewD0Ev
goldendict:_ZThn16_N14ArticleWebViewD1Ev
goldendict:_ZThn16_N14DictListWidgetD0Ev
goldendict:_ZThn16_N14DictListWidgetD1Ev
goldendict:_ZThn16_N15QuickFilterLineD0Ev
goldendict:_ZThn16_N15QuickFilterLineD1Ev
goldendict:_ZThn16_N16ArticleInspectorD0Ev
goldendict:_ZThn16_N16ArticleInspectorD1Ev
goldendict:_ZThn16_N16LoadDictionaries18indexingDictionaryERKNSt7__cxx1112basic_stringIcSt11char_traitsIcESaIcEEE
goldendict:_ZThn16_N17HistoryPaneWidgetD0Ev
goldendict:_ZThn16_N17HistoryPaneWidgetD1Ev
goldendict:_ZThn16_N19FavoritesPaneWidgetD0Ev
goldendict:_ZThn16_N19FavoritesPaneWidgetD1Ev
goldendict:_ZThn16_N3FTS20FullTextSearchDialogD0Ev
goldendict:_ZThn16_N3FTS20FullTextSearchDialogD1Ev
goldendict:_ZThn16_N3FTS8Indexing3runEv
goldendict:_ZThn16_N4Help10HelpWindowD0Ev
goldendict:_ZThn16_N4Help10HelpWindowD1Ev
goldendict:_ZThn16_N8ScanFlagD0Ev
goldendict:_ZThn16_N8ScanFlagD1Ev
goldendict:_ZThn16_N9ScanPopupD0Ev
goldendict:_ZThn16_N9ScanPopupD1Ev
goldendict:_ZThn48_N10MainWindow10commitDataER15QSessionManager
goldendict:_ZThn48_N10MainWindowD0Ev
goldendict:_ZThn48_N10MainWindowD1Ev
goldendict:__data_start
goldendict:_start
goldendict:dict_data_close
goldendict:dict_data_open
goldendict:dict_data_read_
goldendict:dict_error_str
goldendict:dz_error_str
goldendict:langCoder
goldendict:logFilePtr
goldendict:main
