libQt6Core.so.6:_Z21qRegisterResourceDataiPKhS0_S0_
libQt6Core.so.6:_Z23qUnregisterResourceDataiPKhS0_S0_
libQt6Core.so.6:_Z26qt_QMetaEnum_debugOperatorR6QDebugxPK11QMetaObjectPKc
libQt6Core.so.6:_Z7qgetenvPKc
libQt6Core.so.6:_Z9qBadAllocv
libQt6Core.so.6:_ZN10QArrayData19reallocateUnalignedEPS_PvxxNS_16AllocationOptionE
libQt6Core.so.6:_ZN10QArrayData8allocateEPPS_xxxNS_16AllocationOptionE
libQt6Core.so.6:_ZN10QByteArray11reallocDataExN10QArrayData16AllocationOptionE
libQt6Core.so.6:_ZN10QByteArray6_emptyE
libQt6Core.so.6:_ZN10QByteArray6appendEc
libQt6Core.so.6:_ZN10QByteArray6insertEx14QByteArrayView
libQt6Core.so.6:_ZN10QByteArrayC1EPKcx
libQt6Core.so.6:_ZN11QDataStreamlsEi
libQt6Core.so.6:_ZN11QDataStreamrsERi
libQt6Core.so.6:_ZN11QMetaObject10ConnectionD1Ev
libQt6Core.so.6:_ZN11QMetaObject14normalizedTypeEPKc
libQt6Core.so.6:_ZN11QMetaObject8activateEP7QObjectPKS_iPPv
libQt6Core.so.6:_ZN11QTextStreamlsERK7QString
libQt6Core.so.6:_ZN11QTextStreamlsEc
libQt6Core.so.6:_ZN11QTextStreamlsEi
libQt6Core.so.6:_ZN11QTranslator4loadERK7QLocaleRK7QStringS5_S5_S5_
libQt6Core.so.6:_ZN11QTranslatorC1EP7QObject
libQt6Core.so.6:_ZN16QCoreApplication11aboutToQuitENS_14QPrivateSignalE
libQt6Core.so.6:_ZN16QCoreApplication16removeTranslatorEP11QTranslator
libQt6Core.so.6:_ZN16QCoreApplication16staticMetaObjectE
libQt6Core.so.6:_ZN16QCoreApplication17installTranslatorEP11QTranslator
libQt6Core.so.6:_ZN16QCoreApplication4selfE
libQt6Core.so.6:_ZN16QDebugStateSaverC1ER6QDebug
libQt6Core.so.6:_ZN16QDebugStateSaverD1Ev
libQt6Core.so.6:_ZN2Qt16staticMetaObjectE
libQt6Core.so.6:_ZN5QChar7toUpperEDi
libQt6Core.so.6:_ZN6QDebugD1Ev
libQt6Core.so.6:_ZN6QEvent16staticMetaObjectE
libQt6Core.so.6:_ZN6QLineF8setAngleEd
libQt6Core.so.6:_ZN6QTimer16staticMetaObjectE
libQt6Core.so.6:_ZN6QTimer4stopEv
libQt6Core.so.6:_ZN6QTimer5startEi
libQt6Core.so.6:_ZN6QTimer7timeoutENS_14QPrivateSignalE
libQt6Core.so.6:_ZN6QTimerC1EP7QObject
libQt6Core.so.6:_ZN7QLocaleC1Ev
libQt6Core.so.6:_ZN7QLocaleD1Ev
libQt6Core.so.6:_ZN7QObject10childEventEP11QChildEvent
libQt6Core.so.6:_ZN7QObject10timerEventEP11QTimerEvent
libQt6Core.so.6:_ZN7QObject11connectImplEPKS_PPvS1_S3_PN9QtPrivate15QSlotObjectBaseEN2Qt14ConnectionTypeEPKiPK11QMetaObject
libQt6Core.so.6:_ZN7QObject11customEventEP6QEvent
libQt6Core.so.6:_ZN7QObject11eventFilterEPS_P6QEvent
libQt6Core.so.6:_ZN7QObject11qt_metacallEN11QMetaObject4CallEiPPv
libQt6Core.so.6:_ZN7QObject11qt_metacastEPKc
libQt6Core.so.6:_ZN7QObject12blockSignalsEb
libQt6Core.so.6:_ZN7QObject13connectNotifyERK11QMetaMethod
libQt6Core.so.6:_ZN7QObject15doSetObjectNameERK7QString
libQt6Core.so.6:_ZN7QObject16disconnectNotifyERK11QMetaMethod
libQt6Core.so.6:_ZN7QObject16staticMetaObjectE
libQt6Core.so.6:_ZN7QObject17removeEventFilterEPS_
libQt6Core.so.6:_ZN7QObject18installEventFilterEPS_
libQt6Core.so.6:_ZN7QObject5eventEP6QEvent
libQt6Core.so.6:_ZN7QObjectC2EPS_
libQt6Core.so.6:_ZN7QObjectD2Ev
libQt6Core.so.6:_ZN7QString10fromLatin1E14QByteArrayView
libQt6Core.so.6:_ZN7QString11reallocDataExN10QArrayData16AllocationOptionE
libQt6Core.so.6:_ZN7QString14toLower_helperERKS_
libQt6Core.so.6:_ZN7QString14toUpper_helperERKS_
libQt6Core.so.6:_ZN7QString17toIntegral_helperE11QStringViewPbi
libQt6Core.so.6:_ZN7QString6appendERKS_
libQt6Core.so.6:_ZN7QString6numberEdci
libQt6Core.so.6:_ZN7QString6numberEii
libQt6Core.so.6:_ZN7QString7replaceExx5QChar
libQt6Core.so.6:_ZN7QString8fromUtf8E14QByteArrayView
libQt6Core.so.6:_ZN7QStringC1E5QChar
libQt6Core.so.6:_ZN7QStringaSERKS_
libQt6Core.so.6:_ZN8QVariantC1ERK10QByteArray
libQt6Core.so.6:_ZN8QVariantC1ERK7QString
libQt6Core.so.6:_ZN8QVariantC1ERKS_
libQt6Core.so.6:_ZN8QVariantC1Eb
libQt6Core.so.6:_ZN8QVariantC1Ed
libQt6Core.so.6:_ZN8QVariantC1Ei
libQt6Core.so.6:_ZN8QVariantD1Ev
libQt6Core.so.6:_ZN9QHashSeed10globalSeedEv
libQt6Core.so.6:_ZN9QMetaType14registerHelperEPKN9QtPrivate18QMetaTypeInterfaceE
libQt6Core.so.6:_ZN9QMetaType25registerConverterFunctionERKSt8functionIFbPKvPvEES_S_
libQt6Core.so.6:_ZN9QMetaType25registerNormalizedTypedefERK10QByteArrayS_
libQt6Core.so.6:_ZN9QMetaType27registerMutableViewFunctionERKSt8functionIFbPvS1_EES_S_
libQt6Core.so.6:_ZN9QMetaType27unregisterConverterFunctionES_S_
libQt6Core.so.6:_ZN9QMetaType29unregisterMutableViewFunctionES_S_
libQt6Core.so.6:_ZN9QMetaType30hasRegisteredConverterFunctionES_S_
libQt6Core.so.6:_ZN9QMetaType32hasRegisteredMutableViewFunctionES_S_
libQt6Core.so.6:_ZN9QMetaType7convertES_PKvS_Pv
libQt6Core.so.6:_ZN9QSettings4syncEv
libQt6Core.so.6:_ZN9QSettings8setValueE14QAnyStringViewRK8QVariant
libQt6Core.so.6:_ZN9QSettingsC1EP7QObject
libQt6Core.so.6:_ZN9QSettingsD1Ev
libQt6Core.so.6:_ZN9QtPrivate13findByteArrayE14QByteArrayViewxS0_
libQt6Core.so.6:_ZN9QtPrivate16QStringList_joinEPK5QListI7QStringEPK5QCharx
libQt6Core.so.6:_ZN9QtPrivate25QMetaTypeInterfaceWrapperI10QByteArrayE8metaTypeE
libQt6Core.so.6:_ZN9QtPrivate25QMetaTypeInterfaceWrapperI5QListI7QStringEE8metaTypeE
libQt6Core.so.6:_ZN9QtPrivate25QMetaTypeInterfaceWrapperI5QSizeE8metaTypeE
libQt6Core.so.6:_ZN9QtPrivate25QMetaTypeInterfaceWrapperI6QPointE8metaTypeE
libQt6Core.so.6:_ZN9QtPrivate25QMetaTypeInterfaceWrapperI6QRectFE8metaTypeE
libQt6Core.so.6:_ZN9QtPrivate25QMetaTypeInterfaceWrapperI7QPointFE8metaTypeE
libQt6Core.so.6:_ZN9QtPrivate25QMetaTypeInterfaceWrapperI7QStringE8metaTypeE
libQt6Core.so.6:_ZN9QtPrivate25QMetaTypeInterfaceWrapperIbE8metaTypeE
libQt6Core.so.6:_ZN9QtPrivate25QMetaTypeInterfaceWrapperIdE8metaTypeE
libQt6Core.so.6:_ZN9QtPrivate25QMetaTypeInterfaceWrapperIfE8metaTypeE
libQt6Core.so.6:_ZN9QtPrivate25QMetaTypeInterfaceWrapperIiE8metaTypeE
libQt6Core.so.6:_ZNK11QMetaObject2trEPKcS1_i
libQt6Core.so.6:_ZNK11QMetaObject9classNameEv
libQt6Core.so.6:_ZNK11QObjectData17dynamicMetaObjectEv
libQt6Core.so.6:_ZNK14QMessageLogger8criticalEPKcz
libQt6Core.so.6:_ZNK5QRect10normalizedEv
libQt6Core.so.6:_ZNK5QRect8containsERK6QPointb
libQt6Core.so.6:_ZNK6QLineF10intersectsERKS_P7QPointF
libQt6Core.so.6:_ZNK6QLineF5angleEv
libQt6Core.so.6:_ZNK6QLineF6lengthEv
libQt6Core.so.6:_ZNK6QRectF10normalizedEv
libQt6Core.so.6:_ZNK6QRectF8containsERK7QPointF
libQt6Core.so.6:_ZNK6QRectFanERKS_
libQt6Core.so.6:_ZNK6QRectForERKS_
libQt6Core.so.6:_ZNK7QObject6senderEv
libQt6Core.so.6:_ZNK7QString3argERKS_i5QChar
libQt6Core.so.6:_ZNK7QString5splitE5QChar6QFlagsIN2Qt18SplitBehaviorFlagsEENS2_15CaseSensitivityE
libQt6Core.so.6:_ZNK7QString7indexOfE13QLatin1StringxN2Qt15CaseSensitivityE
libQt6Core.so.6:_ZNK7QString7indexOfE5QCharxN2Qt15CaseSensitivityE
libQt6Core.so.6:_ZNK7QString7sectionERKS_xx6QFlagsINS_11SectionFlagEE
libQt6Core.so.6:_ZNK7QString8toDoubleEPb
libQt6Core.so.6:_ZNK8QVariant11toByteArrayEv
libQt6Core.so.6:_ZNK8QVariant6equalsERKS_
libQt6Core.so.6:_ZNK8QVariant6toBoolEv
libQt6Core.so.6:_ZNK8QVariant8metaTypeEv
libQt6Core.so.6:_ZNK8QVariant8toStringEv
libQt6Core.so.6:_ZNK9QSettings5valueE14QAnyStringViewRK8QVariant
libQt6Core.so.6:_ZTI6QEvent
libQt6Core.so.6:_ZTI7QObject
libQt6Core.so.6:qt_resourceFeatureZstd
libQt6Core.so.6:qt_version_tag
libQt6Gui.so.6:_ZN10QClipboard7setTextERK7QStringNS_4ModeE
libQt6Gui.so.6:_ZN10QTransform5scaleEdd
libQt6Gui.so.6:_ZN10QTransform6rotateEdN2Qt4AxisE
libQt6Gui.so.6:_ZN10QTransform9translateEdd
libQt6Gui.so.6:_ZN10QUndoStack11qt_metacallEN11QMetaObject4CallEiPPv
libQt6Gui.so.6:_ZN10QUndoStack11qt_metacastEPKc
libQt6Gui.so.6:_ZN10QUndoStack12indexChangedEi
libQt6Gui.so.6:_ZN10QUndoStack16staticMetaObjectE
libQt6Gui.so.6:_ZN10QUndoStack4pushEP12QUndoCommand
libQt6Gui.so.6:_ZN10QUndoStack4redoEv
libQt6Gui.so.6:_ZN10QUndoStack4undoEv
libQt6Gui.so.6:_ZN10QUndoStack5clearEv
libQt6Gui.so.6:_ZN10QUndoStackC2EP7QObject
libQt6Gui.so.6:_ZN10QUndoStackD2Ev
libQt6Gui.so.6:_ZN11QTextCursor10deleteCharEv
libQt6Gui.so.6:_ZN11QTextCursor10insertTextERK7QString
libQt6Gui.so.6:_ZN11QTextCursor11setPositionEiNS_8MoveModeE
libQt6Gui.so.6:_ZN11QTextCursor12movePositionENS_13MoveOperationENS_8MoveModeEi
libQt6Gui.so.6:_ZN11QTextCursor14clearSelectionEv
libQt6Gui.so.6:_ZN11QTextCursor18deletePreviousCharEv
libQt6Gui.so.6:_ZN11QTextCursor18removeSelectedTextEv
libQt6Gui.so.6:_ZN11QTextCursor6selectENS_13SelectionTypeE
libQt6Gui.so.6:_ZN11QTextCursorC1EP13QTextDocument
libQt6Gui.so.6:_ZN11QTextCursorC1ERKS_
libQt6Gui.so.6:_ZN11QTextCursorD1Ev
libQt6Gui.so.6:_ZN11QTextFormatD2Ev
libQt6Gui.so.6:_ZN11QTextLayout10createLineEv
libQt6Gui.so.6:_ZN11QTextLayout11beginLayoutEv
libQt6Gui.so.6:_ZN11QTextLayout15setCacheEnabledEb
libQt6Gui.so.6:_ZN11QTextLayout7setFontERK5QFont
libQt6Gui.so.6:_ZN11QTextLayout9endLayoutEv
libQt6Gui.so.6:_ZN11QTextLayoutC1ERK10QTextBlock
libQt6Gui.so.6:_ZN11QTextLayoutD1Ev
libQt6Gui.so.6:_ZN12QActionGroup16staticMetaObjectE
libQt6Gui.so.6:_ZN12QActionGroup9addActionEP7QAction
libQt6Gui.so.6:_ZN12QActionGroup9triggeredEP7QAction
libQt6Gui.so.6:_ZN12QActionGroupC1EP7QObject
libQt6Gui.so.6:_ZN12QFontMetricsC1ERK5QFont
libQt6Gui.so.6:_ZN12QFontMetricsD1Ev
libQt6Gui.so.6:_ZN12QKeySequenceC1E15QKeyCombinationS0_S0_S0_
libQt6Gui.so.6:_ZN12QKeySequenceC1ENS_11StandardKeyE
libQt6Gui.so.6:_ZN12QKeySequenceC1Eiiii
libQt6Gui.so.6:_ZN12QKeySequenceD1Ev
libQt6Gui.so.6:_ZN12QPaintDeviceC2Ev
libQt6Gui.so.6:_ZN12QPainterPath10addEllipseERK6QRectF
libQt6Gui.so.6:_ZN12QPainterPath10addPolygonERK9QPolygonF
libQt6Gui.so.6:_ZN12QPainterPath11setFillRuleEN2Qt8FillRuleE
libQt6Gui.so.6:_ZN12QPainterPath12closeSubpathEv
libQt6Gui.so.6:_ZN12QPainterPath6lineToERK7QPointF
libQt6Gui.so.6:_ZN12QPainterPath6moveToERK7QPointF
libQt6Gui.so.6:_ZN12QPainterPath6quadToERK7QPointFS2_
libQt6Gui.so.6:_ZN12QPainterPath7addPathERKS_
libQt6Gui.so.6:_ZN12QPainterPath7addRectERK6QRectF
libQt6Gui.so.6:_ZN12QPainterPath9translateEdd
libQt6Gui.so.6:_ZN12QPainterPathC1ERK7QPointF
libQt6Gui.so.6:_ZN12QPainterPathC1ERKS_
libQt6Gui.so.6:_ZN12QPainterPathC1Ev
libQt6Gui.so.6:_ZN12QPainterPathD1Ev
libQt6Gui.so.6:_ZN12QUndoCommand9mergeWithEPKS_
libQt6Gui.so.6:_ZN12QUndoCommandC2EPS_
libQt6Gui.so.6:_ZN12QUndoCommandD2Ev
libQt6Gui.so.6:_ZN13QFontMetricsFC1ERK5QFont
libQt6Gui.so.6:_ZN13QFontMetricsFD1Ev
libQt6Gui.so.6:_ZN13QIntValidatorC1EiiP7QObject
libQt6Gui.so.6:_ZN13QTextDocument11setPageSizeERK6QSizeF
libQt6Gui.so.6:_ZN13QTextDocument15contentsChangedEv
libQt6Gui.so.6:_ZN13QTextDocument16staticMetaObjectE
libQt6Gui.so.6:_ZN13QTextDocumentC1EP7QObject
libQt6Gui.so.6:_ZN15QGuiApplication13primaryScreenEv
libQt6Gui.so.6:_ZN15QGuiApplication17setOverrideCursorERK7QCursor
libQt6Gui.so.6:_ZN15QGuiApplication21restoreOverrideCursorEv
libQt6Gui.so.6:_ZN15QGuiApplication4fontEv
libQt6Gui.so.6:_ZN15QGuiApplication7paletteEv
libQt6Gui.so.6:_ZN15QGuiApplication9clipboardEv
libQt6Gui.so.6:_ZN19QPainterPathStrokerC1ERK4QPen
libQt6Gui.so.6:_ZN19QPainterPathStrokerD1Ev
libQt6Gui.so.6:_ZN4QPen11setCapStyleEN2Qt11PenCapStyleE
libQt6Gui.so.6:_ZN4QPen12setJoinStyleEN2Qt12PenJoinStyleE
libQt6Gui.so.6:_ZN4QPen8setColorERK6QColor
libQt6Gui.so.6:_ZN4QPen8setStyleEN2Qt8PenStyleE
libQt6Gui.so.6:_ZN4QPen8setWidthEi
libQt6Gui.so.6:_ZN4QPen9setWidthFEd
libQt6Gui.so.6:_ZN4QPenC1ERK6QBrushdN2Qt8PenStyleENS3_11PenCapStyleENS3_12PenJoinStyleE
libQt6Gui.so.6:_ZN4QPenC1ERKS_
libQt6Gui.so.6:_ZN4QPenC1Ev
libQt6Gui.so.6:_ZN4QPenD1Ev
libQt6Gui.so.6:_ZN4QPenaSERKS_
libQt6Gui.so.6:_ZN5QFont12setPointSizeEi
libQt6Gui.so.6:_ZN5QFont12setUnderlineEb
libQt6Gui.so.6:_ZN5QFont16staticMetaObjectE
libQt6Gui.so.6:_ZN5QFont8setStyleENS_5StyleE
libQt6Gui.so.6:_ZN5QFont9setWeightENS_6WeightE
libQt6Gui.so.6:_ZN5QFontC1ERK7QStringiib
libQt6Gui.so.6:_ZN5QFontC1ERKS_
libQt6Gui.so.6:_ZN5QFontC1Ev
libQt6Gui.so.6:_ZN5QFontD1Ev
libQt6Gui.so.6:_ZN5QFontaSERKS_
libQt6Gui.so.6:_ZN5QIconC1ERK7QPixmap
libQt6Gui.so.6:_ZN5QIconC1ERK7QString
libQt6Gui.so.6:_ZN5QIconC1ERKS_
libQt6Gui.so.6:_ZN5QIconC1Ev
libQt6Gui.so.6:_ZN5QIconD1Ev
libQt6Gui.so.6:_ZN6QBrushC1EN2Qt11GlobalColorENS0_10BrushStyleE
libQt6Gui.so.6:_ZN6QBrushC1ERK6QColorN2Qt10BrushStyleE
libQt6Gui.so.6:_ZN6QBrushC1ERK6QImage
libQt6Gui.so.6:_ZN6QBrushC1ERKS_
libQt6Gui.so.6:_ZN6QBrushD1Ev
libQt6Gui.so.6:_ZN6QColor8setAlphaEi
libQt6Gui.so.6:_ZN6QColorC1EN2Qt11GlobalColorE
libQt6Gui.so.6:_ZN6QColoraSEN2Qt11GlobalColorE
libQt6Gui.so.6:_ZN6QImage12invertPixelsENS_10InvertModeE
libQt6Gui.so.6:_ZN6QImage16mirrored_inplaceEbb
libQt6Gui.so.6:_ZN6QImage19setDevicePixelRatioEd
libQt6Gui.so.6:_ZN6QImage23convertToFormat_inplaceENS_6FormatE6QFlagsIN2Qt19ImageConversionFlagEE
libQt6Gui.so.6:_ZN6QImage4fillEN2Qt11GlobalColorE
libQt6Gui.so.6:_ZN6QImage4fillERK6QColor
libQt6Gui.so.6:_ZN6QImage8scanLineEi
libQt6Gui.so.6:_ZN6QImageC1ERK5QSizeNS_6FormatE
libQt6Gui.so.6:_ZN6QImageC1ERKS_
libQt6Gui.so.6:_ZN6QImageC1Ev
libQt6Gui.so.6:_ZN6QImageD1Ev
libQt6Gui.so.6:_ZN7QAction10setCheckedEb
libQt6Gui.so.6:_ZN7QAction10setEnabledEb
libQt6Gui.so.6:_ZN7QAction10setToolTipERK7QString
libQt6Gui.so.6:_ZN7QAction10setVisibleEb
libQt6Gui.so.6:_ZN7QAction11setShortcutERK12QKeySequence
libQt6Gui.so.6:_ZN7QAction12setCheckableEb
libQt6Gui.so.6:_ZN7QAction16staticMetaObjectE
libQt6Gui.so.6:_ZN7QAction18setShortcutContextEN2Qt15ShortcutContextE
libQt6Gui.so.6:_ZN7QAction7changedEv
libQt6Gui.so.6:_ZN7QAction7setDataERK8QVariant
libQt6Gui.so.6:_ZN7QAction7setIconERK5QIcon
libQt6Gui.so.6:_ZN7QAction7setTextERK7QString
libQt6Gui.so.6:_ZN7QAction8activateENS_11ActionEventE
libQt6Gui.so.6:_ZN7QAction9triggeredEb
libQt6Gui.so.6:_ZN7QActionC1EP7QObject
libQt6Gui.so.6:_ZN7QBitmapD1Ev
libQt6Gui.so.6:_ZN7QCursor3posEv
libQt6Gui.so.6:_ZN7QCursorC1EN2Qt11CursorShapeE
libQt6Gui.so.6:_ZN7QCursorD1Ev
libQt6Gui.so.6:_ZN7QPixmap9fromImageERK6QImage6QFlagsIN2Qt19ImageConversionFlagEE
libQt6Gui.so.6:_ZN7QPixmapC1ERK5QSize
libQt6Gui.so.6:_ZN7QPixmapC1ERK7QStringPKc6QFlagsIN2Qt19ImageConversionFlagEE
libQt6Gui.so.6:_ZN7QPixmapC1ERKS_
libQt6Gui.so.6:_ZN7QPixmapC1Ev
libQt6Gui.so.6:_ZN7QPixmapD1Ev
libQt6Gui.so.6:_ZN7QPixmapaSERKS_
libQt6Gui.so.6:_ZN7QRegionC1ERK5QRectNS_10RegionTypeE
libQt6Gui.so.6:_ZN7QRegionC1ERK7QBitmap
libQt6Gui.so.6:_ZN7QRegionD1Ev
libQt6Gui.so.6:_ZN8QPainter10drawPixmapERK6QRectFRK7QPixmapS2_
libQt6Gui.so.6:_ZN8QPainter10drawPixmapERK7QPointFRK7QPixmap
libQt6Gui.so.6:_ZN8QPainter11drawEllipseERK5QRect
libQt6Gui.so.6:_ZN8QPainter11drawEllipseERK6QRectF
libQt6Gui.so.6:_ZN8QPainter11setClipRectERK6QRectFN2Qt13ClipOperationE
libQt6Gui.so.6:_ZN8QPainter13setClipRegionERK7QRegionN2Qt13ClipOperationE
libQt6Gui.so.6:_ZN8QPainter13setRenderHintENS_10RenderHintEb
libQt6Gui.so.6:_ZN8QPainter18setCompositionModeENS_15CompositionModeE
libQt6Gui.so.6:_ZN8QPainter6setPenEN2Qt8PenStyleE
libQt6Gui.so.6:_ZN8QPainter6setPenERK4QPen
libQt6Gui.so.6:_ZN8QPainter6setPenERK6QColor
libQt6Gui.so.6:_ZN8QPainter7setFontERK5QFont
libQt6Gui.so.6:_ZN8QPainter8drawPathERK12QPainterPath
libQt6Gui.so.6:_ZN8QPainter8drawTextERK5QRectiRK7QStringPS0_
libQt6Gui.so.6:_ZN8QPainter8drawTextERK6QRectFiRK7QStringPS0_
libQt6Gui.so.6:_ZN8QPainter8fillPathERK12QPainterPathRK6QBrush
libQt6Gui.so.6:_ZN8QPainter8setBrushEN2Qt10BrushStyleE
libQt6Gui.so.6:_ZN8QPainter8setBrushERK6QBrush
libQt6Gui.so.6:_ZN8QPainter9drawImageERK6QRectFRK6QImageS2_6QFlagsIN2Qt19ImageConversionFlagEE
libQt6Gui.so.6:_ZN8QPainter9drawImageERK7QPointFRK6QImage
libQt6Gui.so.6:_ZN8QPainter9drawRectsEPK5QRecti
libQt6Gui.so.6:_ZN8QPainter9drawRectsEPK6QRectFi
libQt6Gui.so.6:_ZN8QPainter9translateERK7QPointF
libQt6Gui.so.6:_ZN8QPainterC1EP12QPaintDevice
libQt6Gui.so.6:_ZN8QPainterD1Ev
libQt6Gui.so.6:_ZN8QPaletteD1Ev
libQt6Gui.so.6:_ZN9QTextLine11setPositionERK7QPointF
libQt6Gui.so.6:_ZN9QTextLine12setLineWidthEd
libQt6Gui.so.6:_ZNK10QClipboard4textENS_4ModeE
libQt6Gui.so.6:_ZNK10QTextBlock4nextEv
libQt6Gui.so.6:_ZNK10QTextBlock6lengthEv
libQt6Gui.so.6:_ZNK10QTextBlock8positionEv
libQt6Gui.so.6:_ZNK10QTransform3mapERK12QPainterPath
libQt6Gui.so.6:_ZNK10QTransform3mapERK6QLineF
libQt6Gui.so.6:_ZNK10QTransform3mapERK9QPolygonF
libQt6Gui.so.6:_ZNK10QTransform7mapRectERK6QRectF
libQt6Gui.so.6:_ZNK10QUndoStack10metaObjectEv
libQt6Gui.so.6:_ZNK10QUndoStack16createRedoActionEP7QObjectRK7QString
libQt6Gui.so.6:_ZNK10QUndoStack16createUndoActionEP7QObjectRK7QString
libQt6Gui.so.6:_ZNK11QEventPoint8positionEv
libQt6Gui.so.6:_ZNK11QTextCursor12selectedTextEv
libQt6Gui.so.6:_ZNK11QTextCursor8positionEv
libQt6Gui.so.6:_ZNK11QTextLayout10drawCursorEP8QPainterRK7QPointFii
libQt6Gui.so.6:_ZNK11QTextLayout4drawEP8QPainterRK7QPointFRK5QListINS_11FormatRangeEERK6QRectF
libQt6Gui.so.6:_ZNK12QFontMetrics10elidedTextERK7QStringN2Qt13TextElideModeEii
libQt6Gui.so.6:_ZNK12QFontMetrics12boundingRectERK5QRectiRK7QStringiPi
libQt6Gui.so.6:_ZNK12QFontMetrics17horizontalAdvanceERK7QStringi
libQt6Gui.so.6:_ZNK12QFontMetrics6heightEv
libQt6Gui.so.6:_ZNK12QFontMetrics7leadingEv
libQt6Gui.so.6:_ZNK12QKeySequence8toStringENS_14SequenceFormatE
libQt6Gui.so.6:_ZNK12QPainterPath10intersectsERK6QRectF
libQt6Gui.so.6:_ZNK12QPainterPath10simplifiedEv
libQt6Gui.so.6:_ZNK12QPainterPath12boundingRectEv
libQt6Gui.so.6:_ZNK12QPainterPath12elementCountEv
libQt6Gui.so.6:_ZNK12QPainterPath9elementAtEi
libQt6Gui.so.6:_ZNK12QUndoCommand2idEv
libQt6Gui.so.6:_ZNK13QFontMetricsF12boundingRectERK7QString
libQt6Gui.so.6:_ZNK13QTextDocument11toPlainTextEv
libQt6Gui.so.6:_ZNK13QTextDocument3endEv
libQt6Gui.so.6:_ZNK13QTextDocument5beginEv
libQt6Gui.so.6:_ZNK13QTextDocument8pageSizeEv
libQt6Gui.so.6:_ZNK13QTextDocument9pageCountEv
libQt6Gui.so.6:_ZNK15QGuiApplication16devicePixelRatioEv
libQt6Gui.so.6:_ZNK19QPainterPathStroker12createStrokeERK12QPainterPath
libQt6Gui.so.6:_ZNK4QPen5colorEv
libQt6Gui.so.6:_ZNK4QPen5widthEv
libQt6Gui.so.6:_ZNK4QPen6widthFEv
libQt6Gui.so.6:_ZNK4QPen8capStyleEv
libQt6Gui.so.6:_ZNK5QFont5styleEv
libQt6Gui.so.6:_ZNK5QFont6familyEv
libQt6Gui.so.6:_ZNK5QFont6weightEv
libQt6Gui.so.6:_ZNK5QFont9pixelSizeEv
libQt6Gui.so.6:_ZNK5QFont9pointSizeEv
libQt6Gui.so.6:_ZNK5QFont9underlineEv
libQt6Gui.so.6:_ZNK5QFontcv8QVariantEv
libQt6Gui.so.6:_ZNK5QFonteqERKS_
libQt6Gui.so.6:_ZNK5QFontltERKS_
libQt6Gui.so.6:_ZNK5QIcon6pixmapERK5QSizeNS_4ModeENS_5StateE
libQt6Gui.so.6:_ZNK6QColor4nameENS_10NameFormatE
libQt6Gui.so.6:_ZNK6QColor4redFEv
libQt6Gui.so.6:_ZNK6QColor5blueFEv
libQt6Gui.so.6:_ZNK6QColor6greenFEv
libQt6Gui.so.6:_ZNK6QColorcv8QVariantEv
libQt6Gui.so.6:_ZNK6QColoreqERKS_
libQt6Gui.so.6:_ZNK6QColorneERKS_
libQt6Gui.so.6:_ZNK6QImage12bytesPerLineEv
libQt6Gui.so.6:_ZNK6QImage22convertToFormat_helperENS_6FormatE6QFlagsIN2Qt19ImageConversionFlagEE
libQt6Gui.so.6:_ZNK6QImage4copyERK5QRect
libQt6Gui.so.6:_ZNK6QImage4rectEv
libQt6Gui.so.6:_ZNK6QImage5widthEv
libQt6Gui.so.6:_ZNK6QImage6heightEv
libQt6Gui.so.6:_ZNK6QImage6isNullEv
libQt6Gui.so.6:_ZNK6QImage6scaledERK5QSizeN2Qt15AspectRatioModeENS3_18TransformationModeE
libQt6Gui.so.6:_ZNK7QAction11isSeparatorEv
libQt6Gui.so.6:_ZNK7QAction4iconEv
libQt6Gui.so.6:_ZNK7QAction4textEv
libQt6Gui.so.6:_ZNK7QAction7toolTipEv
libQt6Gui.so.6:_ZNK7QAction8shortcutEv
libQt6Gui.so.6:_ZNK7QAction9isEnabledEv
libQt6Gui.so.6:_ZNK7QPixmap11transformedERK10QTransformN2Qt18TransformationModeE
libQt6Gui.so.6:_ZNK7QPixmap4copyERK5QRect
libQt6Gui.so.6:_ZNK7QPixmap4maskEv
libQt6Gui.so.6:_ZNK7QPixmap4rectEv
libQt6Gui.so.6:_ZNK7QPixmap5widthEv
libQt6Gui.so.6:_ZNK7QPixmap6heightEv
libQt6Gui.so.6:_ZNK7QPixmap6isNullEv
libQt6Gui.so.6:_ZNK7QPixmap6scaledERK5QSizeN2Qt15AspectRatioModeENS3_18TransformationModeE
libQt6Gui.so.6:_ZNK7QPixmap7toImageEv
libQt6Gui.so.6:_ZNK7QRegion10subtractedERKS_
libQt6Gui.so.6:_ZNK7QRegion12boundingRectEv
libQt6Gui.so.6:_ZNK7QScreen16devicePixelRatioEv
libQt6Gui.so.6:_ZNK7QScreen18logicalDotsPerInchEv
libQt6Gui.so.6:_ZNK7QScreen19physicalDotsPerInchEv
libQt6Gui.so.6:_ZNK8QPainter3penEv
libQt6Gui.so.6:_ZNK8QPainter5brushEv
libQt6Gui.so.6:_ZNK8QPalette5brushENS_10ColorGroupENS_9ColorRoleE
libQt6Gui.so.6:_ZNK9QKeyEvent7matchesEN12QKeySequence11StandardKeyE
libQt6Gui.so.6:_ZNK9QKeyEvent9modifiersEv
libQt6Gui.so.6:_ZNK9QTextLine6heightEv
libQt6Gui.so.6:_ZTI10QUndoStack
libQt6Gui.so.6:_ZTI11QMouseEvent
libQt6Gui.so.6:_ZTI12QUndoCommand
libQt6Gui.so.6:_ZTI7QAction
libQt6Gui.so.6:_ZTI9QKeyEvent
libQt6Gui.so.6:_ZTV6QImage
libQt6Gui.so.6:_ZTV7QPixmap
libQt6Gui.so.6:_Zls6QDebugPK7QAction
libQt6Gui.so.6:_Zls6QDebugRK5QFont
libQt6Gui.so.6:_Zls6QDebugRK6QColor
libQt6Gui.so.6:_Zls6QDebugRK7QPixmap
libQt6Gui.so.6:_ZlsR11QDataStreamRK5QFont
libQt6Gui.so.6:_ZlsR11QDataStreamRK6QColor
libQt6Gui.so.6:_ZlsR11QDataStreamRK7QPixmap
libQt6Gui.so.6:_ZrsR11QDataStreamR5QFont
libQt6Gui.so.6:_ZrsR11QDataStreamR6QColor
libQt6Gui.so.6:_ZrsR11QDataStreamR7QPixmap
libQt6Svg.so.6:_ZN12QSvgRenderer4loadERK7QString
libQt6Svg.so.6:_ZN12QSvgRenderer6renderEP8QPainterRK6QRectF
libQt6Svg.so.6:_ZN12QSvgRendererC1EP7QObject
libQt6Svg.so.6:_ZN12QSvgRendererD1Ev
libQt6Svg.so.6:_ZNK12QSvgRenderer11defaultSizeEv
libQt6Widgets.so.6:_ZN10QBoxLayout10addSpacingEi
libQt6Widgets.so.6:_ZN10QBoxLayout10addStretchEi
libQt6Widgets.so.6:_ZN10QBoxLayout12setDirectionENS_9DirectionE
libQt6Widgets.so.6:_ZN10QBoxLayout9addLayoutEP7QLayouti
libQt6Widgets.so.6:_ZN10QBoxLayout9addWidgetEP7QWidgeti6QFlagsIN2Qt13AlignmentFlagEE
libQt6Widgets.so.6:_ZN10QBoxLayoutC1ENS_9DirectionEP7QWidget
libQt6Widgets.so.6:_ZN10QTabWidget10paintEventEP11QPaintEvent
libQt6Widgets.so.6:_ZN10QTabWidget10setMovableEb
libQt6Widgets.so.6:_ZN10QTabWidget10setTabTextEiRK7QString
libQt6Widgets.so.6:_ZN10QTabWidget10tabRemovedEi
libQt6Widgets.so.6:_ZN10QTabWidget11changeEventEP6QEvent
libQt6Widgets.so.6:_ZN10QTabWidget11qt_metacallEN11QMetaObject4CallEiPPv
libQt6Widgets.so.6:_ZN10QTabWidget11qt_metacastEPKc
libQt6Widgets.so.6:_ZN10QTabWidget11resizeEventEP12QResizeEvent
libQt6Widgets.so.6:_ZN10QTabWidget11tabInsertedEi
libQt6Widgets.so.6:_ZN10QTabWidget13keyPressEventEP9QKeyEvent
libQt6Widgets.so.6:_ZN10QTabWidget13setTabToolTipEiRK7QString
libQt6Widgets.so.6:_ZN10QTabWidget14currentChangedEi
libQt6Widgets.so.6:_ZN10QTabWidget15setCurrentIndexEi
libQt6Widgets.so.6:_ZN10QTabWidget15setTabsClosableEb
libQt6Widgets.so.6:_ZN10QTabWidget16setCurrentWidgetEP7QWidget
libQt6Widgets.so.6:_ZN10QTabWidget16staticMetaObjectE
libQt6Widgets.so.6:_ZN10QTabWidget17setTabBarAutoHideEb
libQt6Widgets.so.6:_ZN10QTabWidget17tabCloseRequestedEi
libQt6Widgets.so.6:_ZN10QTabWidget5eventEP6QEvent
libQt6Widgets.so.6:_ZN10QTabWidget6addTabEP7QWidgetRK7QString
libQt6Widgets.so.6:_ZN10QTabWidget9insertTabEiP7QWidgetRK7QString
libQt6Widgets.so.6:_ZN10QTabWidget9removeTabEi
libQt6Widgets.so.6:_ZN10QTabWidget9showEventEP10QShowEvent
libQt6Widgets.so.6:_ZN10QTabWidgetC2EP7QWidget
libQt6Widgets.so.6:_ZN10QTabWidgetD2Ev
libQt6Widgets.so.6:_ZN11QDockWidget10closeEventEP11QCloseEvent
libQt6Widgets.so.6:_ZN11QDockWidget10paintEventEP11QPaintEvent
libQt6Widgets.so.6:_ZN11QDockWidget11changeEventEP6QEvent
libQt6Widgets.so.6:_ZN11QDockWidget11qt_metacallEN11QMetaObject4CallEiPPv
libQt6Widgets.so.6:_ZN11QDockWidget11qt_metacastEPKc
libQt6Widgets.so.6:_ZN11QDockWidget11setFeaturesE6QFlagsINS_17DockWidgetFeatureEE
libQt6Widgets.so.6:_ZN11QDockWidget15setAllowedAreasE6QFlagsIN2Qt14DockWidgetAreaEE
libQt6Widgets.so.6:_ZN11QDockWidget16staticMetaObjectE
libQt6Widgets.so.6:_ZN11QDockWidget17setTitleBarWidgetEP7QWidget
libQt6Widgets.so.6:_ZN11QDockWidget19dockLocationChangedEN2Qt14DockWidgetAreaE
libQt6Widgets.so.6:_ZN11QDockWidget5eventEP6QEvent
libQt6Widgets.so.6:_ZN11QDockWidget9setWidgetEP7QWidget
libQt6Widgets.so.6:_ZN11QDockWidgetC2ERK7QStringP7QWidget6QFlagsIN2Qt10WindowTypeEE
libQt6Widgets.so.6:_ZN11QDockWidgetD2Ev
libQt6Widgets.so.6:_ZN11QGridLayout21setColumnMinimumWidthEii
libQt6Widgets.so.6:_ZN11QGridLayout9addWidgetEP7QWidgetii6QFlagsIN2Qt13AlignmentFlagEE
libQt6Widgets.so.6:_ZN11QGridLayout9addWidgetEP7QWidgetiiii6QFlagsIN2Qt13AlignmentFlagEE
libQt6Widgets.so.6:_ZN11QGridLayoutC1EP7QWidget
libQt6Widgets.so.6:_ZN11QHBoxLayoutC1EP7QWidget
libQt6Widgets.so.6:_ZN11QHBoxLayoutC1Ev
libQt6Widgets.so.6:_ZN11QHBoxLayoutD1Ev
libQt6Widgets.so.6:_ZN11QLayoutItem10spacerItemEv
libQt6Widgets.so.6:_ZN11QLayoutItem12setAlignmentE6QFlagsIN2Qt13AlignmentFlagEE
libQt6Widgets.so.6:_ZN11QMainWindow11qt_metacallEN11QMetaObject4CallEiPPv
libQt6Widgets.so.6:_ZN11QMainWindow11qt_metacastEPKc
libQt6Widgets.so.6:_ZN11QMainWindow12restoreStateERK10QByteArrayi
libQt6Widgets.so.6:_ZN11QMainWindow13addDockWidgetEN2Qt14DockWidgetAreaEP11QDockWidget
libQt6Widgets.so.6:_ZN11QMainWindow15createPopupMenuEv
libQt6Widgets.so.6:_ZN11QMainWindow16contextMenuEventEP17QContextMenuEvent
libQt6Widgets.so.6:_ZN11QMainWindow16removeDockWidgetEP11QDockWidget
libQt6Widgets.so.6:_ZN11QMainWindow16setCentralWidgetEP7QWidget
libQt6Widgets.so.6:_ZN11QMainWindow16staticMetaObjectE
libQt6Widgets.so.6:_ZN11QMainWindow5eventEP6QEvent
libQt6Widgets.so.6:_ZN11QMainWindowC2EP7QWidget6QFlagsIN2Qt10WindowTypeEE
libQt6Widgets.so.6:_ZN11QMainWindowD2Ev
libQt6Widgets.so.6:_ZN11QPushButton10paintEventEP11QPaintEvent
libQt6Widgets.so.6:_ZN11QPushButton11qt_metacallEN11QMetaObject4CallEiPPv
libQt6Widgets.so.6:_ZN11QPushButton11qt_metacastEPKc
libQt6Widgets.so.6:_ZN11QPushButton12focusInEventEP11QFocusEvent
libQt6Widgets.so.6:_ZN11QPushButton13focusOutEventEP11QFocusEvent
libQt6Widgets.so.6:_ZN11QPushButton13keyPressEventEP9QKeyEvent
libQt6Widgets.so.6:_ZN11QPushButton14mouseMoveEventEP11QMouseEvent
libQt6Widgets.so.6:_ZN11QPushButton16staticMetaObjectE
libQt6Widgets.so.6:_ZN11QPushButton5eventEP6QEvent
libQt6Widgets.so.6:_ZN11QPushButtonC1EP7QWidget
libQt6Widgets.so.6:_ZN11QPushButtonC2EP7QWidget
libQt6Widgets.so.6:_ZN11QPushButtonD2Ev
libQt6Widgets.so.6:_ZN11QScrollArea18setWidgetResizableEb
libQt6Widgets.so.6:_ZN11QScrollArea9setWidgetEP7QWidget
libQt6Widgets.so.6:_ZN11QScrollAreaC1EP7QWidget
libQt6Widgets.so.6:_ZN11QToolButton10enterEventEP11QEnterEvent
libQt6Widgets.so.6:_ZN11QToolButton10leaveEventEP6QEvent
libQt6Widgets.so.6:_ZN11QToolButton10paintEventEP11QPaintEvent
libQt6Widgets.so.6:_ZN11QToolButton10timerEventEP11QTimerEvent
libQt6Widgets.so.6:_ZN11QToolButton11actionEventEP12QActionEvent
libQt6Widgets.so.6:_ZN11QToolButton11changeEventEP6QEvent
libQt6Widgets.so.6:_ZN11QToolButton11qt_metacallEN11QMetaObject4CallEiPPv
libQt6Widgets.so.6:_ZN11QToolButton11qt_metacastEPKc
libQt6Widgets.so.6:_ZN11QToolButton12setAutoRaiseEb
libQt6Widgets.so.6:_ZN11QToolButton12setPopupModeENS_19ToolButtonPopupModeE
libQt6Widgets.so.6:_ZN11QToolButton13checkStateSetEv
libQt6Widgets.so.6:_ZN11QToolButton14nextCheckStateEv
libQt6Widgets.so.6:_ZN11QToolButton15mousePressEventEP11QMouseEvent
libQt6Widgets.so.6:_ZN11QToolButton16setDefaultActionEP7QAction
libQt6Widgets.so.6:_ZN11QToolButton16staticMetaObjectE
libQt6Widgets.so.6:_ZN11QToolButton17mouseReleaseEventEP11QMouseEvent
libQt6Widgets.so.6:_ZN11QToolButton5eventEP6QEvent
libQt6Widgets.so.6:_ZN11QToolButton7setMenuEP5QMenu
libQt6Widgets.so.6:_ZN11QToolButton9triggeredEP7QAction
libQt6Widgets.so.6:_ZN11QToolButtonC2EP7QWidget
libQt6Widgets.so.6:_ZN11QToolButtonD2Ev
libQt6Widgets.so.6:_ZN11QVBoxLayoutC1EP7QWidget
libQt6Widgets.so.6:_ZN11QVBoxLayoutC1Ev
libQt6Widgets.so.6:_ZN12QButtonGroup12removeButtonEP15QAbstractButton
libQt6Widgets.so.6:_ZN12QButtonGroup13buttonClickedEP15QAbstractButton
libQt6Widgets.so.6:_ZN12QButtonGroup16staticMetaObjectE
libQt6Widgets.so.6:_ZN12QButtonGroup9addButtonEP15QAbstractButtoni
libQt6Widgets.so.6:_ZN12QButtonGroupC1EP7QObject
libQt6Widgets.so.6:_ZN12QColorDialog8getColorERK6QColorP7QWidgetRK7QString6QFlagsINS_17ColorDialogOptionEE
libQt6Widgets.so.6:_ZN12QRadioButtonC1EP7QWidget
libQt6Widgets.so.6:_ZN12QStyleOption8initFromEPK7QWidget
libQt6Widgets.so.6:_ZN12QStyleOptionC1Eii
libQt6Widgets.so.6:_ZN12QStyleOptionC2Eii
libQt6Widgets.so.6:_ZN12QStyleOptionD1Ev
libQt6Widgets.so.6:_ZN12QStyleOptionD2Ev
libQt6Widgets.so.6:_ZN12QStyleOptionaSERKS_
libQt6Widgets.so.6:_ZN13QFontComboBox11qt_metacallEN11QMetaObject4CallEiPPv
libQt6Widgets.so.6:_ZN13QFontComboBox11qt_metacastEPKc
libQt6Widgets.so.6:_ZN13QFontComboBox14setCurrentFontERK5QFont
libQt6Widgets.so.6:_ZN13QFontComboBox16staticMetaObjectE
libQt6Widgets.so.6:_ZN13QFontComboBox18currentFontChangedERK5QFont
libQt6Widgets.so.6:_ZN13QFontComboBox5eventEP6QEvent
libQt6Widgets.so.6:_ZN13QFontComboBoxC2EP7QWidget
libQt6Widgets.so.6:_ZN13QFontComboBoxD2Ev
libQt6Widgets.so.6:_ZN13QGraphicsItem10clearFocusEv
libQt6Widgets.so.6:_ZN13QGraphicsItem10itemChangeENS_18GraphicsItemChangeERK8QVariant
libQt6Widgets.so.6:_ZN13QGraphicsItem10sceneEventEP6QEvent
libQt6Widgets.so.6:_ZN13QGraphicsItem10setOpacityEd
libQt6Widgets.so.6:_ZN13QGraphicsItem10setVisibleEb
libQt6Widgets.so.6:_ZN13QGraphicsItem10wheelEventEP24QGraphicsSceneWheelEvent
libQt6Widgets.so.6:_ZN13QGraphicsItem11unsetCursorEv
libQt6Widgets.so.6:_ZN13QGraphicsItem12focusInEventEP11QFocusEvent
libQt6Widgets.so.6:_ZN13QGraphicsItem12setExtensionENS_9ExtensionERK8QVariant
libQt6Widgets.so.6:_ZN13QGraphicsItem13dragMoveEventEP27QGraphicsSceneDragDropEvent
libQt6Widgets.so.6:_ZN13QGraphicsItem13focusOutEventEP11QFocusEvent
libQt6Widgets.so.6:_ZN13QGraphicsItem13keyPressEventEP9QKeyEvent
libQt6Widgets.so.6:_ZN13QGraphicsItem14dragEnterEventEP27QGraphicsSceneDragDropEvent
libQt6Widgets.so.6:_ZN13QGraphicsItem14dragLeaveEventEP27QGraphicsSceneDragDropEvent
libQt6Widgets.so.6:_ZN13QGraphicsItem14hoverMoveEventEP24QGraphicsSceneHoverEvent
libQt6Widgets.so.6:_ZN13QGraphicsItem14mouseMoveEventEP24QGraphicsSceneMouseEvent
libQt6Widgets.so.6:_ZN13QGraphicsItem14resetTransformEv
libQt6Widgets.so.6:_ZN13QGraphicsItem15hoverEnterEventEP24QGraphicsSceneHoverEvent
libQt6Widgets.so.6:_ZN13QGraphicsItem15hoverLeaveEventEP24QGraphicsSceneHoverEvent
libQt6Widgets.so.6:_ZN13QGraphicsItem15keyReleaseEventEP9QKeyEvent
libQt6Widgets.so.6:_ZN13QGraphicsItem15mousePressEventEP24QGraphicsSceneMouseEvent
libQt6Widgets.so.6:_ZN13QGraphicsItem16contextMenuEventEP30QGraphicsSceneContextMenuEvent
libQt6Widgets.so.6:_ZN13QGraphicsItem16inputMethodEventEP17QInputMethodEvent
libQt6Widgets.so.6:_ZN13QGraphicsItem16sceneEventFilterEPS_P6QEvent
libQt6Widgets.so.6:_ZN13QGraphicsItem17mouseReleaseEventEP24QGraphicsSceneMouseEvent
libQt6Widgets.so.6:_ZN13QGraphicsItem17setGraphicsEffectEP15QGraphicsEffect
libQt6Widgets.so.6:_ZN13QGraphicsItem20setAcceptHoverEventsEb
libQt6Widgets.so.6:_ZN13QGraphicsItem21mouseDoubleClickEventEP24QGraphicsSceneMouseEvent
libQt6Widgets.so.6:_ZN13QGraphicsItem21prepareGeometryChangeEv
libQt6Widgets.so.6:_ZN13QGraphicsItem6setPosERK7QPointF
libQt6Widgets.so.6:_ZN13QGraphicsItem7advanceEi
libQt6Widgets.so.6:_ZN13QGraphicsItem7setFlagENS_16GraphicsItemFlagEb
libQt6Widgets.so.6:_ZN13QGraphicsItem8setFocusEN2Qt11FocusReasonE
libQt6Widgets.so.6:_ZN13QGraphicsItem9dropEventEP27QGraphicsSceneDragDropEvent
libQt6Widgets.so.6:_ZN13QGraphicsItem9setCursorERK7QCursor
libQt6Widgets.so.6:_ZN13QGraphicsItem9setZValueEd
libQt6Widgets.so.6:_ZN13QGraphicsView10paintEventEP11QPaintEvent
libQt6Widgets.so.6:_ZN13QGraphicsView10wheelEventEP11QWheelEvent
libQt6Widgets.so.6:_ZN13QGraphicsView11qt_metacallEN11QMetaObject4CallEiPPv
libQt6Widgets.so.6:_ZN13QGraphicsView11qt_metacastEPKc
libQt6Widgets.so.6:_ZN13QGraphicsView11resizeEventEP12QResizeEvent
libQt6Widgets.so.6:_ZN13QGraphicsView12focusInEventEP11QFocusEvent
libQt6Widgets.so.6:_ZN13QGraphicsView13dragMoveEventEP14QDragMoveEvent
libQt6Widgets.so.6:_ZN13QGraphicsView13focusOutEventEP11QFocusEvent
libQt6Widgets.so.6:_ZN13QGraphicsView13keyPressEventEP9QKeyEvent
libQt6Widgets.so.6:_ZN13QGraphicsView13setupViewportEP7QWidget
libQt6Widgets.so.6:_ZN13QGraphicsView13viewportEventEP6QEvent
libQt6Widgets.so.6:_ZN13QGraphicsView14dragEnterEventEP15QDragEnterEvent
libQt6Widgets.so.6:_ZN13QGraphicsView14dragLeaveEventEP15QDragLeaveEvent
libQt6Widgets.so.6:_ZN13QGraphicsView14drawBackgroundEP8QPainterRK6QRectF
libQt6Widgets.so.6:_ZN13QGraphicsView14drawForegroundEP8QPainterRK6QRectF
libQt6Widgets.so.6:_ZN13QGraphicsView14mouseMoveEventEP11QMouseEvent
libQt6Widgets.so.6:_ZN13QGraphicsView14resetTransformEv
libQt6Widgets.so.6:_ZN13QGraphicsView15keyReleaseEventEP9QKeyEvent
libQt6Widgets.so.6:_ZN13QGraphicsView15mousePressEventEP11QMouseEvent
libQt6Widgets.so.6:_ZN13QGraphicsView16contextMenuEventEP17QContextMenuEvent
libQt6Widgets.so.6:_ZN13QGraphicsView16inputMethodEventEP17QInputMethodEvent
libQt6Widgets.so.6:_ZN13QGraphicsView16scrollContentsByEii
libQt6Widgets.so.6:_ZN13QGraphicsView16staticMetaObjectE
libQt6Widgets.so.6:_ZN13QGraphicsView17mouseReleaseEventEP11QMouseEvent
libQt6Widgets.so.6:_ZN13QGraphicsView18focusNextPrevChildEb
libQt6Widgets.so.6:_ZN13QGraphicsView21mouseDoubleClickEventEP11QMouseEvent
libQt6Widgets.so.6:_ZN13QGraphicsView21setViewportUpdateModeENS_18ViewportUpdateModeE
libQt6Widgets.so.6:_ZN13QGraphicsView23setTransformationAnchorENS_14ViewportAnchorE
libQt6Widgets.so.6:_ZN13QGraphicsView5eventEP6QEvent
libQt6Widgets.so.6:_ZN13QGraphicsView5scaleEdd
libQt6Widgets.so.6:_ZN13QGraphicsView8setSceneEP14QGraphicsScene
libQt6Widgets.so.6:_ZN13QGraphicsView9drawItemsEP8QPainteriPP13QGraphicsItemPK24QStyleOptionGraphicsItem
libQt6Widgets.so.6:_ZN13QGraphicsView9dropEventEP10QDropEvent
libQt6Widgets.so.6:_ZN13QGraphicsView9fitInViewERK6QRectFN2Qt15AspectRatioModeE
libQt6Widgets.so.6:_ZN13QGraphicsView9showEventEP10QShowEvent
libQt6Widgets.so.6:_ZN13QGraphicsView9translateEdd
libQt6Widgets.so.6:_ZN13QGraphicsViewC1EP7QWidget
libQt6Widgets.so.6:_ZN13QGraphicsViewC2EP7QWidget
libQt6Widgets.so.6:_ZN13QGraphicsViewD2Ev
libQt6Widgets.so.6:_ZN13QWidgetAction11eventFilterEP7QObjectP6QEvent
libQt6Widgets.so.6:_ZN13QWidgetAction11qt_metacallEN11QMetaObject4CallEiPPv
libQt6Widgets.so.6:_ZN13QWidgetAction11qt_metacastEPKc
libQt6Widgets.so.6:_ZN13QWidgetAction12createWidgetEP7QWidget
libQt6Widgets.so.6:_ZN13QWidgetAction12deleteWidgetEP7QWidget
libQt6Widgets.so.6:_ZN13QWidgetAction16setDefaultWidgetEP7QWidget
libQt6Widgets.so.6:_ZN13QWidgetAction5eventEP6QEvent
libQt6Widgets.so.6:_ZN13QWidgetActionC2EP7QObject
libQt6Widgets.so.6:_ZN13QWidgetActionD2Ev
libQt6Widgets.so.6:_ZN14QGraphicsScene10removeItemEP13QGraphicsItem
libQt6Widgets.so.6:_ZN14QGraphicsScene10wheelEventEP24QGraphicsSceneWheelEvent
libQt6Widgets.so.6:_ZN14QGraphicsScene11eventFilterEP7QObjectP6QEvent
libQt6Widgets.so.6:_ZN14QGraphicsScene11qt_metacallEN11QMetaObject4CallEiPPv
libQt6Widgets.so.6:_ZN14QGraphicsScene11qt_metacastEPKc
libQt6Widgets.so.6:_ZN14QGraphicsScene12focusInEventEP11QFocusEvent
libQt6Widgets.so.6:_ZN14QGraphicsScene12setSceneRectERK6QRectF
libQt6Widgets.so.6:_ZN14QGraphicsScene13focusOutEventEP11QFocusEvent
libQt6Widgets.so.6:_ZN14QGraphicsScene13keyPressEventEP9QKeyEvent
libQt6Widgets.so.6:_ZN14QGraphicsScene14clearSelectionEv
libQt6Widgets.so.6:_ZN14QGraphicsScene14dragEnterEventEP27QGraphicsSceneDragDropEvent
libQt6Widgets.so.6:_ZN14QGraphicsScene14dragLeaveEventEP27QGraphicsSceneDragDropEvent
libQt6Widgets.so.6:_ZN14QGraphicsScene14drawBackgroundEP8QPainterRK6QRectF
libQt6Widgets.so.6:_ZN14QGraphicsScene14drawForegroundEP8QPainterRK6QRectF
libQt6Widgets.so.6:_ZN14QGraphicsScene14mouseMoveEventEP24QGraphicsSceneMouseEvent
libQt6Widgets.so.6:_ZN14QGraphicsScene15keyReleaseEventEP9QKeyEvent
libQt6Widgets.so.6:_ZN14QGraphicsScene15mousePressEventEP24QGraphicsSceneMouseEvent
libQt6Widgets.so.6:_ZN14QGraphicsScene16inputMethodEventEP17QInputMethodEvent
libQt6Widgets.so.6:_ZN14QGraphicsScene16staticMetaObjectE
libQt6Widgets.so.6:_ZN14QGraphicsScene17mouseReleaseEventEP24QGraphicsSceneMouseEvent
libQt6Widgets.so.6:_ZN14QGraphicsScene18focusNextPrevChildEb
libQt6Widgets.so.6:_ZN14QGraphicsScene5eventEP6QEvent
libQt6Widgets.so.6:_ZN14QGraphicsScene6renderEP8QPainterRK6QRectFS4_N2Qt15AspectRatioModeE
libQt6Widgets.so.6:_ZN14QGraphicsScene6updateERK6QRectF
libQt6Widgets.so.6:_ZN14QGraphicsScene7addItemEP13QGraphicsItem
libQt6Widgets.so.6:_ZN14QGraphicsScene9addPixmapERK7QPixmap
libQt6Widgets.so.6:_ZN14QGraphicsScene9drawItemsEP8QPainteriPP13QGraphicsItemPK24QStyleOptionGraphicsItemP7QWidget
libQt6Widgets.so.6:_ZN14QGraphicsScene9dropEventEP27QGraphicsSceneDragDropEvent
libQt6Widgets.so.6:_ZN14QGraphicsScene9helpEventEP23QGraphicsSceneHelpEvent
libQt6Widgets.so.6:_ZN14QGraphicsSceneC2EP7QObject
libQt6Widgets.so.6:_ZN14QGraphicsSceneD2Ev
libQt6Widgets.so.6:_ZN14QStackedWidget11qt_metacallEN11QMetaObject4CallEiPPv
libQt6Widgets.so.6:_ZN14QStackedWidget11qt_metacastEPKc
libQt6Widgets.so.6:_ZN14QStackedWidget16setCurrentWidgetEP7QWidget
libQt6Widgets.so.6:_ZN14QStackedWidget16staticMetaObjectE
libQt6Widgets.so.6:_ZN14QStackedWidget5eventEP6QEvent
libQt6Widgets.so.6:_ZN14QStackedWidget9addWidgetEP7QWidget
libQt6Widgets.so.6:_ZN14QStackedWidgetC2EP7QWidget
libQt6Widgets.so.6:_ZN14QStackedWidgetD2Ev
libQt6Widgets.so.6:_ZN15QAbstractButton10setCheckedEb
libQt6Widgets.so.6:_ZN15QAbstractButton10timerEventEP11QTimerEvent
libQt6Widgets.so.6:_ZN15QAbstractButton11changeEventEP6QEvent
libQt6Widgets.so.6:_ZN15QAbstractButton11setIconSizeERK5QSize
libQt6Widgets.so.6:_ZN15QAbstractButton12focusInEventEP11QFocusEvent
libQt6Widgets.so.6:_ZN15QAbstractButton12setCheckableEb
libQt6Widgets.so.6:_ZN15QAbstractButton13checkStateSetEv
libQt6Widgets.so.6:_ZN15QAbstractButton13focusOutEventEP11QFocusEvent
libQt6Widgets.so.6:_ZN15QAbstractButton13keyPressEventEP9QKeyEvent
libQt6Widgets.so.6:_ZN15QAbstractButton14mouseMoveEventEP11QMouseEvent
libQt6Widgets.so.6:_ZN15QAbstractButton14nextCheckStateEv
libQt6Widgets.so.6:_ZN15QAbstractButton15keyReleaseEventEP9QKeyEvent
libQt6Widgets.so.6:_ZN15QAbstractButton15mousePressEventEP11QMouseEvent
libQt6Widgets.so.6:_ZN15QAbstractButton16staticMetaObjectE
libQt6Widgets.so.6:_ZN15QAbstractButton17mouseReleaseEventEP11QMouseEvent
libQt6Widgets.so.6:_ZN15QAbstractButton7clickedEb
libQt6Widgets.so.6:_ZN15QAbstractButton7setIconERK5QIcon
libQt6Widgets.so.6:_ZN15QAbstractButton7setTextERK7QString
libQt6Widgets.so.6:_ZN15QAbstractButton7toggledEb
libQt6Widgets.so.6:_ZN15QAbstractSlider8setValueEi
libQt6Widgets.so.6:_ZN15QGraphicsEffect11qt_metacallEN11QMetaObject4CallEiPPv
libQt6Widgets.so.6:_ZN15QGraphicsEffect11qt_metacastEPKc
libQt6Widgets.so.6:_ZN15QGraphicsEffect13sourceChangedE6QFlagsINS_10ChangeFlagEE
libQt6Widgets.so.6:_ZN15QGraphicsEffect16staticMetaObjectE
libQt6Widgets.so.6:_ZN15QGraphicsEffectC2EP7QObject
libQt6Widgets.so.6:_ZN15QGraphicsEffectD2Ev
libQt6Widgets.so.6:_ZN15QGraphicsObject14visibleChangedEv
libQt6Widgets.so.6:_ZN15QGraphicsObject16staticMetaObjectE
libQt6Widgets.so.6:_ZN15QGraphicsObject5eventEP6QEvent
libQt6Widgets.so.6:_ZN15QGraphicsWidget10closeEventEP11QCloseEvent
libQt6Widgets.so.6:_ZN15QGraphicsWidget10itemChangeEN13QGraphicsItem18GraphicsItemChangeERK8QVariant
libQt6Widgets.so.6:_ZN15QGraphicsWidget10sceneEventEP6QEvent
libQt6Widgets.so.6:_ZN15QGraphicsWidget11changeEventEP6QEvent
libQt6Widgets.so.6:_ZN15QGraphicsWidget11polishEventEv
libQt6Widgets.so.6:_ZN15QGraphicsWidget11qt_metacallEN11QMetaObject4CallEiPPv
libQt6Widgets.so.6:_ZN15QGraphicsWidget11qt_metacastEPKc
libQt6Widgets.so.6:_ZN15QGraphicsWidget11resizeEventEP25QGraphicsSceneResizeEvent
libQt6Widgets.so.6:_ZN15QGraphicsWidget11setGeometryERK6QRectF
libQt6Widgets.so.6:_ZN15QGraphicsWidget12focusInEventEP11QFocusEvent
libQt6Widgets.so.6:_ZN15QGraphicsWidget13focusOutEventEP11QFocusEvent
libQt6Widgets.so.6:_ZN15QGraphicsWidget14grabMouseEventEP6QEvent
libQt6Widgets.so.6:_ZN15QGraphicsWidget14hoverMoveEventEP24QGraphicsSceneHoverEvent
libQt6Widgets.so.6:_ZN15QGraphicsWidget14propertyChangeERK7QStringRK8QVariant
libQt6Widgets.so.6:_ZN15QGraphicsWidget14updateGeometryEv
libQt6Widgets.so.6:_ZN15QGraphicsWidget15hoverLeaveEventEP24QGraphicsSceneHoverEvent
libQt6Widgets.so.6:_ZN15QGraphicsWidget16paintWindowFrameEP8QPainterPK24QStyleOptionGraphicsItemP7QWidget
libQt6Widgets.so.6:_ZN15QGraphicsWidget16staticMetaObjectE
libQt6Widgets.so.6:_ZN15QGraphicsWidget16ungrabMouseEventEP6QEvent
libQt6Widgets.so.6:_ZN15QGraphicsWidget16windowFrameEventEP6QEvent
libQt6Widgets.so.6:_ZN15QGraphicsWidget17grabKeyboardEventEP6QEvent
libQt6Widgets.so.6:_ZN15QGraphicsWidget18focusNextPrevChildEb
libQt6Widgets.so.6:_ZN15QGraphicsWidget19ungrabKeyboardEventEP6QEvent
libQt6Widgets.so.6:_ZN15QGraphicsWidget5eventEP6QEvent
libQt6Widgets.so.6:_ZN15QGraphicsWidget9hideEventEP10QHideEvent
libQt6Widgets.so.6:_ZN15QGraphicsWidget9moveEventEP23QGraphicsSceneMoveEvent
libQt6Widgets.so.6:_ZN15QGraphicsWidget9showEventEP10QShowEvent
libQt6Widgets.so.6:_ZN15QGraphicsWidgetC2EP13QGraphicsItem6QFlagsIN2Qt10WindowTypeEE
libQt6Widgets.so.6:_ZN15QGraphicsWidgetD2Ev
libQt6Widgets.so.6:_ZN16QAbstractSpinBox10closeEventEP11QCloseEvent
libQt6Widgets.so.6:_ZN16QAbstractSpinBox10paintEventEP11QPaintEvent
libQt6Widgets.so.6:_ZN16QAbstractSpinBox10timerEventEP11QTimerEvent
libQt6Widgets.so.6:_ZN16QAbstractSpinBox10wheelEventEP11QWheelEvent
libQt6Widgets.so.6:_ZN16QAbstractSpinBox11changeEventEP6QEvent
libQt6Widgets.so.6:_ZN16QAbstractSpinBox11resizeEventEP12QResizeEvent
libQt6Widgets.so.6:_ZN16QAbstractSpinBox11setWrappingEb
libQt6Widgets.so.6:_ZN16QAbstractSpinBox12focusInEventEP11QFocusEvent
libQt6Widgets.so.6:_ZN16QAbstractSpinBox12setAlignmentE6QFlagsIN2Qt13AlignmentFlagEE
libQt6Widgets.so.6:_ZN16QAbstractSpinBox13focusOutEventEP11QFocusEvent
libQt6Widgets.so.6:_ZN16QAbstractSpinBox13keyPressEventEP9QKeyEvent
libQt6Widgets.so.6:_ZN16QAbstractSpinBox14mouseMoveEventEP11QMouseEvent
libQt6Widgets.so.6:_ZN16QAbstractSpinBox15keyReleaseEventEP9QKeyEvent
libQt6Widgets.so.6:_ZN16QAbstractSpinBox15mousePressEventEP11QMouseEvent
libQt6Widgets.so.6:_ZN16QAbstractSpinBox16contextMenuEventEP17QContextMenuEvent
libQt6Widgets.so.6:_ZN16QAbstractSpinBox17mouseReleaseEventEP11QMouseEvent
libQt6Widgets.so.6:_ZN16QAbstractSpinBox5clearEv
libQt6Widgets.so.6:_ZN16QAbstractSpinBox6stepByEi
libQt6Widgets.so.6:_ZN16QAbstractSpinBox9hideEventEP10QHideEvent
libQt6Widgets.so.6:_ZN16QAbstractSpinBox9showEventEP10QShowEvent
libQt6Widgets.so.6:_ZN17QGraphicsTextItem10sceneEventEP6QEvent
libQt6Widgets.so.6:_ZN17QGraphicsTextItem11qt_metacallEN11QMetaObject4CallEiPPv
libQt6Widgets.so.6:_ZN17QGraphicsTextItem11qt_metacastEPKc
libQt6Widgets.so.6:_ZN17QGraphicsTextItem12focusInEventEP11QFocusEvent
libQt6Widgets.so.6:_ZN17QGraphicsTextItem12setExtensionEN13QGraphicsItem9ExtensionERK8QVariant
libQt6Widgets.so.6:_ZN17QGraphicsTextItem13dragMoveEventEP27QGraphicsSceneDragDropEvent
libQt6Widgets.so.6:_ZN17QGraphicsTextItem13focusOutEventEP11QFocusEvent
libQt6Widgets.so.6:_ZN17QGraphicsTextItem13keyPressEventEP9QKeyEvent
libQt6Widgets.so.6:_ZN17QGraphicsTextItem13setTextCursorERK11QTextCursor
libQt6Widgets.so.6:_ZN17QGraphicsTextItem14dragEnterEventEP27QGraphicsSceneDragDropEvent
libQt6Widgets.so.6:_ZN17QGraphicsTextItem14dragLeaveEventEP27QGraphicsSceneDragDropEvent
libQt6Widgets.so.6:_ZN17QGraphicsTextItem14hoverMoveEventEP24QGraphicsSceneHoverEvent
libQt6Widgets.so.6:_ZN17QGraphicsTextItem14mouseMoveEventEP24QGraphicsSceneMouseEvent
libQt6Widgets.so.6:_ZN17QGraphicsTextItem15hoverEnterEventEP24QGraphicsSceneHoverEvent
libQt6Widgets.so.6:_ZN17QGraphicsTextItem15hoverLeaveEventEP24QGraphicsSceneHoverEvent
libQt6Widgets.so.6:_ZN17QGraphicsTextItem15keyReleaseEventEP9QKeyEvent
libQt6Widgets.so.6:_ZN17QGraphicsTextItem15mousePressEventEP24QGraphicsSceneMouseEvent
libQt6Widgets.so.6:_ZN17QGraphicsTextItem16contextMenuEventEP30QGraphicsSceneContextMenuEvent
libQt6Widgets.so.6:_ZN17QGraphicsTextItem16inputMethodEventEP17QInputMethodEvent
libQt6Widgets.so.6:_ZN17QGraphicsTextItem16staticMetaObjectE
libQt6Widgets.so.6:_ZN17QGraphicsTextItem17mouseReleaseEventEP24QGraphicsSceneMouseEvent
libQt6Widgets.so.6:_ZN17QGraphicsTextItem19setDefaultTextColorERK6QColor
libQt6Widgets.so.6:_ZN17QGraphicsTextItem21mouseDoubleClickEventEP24QGraphicsSceneMouseEvent
libQt6Widgets.so.6:_ZN17QGraphicsTextItem23setTextInteractionFlagsE6QFlagsIN2Qt19TextInteractionFlagEE
libQt6Widgets.so.6:_ZN17QGraphicsTextItem5paintEP8QPainterPK24QStyleOptionGraphicsItemP7QWidget
libQt6Widgets.so.6:_ZN17QGraphicsTextItem7setFontERK5QFont
libQt6Widgets.so.6:_ZN17QGraphicsTextItem9dropEventEP27QGraphicsSceneDragDropEvent
libQt6Widgets.so.6:_ZN17QGraphicsTextItemC2EP13QGraphicsItem
libQt6Widgets.so.6:_ZN17QGraphicsTextItemC2ERK7QStringP13QGraphicsItem
libQt6Widgets.so.6:_ZN17QGraphicsTextItemD2Ev
libQt6Widgets.so.6:_ZN18QGraphicsItemGroup10addToGroupEP13QGraphicsItem
libQt6Widgets.so.6:_ZN18QGraphicsItemGroup15removeFromGroupEP13QGraphicsItem
libQt6Widgets.so.6:_ZN18QGraphicsItemGroup5paintEP8QPainterPK24QStyleOptionGraphicsItemP7QWidget
libQt6Widgets.so.6:_ZN18QGraphicsItemGroupC2EP13QGraphicsItem
libQt6Widgets.so.6:_ZN18QGraphicsItemGroupD2Ev
libQt6Widgets.so.6:_ZN19QAbstractScrollArea11eventFilterEP7QObjectP6QEvent
libQt6Widgets.so.6:_ZN19QGraphicsLayoutItem14setMinimumSizeERK6QSizeF
libQt6Widgets.so.6:_ZN19QGraphicsPixmapItem9setPixmapERK7QPixmap
libQt6Widgets.so.6:_ZN25QGraphicsDropShadowEffect11qt_metacallEN11QMetaObject4CallEiPPv
libQt6Widgets.so.6:_ZN25QGraphicsDropShadowEffect11qt_metacastEPKc
libQt6Widgets.so.6:_ZN25QGraphicsDropShadowEffect13setBlurRadiusEd
libQt6Widgets.so.6:_ZN25QGraphicsDropShadowEffect16staticMetaObjectE
libQt6Widgets.so.6:_ZN25QGraphicsDropShadowEffect4drawEP8QPainter
libQt6Widgets.so.6:_ZN25QGraphicsDropShadowEffect8setColorERK6QColor
libQt6Widgets.so.6:_ZN25QGraphicsDropShadowEffect9setOffsetERK7QPointF
libQt6Widgets.so.6:_ZN25QGraphicsDropShadowEffectC2EP7QObject
libQt6Widgets.so.6:_ZN25QGraphicsDropShadowEffectD2Ev
libQt6Widgets.so.6:_ZN5QMenu10enterEventEP11QEnterEvent
libQt6Widgets.so.6:_ZN5QMenu10leaveEventEP6QEvent
libQt6Widgets.so.6:_ZN5QMenu10paintEventEP11QPaintEvent
libQt6Widgets.so.6:_ZN5QMenu10timerEventEP11QTimerEvent
libQt6Widgets.so.6:_ZN5QMenu10wheelEventEP11QWheelEvent
libQt6Widgets.so.6:_ZN5QMenu11actionEventEP12QActionEvent
libQt6Widgets.so.6:_ZN5QMenu11changeEventEP6QEvent
libQt6Widgets.so.6:_ZN5QMenu11qt_metacallEN11QMetaObject4CallEiPPv
libQt6Widgets.so.6:_ZN5QMenu11qt_metacastEPKc
libQt6Widgets.so.6:_ZN5QMenu12addSeparatorEv
libQt6Widgets.so.6:_ZN5QMenu13keyPressEventEP9QKeyEvent
libQt6Widgets.so.6:_ZN5QMenu14mouseMoveEventEP11QMouseEvent
libQt6Widgets.so.6:_ZN5QMenu15mousePressEventEP11QMouseEvent
libQt6Widgets.so.6:_ZN5QMenu16staticMetaObjectE
libQt6Widgets.so.6:_ZN5QMenu17mouseReleaseEventEP11QMouseEvent
libQt6Widgets.so.6:_ZN5QMenu18focusNextPrevChildEb
libQt6Widgets.so.6:_ZN5QMenu4execERK6QPointP7QAction
libQt6Widgets.so.6:_ZN5QMenu5clearEv
libQt6Widgets.so.6:_ZN5QMenu5eventEP6QEvent
libQt6Widgets.so.6:_ZN5QMenu7addMenuERK7QString
libQt6Widgets.so.6:_ZN5QMenu9hideEventEP10QHideEvent
libQt6Widgets.so.6:_ZN5QMenuC1EP7QWidget
libQt6Widgets.so.6:_ZN5QMenuC2EP7QWidget
libQt6Widgets.so.6:_ZN5QMenuD2Ev
libQt6Widgets.so.6:_ZN6QFrame10paintEventEP11QPaintEvent
libQt6Widgets.so.6:_ZN6QFrame11changeEventEP6QEvent
libQt6Widgets.so.6:_ZN6QFrame11qt_metacallEN11QMetaObject4CallEiPPv
libQt6Widgets.so.6:_ZN6QFrame11qt_metacastEPKc
libQt6Widgets.so.6:_ZN6QFrame13setFrameShapeENS_5ShapeE
libQt6Widgets.so.6:_ZN6QFrame14setFrameShadowENS_6ShadowE
libQt6Widgets.so.6:_ZN6QFrame16staticMetaObjectE
libQt6Widgets.so.6:_ZN6QFrame5eventEP6QEvent
libQt6Widgets.so.6:_ZN6QFrameC2EP7QWidget6QFlagsIN2Qt10WindowTypeEE
libQt6Widgets.so.6:_ZN6QFrameD2Ev
libQt6Widgets.so.6:_ZN6QLabel7setTextERK7QString
libQt6Widgets.so.6:_ZN6QLabel9setMarginEi
libQt6Widgets.so.6:_ZN6QLabel9setPixmapERK7QPixmap
libQt6Widgets.so.6:_ZN6QLabelC1EP7QWidget6QFlagsIN2Qt10WindowTypeEE
libQt6Widgets.so.6:_ZN7QDialog10closeEventEP11QCloseEvent
libQt6Widgets.so.6:_ZN7QDialog10setVisibleEb
libQt6Widgets.so.6:_ZN7QDialog11eventFilterEP7QObjectP6QEvent
libQt6Widgets.so.6:_ZN7QDialog11qt_metacallEN11QMetaObject4CallEiPPv
libQt6Widgets.so.6:_ZN7QDialog11qt_metacastEPKc
libQt6Widgets.so.6:_ZN7QDialog11resizeEventEP12QResizeEvent
libQt6Widgets.so.6:_ZN7QDialog13keyPressEventEP9QKeyEvent
libQt6Widgets.so.6:_ZN7QDialog16contextMenuEventEP17QContextMenuEvent
libQt6Widgets.so.6:_ZN7QDialog16staticMetaObjectE
libQt6Widgets.so.6:_ZN7QDialog4doneEi
libQt6Widgets.so.6:_ZN7QDialog4execEv
libQt6Widgets.so.6:_ZN7QDialog4openEv
libQt6Widgets.so.6:_ZN7QDialog6acceptEv
libQt6Widgets.so.6:_ZN7QDialog6rejectEv
libQt6Widgets.so.6:_ZN7QDialog9showEventEP10QShowEvent
libQt6Widgets.so.6:_ZN7QDialogC2EP7QWidget6QFlagsIN2Qt10WindowTypeEE
libQt6Widgets.so.6:_ZN7QDialogD2Ev
libQt6Widgets.so.6:_ZN7QLayout10childEventEP11QChildEvent
libQt6Widgets.so.6:_ZN7QLayout10invalidateEv
libQt6Widgets.so.6:_ZN7QLayout10setSpacingEi
libQt6Widgets.so.6:_ZN7QLayout11qt_metacallEN11QMetaObject4CallEiPPv
libQt6Widgets.so.6:_ZN7QLayout11qt_metacastEPKc
libQt6Widgets.so.6:_ZN7QLayout11setGeometryERK5QRect
libQt6Widgets.so.6:_ZN7QLayout12removeWidgetEP7QWidget
libQt6Widgets.so.6:_ZN7QLayout13replaceWidgetEP7QWidgetS1_6QFlagsIN2Qt15FindChildOptionEE
libQt6Widgets.so.6:_ZN7QLayout18setContentsMarginsEiiii
libQt6Widgets.so.6:_ZN7QLayout6layoutEv
libQt6Widgets.so.6:_ZN7QLayout9addWidgetEP7QWidget
libQt6Widgets.so.6:_ZN7QLayoutC2EP7QWidget
libQt6Widgets.so.6:_ZN7QLayoutD2Ev
libQt6Widgets.so.6:_ZN7QTabBar14currentChangedEi
libQt6Widgets.so.6:_ZN7QTabBar16staticMetaObjectE
libQt6Widgets.so.6:_ZN7QTabBar8tabMovedEii
libQt6Widgets.so.6:_ZN7QWidget10adjustSizeEv
libQt6Widgets.so.6:_ZN7QWidget10closeEventEP11QCloseEvent
libQt6Widgets.so.6:_ZN7QWidget10enterEventEP11QEnterEvent
libQt6Widgets.so.6:_ZN7QWidget10leaveEventEP6QEvent
libQt6Widgets.so.6:_ZN7QWidget10paintEventEP11QPaintEvent
libQt6Widgets.so.6:_ZN7QWidget10setEnabledEb
libQt6Widgets.so.6:_ZN7QWidget10setToolTipERK7QString
libQt6Widgets.so.6:_ZN7QWidget10setVisibleEb
libQt6Widgets.so.6:_ZN7QWidget10wheelEventEP11QWheelEvent
libQt6Widgets.so.6:_ZN7QWidget11actionEventEP12QActionEvent
libQt6Widgets.so.6:_ZN7QWidget11changeEventEP6QEvent
libQt6Widgets.so.6:_ZN7QWidget11nativeEventERK10QByteArrayPvPx
libQt6Widgets.so.6:_ZN7QWidget11qt_metacallEN11QMetaObject4CallEiPPv
libQt6Widgets.so.6:_ZN7QWidget11qt_metacastEPKc
libQt6Widgets.so.6:_ZN7QWidget11resizeEventEP12QResizeEvent
libQt6Widgets.so.6:_ZN7QWidget11tabletEventEP12QTabletEvent
libQt6Widgets.so.6:_ZN7QWidget11unsetCursorEv
libQt6Widgets.so.6:_ZN7QWidget12focusInEventEP11QFocusEvent
libQt6Widgets.so.6:_ZN7QWidget12setAttributeEN2Qt15WidgetAttributeEb
libQt6Widgets.so.6:_ZN7QWidget12setFixedSizeERK5QSize
libQt6Widgets.so.6:_ZN7QWidget12setFixedSizeEii
libQt6Widgets.so.6:_ZN7QWidget13dragMoveEventEP14QDragMoveEvent
libQt6Widgets.so.6:_ZN7QWidget13focusOutEventEP11QFocusEvent
libQt6Widgets.so.6:_ZN7QWidget13keyPressEventEP9QKeyEvent
libQt6Widgets.so.6:_ZN7QWidget13setSizePolicyE11QSizePolicy
libQt6Widgets.so.6:_ZN7QWidget13setStyleSheetERK7QString
libQt6Widgets.so.6:_ZN7QWidget14dragEnterEventEP15QDragEnterEvent
libQt6Widgets.so.6:_ZN7QWidget14dragLeaveEventEP15QDragLeaveEvent
libQt6Widgets.so.6:_ZN7QWidget14mouseMoveEventEP11QMouseEvent
libQt6Widgets.so.6:_ZN7QWidget14setFocusPolicyEN2Qt11FocusPolicyE
libQt6Widgets.so.6:_ZN7QWidget14setMaximumSizeEii
libQt6Widgets.so.6:_ZN7QWidget14setMinimumSizeEii
libQt6Widgets.so.6:_ZN7QWidget14setWindowTitleERK7QString
libQt6Widgets.so.6:_ZN7QWidget15keyReleaseEventEP9QKeyEvent
libQt6Widgets.so.6:_ZN7QWidget15mousePressEventEP11QMouseEvent
libQt6Widgets.so.6:_ZN7QWidget15setMinimumWidthEi
libQt6Widgets.so.6:_ZN7QWidget16contextMenuEventEP17QContextMenuEvent
libQt6Widgets.so.6:_ZN7QWidget16inputMethodEventEP17QInputMethodEvent
libQt6Widgets.so.6:_ZN7QWidget16staticMetaObjectE
libQt6Widgets.so.6:_ZN7QWidget17mouseReleaseEventEP11QMouseEvent
libQt6Widgets.so.6:_ZN7QWidget18focusNextPrevChildEb
libQt6Widgets.so.6:_ZN7QWidget18setContentsMarginsEiiii
libQt6Widgets.so.6:_ZN7QWidget18setLayoutDirectionEN2Qt15LayoutDirectionE
libQt6Widgets.so.6:_ZN7QWidget20setContextMenuPolicyEN2Qt17ContextMenuPolicyE
libQt6Widgets.so.6:_ZN7QWidget21mouseDoubleClickEventEP11QMouseEvent
libQt6Widgets.so.6:_ZN7QWidget26customContextMenuRequestedERK6QPoint
libQt6Widgets.so.6:_ZN7QWidget4hideEv
libQt6Widgets.so.6:_ZN7QWidget4showEv
libQt6Widgets.so.6:_ZN7QWidget5closeEv
libQt6Widgets.so.6:_ZN7QWidget5eventEP6QEvent
libQt6Widgets.so.6:_ZN7QWidget6updateEv
libQt6Widgets.so.6:_ZN7QWidget8setFocusEN2Qt11FocusReasonE
libQt6Widgets.so.6:_ZN7QWidget9addActionEP7QAction
libQt6Widgets.so.6:_ZN7QWidget9addActionERK7QString
libQt6Widgets.so.6:_ZN7QWidget9dropEventEP10QDropEvent
libQt6Widgets.so.6:_ZN7QWidget9hideEventEP10QHideEvent
libQt6Widgets.so.6:_ZN7QWidget9moveEventEP10QMoveEvent
libQt6Widgets.so.6:_ZN7QWidget9setCursorERK7QCursor
libQt6Widgets.so.6:_ZN7QWidget9setLayoutEP7QLayout
libQt6Widgets.so.6:_ZN7QWidget9showEventEP10QShowEvent
libQt6Widgets.so.6:_ZN7QWidgetC1EPS_6QFlagsIN2Qt10WindowTypeEE
libQt6Widgets.so.6:_ZN7QWidgetC2EPS_6QFlagsIN2Qt10WindowTypeEE
libQt6Widgets.so.6:_ZN7QWidgetD2Ev
libQt6Widgets.so.6:_ZN8QSpinBox10setMaximumEi
libQt6Widgets.so.6:_ZN8QSpinBox10setMinimumEi
libQt6Widgets.so.6:_ZN8QSpinBox11qt_metacallEN11QMetaObject4CallEiPPv
libQt6Widgets.so.6:_ZN8QSpinBox11qt_metacastEPKc
libQt6Widgets.so.6:_ZN8QSpinBox12valueChangedEi
libQt6Widgets.so.6:_ZN8QSpinBox13setSingleStepEi
libQt6Widgets.so.6:_ZN8QSpinBox16staticMetaObjectE
libQt6Widgets.so.6:_ZN8QSpinBox5eventEP6QEvent
libQt6Widgets.so.6:_ZN8QSpinBox8setRangeEii
libQt6Widgets.so.6:_ZN8QSpinBox8setValueEi
libQt6Widgets.so.6:_ZN8QSpinBox9setSuffixERK7QString
libQt6Widgets.so.6:_ZN8QSpinBoxC2EP7QWidget
libQt6Widgets.so.6:_ZN8QSpinBoxD2Ev
libQt6Widgets.so.6:_ZN9QCheckBox12stateChangedEi
libQt6Widgets.so.6:_ZN9QCheckBox16staticMetaObjectE
libQt6Widgets.so.6:_ZN9QCheckBoxC1EP7QWidget
libQt6Widgets.so.6:_ZN9QComboBox10paintEventEP11QPaintEvent
libQt6Widgets.so.6:_ZN9QComboBox10wheelEventEP11QWheelEvent
libQt6Widgets.so.6:_ZN9QComboBox11changeEventEP6QEvent
libQt6Widgets.so.6:_ZN9QComboBox11resizeEventEP12QResizeEvent
libQt6Widgets.so.6:_ZN9QComboBox12focusInEventEP11QFocusEvent
libQt6Widgets.so.6:_ZN9QComboBox13focusOutEventEP11QFocusEvent
libQt6Widgets.so.6:_ZN9QComboBox13keyPressEventEP9QKeyEvent
libQt6Widgets.so.6:_ZN9QComboBox14setCurrentTextERK7QString
libQt6Widgets.so.6:_ZN9QComboBox15keyReleaseEventEP9QKeyEvent
libQt6Widgets.so.6:_ZN9QComboBox15mousePressEventEP11QMouseEvent
libQt6Widgets.so.6:_ZN9QComboBox16contextMenuEventEP17QContextMenuEvent
libQt6Widgets.so.6:_ZN9QComboBox16inputMethodEventEP17QInputMethodEvent
libQt6Widgets.so.6:_ZN9QComboBox16staticMetaObjectE
libQt6Widgets.so.6:_ZN9QComboBox17mouseReleaseEventEP11QMouseEvent
libQt6Widgets.so.6:_ZN9QComboBox19currentIndexChangedEi
libQt6Widgets.so.6:_ZN9QComboBox8setModelEP18QAbstractItemModel
libQt6Widgets.so.6:_ZN9QComboBox9hideEventEP10QHideEvent
libQt6Widgets.so.6:_ZN9QComboBox9hidePopupEv
libQt6Widgets.so.6:_ZN9QComboBox9showEventEP10QShowEvent
libQt6Widgets.so.6:_ZN9QComboBox9showPopupEv
libQt6Widgets.so.6:_ZN9QGroupBox7setFlatEb
libQt6Widgets.so.6:_ZN9QGroupBox8setTitleERK7QString
libQt6Widgets.so.6:_ZN9QGroupBoxC1EP7QWidget
libQt6Widgets.so.6:_ZN9QLineEdit10textEditedERK7QString
libQt6Widgets.so.6:_ZN9QLineEdit12setValidatorEPK10QValidator
libQt6Widgets.so.6:_ZN9QLineEdit16staticMetaObjectE
libQt6Widgets.so.6:_ZN9QLineEdit7setTextERK7QString
libQt6Widgets.so.6:_ZN9QLineEditC1EP7QWidget
libQt6Widgets.so.6:_ZNK10QTabWidget12currentIndexEv
libQt6Widgets.so.6:_ZNK10QTabWidget13currentWidgetEv
libQt6Widgets.so.6:_ZNK10QTabWidget14heightForWidthEi
libQt6Widgets.so.6:_ZNK10QTabWidget15initStyleOptionEP26QStyleOptionTabWidgetFrame
libQt6Widgets.so.6:_ZNK10QTabWidget15minimumSizeHintEv
libQt6Widgets.so.6:_ZNK10QTabWidget17hasHeightForWidthEv
libQt6Widgets.so.6:_ZNK10QTabWidget5countEv
libQt6Widgets.so.6:_ZNK10QTabWidget6tabBarEv
libQt6Widgets.so.6:_ZNK10QTabWidget6widgetEi
libQt6Widgets.so.6:_ZNK10QTabWidget8sizeHintEv
libQt6Widgets.so.6:_ZNK11QDockWidget15initStyleOptionEP22QStyleOptionDockWidget
libQt6Widgets.so.6:_ZNK11QDockWidget8featuresEv
libQt6Widgets.so.6:_ZNK11QLayoutItem21minimumHeightForWidthEi
libQt6Widgets.so.6:_ZNK11QLayoutItem6widgetEv
libQt6Widgets.so.6:_ZNK11QMainWindow9saveStateEi
libQt6Widgets.so.6:_ZNK11QPushButton15initStyleOptionEP18QStyleOptionButton
libQt6Widgets.so.6:_ZNK11QPushButton15minimumSizeHintEv
libQt6Widgets.so.6:_ZNK11QPushButton8sizeHintEv
libQt6Widgets.so.6:_ZNK11QPushButton9hitButtonERK6QPoint
libQt6Widgets.so.6:_ZNK11QToolButton13defaultActionEv
libQt6Widgets.so.6:_ZNK11QToolButton15initStyleOptionEP22QStyleOptionToolButton
libQt6Widgets.so.6:_ZNK11QToolButton15minimumSizeHintEv
libQt6Widgets.so.6:_ZNK11QToolButton8sizeHintEv
libQt6Widgets.so.6:_ZNK11QToolButton9hitButtonERK6QPoint
libQt6Widgets.so.6:_ZNK12QButtonGroup13checkedButtonEv
libQt6Widgets.so.6:_ZNK12QButtonGroup7buttonsEv
libQt6Widgets.so.6:_ZNK13QFontComboBox11currentFontEv
libQt6Widgets.so.6:_ZNK13QFontComboBox8sizeHintEv
libQt6Widgets.so.6:_ZNK13QGraphicsItem10childItemsEv
libQt6Widgets.so.6:_ZNK13QGraphicsItem10opaqueAreaEv
libQt6Widgets.so.6:_ZNK13QGraphicsItem12isObscuredByEPKS_
libQt6Widgets.so.6:_ZNK13QGraphicsItem14graphicsEffectEv
libQt6Widgets.so.6:_ZNK13QGraphicsItem16collidesWithItemEPKS_N2Qt17ItemSelectionModeE
libQt6Widgets.so.6:_ZNK13QGraphicsItem16collidesWithPathERK12QPainterPathN2Qt17ItemSelectionModeE
libQt6Widgets.so.6:_ZNK13QGraphicsItem16inputMethodQueryEN2Qt16InputMethodQueryE
libQt6Widgets.so.6:_ZNK13QGraphicsItem17supportsExtensionENS_9ExtensionE
libQt6Widgets.so.6:_ZNK13QGraphicsItem3posEv
libQt6Widgets.so.6:_ZNK13QGraphicsItem5sceneEv
libQt6Widgets.so.6:_ZNK13QGraphicsItem5shapeEv
libQt6Widgets.so.6:_ZNK13QGraphicsItem6cursorEv
libQt6Widgets.so.6:_ZNK13QGraphicsItem6zValueEv
libQt6Widgets.so.6:_ZNK13QGraphicsItem7opacityEv
libQt6Widgets.so.6:_ZNK13QGraphicsItem8containsERK7QPointF
libQt6Widgets.so.6:_ZNK13QGraphicsItem9extensionERK8QVariant
libQt6Widgets.so.6:_ZNK13QGraphicsItem9isVisibleEv
libQt6Widgets.so.6:_ZNK13QGraphicsView10mapToSceneERK6QPoint
libQt6Widgets.so.6:_ZNK13QGraphicsView16inputMethodQueryEN2Qt16InputMethodQueryE
libQt6Widgets.so.6:_ZNK13QGraphicsView5sceneEv
libQt6Widgets.so.6:_ZNK13QGraphicsView8sizeHintEv
libQt6Widgets.so.6:_ZNK13QGraphicsView9sceneRectEv
libQt6Widgets.so.6:_ZNK13QGraphicsView9transformEv
libQt6Widgets.so.6:_ZNK13QWidgetAction10metaObjectEv
libQt6Widgets.so.6:_ZNK14QGraphicsScene16inputMethodQueryEN2Qt16InputMethodQueryE
libQt6Widgets.so.6:_ZNK14QGraphicsScene5itemsEN2Qt9SortOrderE
libQt6Widgets.so.6:_ZNK14QGraphicsScene9sceneRectEv
libQt6Widgets.so.6:_ZNK15QAbstractButton4iconEv
libQt6Widgets.so.6:_ZNK15QAbstractButton8iconSizeEv
libQt6Widgets.so.6:_ZNK15QAbstractButton9isCheckedEv
libQt6Widgets.so.6:_ZNK15QAbstractSlider5valueEv
libQt6Widgets.so.6:_ZNK15QGraphicsEffect10metaObjectEv
libQt6Widgets.so.6:_ZNK15QGraphicsEffect12boundingRectEv
libQt6Widgets.so.6:_ZNK15QGraphicsEffect12sourcePixmapEN2Qt16CoordinateSystemEP6QPointNS_13PixmapPadModeE
libQt6Widgets.so.6:_ZNK15QGraphicsEffect15boundingRectForERK6QRectF
libQt6Widgets.so.6:_ZNK15QGraphicsWidget10metaObjectEv
libQt6Widgets.so.6:_ZNK15QGraphicsWidget15initStyleOptionEP12QStyleOption
libQt6Widgets.so.6:_ZNK15QGraphicsWidget18getContentsMarginsEPdS0_S0_S0_
libQt6Widgets.so.6:_ZNK15QGraphicsWidget20windowFrameSectionAtERK7QPointF
libQt6Widgets.so.6:_ZNK15QGraphicsWidget4typeEv
libQt6Widgets.so.6:_ZNK15QGraphicsWidget5shapeEv
libQt6Widgets.so.6:_ZNK15QGraphicsWidget8sizeHintEN2Qt8SizeHintERK6QSizeF
libQt6Widgets.so.6:_ZNK16QAbstractSpinBox11stepEnabledEv
libQt6Widgets.so.6:_ZNK16QAbstractSpinBox15initStyleOptionEP19QStyleOptionSpinBox
libQt6Widgets.so.6:_ZNK16QAbstractSpinBox15minimumSizeHintEv
libQt6Widgets.so.6:_ZNK16QAbstractSpinBox16inputMethodQueryEN2Qt16InputMethodQueryE
libQt6Widgets.so.6:_ZNK16QAbstractSpinBox8sizeHintEv
libQt6Widgets.so.6:_ZNK17QGraphicsTextItem10opaqueAreaEv
libQt6Widgets.so.6:_ZNK17QGraphicsTextItem10textCursorEv
libQt6Widgets.so.6:_ZNK17QGraphicsTextItem11toPlainTextEv
libQt6Widgets.so.6:_ZNK17QGraphicsTextItem12boundingRectEv
libQt6Widgets.so.6:_ZNK17QGraphicsTextItem12isObscuredByEPK13QGraphicsItem
libQt6Widgets.so.6:_ZNK17QGraphicsTextItem16inputMethodQueryEN2Qt16InputMethodQueryE
libQt6Widgets.so.6:_ZNK17QGraphicsTextItem17supportsExtensionEN13QGraphicsItem9ExtensionE
libQt6Widgets.so.6:_ZNK17QGraphicsTextItem20textInteractionFlagsEv
libQt6Widgets.so.6:_ZNK17QGraphicsTextItem4typeEv
libQt6Widgets.so.6:_ZNK17QGraphicsTextItem5shapeEv
libQt6Widgets.so.6:_ZNK17QGraphicsTextItem8containsERK7QPointF
libQt6Widgets.so.6:_ZNK17QGraphicsTextItem8documentEv
libQt6Widgets.so.6:_ZNK17QGraphicsTextItem9extensionERK8QVariant
libQt6Widgets.so.6:_ZNK18QGraphicsItemGroup10opaqueAreaEv
libQt6Widgets.so.6:_ZNK18QGraphicsItemGroup12isObscuredByEPK13QGraphicsItem
libQt6Widgets.so.6:_ZNK18QGraphicsItemGroup4typeEv
libQt6Widgets.so.6:_ZNK19QAbstractScrollArea15minimumSizeHintEv
libQt6Widgets.so.6:_ZNK19QAbstractScrollArea16viewportSizeHintEv
libQt6Widgets.so.6:_ZNK19QAbstractScrollArea17verticalScrollBarEv
libQt6Widgets.so.6:_ZNK19QAbstractScrollArea19horizontalScrollBarEv
libQt6Widgets.so.6:_ZNK19QGraphicsLayoutItem11minimumSizeEv
libQt6Widgets.so.6:_ZNK19QGraphicsLayoutItem17effectiveSizeHintEN2Qt8SizeHintERK6QSizeF
libQt6Widgets.so.6:_ZNK19QGraphicsLayoutItem7isEmptyEv
libQt6Widgets.so.6:_ZNK19QGraphicsPixmapItem6pixmapEv
libQt6Widgets.so.6:_ZNK24QGraphicsSceneHoverEvent8scenePosEv
libQt6Widgets.so.6:_ZNK24QGraphicsSceneMouseEvent6buttonEv
libQt6Widgets.so.6:_ZNK24QGraphicsSceneMouseEvent7buttonsEv
libQt6Widgets.so.6:_ZNK24QGraphicsSceneMouseEvent8scenePosEv
libQt6Widgets.so.6:_ZNK25QGraphicsDropShadowEffect10metaObjectEv
libQt6Widgets.so.6:_ZNK25QGraphicsDropShadowEffect15boundingRectForERK6QRectF
libQt6Widgets.so.6:_ZNK30QGraphicsSceneContextMenuEvent8scenePosEv
libQt6Widgets.so.6:_ZNK30QGraphicsSceneContextMenuEvent9screenPosEv
libQt6Widgets.so.6:_ZNK5QMenu15initStyleOptionEP20QStyleOptionMenuItemPK7QAction
libQt6Widgets.so.6:_ZNK5QMenu8sizeHintEv
libQt6Widgets.so.6:_ZNK6QFrame15initStyleOptionEP17QStyleOptionFrame
libQt6Widgets.so.6:_ZNK6QFrame8sizeHintEv
libQt6Widgets.so.6:_ZNK7QDialog15minimumSizeHintEv
libQt6Widgets.so.6:_ZNK7QDialog8sizeHintEv
libQt6Widgets.so.6:_ZNK7QLayout10metaObjectEv
libQt6Widgets.so.6:_ZNK7QLayout11maximumSizeEv
libQt6Widgets.so.6:_ZNK7QLayout12controlTypesEv
libQt6Widgets.so.6:_ZNK7QLayout15contentsMarginsEv
libQt6Widgets.so.6:_ZNK7QLayout7indexOfEPK11QLayoutItem
libQt6Widgets.so.6:_ZNK7QLayout7indexOfEPK7QWidget
libQt6Widgets.so.6:_ZNK7QLayout7isEmptyEv
libQt6Widgets.so.6:_ZNK7QLayout7spacingEv
libQt6Widgets.so.6:_ZNK7QLayout8geometryEv
libQt6Widgets.so.6:_ZNK7QTabBar5tabAtERK6QPoint
libQt6Widgets.so.6:_ZNK7QWidget10metaObjectEv
libQt6Widgets.so.6:_ZNK7QWidget10redirectedEP6QPoint
libQt6Widgets.so.6:_ZNK7QWidget11initPainterEP8QPainter
libQt6Widgets.so.6:_ZNK7QWidget11mapToGlobalERK6QPoint
libQt6Widgets.so.6:_ZNK7QWidget11paintEngineEv
libQt6Widgets.so.6:_ZNK7QWidget13mapFromGlobalERK6QPoint
libQt6Widgets.so.6:_ZNK7QWidget13sharedPainterEv
libQt6Widgets.so.6:_ZNK7QWidget14heightForWidthEi
libQt6Widgets.so.6:_ZNK7QWidget15minimumSizeHintEv
libQt6Widgets.so.6:_ZNK7QWidget16inputMethodQueryEN2Qt16InputMethodQueryE
libQt6Widgets.so.6:_ZNK7QWidget17hasHeightForWidthEv
libQt6Widgets.so.6:_ZNK7QWidget5styleEv
libQt6Widgets.so.6:_ZNK7QWidget6layoutEv
libQt6Widgets.so.6:_ZNK7QWidget6metricEN12QPaintDevice17PaintDeviceMetricE
libQt6Widgets.so.6:_ZNK7QWidget7actionsEv
libQt6Widgets.so.6:_ZNK7QWidget7devTypeEv
libQt6Widgets.so.6:_ZNK7QWidget7toolTipEv
libQt6Widgets.so.6:_ZNK7QWidget8sizeHintEv
libQt6Widgets.so.6:_ZNK8QSpinBox13textFromValueEi
libQt6Widgets.so.6:_ZNK8QSpinBox13valueFromTextERK7QString
libQt6Widgets.so.6:_ZNK8QSpinBox5fixupER7QString
libQt6Widgets.so.6:_ZNK8QSpinBox5valueEv
libQt6Widgets.so.6:_ZNK8QSpinBox8validateER7QStringRi
libQt6Widgets.so.6:_ZNK9QComboBox12currentIndexEv
libQt6Widgets.so.6:_ZNK9QComboBox15initStyleOptionEP20QStyleOptionComboBox
libQt6Widgets.so.6:_ZNK9QComboBox15minimumSizeHintEv
libQt6Widgets.so.6:_ZNK9QComboBox16inputMethodQueryEN2Qt16InputMethodQueryE
libQt6Widgets.so.6:_ZNK9QComboBox8itemTextEi
libQt6Widgets.so.6:_ZTI10QBoxLayout
libQt6Widgets.so.6:_ZTI10QTabWidget
libQt6Widgets.so.6:_ZTI11QDockWidget
libQt6Widgets.so.6:_ZTI11QMainWindow
libQt6Widgets.so.6:_ZTI11QPushButton
libQt6Widgets.so.6:_ZTI11QToolButton
libQt6Widgets.so.6:_ZTI13QFontComboBox
libQt6Widgets.so.6:_ZTI13QGraphicsItem
libQt6Widgets.so.6:_ZTI13QGraphicsView
libQt6Widgets.so.6:_ZTI13QWidgetAction
libQt6Widgets.so.6:_ZTI14QGraphicsScene
libQt6Widgets.so.6:_ZTI14QStackedWidget
libQt6Widgets.so.6:_ZTI15QAbstractButton
libQt6Widgets.so.6:_ZTI15QGraphicsEffect
libQt6Widgets.so.6:_ZTI15QGraphicsWidget
libQt6Widgets.so.6:_ZTI17QGraphicsTextItem
libQt6Widgets.so.6:_ZTI18QGraphicsItemGroup
libQt6Widgets.so.6:_ZTI25QGraphicsDropShadowEffect
libQt6Widgets.so.6:_ZTI5QMenu
libQt6Widgets.so.6:_ZTI6QFrame
libQt6Widgets.so.6:_ZTI7QDialog
libQt6Widgets.so.6:_ZTI7QLayout
libQt6Widgets.so.6:_ZTI7QWidget
libQt6Widgets.so.6:_ZTI8QSpinBox
libQt6Widgets.so.6:_ZThn16_N15QGraphicsWidget10itemChangeEN13QGraphicsItem18GraphicsItemChangeERK8QVariant
libQt6Widgets.so.6:_ZThn16_N15QGraphicsWidget10sceneEventEP6QEvent
libQt6Widgets.so.6:_ZThn16_N15QGraphicsWidget12focusInEventEP11QFocusEvent
libQt6Widgets.so.6:_ZThn16_N15QGraphicsWidget13focusOutEventEP11QFocusEvent
libQt6Widgets.so.6:_ZThn16_N15QGraphicsWidget14hoverMoveEventEP24QGraphicsSceneHoverEvent
libQt6Widgets.so.6:_ZThn16_N15QGraphicsWidget15hoverLeaveEventEP24QGraphicsSceneHoverEvent
libQt6Widgets.so.6:_ZThn16_N17QGraphicsTextItem10sceneEventEP6QEvent
libQt6Widgets.so.6:_ZThn16_N17QGraphicsTextItem12focusInEventEP11QFocusEvent
libQt6Widgets.so.6:_ZThn16_N17QGraphicsTextItem12setExtensionEN13QGraphicsItem9ExtensionERK8QVariant
libQt6Widgets.so.6:_ZThn16_N17QGraphicsTextItem13dragMoveEventEP27QGraphicsSceneDragDropEvent
libQt6Widgets.so.6:_ZThn16_N17QGraphicsTextItem14dragEnterEventEP27QGraphicsSceneDragDropEvent
libQt6Widgets.so.6:_ZThn16_N17QGraphicsTextItem14dragLeaveEventEP27QGraphicsSceneDragDropEvent
libQt6Widgets.so.6:_ZThn16_N17QGraphicsTextItem14hoverMoveEventEP24QGraphicsSceneHoverEvent
libQt6Widgets.so.6:_ZThn16_N17QGraphicsTextItem14mouseMoveEventEP24QGraphicsSceneMouseEvent
libQt6Widgets.so.6:_ZThn16_N17QGraphicsTextItem15hoverEnterEventEP24QGraphicsSceneHoverEvent
libQt6Widgets.so.6:_ZThn16_N17QGraphicsTextItem15hoverLeaveEventEP24QGraphicsSceneHoverEvent
libQt6Widgets.so.6:_ZThn16_N17QGraphicsTextItem15keyReleaseEventEP9QKeyEvent
libQt6Widgets.so.6:_ZThn16_N17QGraphicsTextItem15mousePressEventEP24QGraphicsSceneMouseEvent
libQt6Widgets.so.6:_ZThn16_N17QGraphicsTextItem16contextMenuEventEP30QGraphicsSceneContextMenuEvent
libQt6Widgets.so.6:_ZThn16_N17QGraphicsTextItem16inputMethodEventEP17QInputMethodEvent
libQt6Widgets.so.6:_ZThn16_N17QGraphicsTextItem17mouseReleaseEventEP24QGraphicsSceneMouseEvent
libQt6Widgets.so.6:_ZThn16_N17QGraphicsTextItem21mouseDoubleClickEventEP24QGraphicsSceneMouseEvent
libQt6Widgets.so.6:_ZThn16_N17QGraphicsTextItem9dropEventEP27QGraphicsSceneDragDropEvent
libQt6Widgets.so.6:_ZThn16_N7QLayout10invalidateEv
libQt6Widgets.so.6:_ZThn16_N7QLayout6layoutEv
libQt6Widgets.so.6:_ZThn16_NK15QGraphicsWidget4typeEv
libQt6Widgets.so.6:_ZThn16_NK15QGraphicsWidget5shapeEv
libQt6Widgets.so.6:_ZThn16_NK17QGraphicsTextItem10opaqueAreaEv
libQt6Widgets.so.6:_ZThn16_NK17QGraphicsTextItem12isObscuredByEPK13QGraphicsItem
libQt6Widgets.so.6:_ZThn16_NK17QGraphicsTextItem16inputMethodQueryEN2Qt16InputMethodQueryE
libQt6Widgets.so.6:_ZThn16_NK17QGraphicsTextItem17supportsExtensionEN13QGraphicsItem9ExtensionE
libQt6Widgets.so.6:_ZThn16_NK17QGraphicsTextItem4typeEv
libQt6Widgets.so.6:_ZThn16_NK17QGraphicsTextItem5shapeEv
libQt6Widgets.so.6:_ZThn16_NK17QGraphicsTextItem8containsERK7QPointF
libQt6Widgets.so.6:_ZThn16_NK17QGraphicsTextItem9extensionERK8QVariant
libQt6Widgets.so.6:_ZThn16_NK7QLayout11maximumSizeEv
libQt6Widgets.so.6:_ZThn16_NK7QLayout12controlTypesEv
libQt6Widgets.so.6:_ZThn16_NK7QLayout7isEmptyEv
libQt6Widgets.so.6:_ZThn16_NK7QLayout8geometryEv
libQt6Widgets.so.6:_ZThn16_NK7QWidget10redirectedEP6QPoint
libQt6Widgets.so.6:_ZThn16_NK7QWidget11initPainterEP8QPainter
libQt6Widgets.so.6:_ZThn16_NK7QWidget11paintEngineEv
libQt6Widgets.so.6:_ZThn16_NK7QWidget13sharedPainterEv
libQt6Widgets.so.6:_ZThn16_NK7QWidget6metricEN12QPaintDevice17PaintDeviceMetricE
libQt6Widgets.so.6:_ZThn16_NK7QWidget7devTypeEv
libQt6Widgets.so.6:_ZThn32_N15QGraphicsWidget11setGeometryERK6QRectF
libQt6Widgets.so.6:_ZThn32_N15QGraphicsWidget14updateGeometryEv
libQt6Widgets.so.6:_ZThn32_NK15QGraphicsWidget18getContentsMarginsEPdS0_S0_S0_
libQt6Widgets.so.6:_ZThn32_NK15QGraphicsWidget8sizeHintEN2Qt8SizeHintERK6QSizeF
libQt6Widgets.so.6:_Zls6QDebugPK15QGraphicsObject
libX11.so.6:XCloseDisplay
libX11.so.6:XOpenDisplay
libX11.so.6:XkbGetIndicatorState
libc.so.6:__cxa_atexit
libc.so.6:__stack_chk_fail
libc.so.6:free
libc.so.6:memcmp
libc.so.6:memcpy
libc.so.6:memmove
libc.so.6:strcmp
libc.so.6:strlen
libgcc_s.so.1:_Unwind_Resume
libkColorPicker.so.0:_ZN12kColorPicker12KColorPicker11resetColorsEb
libkColorPicker.so.0:_ZN12kColorPicker12KColorPicker16staticMetaObjectE
libkColorPicker.so.0:_ZN12kColorPicker12KColorPicker8setColorERK6QColor
libkColorPicker.so.0:_ZN12kColorPicker12KColorPickerC1EbP7QWidget
libkColorPicker.so.0:_ZNK12kColorPicker12KColorPicker12colorChangedERK6QColor
libkColorPicker.so.0:_ZNK12kColorPicker12KColorPicker5colorEv
libm.so.6:floor
libm.so.6:sqrt
libstdc++.so.6:_ZSt18_Rb_tree_decrementPSt18_Rb_tree_node_base
libstdc++.so.6:_ZSt18_Rb_tree_incrementPKSt18_Rb_tree_node_base
libstdc++.so.6:_ZSt18_Rb_tree_incrementPSt18_Rb_tree_node_base
libstdc++.so.6:_ZSt29_Rb_tree_insert_and_rebalancebPSt18_Rb_tree_node_baseS0_RS_
libstdc++.so.6:_ZSt9terminatev
libstdc++.so.6:_ZTVN10__cxxabiv117__class_type_infoE
libstdc++.so.6:_ZTVN10__cxxabiv120__si_class_type_infoE
libstdc++.so.6:_ZTVN10__cxxabiv121__vmi_class_type_infoE
libstdc++.so.6:_ZdaPv
libstdc++.so.6:_ZdlPv
libstdc++.so.6:_Znam
libstdc++.so.6:_Znwm
libstdc++.so.6:__cxa_begin_catch
libstdc++.so.6:__cxa_end_catch
libstdc++.so.6:__cxa_guard_abort
libstdc++.so.6:__cxa_guard_acquire
libstdc++.so.6:__cxa_guard_release
libstdc++.so.6:__cxa_pure_virtual
libstdc++.so.6:__cxa_rethrow
libstdc++.so.6:__dynamic_cast
libstdc++.so.6:__gxx_personality_v0
