UNKNOWN:PyArg_UnpackTuple
UNKNOWN:PyAsyncGen_Type
UNKNOWN:PyBaseObject_Type
UNKNOWN:PyBytes_FromStringAndSize
UNKNOWN:PyCFunction_Type
UNKNOWN:PyCMethod_New
UNKNOWN:PyCapsule_GetPointer
UNKNOWN:PyCapsule_IsValid
UNKNOWN:PyCapsule_New
UNKNOWN:PyClassMethod_New
UNKNOWN:PyCode_NewEmpty
UNKNOWN:PyCode_NewWithPosOnlyArgs
UNKNOWN:PyCoro_Type
UNKNOWN:PyDescr_IsData
UNKNOWN:PyDescr_NewClassMethod
UNKNOWN:PyDict_Copy
UNKNOWN:PyDict_DelItem
UNKNOWN:PyDict_GetItemString
UNKNOWN:PyDict_GetItemWithError
UNKNOWN:PyDict_New
UNKNOWN:PyDict_Next
UNKNOWN:PyDict_SetItem
UNKNOWN:PyDict_SetItemString
UNKNOWN:PyDict_Size
UNKNOWN:PyDict_Type
UNKNOWN:PyErr_CheckSignals
UNKNOWN:PyErr_Clear
UNKNOWN:PyErr_ExceptionMatches
UNKNOWN:PyErr_Format
UNKNOWN:PyErr_GivenExceptionMatches
UNKNOWN:PyErr_NoMemory
UNKNOWN:PyErr_NormalizeException
UNKNOWN:PyErr_Occurred
UNKNOWN:PyErr_PrintEx
UNKNOWN:PyErr_SetNone
UNKNOWN:PyErr_SetObject
UNKNOWN:PyErr_SetString
UNKNOWN:PyErr_WarnEx
UNKNOWN:PyErr_WarnFormat
UNKNOWN:PyErr_WriteUnraisable
UNKNOWN:PyEval_RestoreThread
UNKNOWN:PyEval_SaveThread
UNKNOWN:PyExc_ArithmeticError
UNKNOWN:PyExc_AttributeError
UNKNOWN:PyExc_BufferError
UNKNOWN:PyExc_DeprecationWarning
UNKNOWN:PyExc_Exception
UNKNOWN:PyExc_GeneratorExit
UNKNOWN:PyExc_IOError
UNKNOWN:PyExc_ImportError
UNKNOWN:PyExc_IndexError
UNKNOWN:PyExc_KeyError
UNKNOWN:PyExc_MemoryError
UNKNOWN:PyExc_NameError
UNKNOWN:PyExc_NotImplementedError
UNKNOWN:PyExc_OverflowError
UNKNOWN:PyExc_RuntimeError
UNKNOWN:PyExc_RuntimeWarning
UNKNOWN:PyExc_StopAsyncIteration
UNKNOWN:PyExc_StopIteration
UNKNOWN:PyExc_SystemError
UNKNOWN:PyExc_TypeError
UNKNOWN:PyExc_UnboundLocalError
UNKNOWN:PyExc_ValueError
UNKNOWN:PyException_GetTraceback
UNKNOWN:PyException_SetTraceback
UNKNOWN:PyFloat_AsDouble
UNKNOWN:PyFloat_FromDouble
UNKNOWN:PyFloat_Type
UNKNOWN:PyFrame_New
UNKNOWN:PyGC_Disable
UNKNOWN:PyGC_Enable
UNKNOWN:PyGILState_Ensure
UNKNOWN:PyGILState_Release
UNKNOWN:PyGen_Type
UNKNOWN:PyImport_AddModule
UNKNOWN:PyImport_GetModule
UNKNOWN:PyImport_GetModuleDict
UNKNOWN:PyImport_ImportModule
UNKNOWN:PyImport_ImportModuleLevelObject
UNKNOWN:PyInterpreterState_GetID
UNKNOWN:PyIter_Check
UNKNOWN:PyIter_Next
UNKNOWN:PyIter_Send
UNKNOWN:PyList_Append
UNKNOWN:PyList_AsTuple
UNKNOWN:PyList_New
UNKNOWN:PyList_SetSlice
UNKNOWN:PyList_Type
UNKNOWN:PyLong_AsLong
UNKNOWN:PyLong_AsSsize_t
UNKNOWN:PyLong_AsUnsignedLong
UNKNOWN:PyLong_FromLong
UNKNOWN:PyLong_FromSize_t
UNKNOWN:PyLong_FromSsize_t
UNKNOWN:PyLong_Type
UNKNOWN:PyMem_Free
UNKNOWN:PyMem_Malloc
UNKNOWN:PyMem_Realloc
UNKNOWN:PyMethodDescr_Type
UNKNOWN:PyMethod_New
UNKNOWN:PyMethod_Type
UNKNOWN:PyModuleDef_Init
UNKNOWN:PyModule_GetDict
UNKNOWN:PyModule_GetName
UNKNOWN:PyModule_NewObject
UNKNOWN:PyNumber_Add
UNKNOWN:PyNumber_InPlaceAdd
UNKNOWN:PyNumber_Index
UNKNOWN:PyNumber_Remainder
UNKNOWN:PyOS_snprintf
UNKNOWN:PyObject_Call
UNKNOWN:PyObject_CallFinalizerFromDealloc
UNKNOWN:PyObject_ClearWeakRefs
UNKNOWN:PyObject_Format
UNKNOWN:PyObject_Free
UNKNOWN:PyObject_GC_Del
UNKNOWN:PyObject_GC_IsFinalized
UNKNOWN:PyObject_GC_Track
UNKNOWN:PyObject_GC_UnTrack
UNKNOWN:PyObject_GenericGetAttr
UNKNOWN:PyObject_GetAttr
UNKNOWN:PyObject_GetAttrString
UNKNOWN:PyObject_GetItem
UNKNOWN:PyObject_GetIter
UNKNOWN:PyObject_Hash
UNKNOWN:PyObject_Init
UNKNOWN:PyObject_IsInstance
UNKNOWN:PyObject_IsSubclass
UNKNOWN:PyObject_IsTrue
UNKNOWN:PyObject_Malloc
UNKNOWN:PyObject_Not
UNKNOWN:PyObject_Repr
UNKNOWN:PyObject_RichCompare
UNKNOWN:PyObject_RichCompareBool
UNKNOWN:PyObject_SelfIter
UNKNOWN:PyObject_SetAttr
UNKNOWN:PyObject_SetAttrString
UNKNOWN:PyObject_SetItem
UNKNOWN:PyObject_Size
UNKNOWN:PyObject_Str
UNKNOWN:PyObject_VectorcallDict
UNKNOWN:PyRun_StringFlags
UNKNOWN:PySequence_Contains
UNKNOWN:PySequence_List
UNKNOWN:PySlice_Type
UNKNOWN:PyStaticMethod_New
UNKNOWN:PyThreadState_EnterTracing
UNKNOWN:PyThreadState_Get
UNKNOWN:PyThreadState_GetFrame
UNKNOWN:PyThreadState_LeaveTracing
UNKNOWN:PyTraceBack_Here
UNKNOWN:PyTraceBack_Type
UNKNOWN:PyTuple_GetItem
UNKNOWN:PyTuple_GetSlice
UNKNOWN:PyTuple_New
UNKNOWN:PyTuple_Pack
UNKNOWN:PyTuple_Size
UNKNOWN:PyTuple_Type
UNKNOWN:PyType_IsSubtype
UNKNOWN:PyType_Modified
UNKNOWN:PyType_Ready
UNKNOWN:PyType_Type
UNKNOWN:PyUnicode_AsUTF8
UNKNOWN:PyUnicode_Compare
UNKNOWN:PyUnicode_Concat
UNKNOWN:PyUnicode_Decode
UNKNOWN:PyUnicode_Format
UNKNOWN:PyUnicode_FromFormat
UNKNOWN:PyUnicode_FromKindAndData
UNKNOWN:PyUnicode_FromOrdinal
UNKNOWN:PyUnicode_FromString
UNKNOWN:PyUnicode_FromStringAndSize
UNKNOWN:PyUnicode_InternFromString
UNKNOWN:PyUnicode_Join
UNKNOWN:PyUnicode_New
UNKNOWN:PyUnicode_Resize
UNKNOWN:PyUnicode_Type
UNKNOWN:PyVectorcall_Function
UNKNOWN:Py_EnterRecursiveCall
UNKNOWN:Py_LeaveRecursiveCall
UNKNOWN:Py_Version
UNKNOWN:_PyDict_GetItem_KnownHash
UNKNOWN:_PyDict_SetItem_KnownHash
UNKNOWN:_PyGen_SetStopIterationValue
UNKNOWN:_PyObject_GC_New
UNKNOWN:_PyObject_GenericGetAttrWithDict
UNKNOWN:_PyObject_GetDictPtr
UNKNOWN:_PyThreadState_UncheckedGet
UNKNOWN:_PyType_Lookup
UNKNOWN:_PyUnicode_FastCopyCharacters
UNKNOWN:_PyUnicode_Ready
UNKNOWN:_Py_Dealloc
UNKNOWN:_Py_FalseStruct
UNKNOWN:_Py_NoneStruct
UNKNOWN:_Py_NotImplementedStruct
UNKNOWN:_Py_TrueStruct
ld-linux-x86-64.so.2:__tls_get_addr
libc.so.6:__cxa_atexit
libc.so.6:__libc_single_threaded
libc.so.6:__stack_chk_fail
libc.so.6:__vsnprintf_chk
libc.so.6:aligned_alloc
libc.so.6:fputs
libc.so.6:free
libc.so.6:getenv
libc.so.6:malloc
libc.so.6:memcmp
libc.so.6:memcpy
libc.so.6:memmove
libc.so.6:memset
libc.so.6:pthread_mutex_lock
libc.so.6:pthread_mutex_unlock
libc.so.6:pthread_once
libc.so.6:pthread_self
libc.so.6:realloc
libc.so.6:sched_yield
libc.so.6:stderr
libc.so.6:strcmp
libc.so.6:strlen
libc.so.6:strrchr
libc.so.6:vsnprintf
libgcc_s.so.1:_Unwind_Resume
libgcc_s.so.1:__gcc_personality_v0
libgcc_s.so.1:__popcountdi2
libm.so.6:ceil
libm.so.6:llround
libstdc++.so.6:_ZNKSt7__cxx1112basic_stringIcSt11char_traitsIcESaIcEE5rfindEPKcmm
libstdc++.so.6:_ZNKSt7__cxx1115basic_stringbufIcSt11char_traitsIcESaIcEE3strEv
libstdc++.so.6:_ZNKSt8__detail20_Prime_rehash_policy14_M_need_rehashEmmm
libstdc++.so.6:_ZNSo3putEc
libstdc++.so.6:_ZNSo5writeEPKcl
libstdc++.so.6:_ZNSo9_M_insertIlEERSoT_
libstdc++.so.6:_ZNSo9_M_insertImEERSoT_
libstdc++.so.6:_ZNSt10bad_typeidD2Ev
libstdc++.so.6:_ZNSt11logic_errorC1EPKc
libstdc++.so.6:_ZNSt11logic_errorC2ERKNSt7__cxx1112basic_stringIcSt11char_traitsIcESaIcEEE
libstdc++.so.6:_ZNSt11logic_errorC2ERKS_
libstdc++.so.6:_ZNSt11logic_errorD1Ev
libstdc++.so.6:_ZNSt12__basic_fileIcED1Ev
libstdc++.so.6:_ZNSt12future_errorD1Ev
libstdc++.so.6:_ZNSt12out_of_rangeC1EPKc
libstdc++.so.6:_ZNSt12out_of_rangeD1Ev
libstdc++.so.6:_ZNSt13__future_base12_Result_baseC2Ev
libstdc++.so.6:_ZNSt13__future_base12_Result_baseD2Ev
libstdc++.so.6:_ZNSt13basic_filebufIcSt11char_traitsIcEE4openEPKcSt13_Ios_Openmode
libstdc++.so.6:_ZNSt13basic_filebufIcSt11char_traitsIcEE5closeEv
libstdc++.so.6:_ZNSt13basic_filebufIcSt11char_traitsIcEEC1Ev
libstdc++.so.6:_ZNSt13basic_filebufIcSt11char_traitsIcEED1Ev
libstdc++.so.6:_ZNSt13random_device7_M_finiEv
libstdc++.so.6:_ZNSt13random_device7_M_initERKNSt7__cxx1112basic_stringIcSt11char_traitsIcESaIcEEE
libstdc++.so.6:_ZNSt13random_device9_M_getvalEv
libstdc++.so.6:_ZNSt13runtime_errorC1EPKc
libstdc++.so.6:_ZNSt13runtime_errorC1ERKNSt7__cxx1112basic_stringIcSt11char_traitsIcESaIcEEE
libstdc++.so.6:_ZNSt13runtime_errorD1Ev
libstdc++.so.6:_ZNSt15__exception_ptr13exception_ptr10_M_releaseEv
libstdc++.so.6:_ZNSt15__exception_ptr13exception_ptr9_M_addrefEv
libstdc++.so.6:_ZNSt15__exception_ptr13exception_ptrC1EPv
libstdc++.so.6:_ZNSt16invalid_argumentC1EPKc
libstdc++.so.6:_ZNSt16invalid_argumentD1Ev
libstdc++.so.6:_ZNSt18condition_variable10notify_allEv
libstdc++.so.6:_ZNSt18condition_variable10notify_oneEv
libstdc++.so.6:_ZNSt18condition_variable4waitERSt11unique_lockISt5mutexE
libstdc++.so.6:_ZNSt18condition_variableC1Ev
libstdc++.so.6:_ZNSt18condition_variableD1Ev
libstdc++.so.6:_ZNSt28__atomic_futex_unsigned_base19_M_futex_notify_allEPj
libstdc++.so.6:_ZNSt28__atomic_futex_unsigned_base19_M_futex_wait_untilEPjjbNSt6chrono8durationIlSt5ratioILl1ELl1EEEENS2_IlS3_ILl1ELl1000000000EEEE
libstdc++.so.6:_ZNSt28__atomic_futex_unsigned_base26_M_futex_wait_until_steadyEPjjbNSt6chrono8durationIlSt5ratioILl1ELl1EEEENS2_IlS3_ILl1ELl1000000000EEEE
libstdc++.so.6:_ZNSt6chrono3_V212steady_clock3nowEv
libstdc++.so.6:_ZNSt6localeC1Ev
libstdc++.so.6:_ZNSt6localeD1Ev
libstdc++.so.6:_ZNSt6thread15_M_start_threadESt10unique_ptrINS_6_StateESt14default_deleteIS1_EEPFvvE
libstdc++.so.6:_ZNSt6thread20hardware_concurrencyEv
libstdc++.so.6:_ZNSt6thread4joinEv
libstdc++.so.6:_ZNSt6thread6_StateD2Ev
libstdc++.so.6:_ZNSt7__cxx1112basic_stringIcSt11char_traitsIcESaIcEE10_M_disposeEv
libstdc++.so.6:_ZNSt7__cxx1112basic_stringIcSt11char_traitsIcESaIcEE10_M_replaceEmmPKcm
libstdc++.so.6:_ZNSt7__cxx1112basic_stringIcSt11char_traitsIcESaIcEE12_M_constructEmc
libstdc++.so.6:_ZNSt7__cxx1112basic_stringIcSt11char_traitsIcESaIcEE9_M_appendEPKcm
libstdc++.so.6:_ZNSt7__cxx1112basic_stringIcSt11char_traitsIcESaIcEE9_M_assignERKS4_
libstdc++.so.6:_ZNSt7__cxx1112basic_stringIcSt11char_traitsIcESaIcEE9_M_createERmm
libstdc++.so.6:_ZNSt7__cxx1119basic_ostringstreamIcSt11char_traitsIcESaIcEEC1Ev
libstdc++.so.6:_ZNSt7__cxx1119basic_ostringstreamIcSt11char_traitsIcESaIcEED1Ev
libstdc++.so.6:_ZNSt8__detail15_List_node_base9_M_unhookEv
libstdc++.so.6:_ZNSt8ios_baseC2Ev
libstdc++.so.6:_ZNSt8ios_baseD2Ev
libstdc++.so.6:_ZNSt9bad_allocD1Ev
libstdc++.so.6:_ZNSt9basic_iosIcSt11char_traitsIcEE4initEPSt15basic_streambufIcS1_E
libstdc++.so.6:_ZNSt9basic_iosIcSt11char_traitsIcEE5clearESt12_Ios_Iostate
libstdc++.so.6:_ZSt11_Hash_bytesPKvmm
libstdc++.so.6:_ZSt11__once_call
libstdc++.so.6:_ZSt15__once_callable
libstdc++.so.6:_ZSt15future_categoryv
libstdc++.so.6:_ZSt16__ostream_insertIcSt11char_traitsIcEERSt13basic_ostreamIT_T0_ES6_PKS3_l
libstdc++.so.6:_ZSt17__throw_bad_allocv
libstdc++.so.6:_ZSt17current_exceptionv
libstdc++.so.6:_ZSt17rethrow_exceptionNSt15__exception_ptr13exception_ptrE
libstdc++.so.6:_ZSt19__throw_logic_errorPKc
libstdc++.so.6:_ZSt20__throw_future_errori
libstdc++.so.6:_ZSt20__throw_length_errorPKc
libstdc++.so.6:_ZSt20__throw_system_errori
libstdc++.so.6:_ZSt21ios_base_library_initv
libstdc++.so.6:_ZSt25__throw_bad_function_callv
libstdc++.so.6:_ZSt28__throw_bad_array_new_lengthv
libstdc++.so.6:_ZSt7nothrow
libstdc++.so.6:_ZSt9terminatev
libstdc++.so.6:_ZStlsISt11char_traitsIcEERSt13basic_ostreamIcT_ES5_PKc
libstdc++.so.6:_ZTINSt13__future_base12_Result_baseE
libstdc++.so.6:_ZTINSt6thread6_StateE
libstdc++.so.6:_ZTINSt8ios_base7failureB5cxx11E
libstdc++.so.6:_ZTISt10bad_typeid
libstdc++.so.6:_ZTISt11logic_error
libstdc++.so.6:_ZTISt11range_error
libstdc++.so.6:_ZTISt12domain_error
libstdc++.so.6:_ZTISt12future_error
libstdc++.so.6:_ZTISt12out_of_range
libstdc++.so.6:_ZTISt13runtime_error
libstdc++.so.6:_ZTISt14overflow_error
libstdc++.so.6:_ZTISt15underflow_error
libstdc++.so.6:_ZTISt16invalid_argument
libstdc++.so.6:_ZTISt8bad_cast
libstdc++.so.6:_ZTISt9bad_alloc
libstdc++.so.6:_ZTISt9exception
libstdc++.so.6:_ZTTNSt7__cxx1119basic_ostringstreamIcSt11char_traitsIcESaIcEEE
libstdc++.so.6:_ZTTSt14basic_ofstreamIcSt11char_traitsIcEE
libstdc++.so.6:_ZTVN10__cxxabiv117__class_type_infoE
libstdc++.so.6:_ZTVN10__cxxabiv120__si_class_type_infoE
libstdc++.so.6:_ZTVNSt7__cxx1115basic_stringbufIcSt11char_traitsIcESaIcEEE
libstdc++.so.6:_ZTVNSt7__cxx1119basic_ostringstreamIcSt11char_traitsIcESaIcEEE
libstdc++.so.6:_ZTVSt12future_error
libstdc++.so.6:_ZTVSt13basic_filebufIcSt11char_traitsIcEE
libstdc++.so.6:_ZTVSt14basic_ofstreamIcSt11char_traitsIcEE
libstdc++.so.6:_ZTVSt15basic_streambufIcSt11char_traitsIcEE
libstdc++.so.6:_ZTVSt9bad_alloc
libstdc++.so.6:_ZTVSt9basic_iosIcSt11char_traitsIcEE
libstdc++.so.6:_ZdaPv
libstdc++.so.6:_ZdlPvm
libstdc++.so.6:_ZdlPvmSt11align_val_t
libstdc++.so.6:_Znam
libstdc++.so.6:_Znwm
libstdc++.so.6:_ZnwmRKSt9nothrow_t
libstdc++.so.6:_ZnwmSt11align_val_t
libstdc++.so.6:__cxa_allocate_exception
libstdc++.so.6:__cxa_begin_catch
libstdc++.so.6:__cxa_end_catch
libstdc++.so.6:__cxa_free_exception
libstdc++.so.6:__cxa_guard_abort
libstdc++.so.6:__cxa_guard_acquire
libstdc++.so.6:__cxa_guard_release
libstdc++.so.6:__cxa_init_primary_exception
libstdc++.so.6:__cxa_rethrow
libstdc++.so.6:__cxa_throw
libstdc++.so.6:__cxa_throw_bad_array_new_length
libstdc++.so.6:__gxx_personality_v0
libstdc++.so.6:__once_proxy
