_initialize_cpp.cpython-310-x86_64-linux-gnu.so:PyInit__initialize_cpp
_initialize_cpp.cpython-310-x86_64-linux-gnu.so:__pyx_module_is_main_rapidfuzz__distance___initialize_cpp
fuzz_cpp.cpython-310-x86_64-linux-gnu.so:PyInit_fuzz_cpp
fuzz_cpp.cpython-310-x86_64-linux-gnu.so:_Z28partial_ratio_alignment_funcRK10_RF_StringS1_d
fuzz_cpp.cpython-310-x86_64-linux-gnu.so:_ZGVZN7CpuInfo8instanceEvE8instance
fuzz_cpp.cpython-310-x86_64-linux-gnu.so:_ZN4Avx210QRatioInitEP14_RF_ScorerFuncPK10_RF_KwargslPK10_RF_String
fuzz_cpp.cpython-310-x86_64-linux-gnu.so:_ZN4Avx215OsaDistanceInitEP14_RF_ScorerFuncPK10_RF_KwargslPK10_RF_String
fuzz_cpp.cpython-310-x86_64-linux-gnu.so:_ZN4Avx217IndelDistanceInitEP14_RF_ScorerFuncPK10_RF_KwargslPK10_RF_String
fuzz_cpp.cpython-310-x86_64-linux-gnu.so:_ZN4Avx217OsaSimilarityInitEP14_RF_ScorerFuncPK10_RF_KwargslPK10_RF_String
fuzz_cpp.cpython-310-x86_64-linux-gnu.so:_ZN4Avx218LCSseqDistanceInitEP14_RF_ScorerFuncPK10_RF_KwargslPK10_RF_String
fuzz_cpp.cpython-310-x86_64-linux-gnu.so:_ZN4Avx218TokenSortRatioInitEP14_RF_ScorerFuncPK10_RF_KwargslPK10_RF_String
fuzz_cpp.cpython-310-x86_64-linux-gnu.so:_ZN4Avx219IndelSimilarityInitEP14_RF_ScorerFuncPK10_RF_KwargslPK10_RF_String
fuzz_cpp.cpython-310-x86_64-linux-gnu.so:_ZN4Avx220LCSseqSimilarityInitEP14_RF_ScorerFuncPK10_RF_KwargslPK10_RF_String
fuzz_cpp.cpython-310-x86_64-linux-gnu.so:_ZN4Avx223LevenshteinDistanceInitEP14_RF_ScorerFuncPK10_RF_KwargslPK10_RF_String
fuzz_cpp.cpython-310-x86_64-linux-gnu.so:_ZN4Avx225LevenshteinSimilarityInitEP14_RF_ScorerFuncPK10_RF_KwargslPK10_RF_String
fuzz_cpp.cpython-310-x86_64-linux-gnu.so:_ZN4Avx225OsaNormalizedDistanceInitEP14_RF_ScorerFuncPK10_RF_KwargslPK10_RF_String
fuzz_cpp.cpython-310-x86_64-linux-gnu.so:_ZN4Avx227IndelNormalizedDistanceInitEP14_RF_ScorerFuncPK10_RF_KwargslPK10_RF_String
fuzz_cpp.cpython-310-x86_64-linux-gnu.so:_ZN4Avx227OsaNormalizedSimilarityInitEP14_RF_ScorerFuncPK10_RF_KwargslPK10_RF_String
fuzz_cpp.cpython-310-x86_64-linux-gnu.so:_ZN4Avx228LCSseqNormalizedDistanceInitEP14_RF_ScorerFuncPK10_RF_KwargslPK10_RF_String
fuzz_cpp.cpython-310-x86_64-linux-gnu.so:_ZN4Avx229IndelNormalizedSimilarityInitEP14_RF_ScorerFuncPK10_RF_KwargslPK10_RF_String
fuzz_cpp.cpython-310-x86_64-linux-gnu.so:_ZN4Avx230LCSseqNormalizedSimilarityInitEP14_RF_ScorerFuncPK10_RF_KwargslPK10_RF_String
fuzz_cpp.cpython-310-x86_64-linux-gnu.so:_ZN4Avx233LevenshteinNormalizedDistanceInitEP14_RF_ScorerFuncPK10_RF_KwargslPK10_RF_String
fuzz_cpp.cpython-310-x86_64-linux-gnu.so:_ZN4Avx235LevenshteinNormalizedSimilarityInitEP14_RF_ScorerFuncPK10_RF_KwargslPK10_RF_String
fuzz_cpp.cpython-310-x86_64-linux-gnu.so:_ZN4Avx29RatioInitEP14_RF_ScorerFuncPK10_RF_KwargslPK10_RF_String
fuzz_cpp.cpython-310-x86_64-linux-gnu.so:_ZN4Sse210QRatioInitEP14_RF_ScorerFuncPK10_RF_KwargslPK10_RF_String
fuzz_cpp.cpython-310-x86_64-linux-gnu.so:_ZN4Sse215OsaDistanceInitEP14_RF_ScorerFuncPK10_RF_KwargslPK10_RF_String
fuzz_cpp.cpython-310-x86_64-linux-gnu.so:_ZN4Sse217IndelDistanceInitEP14_RF_ScorerFuncPK10_RF_KwargslPK10_RF_String
fuzz_cpp.cpython-310-x86_64-linux-gnu.so:_ZN4Sse217OsaSimilarityInitEP14_RF_ScorerFuncPK10_RF_KwargslPK10_RF_String
fuzz_cpp.cpython-310-x86_64-linux-gnu.so:_ZN4Sse218LCSseqDistanceInitEP14_RF_ScorerFuncPK10_RF_KwargslPK10_RF_String
fuzz_cpp.cpython-310-x86_64-linux-gnu.so:_ZN4Sse218TokenSortRatioInitEP14_RF_ScorerFuncPK10_RF_KwargslPK10_RF_String
fuzz_cpp.cpython-310-x86_64-linux-gnu.so:_ZN4Sse219IndelSimilarityInitEP14_RF_ScorerFuncPK10_RF_KwargslPK10_RF_String
fuzz_cpp.cpython-310-x86_64-linux-gnu.so:_ZN4Sse220LCSseqSimilarityInitEP14_RF_ScorerFuncPK10_RF_KwargslPK10_RF_String
fuzz_cpp.cpython-310-x86_64-linux-gnu.so:_ZN4Sse223LevenshteinDistanceInitEP14_RF_ScorerFuncPK10_RF_KwargslPK10_RF_String
fuzz_cpp.cpython-310-x86_64-linux-gnu.so:_ZN4Sse225LevenshteinSimilarityInitEP14_RF_ScorerFuncPK10_RF_KwargslPK10_RF_String
fuzz_cpp.cpython-310-x86_64-linux-gnu.so:_ZN4Sse225OsaNormalizedDistanceInitEP14_RF_ScorerFuncPK10_RF_KwargslPK10_RF_String
fuzz_cpp.cpython-310-x86_64-linux-gnu.so:_ZN4Sse227IndelNormalizedDistanceInitEP14_RF_ScorerFuncPK10_RF_KwargslPK10_RF_String
fuzz_cpp.cpython-310-x86_64-linux-gnu.so:_ZN4Sse227OsaNormalizedSimilarityInitEP14_RF_ScorerFuncPK10_RF_KwargslPK10_RF_String
fuzz_cpp.cpython-310-x86_64-linux-gnu.so:_ZN4Sse228LCSseqNormalizedDistanceInitEP14_RF_ScorerFuncPK10_RF_KwargslPK10_RF_String
fuzz_cpp.cpython-310-x86_64-linux-gnu.so:_ZN4Sse229IndelNormalizedSimilarityInitEP14_RF_ScorerFuncPK10_RF_KwargslPK10_RF_String
fuzz_cpp.cpython-310-x86_64-linux-gnu.so:_ZN4Sse230LCSseqNormalizedSimilarityInitEP14_RF_ScorerFuncPK10_RF_KwargslPK10_RF_String
fuzz_cpp.cpython-310-x86_64-linux-gnu.so:_ZN4Sse233LevenshteinNormalizedDistanceInitEP14_RF_ScorerFuncPK10_RF_KwargslPK10_RF_String
fuzz_cpp.cpython-310-x86_64-linux-gnu.so:_ZN4Sse235LevenshteinNormalizedSimilarityInitEP14_RF_ScorerFuncPK10_RF_KwargslPK10_RF_String
fuzz_cpp.cpython-310-x86_64-linux-gnu.so:_ZN4Sse29RatioInitEP14_RF_ScorerFuncPK10_RF_KwargslPK10_RF_String
fuzz_cpp.cpython-310-x86_64-linux-gnu.so:_ZN7CpuInfo13detect_OS_AVXEv
fuzz_cpp.cpython-310-x86_64-linux-gnu.so:_ZN7CpuInfoC1Ev
fuzz_cpp.cpython-310-x86_64-linux-gnu.so:_ZN7CpuInfoC2Ev
fuzz_cpp.cpython-310-x86_64-linux-gnu.so:_ZN9rapidfuzz6detail8is_spaceIhEEbT_
fuzz_cpp.cpython-310-x86_64-linux-gnu.so:_ZN9rapidfuzz6detail8is_spaceIjEEbT_
fuzz_cpp.cpython-310-x86_64-linux-gnu.so:_ZN9rapidfuzz6detail8is_spaceImEEbT_
fuzz_cpp.cpython-310-x86_64-linux-gnu.so:_ZN9rapidfuzz6detail8is_spaceItEEbT_
fuzz_cpp.cpython-310-x86_64-linux-gnu.so:_ZZN7CpuInfo8instanceEvE8instance
fuzz_cpp.cpython-310-x86_64-linux-gnu.so:__pyx_module_is_main_rapidfuzz__fuzz_cpp
metrics_cpp.cpython-310-x86_64-linux-gnu.so:PyInit_metrics_cpp
metrics_cpp.cpython-310-x86_64-linux-gnu.so:_ZGVZN7CpuInfo8instanceEvE8instance
metrics_cpp.cpython-310-x86_64-linux-gnu.so:_ZN4Avx210QRatioInitEP14_RF_ScorerFuncPK10_RF_KwargslPK10_RF_String
metrics_cpp.cpython-310-x86_64-linux-gnu.so:_ZN4Avx215OsaDistanceInitEP14_RF_ScorerFuncPK10_RF_KwargslPK10_RF_String
metrics_cpp.cpython-310-x86_64-linux-gnu.so:_ZN4Avx217IndelDistanceInitEP14_RF_ScorerFuncPK10_RF_KwargslPK10_RF_String
metrics_cpp.cpython-310-x86_64-linux-gnu.so:_ZN4Avx217OsaSimilarityInitEP14_RF_ScorerFuncPK10_RF_KwargslPK10_RF_String
metrics_cpp.cpython-310-x86_64-linux-gnu.so:_ZN4Avx218LCSseqDistanceInitEP14_RF_ScorerFuncPK10_RF_KwargslPK10_RF_String
metrics_cpp.cpython-310-x86_64-linux-gnu.so:_ZN4Avx218TokenSortRatioInitEP14_RF_ScorerFuncPK10_RF_KwargslPK10_RF_String
metrics_cpp.cpython-310-x86_64-linux-gnu.so:_ZN4Avx219IndelSimilarityInitEP14_RF_ScorerFuncPK10_RF_KwargslPK10_RF_String
metrics_cpp.cpython-310-x86_64-linux-gnu.so:_ZN4Avx220LCSseqSimilarityInitEP14_RF_ScorerFuncPK10_RF_KwargslPK10_RF_String
metrics_cpp.cpython-310-x86_64-linux-gnu.so:_ZN4Avx223LevenshteinDistanceInitEP14_RF_ScorerFuncPK10_RF_KwargslPK10_RF_String
metrics_cpp.cpython-310-x86_64-linux-gnu.so:_ZN4Avx225LevenshteinSimilarityInitEP14_RF_ScorerFuncPK10_RF_KwargslPK10_RF_String
metrics_cpp.cpython-310-x86_64-linux-gnu.so:_ZN4Avx225OsaNormalizedDistanceInitEP14_RF_ScorerFuncPK10_RF_KwargslPK10_RF_String
metrics_cpp.cpython-310-x86_64-linux-gnu.so:_ZN4Avx227IndelNormalizedDistanceInitEP14_RF_ScorerFuncPK10_RF_KwargslPK10_RF_String
metrics_cpp.cpython-310-x86_64-linux-gnu.so:_ZN4Avx227OsaNormalizedSimilarityInitEP14_RF_ScorerFuncPK10_RF_KwargslPK10_RF_String
metrics_cpp.cpython-310-x86_64-linux-gnu.so:_ZN4Avx228LCSseqNormalizedDistanceInitEP14_RF_ScorerFuncPK10_RF_KwargslPK10_RF_String
metrics_cpp.cpython-310-x86_64-linux-gnu.so:_ZN4Avx229IndelNormalizedSimilarityInitEP14_RF_ScorerFuncPK10_RF_KwargslPK10_RF_String
metrics_cpp.cpython-310-x86_64-linux-gnu.so:_ZN4Avx230LCSseqNormalizedSimilarityInitEP14_RF_ScorerFuncPK10_RF_KwargslPK10_RF_String
metrics_cpp.cpython-310-x86_64-linux-gnu.so:_ZN4Avx233LevenshteinNormalizedDistanceInitEP14_RF_ScorerFuncPK10_RF_KwargslPK10_RF_String
metrics_cpp.cpython-310-x86_64-linux-gnu.so:_ZN4Avx235LevenshteinNormalizedSimilarityInitEP14_RF_ScorerFuncPK10_RF_KwargslPK10_RF_String
metrics_cpp.cpython-310-x86_64-linux-gnu.so:_ZN4Avx29RatioInitEP14_RF_ScorerFuncPK10_RF_KwargslPK10_RF_String
metrics_cpp.cpython-310-x86_64-linux-gnu.so:_ZN4Sse210QRatioInitEP14_RF_ScorerFuncPK10_RF_KwargslPK10_RF_String
metrics_cpp.cpython-310-x86_64-linux-gnu.so:_ZN4Sse215OsaDistanceInitEP14_RF_ScorerFuncPK10_RF_KwargslPK10_RF_String
metrics_cpp.cpython-310-x86_64-linux-gnu.so:_ZN4Sse217IndelDistanceInitEP14_RF_ScorerFuncPK10_RF_KwargslPK10_RF_String
metrics_cpp.cpython-310-x86_64-linux-gnu.so:_ZN4Sse217OsaSimilarityInitEP14_RF_ScorerFuncPK10_RF_KwargslPK10_RF_String
metrics_cpp.cpython-310-x86_64-linux-gnu.so:_ZN4Sse218LCSseqDistanceInitEP14_RF_ScorerFuncPK10_RF_KwargslPK10_RF_String
metrics_cpp.cpython-310-x86_64-linux-gnu.so:_ZN4Sse218TokenSortRatioInitEP14_RF_ScorerFuncPK10_RF_KwargslPK10_RF_String
metrics_cpp.cpython-310-x86_64-linux-gnu.so:_ZN4Sse219IndelSimilarityInitEP14_RF_ScorerFuncPK10_RF_KwargslPK10_RF_String
metrics_cpp.cpython-310-x86_64-linux-gnu.so:_ZN4Sse220LCSseqSimilarityInitEP14_RF_ScorerFuncPK10_RF_KwargslPK10_RF_String
metrics_cpp.cpython-310-x86_64-linux-gnu.so:_ZN4Sse223LevenshteinDistanceInitEP14_RF_ScorerFuncPK10_RF_KwargslPK10_RF_String
metrics_cpp.cpython-310-x86_64-linux-gnu.so:_ZN4Sse225LevenshteinSimilarityInitEP14_RF_ScorerFuncPK10_RF_KwargslPK10_RF_String
metrics_cpp.cpython-310-x86_64-linux-gnu.so:_ZN4Sse225OsaNormalizedDistanceInitEP14_RF_ScorerFuncPK10_RF_KwargslPK10_RF_String
metrics_cpp.cpython-310-x86_64-linux-gnu.so:_ZN4Sse227IndelNormalizedDistanceInitEP14_RF_ScorerFuncPK10_RF_KwargslPK10_RF_String
metrics_cpp.cpython-310-x86_64-linux-gnu.so:_ZN4Sse227OsaNormalizedSimilarityInitEP14_RF_ScorerFuncPK10_RF_KwargslPK10_RF_String
metrics_cpp.cpython-310-x86_64-linux-gnu.so:_ZN4Sse228LCSseqNormalizedDistanceInitEP14_RF_ScorerFuncPK10_RF_KwargslPK10_RF_String
metrics_cpp.cpython-310-x86_64-linux-gnu.so:_ZN4Sse229IndelNormalizedSimilarityInitEP14_RF_ScorerFuncPK10_RF_KwargslPK10_RF_String
metrics_cpp.cpython-310-x86_64-linux-gnu.so:_ZN4Sse230LCSseqNormalizedSimilarityInitEP14_RF_ScorerFuncPK10_RF_KwargslPK10_RF_String
metrics_cpp.cpython-310-x86_64-linux-gnu.so:_ZN4Sse233LevenshteinNormalizedDistanceInitEP14_RF_ScorerFuncPK10_RF_KwargslPK10_RF_String
metrics_cpp.cpython-310-x86_64-linux-gnu.so:_ZN4Sse235LevenshteinNormalizedSimilarityInitEP14_RF_ScorerFuncPK10_RF_KwargslPK10_RF_String
metrics_cpp.cpython-310-x86_64-linux-gnu.so:_ZN4Sse29RatioInitEP14_RF_ScorerFuncPK10_RF_KwargslPK10_RF_String
metrics_cpp.cpython-310-x86_64-linux-gnu.so:_ZN7CpuInfo13detect_OS_AVXEv
metrics_cpp.cpython-310-x86_64-linux-gnu.so:_ZN7CpuInfoC1Ev
metrics_cpp.cpython-310-x86_64-linux-gnu.so:_ZN7CpuInfoC2Ev
metrics_cpp.cpython-310-x86_64-linux-gnu.so:_ZN9rapidfuzz6detail8is_spaceIhEEbT_
metrics_cpp.cpython-310-x86_64-linux-gnu.so:_ZN9rapidfuzz6detail8is_spaceIjEEbT_
metrics_cpp.cpython-310-x86_64-linux-gnu.so:_ZN9rapidfuzz6detail8is_spaceImEEbT_
metrics_cpp.cpython-310-x86_64-linux-gnu.so:_ZN9rapidfuzz6detail8is_spaceItEEbT_
metrics_cpp.cpython-310-x86_64-linux-gnu.so:_ZZN7CpuInfo8instanceEvE8instance
metrics_cpp.cpython-310-x86_64-linux-gnu.so:__pyx_module_is_main_rapidfuzz__distance__metrics_cpp
process_cpp_impl.cpython-310-x86_64-linux-gnu.so:PyInit_process_cpp_impl
process_cpp_impl.cpython-310-x86_64-linux-gnu.so:_Z24KeyboardInterruptOccuredRP3_ts
process_cpp_impl.cpython-310-x86_64-linux-gnu.so:_Z9any_roundd
process_cpp_impl.cpython-310-x86_64-linux-gnu.so:_Z9any_roundl
process_cpp_impl.cpython-310-x86_64-linux-gnu.so:_ZGVN2tf9node_poolE
process_cpp_impl.cpython-310-x86_64-linux-gnu.so:_ZGVZN2tf13TFProfManager3getEvE3mgr
process_cpp_impl.cpython-310-x86_64-linux-gnu.so:_ZN2tf9node_poolE
process_cpp_impl.cpython-310-x86_64-linux-gnu.so:_ZNSt13__future_base13_State_baseV29_M_do_setEPSt8functionIFSt10unique_ptrINS_12_Result_baseENS3_8_DeleterEEvEEPb
process_cpp_impl.cpython-310-x86_64-linux-gnu.so:_ZNSt15__exception_ptr12__dest_thunkISt12future_errorEEvPv
process_cpp_impl.cpython-310-x86_64-linux-gnu.so:_ZNSt17_Function_handlerIFSt10unique_ptrINSt13__future_base12_Result_baseENS2_8_DeleterEEvENS1_13_State_baseV27_SetterIvvEEE10_M_managerERSt9_Any_dataRKSA_St18_Manager_operation
process_cpp_impl.cpython-310-x86_64-linux-gnu.so:_ZNSt17_Function_handlerIFSt10unique_ptrINSt13__future_base12_Result_baseENS2_8_DeleterEEvENS1_13_State_baseV27_SetterIvvEEE9_M_invokeERKSt9_Any_data
process_cpp_impl.cpython-310-x86_64-linux-gnu.so:_ZNSt17_Function_handlerIFbvEZN2tf8Executor5run_nIZNS2_3runERNS1_8TaskflowEEUlvE_EENS1_6FutureIvEES5_mOT_EUlvE_E10_M_managerERSt9_Any_dataRKSD_St18_Manager_operation
process_cpp_impl.cpython-310-x86_64-linux-gnu.so:_ZNSt17_Function_handlerIFbvEZN2tf8Executor5run_nIZNS2_3runERNS1_8TaskflowEEUlvE_EENS1_6FutureIvEES5_mOT_EUlvE_E9_M_invokeERKSt9_Any_data
process_cpp_impl.cpython-310-x86_64-linux-gnu.so:_ZNSt17_Function_handlerIFvvEZN2tf8Executor3runERNS1_8TaskflowEEUlvE_E10_M_managerERSt9_Any_dataRKS7_St18_Manager_operation
process_cpp_impl.cpython-310-x86_64-linux-gnu.so:_ZNSt17_Function_handlerIFvvEZN2tf8Executor3runERNS1_8TaskflowEEUlvE_E9_M_invokeERKSt9_Any_data
process_cpp_impl.cpython-310-x86_64-linux-gnu.so:_ZTIN2tf17ObserverInterfaceE
process_cpp_impl.cpython-310-x86_64-linux-gnu.so:_ZTINSt13__future_base13_State_baseV27_SetterIvvEE
process_cpp_impl.cpython-310-x86_64-linux-gnu.so:_ZTISt11_Mutex_baseILN9__gnu_cxx12_Lock_policyE2EE
process_cpp_impl.cpython-310-x86_64-linux-gnu.so:_ZTISt16_Sp_counted_baseILN9__gnu_cxx12_Lock_policyE2EE
process_cpp_impl.cpython-310-x86_64-linux-gnu.so:_ZTIZN2tf8Executor3runERNS_8TaskflowEEUlvE_
process_cpp_impl.cpython-310-x86_64-linux-gnu.so:_ZTIZN2tf8Executor5run_nIZNS0_3runERNS_8TaskflowEEUlvE_EENS_6FutureIvEES3_mOT_EUlvE_
process_cpp_impl.cpython-310-x86_64-linux-gnu.so:_ZTSN2tf14TFProfObserverE
process_cpp_impl.cpython-310-x86_64-linux-gnu.so:_ZTSN2tf17ObserverInterfaceE
process_cpp_impl.cpython-310-x86_64-linux-gnu.so:_ZTSNSt13__future_base13_State_baseV27_SetterIvvEE
process_cpp_impl.cpython-310-x86_64-linux-gnu.so:_ZTSNSt13__future_base13_State_baseV2E
process_cpp_impl.cpython-310-x86_64-linux-gnu.so:_ZTSNSt13__future_base7_ResultIvEE
process_cpp_impl.cpython-310-x86_64-linux-gnu.so:_ZTSNSt6thread11_State_implINS_8_InvokerISt5tupleIJZN2tf8Executor6_spawnEmEUlRNS3_6WorkerERSt5mutexRSt18condition_variableRmE_St17reference_wrapperIS5_ESD_IS7_ESD_IS9_ESD_ImEEEEEEE
process_cpp_impl.cpython-310-x86_64-linux-gnu.so:_ZTSSt11_Mutex_baseILN9__gnu_cxx12_Lock_policyE2EE
process_cpp_impl.cpython-310-x86_64-linux-gnu.so:_ZTSSt16_Sp_counted_baseILN9__gnu_cxx12_Lock_policyE2EE
process_cpp_impl.cpython-310-x86_64-linux-gnu.so:_ZTSSt19_Sp_make_shared_tag
process_cpp_impl.cpython-310-x86_64-linux-gnu.so:_ZTSSt23_Sp_counted_ptr_inplaceIN2tf14TFProfObserverESaIvELN9__gnu_cxx12_Lock_policyE2EE
process_cpp_impl.cpython-310-x86_64-linux-gnu.so:_ZTSSt23_Sp_counted_ptr_inplaceIN2tf8TopologyESaIvELN9__gnu_cxx12_Lock_policyE2EE
process_cpp_impl.cpython-310-x86_64-linux-gnu.so:_ZTSSt23_Sp_counted_ptr_inplaceINSt13__future_base13_State_baseV2ESaIvELN9__gnu_cxx12_Lock_policyE2EE
process_cpp_impl.cpython-310-x86_64-linux-gnu.so:_ZTSZN2tf8Executor3runERNS_8TaskflowEEUlvE_
process_cpp_impl.cpython-310-x86_64-linux-gnu.so:_ZTSZN2tf8Executor5run_nIZNS0_3runERNS_8TaskflowEEUlvE_EENS_6FutureIvEES3_mOT_EUlvE_
process_cpp_impl.cpython-310-x86_64-linux-gnu.so:_ZZN2tf13TFProfManager3getEvE3mgr
process_cpp_impl.cpython-310-x86_64-linux-gnu.so:_ZZN2tf9unique_idImLPv0EEET_vE7counter
process_cpp_impl.cpython-310-x86_64-linux-gnu.so:_ZZNSt19_Sp_make_shared_tag5_S_tiEvE5__tag
process_cpp_impl.cpython-310-x86_64-linux-gnu.so:_ZZNSt9once_flag18_Prepare_executionC4IZSt9call_onceIMNSt13__future_base13_State_baseV2EFvPSt8functionIFSt10unique_ptrINS3_12_Result_baseENS7_8_DeleterEEvEEPbEJPS4_SC_SD_EEvRS_OT_DpOT0_EUlvE_EERSI_ENUlvE_4_FUNEv
process_cpp_impl.cpython-310-x86_64-linux-gnu.so:__pyx_module_is_main_rapidfuzz__process_cpp_impl
utils_cpp.cpython-310-x86_64-linux-gnu.so:PyInit_utils_cpp
utils_cpp.cpython-310-x86_64-linux-gnu.so:_Z20_PyUnicode_ToNumericj
utils_cpp.cpython-310-x86_64-linux-gnu.so:_Z20default_process_func10_RF_String
utils_cpp.cpython-310-x86_64-linux-gnu.so:_Z21UnicodeDefaultProcessj
utils_cpp.cpython-310-x86_64-linux-gnu.so:_Z22_PyUnicode_IsLinebreakj
utils_cpp.cpython-310-x86_64-linux-gnu.so:_Z23_PyUnicode_IsWhitespacej
utils_cpp.cpython-310-x86_64-linux-gnu.so:_ZTI15PythonTypeError
utils_cpp.cpython-310-x86_64-linux-gnu.so:_ZTS15PythonTypeError
utils_cpp.cpython-310-x86_64-linux-gnu.so:__pyx_module_is_main_rapidfuzz__utils_cpp
