lyx:_IO_stdin_used
lyx:_ZN10EmptyTable11colsChangedEi
lyx:_ZN10EmptyTable11qt_metacallEN11QMetaObject4CallEiPPv
lyx:_ZN10EmptyTable11qt_metacastEPKc
lyx:_ZN10EmptyTable11rowsChangedEi
lyx:_ZN10EmptyTable13resetCellSizeEv
lyx:_ZN10EmptyTable13setNumberRowsEi
lyx:_ZN10EmptyTable14mouseMoveEventEP11QMouseEvent
lyx:_ZN10EmptyTable16setNumberColumnsEi
lyx:_ZN10EmptyTable16staticMetaObjectE
lyx:_ZN10EmptyTable17adjustMinCellSizeEv
lyx:_ZN10EmptyTable9paintCellEP8QPainterii
lyx:_ZN10EmptyTableC1EP7QWidgetii
lyx:_ZN10EmptyTableC2EP7QWidgetii
lyx:_ZN12GuiSetBorder10drawBottomENS_11BorderStateE
lyx:_ZN12GuiSetBorder10paintEventEP11QPaintEvent
lyx:_ZN12GuiSetBorder11bottomLTSetEv
lyx:_ZN12GuiSetBorder11bottomRTSetEv
lyx:_ZN12GuiSetBorder11qt_metacallEN11QMetaObject4CallEiPPv
lyx:_ZN12GuiSetBorder11qt_metacastEPKc
lyx:_ZN12GuiSetBorder13setTopEnabledEb
lyx:_ZN12GuiSetBorder14getTopLeftTrimEv
lyx:_ZN12GuiSetBorder14setLeftEnabledEb
lyx:_ZN12GuiSetBorder14setTopLeftTrimENS_11BorderStateE
lyx:_ZN12GuiSetBorder15drawTopLeftTrimENS_11BorderStateE
lyx:_ZN12GuiSetBorder15getTopRightTrimEv
lyx:_ZN12GuiSetBorder15mousePressEventEP11QMouseEvent
lyx:_ZN12GuiSetBorder15setRightEnabledEb
lyx:_ZN12GuiSetBorder15setTopRightTrimENS_11BorderStateE
lyx:_ZN12GuiSetBorder16drawTopRightTrimENS_11BorderStateE
lyx:_ZN12GuiSetBorder16setBottomEnabledEb
lyx:_ZN12GuiSetBorder16staticMetaObjectE
lyx:_ZN12GuiSetBorder17getBottomLeftTrimEv
lyx:_ZN12GuiSetBorder17setBottomLeftTrimENS_11BorderStateE
lyx:_ZN12GuiSetBorder17undrawWideTopLineEb
lyx:_ZN12GuiSetBorder18drawBottomLeftTrimENS_11BorderStateE
lyx:_ZN12GuiSetBorder18getBottomRightTrimEv
lyx:_ZN12GuiSetBorder18setBottomRightTrimENS_11BorderStateE
lyx:_ZN12GuiSetBorder19drawBottomRightTrimENS_11BorderStateE
lyx:_ZN12GuiSetBorder20undrawWideBottomLineEb
lyx:_ZN12GuiSetBorder21setTopLeftTrimEnabledEb
lyx:_ZN12GuiSetBorder22setTopRightTrimEnabledEb
lyx:_ZN12GuiSetBorder24setBottomLeftTrimEnabledEb
lyx:_ZN12GuiSetBorder25setBottomRightTrimEnabledEb
lyx:_ZN12GuiSetBorder4initEv
lyx:_ZN12GuiSetBorder6getTopEv
lyx:_ZN12GuiSetBorder6setAllENS_11BorderStateE
lyx:_ZN12GuiSetBorder6setTopENS_11BorderStateE
lyx:_ZN12GuiSetBorder6topSetEv
lyx:_ZN12GuiSetBorder7clickedEv
lyx:_ZN12GuiSetBorder7drawTopENS_11BorderStateE
lyx:_ZN12GuiSetBorder7getLeftEv
lyx:_ZN12GuiSetBorder7leftSetEv
lyx:_ZN12GuiSetBorder7setLeftENS_11BorderStateE
lyx:_ZN12GuiSetBorder8drawLeftENS_11BorderStateE
lyx:_ZN12GuiSetBorder8drawLineERK6QColoriiii
lyx:_ZN12GuiSetBorder8getRightEv
lyx:_ZN12GuiSetBorder8rightSetEv
lyx:_ZN12GuiSetBorder8setRightENS_11BorderStateE
lyx:_ZN12GuiSetBorder8topLTSetEv
lyx:_ZN12GuiSetBorder8topRTSetEv
lyx:_ZN12GuiSetBorder9bottomSetEv
lyx:_ZN12GuiSetBorder9drawRightENS_11BorderStateE
lyx:_ZN12GuiSetBorder9getBottomEv
lyx:_ZN12GuiSetBorder9setBottomENS_11BorderStateE
lyx:_ZN12GuiSetBorderC1EP7QWidget6QFlagsIN2Qt10WindowTypeEE
lyx:_ZN12GuiSetBorderC2EP7QWidget6QFlagsIN2Qt10WindowTypeEE
lyx:_ZN14GuiFontExample10paintEventEP11QPaintEvent
lyx:_ZN14GuiFontExample3setERK5QFontRK7QString
lyx:_ZN2gz11gzstreambuf12flush_bufferEv
lyx:_ZN2gz11gzstreambuf4openEPKci
lyx:_ZN2gz11gzstreambuf4syncEv
lyx:_ZN2gz11gzstreambuf5closeEv
lyx:_ZN2gz11gzstreambuf8overflowEi
lyx:_ZN2gz11gzstreambuf9underflowEv
lyx:_ZN2gz12gzstreambase4openEPKci
lyx:_ZN2gz12gzstreambase5closeEv
lyx:_ZN2gz12gzstreambaseC1EPKci
lyx:_ZN2gz12gzstreambaseC2EPKci
lyx:_ZN2gz12gzstreambaseD0Ev
lyx:_ZN2gz12gzstreambaseD1Ev
lyx:_ZN2gz12gzstreambaseD2Ev
lyx:_ZN3lyx10AuthorList19recordCurrentAuthorERKNS_6AuthorE
lyx:_ZN3lyx10AuthorList4sortEv
lyx:_ZN3lyx10AuthorList6recordERKNS_6AuthorE
lyx:_ZN3lyx10AuthorList6recordEiRKNS_6AuthorE
lyx:_ZN3lyx10AuthorListC1Ev
lyx:_ZN3lyx10AuthorListC2Ev
lyx:_ZN3lyx10BibTeXInfoC1ERKNSt7__cxx1112basic_stringIwSt11char_traitsIwESaIwEEES8_
lyx:_ZN3lyx10BibTeXInfoC2ERKNSt7__cxx1112basic_stringIwSt11char_traitsIwESaIwEEES8_
lyx:_ZN3lyx10BiblioInfo15mergeBiblioInfoERKS0_
lyx:_ZN3lyx10BiblioInfo18makeCitationLabelsERKNS_6BufferE
lyx:_ZN3lyx10BiblioInfo19collectCitedEntriesERKNS_6BufferE
lyx:_ZN3lyx10BranchList3addERKNSt7__cxx1112basic_stringIwSt11char_traitsIwESaIwEEE
lyx:_ZN3lyx10BranchList4findERKNSt7__cxx1112basic_stringIwSt11char_traitsIwESaIwEEE
lyx:_ZN3lyx10BranchList6removeERKNSt7__cxx1112basic_stringIwSt11char_traitsIwESaIwEEE
lyx:_ZN3lyx10BranchList6renameERKNSt7__cxx1112basic_stringIwSt11char_traitsIwESaIwEEES8_b
lyx:_ZN3lyx10BufferList14updatePreviewsEv
lyx:_ZN3lyx10BufferList15createNewBufferERKNSt7__cxx1112basic_stringIcSt11char_traitsIcESaIcEEE
lyx:_ZN3lyx10BufferList16getBufferFromTmpERKNSt7__cxx1112basic_stringIcSt11char_traitsIcESaIcEEEb
lyx:_ZN3lyx10BufferList17emergencyWriteAllEv
lyx:_ZN3lyx10BufferList17newInternalBufferERKNSt7__cxx1112basic_stringIcSt11char_traitsIcESaIcEEE
lyx:_ZN3lyx10BufferList19recordCurrentAuthorERKNS_6AuthorE
lyx:_ZN3lyx10BufferList22updateIncludedTeXfilesERKNSt7__cxx1112basic_stringIcSt11char_traitsIcESaIcEEERKNS_12OutputParamsE
lyx:_ZN3lyx10BufferList3endEv
lyx:_ZN3lyx10BufferList4lastEv
lyx:_ZN3lyx10BufferList5beginEv
lyx:_ZN3lyx10BufferList5firstEv
lyx:_ZN3lyx10BufferList7releaseEPNS_6BufferE
lyx:_ZN3lyx10BufferList8closeAllEv
lyx:_ZN3lyx10BufferList9getBufferEj
lyx:_ZN3lyx10BufferList9newBufferERKNSt7__cxx1112basic_stringIcSt11char_traitsIcESaIcEEE
lyx:_ZN3lyx10BufferListC1Ev
lyx:_ZN3lyx10BufferListC2Ev
lyx:_ZN3lyx10BufferListD1Ev
lyx:_ZN3lyx10BufferListD2Ev
lyx:_ZN3lyx10BufferView10coordCacheEv
lyx:_ZN3lyx10BufferView10scrollDownEi
lyx:_ZN3lyx10BufferView10setMathRowEPKNS_8MathDataERKNS_7MathRowE
lyx:_ZN3lyx10BufferView10showCursorERKNS_11DocIteratorENS_10ScrollTypeE
lyx:_ZN3lyx10BufferView10showCursorEv
lyx:_ZN3lyx10BufferView10showDialogERKNSt7__cxx1112basic_stringIcSt11char_traitsIcESaIcEEE
lyx:_ZN3lyx10BufferView10showDialogERKNSt7__cxx1112basic_stringIcSt11char_traitsIcESaIcEEES8_PNS_5InsetE
lyx:_ZN3lyx10BufferView11textMetricsEPKNS_4TextE
lyx:_ZN3lyx10BufferView12saveBookmarkEj
lyx:_ZN3lyx10BufferView12setSelectionERKNS_11DocIteratorES3_
lyx:_ZN3lyx10BufferView12updateDialogERKNSt7__cxx1112basic_stringIcSt11char_traitsIcESaIcEEES8_
lyx:_ZN3lyx10BufferView13insertLyXFileERKNS_7support8FileNameEb
lyx:_ZN3lyx10BufferView13scrollDocViewEi
lyx:_ZN3lyx10BufferView13selectIfEmptyERNS_11DocIteratorE
lyx:_ZN3lyx10BufferView13updateMetricsEb
lyx:_ZN3lyx10BufferView13updateMetricsEv
lyx:_ZN3lyx10BufferView14clearSelectionEv
lyx:_ZN3lyx10BufferView14minVisiblePartEv
lyx:_ZN3lyx10BufferView14mouseSetCursorERNS_6CursorEb
lyx:_ZN3lyx10BufferView14moveToPositionEllil
lyx:_ZN3lyx10BufferView14putSelectionAtERKNS_11DocIteratorEib
lyx:_ZN3lyx10BufferView14scrollToCursorERKNS_11DocIteratorENS_10ScrollTypeE
lyx:_ZN3lyx10BufferView14setGuiDelegateEPNS_8frontend21GuiBufferViewDelegateE
lyx:_ZN3lyx10BufferView14updatePosCacheEv
lyx:_ZN3lyx10BufferView15singleParUpdateEv
lyx:_ZN3lyx10BufferView16copySettingsFromERKS0_
lyx:_ZN3lyx10BufferView16requestSelectionB5cxx11Ev
lyx:_ZN3lyx10BufferView16setCursorFromRowEi
lyx:_ZN3lyx10BufferView17makeDocumentClassEv
lyx:_ZN3lyx10BufferView18buildCaretGeometryEb
lyx:_ZN3lyx10BufferView18mouseEventDispatchERKNS_11FuncRequestE
lyx:_ZN3lyx10BufferView18processUpdateFlagsENS_6Update5flagsE
lyx:_ZN3lyx10BufferView18setCurrentRowSliceERKNS_11CursorSliceE
lyx:_ZN3lyx10BufferView18setCursorFromInsetEPKNS_5InsetE
lyx:_ZN3lyx10BufferView18translateAndInsertEwPNS_4TextERNS_6CursorE
lyx:_ZN3lyx10BufferView19insertPlaintextFileERKNS_7support8FileNameEb
lyx:_ZN3lyx10BufferView19setInlineCompletionERKNS_6CursorERKNS_11DocIteratorERKNSt7__cxx1112basic_stringIwSt11char_traitsIwESaIwEEEm
lyx:_ZN3lyx10BufferView19updateDocumentClassESt10shared_ptrIKNS_13DocumentClassEE
lyx:_ZN3lyx10BufferView20bookmarkEditPositionEv
lyx:_ZN3lyx10BufferView20setCursorFromEntriesENS_6TexRow9TextEntryES2_
lyx:_ZN3lyx10BufferView20setCursorSelectionToERKNS_11DocIteratorE
lyx:_ZN3lyx10BufferView20stats_update_triggerEv
lyx:_ZN3lyx10BufferView21setSearchRequestCacheERKNSt7__cxx1112basic_stringIwSt11char_traitsIwESaIwEEE
lyx:_ZN3lyx10BufferView22setCursorFromScrollbarEv
lyx:_ZN3lyx10BufferView23checkCursorScrollOffsetEv
lyx:_ZN3lyx10BufferView23contentsOfPlaintextFileB5cxx11ERKNS_7support8FileNameE
lyx:_ZN3lyx10BufferView24resetInlineCompletionPosEv
lyx:_ZN3lyx10BufferView25updateScrollbarParametersEv
lyx:_ZN3lyx10BufferView4drawERNS_8frontend7PainterEb
lyx:_ZN3lyx10BufferView6bufferEv
lyx:_ZN3lyx10BufferView6cursorEv
lyx:_ZN3lyx10BufferView6resizeEii
lyx:_ZN3lyx10BufferView6scrollEi
lyx:_ZN3lyx10BufferView7getIntlEv
lyx:_ZN3lyx10BufferView7messageERKNSt7__cxx1112basic_stringIwSt11char_traitsIwESaIwEEE
lyx:_ZN3lyx10BufferView8dispatchERKNS_11FuncRequestERNS_14DispatchResultE
lyx:_ZN3lyx10BufferView8recenterEv
lyx:_ZN3lyx10BufferView8scrollUpEi
lyx:_ZN3lyx10BufferView9checkDepmERNS_6CursorES2_
lyx:_ZN3lyx10BufferView9editInsetERKNSt7__cxx1112basic_stringIcSt11char_traitsIcESaIcEEEPNS_5InsetE
lyx:_ZN3lyx10BufferView9getStatusERKNS_11FuncRequestERNS_10FuncStatusE
lyx:_ZN3lyx10BufferView9gotoLabelERKNSt7__cxx1112basic_stringIwSt11char_traitsIwESaIwEEE
lyx:_ZN3lyx10BufferView9setCursorERKNS_11DocIteratorE
lyx:_ZN3lyx10BufferViewC1ERNS_6BufferE
lyx:_ZN3lyx10BufferViewC2ERNS_6BufferE
lyx:_ZN3lyx10BufferViewD1Ev
lyx:_ZN3lyx10BufferViewD2Ev
lyx:_ZN3lyx10ColorCache4initEv
lyx:_ZN3lyx10Converters10buildGraphEv
lyx:_ZN3lyx10Converters10updateLastERKNS_7FormatsE
lyx:_ZN3lyx10Converters11intToFormatERKSt6vectorIiSaIiEE
lyx:_ZN3lyx10Converters11isReachableERKNSt7__cxx1112basic_stringIcSt11char_traitsIcESaIcEEES8_
lyx:_ZN3lyx10Converters12getReachableERKNSt7__cxx1112basic_stringIcSt11char_traitsIcESaIcEEEbbRKSt3setIS6_St4lessIS6_ESaIS6_EE
lyx:_ZN3lyx10Converters14getReachableToERKNSt7__cxx1112basic_stringIcSt11char_traitsIcESaIcEEEb
lyx:_ZN3lyx10Converters17exportableFormatsEb
lyx:_ZN3lyx10Converters17importableFormatsEv
lyx:_ZN3lyx10Converters3addERKNSt7__cxx1112basic_stringIcSt11char_traitsIcESaIcEEES8_S8_S8_
lyx:_ZN3lyx10Converters4moveERKNSt7__cxx1112basic_stringIcSt11char_traitsIcESaIcEEERKNS_7support8FileNameESC_b
lyx:_ZN3lyx10Converters5eraseERKNSt7__cxx1112basic_stringIcSt11char_traitsIcESaIcEEES8_
lyx:_ZN3lyx10Converters6updateERKNS_7FormatsE
lyx:_ZN3lyx10Converters7convertEPKNS_6BufferERKNS_7support8FileNameES7_S7_RKNSt7__cxx1112basic_stringIcSt11char_traitsIcESaIcEEESF_RNS_9ErrorListEibSt10shared_ptrINS_10ExportDataEE
lyx:_ZN3lyx10Converters7getPathERKNSt7__cxx1112basic_stringIcSt11char_traitsIcESaIcEEES8_
lyx:_ZN3lyx10Converters7scanLogERKNS_6BufferERKNSt7__cxx1112basic_stringIcSt11char_traitsIcESaIcEEERKNS_7support8FileNameERNS_9ErrorListE
lyx:_ZN3lyx10Converters8runLaTeXERKNS_6BufferERKNSt7__cxx1112basic_stringIcSt11char_traitsIcESaIcEEERKNS_12OutputParamsERNS_9ErrorListE
lyx:_ZN3lyx10Converters9checkAuthERKNS_9ConverterERKNSt7__cxx1112basic_stringIcSt11char_traitsIcESaIcEEEb
lyx:_ZN3lyx10CoordCache5clearEv
lyx:_ZN3lyx10CursorData10redoActionEv
lyx:_ZN3lyx10CursorData10undoActionEv
lyx:_ZN3lyx10CursorData11fixIfBrokenEv
lyx:_ZN3lyx10CursorData11resetAnchorEv
lyx:_ZN3lyx10CursorData12setSelectionERKNS_11DocIteratorEi
lyx:_ZN3lyx10CursorData12setSelectionEv
lyx:_ZN3lyx10CursorData14clearSelectionEv
lyx:_ZN3lyx10CursorData17setCursorToAnchorEv
lyx:_ZN3lyx10CursorData19markNewWordPositionEv
lyx:_ZN3lyx10CursorData20checkNewWordPositionEv
lyx:_ZN3lyx10CursorData20clearNewWordPositionEv
lyx:_ZN3lyx10CursorData20setCursorSelectionToENS_11DocIteratorE
lyx:_ZN3lyx10CursorData5resetEv
lyx:_ZN3lyx10CursorData8sanitizeEv
lyx:_ZN3lyx10CursorData9setCursorERKNS_11DocIteratorE
lyx:_ZN3lyx10CursorDataC1EPNS_6BufferE
lyx:_ZN3lyx10CursorDataC1ERKNS_11DocIteratorE
lyx:_ZN3lyx10CursorDataC1Ev
lyx:_ZN3lyx10CursorDataC2EPNS_6BufferE
lyx:_ZN3lyx10CursorDataC2ERKNS_11DocIteratorE
lyx:_ZN3lyx10CursorDataC2Ev
lyx:_ZN3lyx10ExportData15addExternalFileERKNSt7__cxx1112basic_stringIcSt11char_traitsIcESaIcEEERKNS_7support8FileNameE
lyx:_ZN3lyx10ExportData15addExternalFileERKNSt7__cxx1112basic_stringIcSt11char_traitsIcESaIcEEERKNS_7support8FileNameES8_
lyx:_ZN3lyx10FileDialog10setButton1ERK7QStringS3_
lyx:_ZN3lyx10FileDialog10setButton2ERK7QStringS3_
lyx:_ZN3lyx10FileDialog4openERK7QStringRK5QListIS1_ES3_
lyx:_ZN3lyx10FileDialog4saveERK7QStringRK5QListIS1_ES3_
lyx:_ZN3lyx10FileDialog4saveERK7QStringRK5QListIS1_ES3_PS1_
lyx:_ZN3lyx10FileDialog7opendirERK7QStringS3_
lyx:_ZN3lyx10FileDialog9openMultiERK7QStringRK5QListIS1_ES3_b
lyx:_ZN3lyx10FileDialogC1ERK7QString
lyx:_ZN3lyx10FileDialogC2ERK7QString
lyx:_ZN3lyx10FileDialogD1Ev
lyx:_ZN3lyx10FileDialogD2Ev
lyx:_ZN3lyx10FuncStatus10setEnabledEb
lyx:_ZN3lyx10FuncStatus10setUnknownEb
lyx:_ZN3lyx10FuncStatus5clearEv
lyx:_ZN3lyx10FuncStatus7messageERKNSt7__cxx1112basic_stringIwSt11char_traitsIwESaIwEEE
lyx:_ZN3lyx10FuncStatus8setOnOffEb
lyx:_ZN3lyx10FuncStatusC1Ev
lyx:_ZN3lyx10FuncStatusC2Ev
lyx:_ZN3lyx10GlueLengthC1ERKNSt7__cxx1112basic_stringIcSt11char_traitsIcESaIcEEE
lyx:_ZN3lyx10GlueLengthC2ERKNSt7__cxx1112basic_stringIcSt11char_traitsIcESaIcEEE
lyx:_ZN3lyx10HtmlStream5deferERKNSt7__cxx1112basic_stringIcSt11char_traitsIcESaIcEEE
lyx:_ZN3lyx10HtmlStream5deferERKNSt7__cxx1112basic_stringIwSt11char_traitsIwESaIwEEE
lyx:_ZN3lyx10HtmlStreamC1ERSt13basic_ostreamIwSt11char_traitsIwEE
lyx:_ZN3lyx10HtmlStreamC2ERSt13basic_ostreamIwSt11char_traitsIwEE
lyx:_ZN3lyx10InsetFloat10doDispatchERNS_6CursorERNS_11FuncRequestE
lyx:_ZN3lyx10InsetFloat11setNewLabelEv
lyx:_ZN3lyx10InsetFloat11setSidewaysEbb
lyx:_ZN3lyx10InsetFloat11setSubfloatEbb
lyx:_ZN3lyx10InsetFloat12updateBufferERKNS_11ParIteratorENS_10UpdateTypeEb
lyx:_ZN3lyx10InsetFloat13params2stringB5cxx11ERKNS_16InsetFloatParamsE
lyx:_ZN3lyx10InsetFloat13string2paramsERKNSt7__cxx1112basic_stringIcSt11char_traitsIcESaIcEEERNS_16InsetFloatParamsE
lyx:_ZN3lyx10InsetFloat14setCaptionTypeERKNSt7__cxx1112basic_stringIcSt11char_traitsIcESaIcEEE
lyx:_ZN3lyx10InsetFloat4readERNS_5LexerE
lyx:_ZN3lyx10InsetFloat7setWideEbb
lyx:_ZN3lyx10InsetFloatC1EPNS_6BufferERKNSt7__cxx1112basic_stringIcSt11char_traitsIcESaIcEEE
lyx:_ZN3lyx10InsetFloatC2EPNS_6BufferERKNSt7__cxx1112basic_stringIcSt11char_traitsIcESaIcEEE
lyx:_ZN3lyx10InsetIndex10doDispatchERNS_6CursorERNS_11FuncRequestE
lyx:_ZN3lyx10InsetIndex13params2stringB5cxx11ERKNS_16InsetIndexParamsE
lyx:_ZN3lyx10InsetIndex13string2paramsERKNSt7__cxx1112basic_stringIcSt11char_traitsIcESaIcEEERNS_16InsetIndexParamsE
lyx:_ZN3lyx10InsetIndex4readERNS_5LexerE
lyx:_ZN3lyx10InsetIndexC1EPNS_6BufferERKNS_16InsetIndexParamsE
lyx:_ZN3lyx10InsetIndexC2EPNS_6BufferERKNS_16InsetIndexParamsE
lyx:_ZN3lyx10InsetLabel10doDispatchERNS_6CursorERNS_11FuncRequestE
lyx:_ZN3lyx10InsetLabel11updateLabelERKNSt7__cxx1112basic_stringIwSt11char_traitsIwESaIwEEEb
lyx:_ZN3lyx10InsetLabel12updateBufferERKNS_11ParIteratorENS_10UpdateTypeEb
lyx:_ZN3lyx10InsetLabel16updateReferencesERKNSt7__cxx1112basic_stringIwSt11char_traitsIwESaIwEEES8_b
lyx:_ZN3lyx10InsetLabel18updateLabelAndRefsERKNSt7__cxx1112basic_stringIwSt11char_traitsIwESaIwEEEPNS_6CursorE
lyx:_ZN3lyx10InsetLabel8findInfoERKNSt7__cxx1112basic_stringIcSt11char_traitsIcESaIcEEE
lyx:_ZN3lyx10InsetLabel8initViewEv
lyx:_ZN3lyx10InsetLabelC1EPNS_6BufferERKNS_18InsetCommandParamsE
lyx:_ZN3lyx10InsetLabelC2EPNS_6BufferERKNS_18InsetCommandParamsE
lyx:_ZN3lyx10InsetSpace10doDispatchERNS_6CursorERNS_11FuncRequestE
lyx:_ZN3lyx10InsetSpace13params2stringB5cxx11ERKNS_16InsetSpaceParamsE
lyx:_ZN3lyx10InsetSpace13string2paramsERKNSt7__cxx1112basic_stringIcSt11char_traitsIcESaIcEEERNS_16InsetSpaceParamsE
lyx:_ZN3lyx10InsetSpace4readERNS_5LexerE
lyx:_ZN3lyx10InsetSpaceC1ERKNS_16InsetSpaceParamsE
lyx:_ZN3lyx10InsetSpaceC2ERKNS_16InsetSpaceParamsE
lyx:_ZN3lyx10LaTeXFonts10getAltFontERKNSt7__cxx1112basic_stringIwSt11char_traitsIwESaIwEEE
lyx:_ZN3lyx10LaTeXFonts12getLaTeXFontERKNSt7__cxx1112basic_stringIwSt11char_traitsIwESaIwEEE
lyx:_ZN3lyx10LaTeXFonts13getLaTeXFontsB5cxx11Ev
lyx:_ZN3lyx10LaTeXFonts14readLaTeXFontsEv
lyx:_ZN3lyx10LayoutFileC1ERKNSt7__cxx1112basic_stringIcSt11char_traitsIcESaIcEEES8_S8_S8_S8_b
lyx:_ZN3lyx10LayoutFileC2ERKNSt7__cxx1112basic_stringIcSt11char_traitsIcESaIcEEES8_S8_S8_S8_b
lyx:_ZN3lyx10MacroTable12globalMacrosEv
lyx:_ZN3lyx10MacroTable4dumpEv
lyx:_ZN3lyx10MacroTable6insertEPNS_6BufferERKNSt7__cxx1112basic_stringIwSt11char_traitsIwESaIwEEE
lyx:_ZN3lyx10MacroTable6insertERKNSt7__cxx1112basic_stringIwSt11char_traitsIwESaIwEEERKNS_9MacroDataE
lyx:_ZN3lyx10ModuleList15addLayoutModuleERKNSt7__cxx1112basic_stringIcSt11char_traitsIcESaIcEEES8_S8_RKSt6vectorIS6_SaIS6_EESD_SD_S8_b
lyx:_ZN3lyx10ModuleList3endEv
lyx:_ZN3lyx10ModuleList4readEv
lyx:_ZN3lyx10ModuleList5beginEv
lyx:_ZN3lyx10ModuleListixERKNSt7__cxx1112basic_stringIcSt11char_traitsIcESaIcEEE
lyx:_ZN3lyx10PDFOptions19pagemode_fullscreenB5cxx11E
lyx:_ZN3lyx10PDFOptions5clearEv
lyx:_ZN3lyx10PDFOptions9readTokenERNS_5LexerERKNSt7__cxx1112basic_stringIcSt11char_traitsIcESaIcEEE
lyx:_ZN3lyx10RowPainter15paintOnlyInsetsEv
lyx:_ZN3lyx10RowPainter9paintTextEv
lyx:_ZN3lyx10RowPainterC1ERNS_11PainterInfoERKNS_4TextERKNS_3RowEii
lyx:_ZN3lyx10RowPainterC2ERNS_11PainterInfoERKNS_4TextERKNS_3RowEii
lyx:_ZN3lyx10TocBackend18resetOutlinerNamesEv
lyx:_ZN3lyx10TocBackend3tocERKNSt7__cxx1112basic_stringIcSt11char_traitsIcESaIcEEE
lyx:_ZN3lyx10TocBackend5resetEv
lyx:_ZN3lyx10TocBackend6updateEbNS_10UpdateTypeE
lyx:_ZN3lyx10TocBackend7addNameERKNSt7__cxx1112basic_stringIcSt11char_traitsIcESaIcEEERKNS2_IwS3_IwESaIwEEE
lyx:_ZN3lyx10TocBackend7builderERKNSt7__cxx1112basic_stringIcSt11char_traitsIcESaIcEEE
lyx:_ZN3lyx10TocBackend7isOtherERKNSt7__cxx1112basic_stringIcSt11char_traitsIcESaIcEEE
lyx:_ZN3lyx10TocBackend8findItemERKSt6vectorINS_7TocItemESaIS2_EERKNS_11DocIteratorE
lyx:_ZN3lyx10TocBackend8findItemERSt6vectorINS_7TocItemESaIS2_EEiRKNSt7__cxx1112basic_stringIwSt11char_traitsIwESaIwEEE
lyx:_ZN3lyx10TocBuilder11captionItemERKNS_11DocIteratorERKNSt7__cxx1112basic_stringIwSt11char_traitsIwESaIwEEEb
lyx:_ZN3lyx10TocBuilder12argumentItemERKNSt7__cxx1112basic_stringIwSt11char_traitsIwESaIwEEE
lyx:_ZN3lyx10TocBuilder3popEv
lyx:_ZN3lyx10TocBuilder8pushItemERKNS_11DocIteratorERKNSt7__cxx1112basic_stringIwSt11char_traitsIwESaIwEEEbb
lyx:_ZN3lyx10TocBuilderC1ESt10shared_ptrISt6vectorINS_7TocItemESaIS3_EEE
lyx:_ZN3lyx10TocBuilderC2ESt10shared_ptrISt6vectorINS_7TocItemESaIS3_EEE
lyx:_ZN3lyx10TransState9TOKEN_SEPE
lyx:_ZN3lyx10X11hexnameB5cxx11ERKNS_8RGBColorE
lyx:_ZN3lyx10drawStrRedERNS_11PainterInfoEiiRKNSt7__cxx1112basic_stringIwSt11char_traitsIwESaIwEEE
lyx:_ZN3lyx10ensureMathERNS_13TeXMathStreamEbbb
lyx:_ZN3lyx10ensureModeERNS_13TeXMathStreamENS_5Inset9mode_typeEbb
lyx:_ZN3lyx10from_asciiB5cxx11EPKc
lyx:_ZN3lyx10from_asciiERKNSt7__cxx1112basic_stringIcSt11char_traitsIcESaIcEEE
lyx:_ZN3lyx10gatherInfoESt20_List_const_iteratorINS_9ParagraphEE
lyx:_ZN3lyx10get_accentENS_8FuncCodeE
lyx:_ZN3lyx10infoparamsE
lyx:_ZN3lyx10initParserEv
lyx:_ZN3lyx10isFontNameERKNSt7__cxx1112basic_stringIcSt11char_traitsIcESaIcEEE
lyx:_ZN3lyx10isMathFontERKNSt7__cxx1112basic_stringIcSt11char_traitsIcESaIcEEE
lyx:_ZN3lyx10isTextFontERKNSt7__cxx1112basic_stringIcSt11char_traitsIcESaIcEEE
lyx:_ZN3lyx10latexfontsE
lyx:_ZN3lyx10lookupFontERKNSt7__cxx1112basic_stringIcSt11char_traitsIcESaIcEEE
lyx:_ZN3lyx10lyxbreakerEPKvPKci
lyx:_ZN3lyx10lyxreplaceEPNS_10BufferViewERKNS_11FuncRequestE
lyx:_ZN3lyx10openParTagERNS_9XMLStreamERKNSt7__cxx1112basic_stringIwSt11char_traitsIwESaIwEEES9_
lyx:_ZN3lyx10otexstream3putERKw
lyx:_ZN3lyx10rgb2qcolorERKNS_8RGBColorE
lyx:_ZN3lyx10searchFontERKNSt7__cxx1112basic_stringIcSt11char_traitsIcESaIcEEE
lyx:_ZN3lyx10setLyXMiscERKNSt7__cxx1112basic_stringIcSt11char_traitsIcESaIcEEE
lyx:_ZN3lyx10setLyXSizeERKNSt7__cxx1112basic_stringIcSt11char_traitsIcESaIcEEERNS_8FontInfoE
lyx:_ZN3lyx10theFormatsEv
lyx:_ZN3lyx10theSessionEv
lyx:_ZN3lyx10ucs4ToUtf8Ev
lyx:_ZN3lyx10utf8ToUcs4Ev
lyx:_ZN3lyx11CursorSlice10forwardIdxEv
lyx:_ZN3lyx11CursorSlice10forwardPosEv
lyx:_ZN3lyx11CursorSlice11backwardPosEv
lyx:_ZN3lyx11CursorSlice9setPitPosEll
lyx:_ZN3lyx11CursorSliceC1ERNS_5InsetE
lyx:_ZN3lyx11CursorSliceC1Ev
lyx:_ZN3lyx11CursorSliceC2ERNS_5InsetE
lyx:_ZN3lyx11CursorSliceC2Ev
lyx:_ZN3lyx11DocIterator10forwardParEv
lyx:_ZN3lyx11DocIterator10forwardPosEv
lyx:_ZN3lyx11DocIterator10leaveInsetERKNS_5InsetE
lyx:_ZN3lyx11DocIterator10posForwardEv
lyx:_ZN3lyx11DocIterator11backwardPosEv
lyx:_ZN3lyx11DocIterator11fixIfBrokenEv
lyx:_ZN3lyx11DocIterator11forwardCharEv
lyx:_ZN3lyx11DocIterator11posBackwardEv
lyx:_ZN3lyx11DocIterator12backwardCharEv
lyx:_ZN3lyx11DocIterator12forwardInsetEv
lyx:_ZN3lyx11DocIterator12updateInsetsEPNS_5InsetE
lyx:_ZN3lyx11DocIterator13backwardInsetEv
lyx:_ZN3lyx11DocIterator25forwardPosIgnoreCollapsedEv
lyx:_ZN3lyx11DocIterator26backwardPosIgnoreCollapsedEv
lyx:_ZN3lyx11DocIterator6appendERKSt6vectorINS_11CursorSliceESaIS2_EE
lyx:_ZN3lyx11DocIterator6appendEml
lyx:_ZN3lyx11DocIterator6cutOffEi
lyx:_ZN3lyx11DocIterator6cutOffEiRSt6vectorINS_11CursorSliceESaIS2_EE
lyx:_ZN3lyx11DocIterator8nextMathEv
lyx:_ZN3lyx11DocIterator8prevMathEv
lyx:_ZN3lyx11DocIterator8sanitizeEv
lyx:_ZN3lyx11FuncRequest6prefixE
lyx:_ZN3lyx11FuncRequest7unknownE
lyx:_ZN3lyx11FuncRequest8noactionE
lyx:_ZN3lyx11FuncRequestC1ENS0_6OriginE
lyx:_ZN3lyx11FuncRequestC1ENS_8FuncCodeENS0_6OriginE
lyx:_ZN3lyx11FuncRequestC1ENS_8FuncCodeERKNSt7__cxx1112basic_stringIcSt11char_traitsIcESaIcEEENS0_6OriginE
lyx:_ZN3lyx11FuncRequestC1ENS_8FuncCodeERKNSt7__cxx1112basic_stringIwSt11char_traitsIwESaIwEEENS0_6OriginE
lyx:_ZN3lyx11FuncRequestC1ENS_8FuncCodeEiiNS_12mouse_button5stateEjNS0_6OriginE
lyx:_ZN3lyx11FuncRequestC1ERKS0_RKNSt7__cxx1112basic_stringIwSt11char_traitsIwESaIwEEENS0_6OriginE
lyx:_ZN3lyx11FuncRequestC2ENS0_6OriginE
lyx:_ZN3lyx11FuncRequestC2ENS_8FuncCodeENS0_6OriginE
lyx:_ZN3lyx11FuncRequestC2ENS_8FuncCodeERKNSt7__cxx1112basic_stringIcSt11char_traitsIcESaIcEEENS0_6OriginE
lyx:_ZN3lyx11FuncRequestC2ENS_8FuncCodeERKNSt7__cxx1112basic_stringIwSt11char_traitsIwESaIwEEENS0_6OriginE
lyx:_ZN3lyx11FuncRequestC2ENS_8FuncCodeEiiNS_12mouse_button5stateEjNS0_6OriginE
lyx:_ZN3lyx11FuncRequestC2ERKS0_RKNSt7__cxx1112basic_stringIwSt11char_traitsIwESaIwEEENS0_6OriginE
lyx:_ZN3lyx11IndicesList10addDefaultERKNSt7__cxx1112basic_stringIwSt11char_traitsIwESaIwEEE
lyx:_ZN3lyx11IndicesList12findShortcutERKNSt7__cxx1112basic_stringIwSt11char_traitsIwESaIwEEE
lyx:_ZN3lyx11IndicesList3addERKNSt7__cxx1112basic_stringIwSt11char_traitsIwESaIwEEES8_
lyx:_ZN3lyx11IndicesList4findERKNSt7__cxx1112basic_stringIwSt11char_traitsIwESaIwEEE
lyx:_ZN3lyx11IndicesList6removeERKNSt7__cxx1112basic_stringIwSt11char_traitsIwESaIwEEE
lyx:_ZN3lyx11IndicesList6renameERKNSt7__cxx1112basic_stringIwSt11char_traitsIwESaIwEEES8_
lyx:_ZN3lyx11InsetBibtex10doDispatchERNS_6CursorERNS_11FuncRequestE
lyx:_ZN3lyx11InsetBibtex11addDatabaseERKNSt7__cxx1112basic_stringIwSt11char_traitsIwESaIwEEE
lyx:_ZN3lyx11InsetBibtex11delDatabaseERKNSt7__cxx1112basic_stringIwSt11char_traitsIwESaIwEEE
lyx:_ZN3lyx11InsetBibtex12updateBufferERKNS_11ParIteratorENS_10UpdateTypeEb
lyx:_ZN3lyx11InsetBibtex8findInfoERKNSt7__cxx1112basic_stringIcSt11char_traitsIcESaIcEEE
lyx:_ZN3lyx11InsetBibtexC1EPNS_6BufferERKNS_18InsetCommandParamsE
lyx:_ZN3lyx11InsetBibtexC2EPNS_6BufferERKNS_18InsetCommandParamsE
lyx:_ZN3lyx11InsetBranch10doDispatchERNS_6CursorERNS_11FuncRequestE
lyx:_ZN3lyx11InsetBranch12updateBufferERKNS_11ParIteratorENS_10UpdateTypeEb
lyx:_ZN3lyx11InsetBranch13params2stringB5cxx11ERKNS_17InsetBranchParamsE
lyx:_ZN3lyx11InsetBranch13string2paramsERKNSt7__cxx1112basic_stringIcSt11char_traitsIcESaIcEEERNS_17InsetBranchParamsE
lyx:_ZN3lyx11InsetBranch4readERNS_5LexerE
lyx:_ZN3lyx11InsetBranchC1EPNS_6BufferERKNS_17InsetBranchParamsE
lyx:_ZN3lyx11InsetBranchC2EPNS_6BufferERKNS_17InsetBranchParamsE
lyx:_ZN3lyx11InsetLayout12readArgumentERNS_5LexerE
lyx:_ZN3lyx11InsetLayout4readERNS_5LexerERKNS_9TextClassEb
lyx:_ZN3lyx11InsetQuotes10doDispatchERNS_6CursorERNS_11FuncRequestE
lyx:_ZN3lyx11InsetQuotes11parseStringERKNSt7__cxx1112basic_stringIcSt11char_traitsIcESaIcEEEb
lyx:_ZN3lyx11InsetQuotes12updateBufferERKNS_11ParIteratorENS_10UpdateTypeEb
lyx:_ZN3lyx11InsetQuotes4readERNS_5LexerE
lyx:_ZN3lyx11InsetQuotes7setSideEw
lyx:_ZN3lyx11InsetQuotes8getStyleERKNSt7__cxx1112basic_stringIcSt11char_traitsIcESaIcEEE
lyx:_ZN3lyx11InsetQuotesC1EPNS_6BufferERKNSt7__cxx1112basic_stringIcSt11char_traitsIcESaIcEEE
lyx:_ZN3lyx11InsetQuotesC1EPNS_6BufferEwNS_10QuoteLevelERKNSt7__cxx1112basic_stringIcSt11char_traitsIcESaIcEEESB_
lyx:_ZN3lyx11InsetQuotesC2EPNS_6BufferERKNSt7__cxx1112basic_stringIcSt11char_traitsIcESaIcEEE
lyx:_ZN3lyx11InsetQuotesC2EPNS_6BufferEwNS_10QuoteLevelERKNSt7__cxx1112basic_stringIcSt11char_traitsIcESaIcEEESB_
lyx:_ZN3lyx11InsetScript10doDispatchERNS_6CursorERNS_11FuncRequestE
lyx:_ZN3lyx11InsetScript13params2stringB5cxx11ERKNS_17InsetScriptParamsE
lyx:_ZN3lyx11InsetScript13string2paramsERKNSt7__cxx1112basic_stringIcSt11char_traitsIcESaIcEEERNS_17InsetScriptParamsE
lyx:_ZN3lyx11InsetScript4editERNS_6CursorEbNS_5Inset14EntryDirectionE
lyx:_ZN3lyx11InsetScript4readERNS_5LexerE
lyx:_ZN3lyx11InsetScript6editXYERNS_6CursorEii
lyx:_ZN3lyx11InsetScriptC1EPNS_6BufferERKNS_17InsetScriptParamsE
lyx:_ZN3lyx11InsetScriptC1EPNS_6BufferERKNSt7__cxx1112basic_stringIcSt11char_traitsIcESaIcEEE
lyx:_ZN3lyx11InsetScriptC2EPNS_6BufferERKNS_17InsetScriptParamsE
lyx:_ZN3lyx11InsetScriptC2EPNS_6BufferERKNSt7__cxx1112basic_stringIcSt11char_traitsIcESaIcEEE
lyx:_ZN3lyx11InsetScriptD0Ev
lyx:_ZN3lyx11InsetScriptD1Ev
lyx:_ZN3lyx11InsetScriptD2Ev
lyx:_ZN3lyx11InsetVSpace10doDispatchERNS_6CursorERNS_11FuncRequestE
lyx:_ZN3lyx11InsetVSpace13params2stringB5cxx11ERKNS_6VSpaceE
lyx:_ZN3lyx11InsetVSpace13string2paramsERKNSt7__cxx1112basic_stringIcSt11char_traitsIcESaIcEEERNS_6VSpaceE
lyx:_ZN3lyx11InsetVSpace4readERNS_5LexerE
lyx:_ZN3lyx11InsetVSpaceC1ERKNS_6VSpaceE
lyx:_ZN3lyx11InsetVSpaceC2ERKNS_6VSpaceE
lyx:_ZN3lyx11KeySequence5clearEv
lyx:_ZN3lyx11KeySequence5parseERKNSt7__cxx1112basic_stringIcSt11char_traitsIcESaIcEEE
lyx:_ZN3lyx11KeySequence5resetEv
lyx:_ZN3lyx11KeySequence6addkeyERKNS_9KeySymbolEjj
lyx:_ZN3lyx11KeySequence9removeKeyEv
lyx:_ZN3lyx11MetricsBase10changeFracEv
lyx:_ZN3lyx11MetricsBase11changeArrayEb
lyx:_ZN3lyx11MetricsBase12changeScriptEv
lyx:_ZN3lyx11MetricsBase13changeFontSetERKNSt7__cxx1112basic_stringIcSt11char_traitsIcESaIcEEE
lyx:_ZN3lyx11MetricsBase14changeFontSizeERKNSt7__cxx1112basic_stringIcSt11char_traitsIcESaIcEEEb
lyx:_ZN3lyx11MetricsBase16changeEnsureMathENS_5Inset9mode_typeE
lyx:_ZN3lyx11MetricsBaseC1EPNS_10BufferViewENS_8FontInfoEi
lyx:_ZN3lyx11MetricsBaseC2EPNS_10BufferViewENS_8FontInfoEi
lyx:_ZN3lyx11MetricsInfoC1EPNS_10BufferViewENS_8FontInfoEiRKNS_12MacroContextEbb
lyx:_ZN3lyx11MetricsInfoC2EPNS_10BufferViewENS_8FontInfoEiRKNS_12MacroContextEbb
lyx:_ZN3lyx11PainterInfo4drawEiiRKNSt7__cxx1112basic_stringIwSt11char_traitsIwESaIwEEE
lyx:_ZN3lyx11PainterInfo4drawEiiw
lyx:_ZN3lyx11PainterInfoC1EPNS_10BufferViewERNS_8frontend7PainterE
lyx:_ZN3lyx11PainterInfoC2EPNS_10BufferViewERNS_8frontend7PainterE
lyx:_ZN3lyx11ParIteratorppEi
lyx:_ZN3lyx11ParIteratorppEv
lyx:_ZN3lyx11SetHTMLModeC1ERNS_10HtmlStreamEb
lyx:_ZN3lyx11SetHTMLModeC2ERNS_10HtmlStreamEb
lyx:_ZN3lyx11SetHTMLModeD1Ev
lyx:_ZN3lyx11SetHTMLModeD2Ev
lyx:_ZN3lyx11TextMetrics10cursorHomeERNS_6CursorE
lyx:_ZN3lyx11TextMetrics10parMetricsEl
lyx:_ZN3lyx11TextMetrics10parMetricsElb
lyx:_ZN3lyx11TextMetrics11getPitNearYEi
lyx:_ZN3lyx11TextMetrics13checkInsetHitEii
lyx:_ZN3lyx11TextMetrics13checkInsetHitElii
lyx:_ZN3lyx11TextMetrics13redoParagraphElb
lyx:_ZN3lyx11TextMetrics13setRowChangedEll
lyx:_ZN3lyx11TextMetrics13updateMetricsElii
lyx:_ZN3lyx11TextMetrics15newParMetricsUpEv
lyx:_ZN3lyx11TextMetrics17deleteLineForwardERNS_6CursorE
lyx:_ZN3lyx11TextMetrics17getPitAndRowNearYERiRlbb
lyx:_ZN3lyx11TextMetrics17newParMetricsDownEv
lyx:_ZN3lyx11TextMetrics24setCursorFromCoordinatesERNS_6CursorEii
lyx:_ZN3lyx11TextMetrics6editXYERNS_6CursorEiibb
lyx:_ZN3lyx11TextMetrics6forgetEl
lyx:_ZN3lyx11TextMetrics7metricsERKNS_11MetricsInfoERNS_9DimensionEi
lyx:_ZN3lyx11TextMetrics9cursorEndERNS_6CursorE
lyx:_ZN3lyx11TextMetricsC1EPNS_10BufferViewEPNS_4TextE
lyx:_ZN3lyx11TextMetricsC2EPNS_10BufferViewEPNS_4TextE
lyx:_ZN3lyx11TextPainter12verticalLineEiiiw
lyx:_ZN3lyx11TextPainter14horizontalLineEiiiw
lyx:_ZN3lyx11TextPainter2atEii
lyx:_ZN3lyx11TextPainter4drawEiiPKw
lyx:_ZN3lyx11TextPainter4drawEiiw
lyx:_ZN3lyx11TextPainterC1Eii
lyx:_ZN3lyx11TextPainterC2Eii
lyx:_ZN3lyx11augmentFontERNS_8FontInfoERKNSt7__cxx1112basic_stringIcSt11char_traitsIcESaIcEEE
lyx:_ZN3lyx11axis_heightERNS_11MetricsBaseE
lyx:_ZN3lyx11closeParTagERNS_9XMLStreamERKNSt7__cxx1112basic_stringIwSt11char_traitsIwESaIwEEE
lyx:_ZN3lyx11createInsetEPNS_6BufferERKNS_11FuncRequestE
lyx:_ZN3lyx11fileFiltersERK7QString
lyx:_ZN3lyx11find2stringERKNSt7__cxx1112basic_stringIwSt11char_traitsIwESaIwEEEbbbbbb
lyx:_ZN3lyx11getMessagesERKNSt7__cxx1112basic_stringIcSt11char_traitsIcESaIcEEE
lyx:_ZN3lyx11hideDialogsERKNSt7__cxx1112basic_stringIcSt11char_traitsIcESaIcEEEPNS_5InsetE
lyx:_ZN3lyx11ifdocstreamC1EPKcSt13_Ios_OpenmodeRKNSt7__cxx1112basic_stringIcSt11char_traitsIcESaIcEEE
lyx:_ZN3lyx11ifdocstreamC1ERKNS_6SetEncE
lyx:_ZN3lyx11ifdocstreamC1Ev
lyx:_ZN3lyx11ifdocstreamC2EPKcSt13_Ios_OpenmodeRKNSt7__cxx1112basic_stringIcSt11char_traitsIcESaIcEEE
lyx:_ZN3lyx11ifdocstreamC2ERKNS_6SetEncE
lyx:_ZN3lyx11ifdocstreamC2Ev
lyx:_ZN3lyx11ignore_fontE
lyx:_ZN3lyx11in_word_setERKNSt7__cxx1112basic_stringIwSt11char_traitsIwESaIwEEE
lyx:_ZN3lyx11isPrintableEw
lyx:_ZN3lyx11makeAbsPathERK7QStringS2_
lyx:_ZN3lyx11mathematicaERKNS_8MathDataERNS_17MathematicaStreamE
lyx:_ZN3lyx11normalize_cERKNSt7__cxx1112basic_stringIwSt11char_traitsIwESaIwEEE
lyx:_ZN3lyx11ofdocstream5resetERKNSt7__cxx1112basic_stringIcSt11char_traitsIcESaIcEEE
lyx:_ZN3lyx11ofdocstreamC1EPKcSt13_Ios_OpenmodeRKNSt7__cxx1112basic_stringIcSt11char_traitsIcESaIcEEE
lyx:_ZN3lyx11ofdocstreamC1ERKNS_6SetEncE
lyx:_ZN3lyx11ofdocstreamC1Ev
lyx:_ZN3lyx11ofdocstreamC2EPKcSt13_Ios_OpenmodeRKNSt7__cxx1112basic_stringIcSt11char_traitsIcESaIcEEE
lyx:_ZN3lyx11ofdocstreamC2ERKNS_6SetEncE
lyx:_ZN3lyx11ofdocstreamC2Ev
lyx:_ZN3lyx11q_key_stateE6QFlagsIN2Qt16KeyboardModifierEE
lyx:_ZN3lyx11quoteparamsE
lyx:_ZN3lyx11safebreaklnE
lyx:_ZN3lyx11setEncodingERKNSt7__cxx1112basic_stringIcSt11char_traitsIcESaIcEEE
lyx:_ZN3lyx11setLyXColorERKNSt7__cxx1112basic_stringIcSt11char_traitsIcESaIcEEERNS_8FontInfoE
lyx:_ZN3lyx11setLyXShapeERKNSt7__cxx1112basic_stringIcSt11char_traitsIcESaIcEEERNS_8FontInfoE
lyx:_ZN3lyx11string2findERKNSt7__cxx1112basic_stringIwSt11char_traitsIwESaIwEEERbS8_S8_S8_S8_S8_
lyx:_ZN3lyx11texFileListERK7QString
lyx:_ZN3lyx11theWordListERKNSt7__cxx1112basic_stringIcSt11char_traitsIcESaIcEEE
lyx:_ZN3lyx11writeStringERKNSt7__cxx1112basic_stringIwSt11char_traitsIwESaIwEEERNS_13TeXMathStreamE
lyx:_ZN3lyx12BufferParams10branchlistEv
lyx:_ZN3lyx12BufferParams10pdfoptionsEv
lyx:_ZN3lyx12BufferParams10setDefSkipERKNS_6VSpaceE
lyx:_ZN3lyx12BufferParams11indiceslistEv
lyx:_ZN3lyx12BufferParams11readBulletsERNS_5LexerE
lyx:_ZN3lyx12BufferParams11readModulesERNS_5LexerE
lyx:_ZN3lyx12BufferParams11setLanguageERKNSt7__cxx1112basic_stringIcSt11char_traitsIcESaIcEEE
lyx:_ZN3lyx12BufferParams11spellignoreEv
lyx:_ZN3lyx12BufferParams11temp_bulletEm
lyx:_ZN3lyx12BufferParams11use_packageERKNSt7__cxx1112basic_stringIcSt11char_traitsIcESaIcEEENS0_7PackageE
lyx:_ZN3lyx12BufferParams12MemoryTraits5cloneEPKNS0_4ImplE
lyx:_ZN3lyx12BufferParams12MemoryTraits7destroyEPNS0_4ImplE
lyx:_ZN3lyx12BufferParams12copyForAdvFRERKS0_
lyx:_ZN3lyx12BufferParams12readLanguageERNS_5LexerE
lyx:_ZN3lyx12BufferParams12readPreambleERNS_5LexerE
lyx:_ZN3lyx12BufferParams12setBaseClassERKNSt7__cxx1112basic_stringIcSt11char_traitsIcESaIcEEES8_
lyx:_ZN3lyx12BufferParams12setParIndentERKNS_6LengthE
lyx:_ZN3lyx12BufferParams13auto_packagesB5cxx11Ev
lyx:_ZN3lyx12BufferParams13setMathIndentERKNS_6LengthE
lyx:_ZN3lyx12BufferParams14setLocalLayoutERKNSt7__cxx1112basic_stringIwSt11char_traitsIwESaIwEEEb
lyx:_ZN3lyx12BufferParams15addLayoutModuleERKNSt7__cxx1112basic_stringIcSt11char_traitsIcESaIcEEE
lyx:_ZN3lyx12BufferParams15readIncludeonlyERNS_5LexerE
lyx:_ZN3lyx12BufferParams15readLocalLayoutERNS_5LexerEb
lyx:_ZN3lyx12BufferParams16readBulletsLaTeXERNS_5LexerE
lyx:_ZN3lyx12BufferParams16setDocumentClassESt10shared_ptrIKNS_13DocumentClassEE
lyx:_ZN3lyx12BufferParams16useClassDefaultsEv
lyx:_ZN3lyx12BufferParams17makeDocumentClassEbb
lyx:_ZN3lyx12BufferParams18readGraphicsDriverERNS_5LexerE
lyx:_ZN3lyx12BufferParams18readRemovedModulesERNS_5LexerE
lyx:_ZN3lyx12BufferParams18setBibFileEncodingERKNSt7__cxx1112basic_stringIcSt11char_traitsIcESaIcEEES8_
lyx:_ZN3lyx12BufferParams19user_defined_bulletEm
lyx:_ZN3lyx12BufferParams20readDocumentMetadataERNS_5LexerE
lyx:_ZN3lyx12BufferParams4ImplC1Ev
lyx:_ZN3lyx12BufferParams4ImplC2Ev
lyx:_ZN3lyx12BufferParams7authorsEv
lyx:_ZN3lyx12BufferParams7spacingEv
lyx:_ZN3lyx12BufferParams9addAuthorERKNS_6AuthorE
lyx:_ZN3lyx12BufferParams9readTokenERNS_5LexerERKNSt7__cxx1112basic_stringIcSt11char_traitsIcESaIcEEERKNS_7support8FileNameE
lyx:_ZN3lyx12BufferParamsC1Ev
lyx:_ZN3lyx12BufferParamsC2Ev
lyx:_ZN3lyx12ExportedFileC1ERKNS_7support8FileNameERKNSt7__cxx1112basic_stringIcSt11char_traitsIcESaIcEEE
lyx:_ZN3lyx12ExportedFileC2ERKNS_7support8FileNameERKNSt7__cxx1112basic_stringIcSt11char_traitsIcESaIcEEE
lyx:_ZN3lyx12GUIMiscNamesE
lyx:_ZN3lyx12GUISizeNamesE
lyx:_ZN3lyx12InsetBibitem10doDispatchERNS_6CursorERNS_11FuncRequestE
lyx:_ZN3lyx12InsetBibitem11key_counterE
lyx:_ZN3lyx12InsetBibitem12updateBufferERKNS_11ParIteratorENS_10UpdateTypeEb
lyx:_ZN3lyx12InsetBibitem13updateCommandERKNSt7__cxx1112basic_stringIwSt11char_traitsIwESaIwEEEb
lyx:_ZN3lyx12InsetBibitem4readERNS_5LexerE
lyx:_ZN3lyx12InsetBibitem8findInfoERKNSt7__cxx1112basic_stringIcSt11char_traitsIcESaIcEEE
lyx:_ZN3lyx12InsetBibitem8initViewEv
lyx:_ZN3lyx12InsetBibitemC1EPNS_6BufferERKNS_18InsetCommandParamsE
lyx:_ZN3lyx12InsetBibitemC2EPNS_6BufferERKNS_18InsetCommandParamsE
lyx:_ZN3lyx12InsetBibitemD0Ev
lyx:_ZN3lyx12InsetBibitemD1Ev
lyx:_ZN3lyx12InsetBibitemD2Ev
lyx:_ZN3lyx12InsetCaption10doDispatchERNS_6CursorERNS_11FuncRequestE
lyx:_ZN3lyx12InsetCaption12updateBufferERKNS_11ParIteratorENS_10UpdateTypeEb
lyx:_ZN3lyx12InsetCaption4editERNS_6CursorEbNS_5Inset14EntryDirectionE
lyx:_ZN3lyx12InsetCaption6editXYERNS_6CursorEii
lyx:_ZN3lyx12InsetCaptionC1EPNS_6BufferERKNSt7__cxx1112basic_stringIcSt11char_traitsIcESaIcEEE
lyx:_ZN3lyx12InsetCaptionC2EPNS_6BufferERKNSt7__cxx1112basic_stringIcSt11char_traitsIcESaIcEEE
lyx:_ZN3lyx12InsetCommand10doDispatchERNS_6CursorERNS_11FuncRequestE
lyx:_ZN3lyx12InsetCommand13changeCmdNameERKNSt7__cxx1112basic_stringIcSt11char_traitsIcESaIcEEE
lyx:_ZN3lyx12InsetCommand13params2stringB5cxx11ERKNS_18InsetCommandParamsE
lyx:_ZN3lyx12InsetCommand13string2paramsERKNSt7__cxx1112basic_stringIcSt11char_traitsIcESaIcEEERNS_18InsetCommandParamsE
lyx:_ZN3lyx12InsetCommand8setParamERKNSt7__cxx1112basic_stringIcSt11char_traitsIcESaIcEEERKNS2_IwS3_IwESaIwEEE
lyx:_ZN3lyx12InsetCommand9setParamsERKNS_18InsetCommandParamsE
lyx:_ZN3lyx12InsetCommandC2EPNS_6BufferERKNS_18InsetCommandParamsE
lyx:_ZN3lyx12InsetCommandC2ERKS0_
lyx:_ZN3lyx12InsetCommandD0Ev
lyx:_ZN3lyx12InsetCommandD1Ev
lyx:_ZN3lyx12InsetCommandD2Ev
lyx:_ZN3lyx12InsetCommandaSERKS0_
lyx:_ZN3lyx12InsetCounter12counterTableB5cxx11E
lyx:_ZN3lyx12InsetCounter12updateBufferERKNS_11ParIteratorENS_10UpdateTypeEb
lyx:_ZN3lyx12InsetCounter19isCompatibleCommandERKNSt7__cxx1112basic_stringIcSt11char_traitsIcESaIcEEE
lyx:_ZN3lyx12InsetCounter8findInfoERKNSt7__cxx1112basic_stringIcSt11char_traitsIcESaIcEEE
lyx:_ZN3lyx12InsetCounterC1EPNS_6BufferERKNS_18InsetCommandParamsE
lyx:_ZN3lyx12InsetCounterC1ERKS0_
lyx:_ZN3lyx12InsetCounterC2EPNS_6BufferERKNS_18InsetCommandParamsE
lyx:_ZN3lyx12InsetCounterC2ERKS0_
lyx:_ZN3lyx12InsetIPAChar4readERNS_5LexerE
lyx:_ZN3lyx12InsetIPACharC1ENS0_4KindE
lyx:_ZN3lyx12InsetIPACharC2ENS0_4KindE
lyx:_ZN3lyx12InsetIPADeco10doDispatchERNS_6CursorERNS_11FuncRequestE
lyx:_ZN3lyx12InsetIPADeco13params2stringB5cxx11ERKNS_18InsetIPADecoParamsE
lyx:_ZN3lyx12InsetIPADeco13string2paramsERKNSt7__cxx1112basic_stringIcSt11char_traitsIcESaIcEEERNS_18InsetIPADecoParamsE
lyx:_ZN3lyx12InsetIPADeco4readERNS_5LexerE
lyx:_ZN3lyx12InsetIPADecoC1EPNS_6BufferERKNSt7__cxx1112basic_stringIcSt11char_traitsIcESaIcEEE
lyx:_ZN3lyx12InsetIPADecoC2EPNS_6BufferERKNSt7__cxx1112basic_stringIcSt11char_traitsIcESaIcEEE
lyx:_ZN3lyx12InsetIPADecoD0Ev
lyx:_ZN3lyx12InsetIPADecoD1Ev
lyx:_ZN3lyx12InsetIPADecoD2Ev
lyx:_ZN3lyx12InsetInclude10doDispatchERNS_6CursorERNS_11FuncRequestE
lyx:_ZN3lyx12InsetInclude12editIncludedERKNSt7__cxx1112basic_stringIcSt11char_traitsIcESaIcEEE
lyx:_ZN3lyx12InsetInclude12updateBufferERKNS_11ParIteratorENS_10UpdateTypeEb
lyx:_ZN3lyx12InsetInclude13updateCommandEv
lyx:_ZN3lyx12InsetInclude14setChildBufferEPNS_6BufferE
lyx:_ZN3lyx12InsetInclude19isCompatibleCommandERKNSt7__cxx1112basic_stringIcSt11char_traitsIcESaIcEEE
lyx:_ZN3lyx12InsetInclude8findInfoERKNSt7__cxx1112basic_stringIcSt11char_traitsIcESaIcEEE
lyx:_ZN3lyx12InsetInclude9setBufferERNS_6BufferE
lyx:_ZN3lyx12InsetInclude9setParamsERKNS_18InsetCommandParamsE
lyx:_ZN3lyx12InsetIncludeC1EPNS_6BufferERKNS_18InsetCommandParamsE
lyx:_ZN3lyx12InsetIncludeC1ERKS0_
lyx:_ZN3lyx12InsetIncludeC2EPNS_6BufferERKNS_18InsetCommandParamsE
lyx:_ZN3lyx12InsetIncludeC2ERKS0_
lyx:_ZN3lyx12InsetIncludeD0Ev
lyx:_ZN3lyx12InsetIncludeD1Ev
lyx:_ZN3lyx12InsetIncludeD2Ev
lyx:_ZN3lyx12InsetMathBig15isBigInsetDelimERKNSt7__cxx1112basic_stringIwSt11char_traitsIwESaIwEEE
lyx:_ZN3lyx12InsetMathBigC1EPNS_6BufferERKNSt7__cxx1112basic_stringIwSt11char_traitsIwESaIwEEESA_
lyx:_ZN3lyx12InsetMathBigC2EPNS_6BufferERKNSt7__cxx1112basic_stringIwSt11char_traitsIwESaIwEEESA_
lyx:_ZN3lyx12InsetMathBoxC1EPNS_6BufferERKNSt7__cxx1112basic_stringIwSt11char_traitsIwESaIwEEE
lyx:_ZN3lyx12InsetMathBoxC2EPNS_6BufferERKNSt7__cxx1112basic_stringIwSt11char_traitsIwESaIwEEE
lyx:_ZN3lyx12InsetMathEnvC1EPNS_6BufferERKNSt7__cxx1112basic_stringIwSt11char_traitsIwESaIwEEE
lyx:_ZN3lyx12InsetMathEnvC2EPNS_6BufferERKNSt7__cxx1112basic_stringIwSt11char_traitsIwESaIwEEE
lyx:_ZN3lyx12InsetMathLimC1EPNS_6BufferERKNS_8MathDataES5_S5_
lyx:_ZN3lyx12InsetMathLimC2EPNS_6BufferERKNS_8MathDataES5_S5_
lyx:_ZN3lyx12InsetMathParC1EPNS_6BufferERKNS_8MathDataE
lyx:_ZN3lyx12InsetMathParC2EPNS_6BufferERKNS_8MathDataE
lyx:_ZN3lyx12InsetMathRef10doDispatchERNS_6CursorERNS_11FuncRequestE
lyx:_ZN3lyx12InsetMathRef12changeTargetERKNSt7__cxx1112basic_stringIwSt11char_traitsIwESaIwEEE
lyx:_ZN3lyx12InsetMathRef12updateBufferERKNS_11ParIteratorENS_10UpdateTypeEb
lyx:_ZN3lyx12InsetMathRef5typesE
lyx:_ZN3lyx12InsetMathRefC1EPNS_6BufferE
lyx:_ZN3lyx12InsetMathRefC1EPNS_6BufferERKNSt7__cxx1112basic_stringIwSt11char_traitsIwESaIwEEE
lyx:_ZN3lyx12InsetMathRefC2EPNS_6BufferE
lyx:_ZN3lyx12InsetMathRefC2EPNS_6BufferERKNSt7__cxx1112basic_stringIwSt11char_traitsIwESaIwEEE
lyx:_ZN3lyx12InsetNewline10doDispatchERNS_6CursorERNS_11FuncRequestE
lyx:_ZN3lyx12InsetNewline13params2stringB5cxx11ERKNS_18InsetNewlineParamsE
lyx:_ZN3lyx12InsetNewline13string2paramsERKNSt7__cxx1112basic_stringIcSt11char_traitsIcESaIcEEERNS_18InsetNewlineParamsE
lyx:_ZN3lyx12InsetNewline4readERNS_5LexerE
lyx:_ZN3lyx12InsetNewlineC1Ev
lyx:_ZN3lyx12InsetNewlineC2Ev
lyx:_ZN3lyx12InsetNewpage10doDispatchERNS_6CursorERNS_11FuncRequestE
lyx:_ZN3lyx12InsetNewpage13params2stringB5cxx11ERKNS_18InsetNewpageParamsE
lyx:_ZN3lyx12InsetNewpage13string2paramsERKNSt7__cxx1112basic_stringIcSt11char_traitsIcESaIcEEERNS_18InsetNewpageParamsE
lyx:_ZN3lyx12InsetNewpage4readERNS_5LexerE
lyx:_ZN3lyx12InsetNewpageC1ERKNS_18InsetNewpageParamsE
lyx:_ZN3lyx12InsetNewpageC1Ev
lyx:_ZN3lyx12InsetNewpageC2ERKNS_18InsetNewpageParamsE
lyx:_ZN3lyx12InsetNewpageC2Ev
lyx:_ZN3lyx12InsetNomencl8findInfoERKNSt7__cxx1112basic_stringIcSt11char_traitsIcESaIcEEE
lyx:_ZN3lyx12InsetNomenclC1EPNS_6BufferERKNS_18InsetCommandParamsE
lyx:_ZN3lyx12InsetNomenclC2EPNS_6BufferERKNS_18InsetCommandParamsE
lyx:_ZN3lyx12InsetPhantom10doDispatchERNS_6CursorERNS_11FuncRequestE
lyx:_ZN3lyx12InsetPhantom13params2stringB5cxx11ERKNS_18InsetPhantomParamsE
lyx:_ZN3lyx12InsetPhantom13string2paramsERKNSt7__cxx1112basic_stringIcSt11char_traitsIcESaIcEEERNS_18InsetPhantomParamsE
lyx:_ZN3lyx12InsetPhantom14setButtonLabelEv
lyx:_ZN3lyx12InsetPhantom4readERNS_5LexerE
lyx:_ZN3lyx12InsetPhantomC1EPNS_6BufferERKNSt7__cxx1112basic_stringIcSt11char_traitsIcESaIcEEE
lyx:_ZN3lyx12InsetPhantomC2EPNS_6BufferERKNSt7__cxx1112basic_stringIcSt11char_traitsIcESaIcEEE
lyx:_ZN3lyx12InsetPhantomD0Ev
lyx:_ZN3lyx12InsetPhantomD1Ev
lyx:_ZN3lyx12InsetPhantomD2Ev
lyx:_ZN3lyx12InsetPreview18notifyCursorLeavesERKNS_6CursorERS1_
lyx:_ZN3lyx12InsetPreview4editERNS_6CursorEbNS_5Inset14EntryDirectionE
lyx:_ZN3lyx12InsetPreview6editXYERNS_6CursorEii
lyx:_ZN3lyx12InsetPreviewC1EPNS_6BufferE
lyx:_ZN3lyx12InsetPreviewC1ERKS0_
lyx:_ZN3lyx12InsetPreviewC2EPNS_6BufferE
lyx:_ZN3lyx12InsetPreviewC2ERKS0_
lyx:_ZN3lyx12InsetPreviewD0Ev
lyx:_ZN3lyx12InsetPreviewD1Ev
lyx:_ZN3lyx12InsetPreviewD2Ev
lyx:_ZN3lyx12InsetPreviewaSERKS0_
lyx:_ZN3lyx12InsetTabular10doDispatchERNS_6CursorERNS_11FuncRequestE
lyx:_ZN3lyx12InsetTabular12cutSelectionERNS_6CursorE
lyx:_ZN3lyx12InsetTabular12moveNextCellERNS_6CursorENS_5Inset14EntryDirectionE
lyx:_ZN3lyx12InsetTabular12movePrevCellERNS_6CursorENS_5Inset14EntryDirectionE
lyx:_ZN3lyx12InsetTabular12updateBufferERKNS_11ParIteratorENS_10UpdateTypeEb
lyx:_ZN3lyx12InsetTabular13acceptChangesEv
lyx:_ZN3lyx12InsetTabular13copySelectionERNS_6CursorE
lyx:_ZN3lyx12InsetTabular13params2stringB5cxx11ERKS0_
lyx:_ZN3lyx12InsetTabular13rejectChangesEv
lyx:_ZN3lyx12InsetTabular13string2paramsERKNSt7__cxx1112basic_stringIcSt11char_traitsIcESaIcEEERS0_
lyx:_ZN3lyx12InsetTabular14pasteClipboardERNS_6CursorE
lyx:_ZN3lyx12InsetTabular15tabularFeaturesERNS_6CursorENS_7Tabular7FeatureERKNSt7__cxx1112basic_stringIcSt11char_traitsIcESaIcEEE
lyx:_ZN3lyx12InsetTabular15tabularFeaturesERNS_6CursorERKNSt7__cxx1112basic_stringIcSt11char_traitsIcESaIcEEE
lyx:_ZN3lyx12InsetTabular16insertCompletionERNS_6CursorERKNSt7__cxx1112basic_stringIwSt11char_traitsIwESaIwEEEb
lyx:_ZN3lyx12InsetTabular21insertPlaintextStringERNS_10BufferViewERKNSt7__cxx1112basic_stringIwSt11char_traitsIwESaIwEEEb
lyx:_ZN3lyx12InsetTabular23setLayoutForHiddenCellsERKNS_13DocumentClassE
lyx:_ZN3lyx12InsetTabular4cellEm
lyx:_ZN3lyx12InsetTabular4editERNS_6CursorEbNS_5Inset14EntryDirectionE
lyx:_ZN3lyx12InsetTabular4readERNS_5LexerE
lyx:_ZN3lyx12InsetTabular6editXYERNS_6CursorEii
lyx:_ZN3lyx12InsetTabular8asStringB5cxx11Emmb
lyx:_ZN3lyx12InsetTabular9asParListEmm
lyx:_ZN3lyx12InsetTabular9setBufferERNS_6BufferE
lyx:_ZN3lyx12InsetTabular9setChangeERKNS_6ChangeE
lyx:_ZN3lyx12InsetTabularC1EPNS_6BufferEmm
lyx:_ZN3lyx12InsetTabularC1ERKS0_
lyx:_ZN3lyx12InsetTabularC2EPNS_6BufferEmm
lyx:_ZN3lyx12InsetTabularC2ERKS0_
lyx:_ZN3lyx12InsetTabularD0Ev
lyx:_ZN3lyx12InsetTabularD1Ev
lyx:_ZN3lyx12InsetTabularD2Ev
lyx:_ZN3lyx12LyXMiscNamesE
lyx:_ZN3lyx12LyXSizeNamesE
lyx:_ZN3lyx12MacroContextC1EPKNS_6BufferERKNS_11DocIteratorE
lyx:_ZN3lyx12MacroContextC2EPKNS_6BufferERKNS_11DocIteratorE
lyx:_ZN3lyx12MathMLStream10beforeTextEv
lyx:_ZN3lyx12MathMLStream2crEv
lyx:_ZN3lyx12MathMLStream5deferERKNSt7__cxx1112basic_stringIcSt11char_traitsIcESaIcEEE
lyx:_ZN3lyx12MathMLStream5deferERKNSt7__cxx1112basic_stringIwSt11char_traitsIwESaIwEEE
lyx:_ZN3lyx12MathMLStream9beforeTagEv
lyx:_ZN3lyx12MathMLStreamC1ERSt13basic_ostreamIwSt11char_traitsIwEERKNSt7__cxx1112basic_stringIcS2_IcESaIcEEE
lyx:_ZN3lyx12MathMLStreamC2ERSt13basic_ostreamIwSt11char_traitsIwEERKNSt7__cxx1112basic_stringIcS2_IcESaIcEEE
lyx:_ZN3lyx12OutputParamsC1EPKNS_8EncodingE
lyx:_ZN3lyx12OutputParamsC2EPKNS_8EncodingE
lyx:_ZN3lyx12OutputParamsD1Ev
lyx:_ZN3lyx12OutputParamsD2Ev
lyx:_ZN3lyx12RenderButton6updateERKNSt7__cxx1112basic_stringIwSt11char_traitsIwESaIwEEEbbb
lyx:_ZN3lyx12RenderButtonC1Ev
lyx:_ZN3lyx12RenderButtonC2Ev
lyx:_ZN3lyx12ServerSocket12dataCallbackEi
lyx:_ZN3lyx12ServerSocket14serverCallbackEv
lyx:_ZN3lyx12ServerSocket7writelnERKNSt7__cxx1112basic_stringIcSt11char_traitsIcESaIcEEE
lyx:_ZN3lyx12ServerSocketC1ERKNS_7support8FileNameE
lyx:_ZN3lyx12ServerSocketC2ERKNS_7support8FileNameE
lyx:_ZN3lyx12ServerSocketD1Ev
lyx:_ZN3lyx12ServerSocketD2Ev
lyx:_ZN3lyx12TransFSMDataC1Ev
lyx:_ZN3lyx12TransFSMDataC2Ev
lyx:_ZN3lyx12TransManager10setPrimaryERKNSt7__cxx1112basic_stringIcSt11char_traitsIcESaIcEEE
lyx:_ZN3lyx12TransManager12setSecondaryERKNSt7__cxx1112basic_stringIcSt11char_traitsIcESaIcEEE
lyx:_ZN3lyx12TransManager13disableKeymapEv
lyx:_ZN3lyx12TransManager13enablePrimaryEv
lyx:_ZN3lyx12TransManager15enableSecondaryEv
lyx:_ZN3lyx12TransManager18translateAndInsertEwPNS_4TextERNS_6CursorE
lyx:_ZN3lyx12TransManager6insertERKNSt7__cxx1112basic_stringIwSt11char_traitsIwESaIwEEEPNS_4TextERNS_6CursorE
lyx:_ZN3lyx12TransManager7deadkeyEwNS_10tex_accentEPNS_4TextERNS_6CursorE
lyx:_ZN3lyx12TransManager8default_E
lyx:_ZN3lyx12TransManagerC1Ev
lyx:_ZN3lyx12TransManagerC2Ev
lyx:_ZN3lyx12addExtensionERK7QStringS2_
lyx:_ZN3lyx12alphaCounterEi
lyx:_ZN3lyx12drawStrBlackERNS_11PainterInfoEiiRKNSt7__cxx1112basic_stringIwSt11char_traitsIwESaIwEEE
lyx:_ZN3lyx12empty_stringB5cxx11Ev
lyx:_ZN3lyx12formatHelperERKNSt7__cxx1112basic_stringIwSt11char_traitsIwESaIwEEEPKcS9_l
lyx:_ZN3lyx12getExtensionERK7QString
lyx:_ZN3lyx12inherit_fontE
lyx:_ZN3lyx12internalPathERK7QString
lyx:_ZN3lyx12isAlnumASCIIEw
lyx:_ZN3lyx12isAlphaASCIIEw
lyx:_ZN3lyx12isDigitASCIIEw
lyx:_ZN3lyx12isLetterCharEw
lyx:_ZN3lyx12isMathFamilyERK7QString
lyx:_ZN3lyx12isNumberCharEw
lyx:_ZN3lyx12loadIfNeededERKNS_7support8FileNameE
lyx:_ZN3lyx12map_latex_toENSt7__cxx1112basic_stringIwSt11char_traitsIwESaIwEEE
lyx:_ZN3lyx12mathedSymbolB5cxx11ERNS_11MetricsBaseEPKNS_9latexkeysE
lyx:_ZN3lyx12onlyFileNameERK7QString
lyx:_ZN3lyx12openBlockTagERNS_9XMLStreamERKNSt7__cxx1112basic_stringIwSt11char_traitsIwESaIwEEES9_
lyx:_ZN3lyx12romanCounterB5cxx11Ei
lyx:_ZN3lyx12selectChangeERNS_6CursorEb
lyx:_ZN3lyx12separatorPosEPKNS_14InsetTableCellERKNSt7__cxx1112basic_stringIwSt11char_traitsIwESaIwEEE
lyx:_ZN3lyx12setKeySymbolEPNS_9KeySymbolEPK9QKeyEvent
lyx:_ZN3lyx12setLyXFamilyERKNSt7__cxx1112basic_stringIcSt11char_traitsIcESaIcEEERNS_8FontInfoE
lyx:_ZN3lyx12setLyXSeriesERKNSt7__cxx1112basic_stringIcSt11char_traitsIcESaIcEEERNS_8FontInfoE
lyx:_ZN3lyx12system_lyxrcE
lyx:_ZN3lyx12theClipboardEv
lyx:_ZN3lyx12theSelectionEv
lyx:_ZN3lyx12to_local8bitERKNSt7__cxx1112basic_stringIwSt11char_traitsIwESaIwEEE
lyx:_ZN3lyx12ucs4_codesetE
lyx:_ZN3lyx12ucs4_to_utf8EPKwm
lyx:_ZN3lyx12ucs4_to_utf8ERKSt6vectorIwSaIwEE
lyx:_ZN3lyx12ucs4_to_utf8Ew
lyx:_ZN3lyx12update_classERNS_9MathClassES0_S0_
lyx:_ZN3lyx12utf8_to_ucs4EPKcm
lyx:_ZN3lyx12utf8_to_ucs4ERKNSt7__cxx1112basic_stringIcSt11char_traitsIcESaIcEEERNS1_IwS2_IwESaIwEEE
lyx:_ZN3lyx12utf8_to_ucs4ERKSt6vectorIcSaIcEE
lyx:_ZN3lyx13DocumentClass16plainInsetLayoutEv
lyx:_ZN3lyx13DocumentClassC1ERKNS_10LayoutFileE
lyx:_ZN3lyx13DocumentClassC2ERKNS_10LayoutFileE
lyx:_ZN3lyx13GUIShapeNamesE
lyx:_ZN3lyx13IgnoreFormats15setIgnoreFormatERKNSt7__cxx1112basic_stringIcSt11char_traitsIcESaIcEEEbb
lyx:_ZN3lyx13InsetArgument10doDispatchERNS_6CursorERNS_11FuncRequestE
lyx:_ZN3lyx13InsetArgument12updateBufferERKNS_11ParIteratorENS_10UpdateTypeEb
lyx:_ZN3lyx13InsetArgument14setButtonLabelEv
lyx:_ZN3lyx13InsetArgument20fixParagraphLanguageEPKNS_8LanguageE
lyx:_ZN3lyx13InsetArgument4initERKNS_9ParagraphE
lyx:_ZN3lyx13InsetArgument4readERNS_5LexerE
lyx:_ZN3lyx13InsetArgumentC1EPNS_6BufferERKNSt7__cxx1112basic_stringIcSt11char_traitsIcESaIcEEE
lyx:_ZN3lyx13InsetArgumentC2EPNS_6BufferERKNSt7__cxx1112basic_stringIcSt11char_traitsIcESaIcEEE
lyx:_ZN3lyx13InsetCitation10doDispatchERNS_6CursorERNS_11FuncRequestE
lyx:_ZN3lyx13InsetCitation12last_literalE
lyx:_ZN3lyx13InsetCitation12openCitationEv
lyx:_ZN3lyx13InsetCitation12updateBufferERKNS_11ParIteratorENS_10UpdateTypeEb
lyx:_ZN3lyx13InsetCitation19isCompatibleCommandERKNSt7__cxx1112basic_stringIcSt11char_traitsIcESaIcEEE
lyx:_ZN3lyx13InsetCitation6addKeyERKNSt7__cxx1112basic_stringIcSt11char_traitsIcESaIcEEE
lyx:_ZN3lyx13InsetCitation8findInfoERKNSt7__cxx1112basic_stringIcSt11char_traitsIcESaIcEEE
lyx:_ZN3lyx13InsetCitation9cleanKeysEv
lyx:_ZN3lyx13InsetCitationC1EPNS_6BufferERKNS_18InsetCommandParamsE
lyx:_ZN3lyx13InsetCitationC2EPNS_6BufferERKNS_18InsetCommandParamsE
lyx:_ZN3lyx13InsetCitationD0Ev
lyx:_ZN3lyx13InsetCitationD1Ev
lyx:_ZN3lyx13InsetCitationD2Ev
lyx:_ZN3lyx13InsetExternal10doDispatchERNS_6CursorERNS_11FuncRequestE
lyx:_ZN3lyx13InsetExternal13params2stringB5cxx11ERKNS_19InsetExternalParamsERKNS_6BufferE
lyx:_ZN3lyx13InsetExternal13string2paramsERKNSt7__cxx1112basic_stringIcSt11char_traitsIcESaIcEEERKNS_6BufferERNS_19InsetExternalParamsE
lyx:_ZN3lyx13InsetExternal4readERNS_5LexerE
lyx:_ZN3lyx13InsetExternal9setParamsERKNS_19InsetExternalParamsE
lyx:_ZN3lyx13InsetExternalC1EPNS_6BufferE
lyx:_ZN3lyx13InsetExternalC1ERKS0_
lyx:_ZN3lyx13InsetExternalC2EPNS_6BufferE
lyx:_ZN3lyx13InsetExternalC2ERKS0_
lyx:_ZN3lyx13InsetExternalD0Ev
lyx:_ZN3lyx13InsetExternalD1Ev
lyx:_ZN3lyx13InsetExternalD2Ev
lyx:_ZN3lyx13InsetFootlikeC1EPNS_6BufferE
lyx:_ZN3lyx13InsetFootlikeC2EPNS_6BufferE
lyx:_ZN3lyx13InsetGraphics10doDispatchERNS_6CursorERNS_11FuncRequestE
lyx:_ZN3lyx13InsetGraphics13params2stringB5cxx11ERKNS_19InsetGraphicsParamsERKNS_6BufferE
lyx:_ZN3lyx13InsetGraphics13string2paramsERKNSt7__cxx1112basic_stringIcSt11char_traitsIcESaIcEEERKNS_6BufferERNS_19InsetGraphicsParamsE
lyx:_ZN3lyx13InsetGraphics4readERNS_5LexerE
lyx:_ZN3lyx13InsetGraphics9setParamsERKNS_19InsetGraphicsParamsE
lyx:_ZN3lyx13InsetGraphicsC1EPNS_6BufferE
lyx:_ZN3lyx13InsetGraphicsC1ERKS0_
lyx:_ZN3lyx13InsetGraphicsC2EPNS_6BufferE
lyx:_ZN3lyx13InsetGraphicsC2ERKS0_
lyx:_ZN3lyx13InsetGraphicsD0Ev
lyx:_ZN3lyx13InsetGraphicsD1Ev
lyx:_ZN3lyx13InsetGraphicsD2Ev
lyx:_ZN3lyx13InsetIteratorC1ERNS_5InsetE
lyx:_ZN3lyx13InsetIteratorC2ERNS_5InsetE
lyx:_ZN3lyx13InsetLabelBoxC1EPNS_6BufferERKNS_8MathAtomERKNSt7__cxx1112basic_stringIwSt11char_traitsIwESaIwEEERKNS_22InsetMathMacroTemplateEb
lyx:_ZN3lyx13InsetLabelBoxC1EPNS_6BufferERKNSt7__cxx1112basic_stringIwSt11char_traitsIwESaIwEEERKNS_22InsetMathMacroTemplateEb
lyx:_ZN3lyx13InsetLabelBoxC2EPNS_6BufferERKNS_8MathAtomERKNSt7__cxx1112basic_stringIwSt11char_traitsIwESaIwEEERKNS_22InsetMathMacroTemplateEb
lyx:_ZN3lyx13InsetLabelBoxC2EPNS_6BufferERKNSt7__cxx1112basic_stringIwSt11char_traitsIwESaIwEEERKNS_22InsetMathMacroTemplateEb
lyx:_ZN3lyx13InsetListings10doDispatchERNS_6CursorERNS_11FuncRequestE
lyx:_ZN3lyx13InsetListings13params2stringB5cxx11ERKNS_19InsetListingsParamsE
lyx:_ZN3lyx13InsetListings13string2paramsERKNSt7__cxx1112basic_stringIcSt11char_traitsIcESaIcEEERNS_19InsetListingsParamsE
lyx:_ZN3lyx13InsetListings4readERNS_5LexerE
lyx:_ZN3lyx13InsetListingsC1EPNS_6BufferERKNS_19InsetListingsParamsE
lyx:_ZN3lyx13InsetListingsC2EPNS_6BufferERKNS_19InsetListingsParamsE
lyx:_ZN3lyx13InsetListingsD0Ev
lyx:_ZN3lyx13InsetListingsD1Ev
lyx:_ZN3lyx13InsetListingsD2Ev
lyx:_ZN3lyx13InsetMarginalC1EPNS_6BufferE
lyx:_ZN3lyx13InsetMarginalC2EPNS_6BufferE
lyx:_ZN3lyx13InsetMathCharC1EPNS_6BufferEw
lyx:_ZN3lyx13InsetMathCharC2EPNS_6BufferEw
lyx:_ZN3lyx13InsetMathDiff6addDerERKNS_8MathDataE
lyx:_ZN3lyx13InsetMathDiffC1EPNS_6BufferE
lyx:_ZN3lyx13InsetMathDiffC2EPNS_6BufferE
lyx:_ZN3lyx13InsetMathDotsC1EPNS_6BufferEPKNS_9latexkeysE
lyx:_ZN3lyx13InsetMathDotsC2EPNS_6BufferEPKNS_9latexkeysE
lyx:_ZN3lyx13InsetMathFBoxC1EPNS_6BufferE
lyx:_ZN3lyx13InsetMathFBoxC2EPNS_6BufferE
lyx:_ZN3lyx13InsetMathFontC1EPNS_6BufferEPKNS_9latexkeysE
lyx:_ZN3lyx13InsetMathFontC2EPNS_6BufferEPKNS_9latexkeysE
lyx:_ZN3lyx13InsetMathFrac11asFracInsetEv
lyx:_ZN3lyx13InsetMathFracC1EPNS_6BufferENS0_4KindEm
lyx:_ZN3lyx13InsetMathFracC2EPNS_6BufferENS0_4KindEm
lyx:_ZN3lyx13InsetMathGrid10doDispatchERNS_6CursorERNS_11FuncRequestE
lyx:_ZN3lyx13InsetMathGrid11setDefaultsEv
lyx:_ZN3lyx13InsetMathGrid12guessColumnsERKNSt7__cxx1112basic_stringIwSt11char_traitsIwESaIwEEE
lyx:_ZN3lyx13InsetMathGrid12updateBufferERKNS_11ParIteratorENS_10UpdateTypeEb
lyx:_ZN3lyx13InsetMathGrid15interpretStringERNS_6CursorERKNSt7__cxx1112basic_stringIwSt11char_traitsIwESaIwEEE
lyx:_ZN3lyx13InsetMathGrid20setVerticalAlignmentEc
lyx:_ZN3lyx13InsetMathGrid22setHorizontalAlignmentEcm
lyx:_ZN3lyx13InsetMathGrid23setHorizontalAlignmentsERKNSt7__cxx1112basic_stringIwSt11char_traitsIwESaIwEEE
lyx:_ZN3lyx13InsetMathGrid6addColEm
lyx:_ZN3lyx13InsetMathGrid6addRowEm
lyx:_ZN3lyx13InsetMathGrid6delColEm
lyx:_ZN3lyx13InsetMathGrid6delRowEm
lyx:_ZN3lyx13InsetMathGrid7copyColEm
lyx:_ZN3lyx13InsetMathGrid7copyRowEm
lyx:_ZN3lyx13InsetMathGrid7idxGlueEm
lyx:_ZN3lyx13InsetMathGrid7rowinfoEm
lyx:_ZN3lyx13InsetMathGrid7swapColEm
lyx:_ZN3lyx13InsetMathGrid7swapRowEm
lyx:_ZN3lyx13InsetMathGrid7vcrskipERKNS_6LengthEm
lyx:_ZN3lyx13InsetMathGrid8colSpaceENS_8HullTypeEm
lyx:_ZN3lyx13InsetMathGrid9idxDeleteERm
lyx:_ZN3lyx13InsetMathGrid9splitCellERNS_6CursorE
lyx:_ZN3lyx13InsetMathGridC1EPNS_6BufferE
lyx:_ZN3lyx13InsetMathGridC1EPNS_6BufferEmm
lyx:_ZN3lyx13InsetMathGridC1EPNS_6BufferEmmcRKNSt7__cxx1112basic_stringIwSt11char_traitsIwESaIwEEE
lyx:_ZN3lyx13InsetMathGridC2EPNS_6BufferE
lyx:_ZN3lyx13InsetMathGridC2EPNS_6BufferEmm
lyx:_ZN3lyx13InsetMathGridC2EPNS_6BufferEmmcRKNSt7__cxx1112basic_stringIwSt11char_traitsIwESaIwEEE
lyx:_ZN3lyx13InsetMathHull10changeColsEm
lyx:_ZN3lyx13InsetMathHull10doDispatchERNS_6CursorERNS_11FuncRequestE
lyx:_ZN3lyx13InsetMathHull10handleFontERNS_6CursorERKNSt7__cxx1112basic_stringIwSt11char_traitsIwESaIwEEESA_
lyx:_ZN3lyx13InsetMathHull11handleFont2ERNS_6CursorERKNSt7__cxx1112basic_stringIwSt11char_traitsIwESaIwEEE
lyx:_ZN3lyx13InsetMathHull12splitTo2ColsEv
lyx:_ZN3lyx13InsetMathHull12splitTo3ColsEv
lyx:_ZN3lyx13InsetMathHull12updateBufferERKNS_11ParIteratorENS_10UpdateTypeEb
lyx:_ZN3lyx13InsetMathHull14recordLocationERKNS_11DocIteratorE
lyx:_ZN3lyx13InsetMathHull15defaultColAlignEm
lyx:_ZN3lyx13InsetMathHull15defaultColSpaceEm
lyx:_ZN3lyx13InsetMathHull18notifyCursorLeavesERKNS_6CursorERS1_
lyx:_ZN3lyx13InsetMathHull4editERNS_6CursorEbNS_5Inset14EntryDirectionE
lyx:_ZN3lyx13InsetMathHull4readERNS_5LexerE
lyx:_ZN3lyx13InsetMathHull5labelEmRKNSt7__cxx1112basic_stringIwSt11char_traitsIwESaIwEEE
lyx:_ZN3lyx13InsetMathHull6addColEm
lyx:_ZN3lyx13InsetMathHull6addRowEm
lyx:_ZN3lyx13InsetMathHull6delColEm
lyx:_ZN3lyx13InsetMathHull6delRowEm
lyx:_ZN3lyx13InsetMathHull6editXYERNS_6CursorEii
lyx:_ZN3lyx13InsetMathHull6mutateENS_8HullTypeE
lyx:_ZN3lyx13InsetMathHull7glueallENS_8HullTypeE
lyx:_ZN3lyx13InsetMathHull7setTypeENS_8HullTypeE
lyx:_ZN3lyx13InsetMathHull7swapRowEm
lyx:_ZN3lyx13InsetMathHull8doExternERNS_6CursorERNS_11FuncRequestE
lyx:_ZN3lyx13InsetMathHull8numberedEmNS0_8NumberedE
lyx:_ZN3lyx13InsetMathHull9isMutableENS_8HullTypeE
lyx:_ZN3lyx13InsetMathHull9readQuietERNS_5LexerE
lyx:_ZN3lyx13InsetMathHull9setBufferERNS_6BufferE
lyx:_ZN3lyx13InsetMathHullC1EPNS_6BufferE
lyx:_ZN3lyx13InsetMathHullC1EPNS_6BufferENS_8HullTypeE
lyx:_ZN3lyx13InsetMathHullC1ERKS0_
lyx:_ZN3lyx13InsetMathHullC2EPNS_6BufferE
lyx:_ZN3lyx13InsetMathHullC2EPNS_6BufferENS_8HullTypeE
lyx:_ZN3lyx13InsetMathHullC2ERKS0_
lyx:_ZN3lyx13InsetMathHullD0Ev
lyx:_ZN3lyx13InsetMathHullD1Ev
lyx:_ZN3lyx13InsetMathHullD2Ev
lyx:_ZN3lyx13InsetMathHullaSERKS0_
lyx:_ZN3lyx13InsetMathKernC1EPNS_6BufferE
lyx:_ZN3lyx13InsetMathKernC1EPNS_6BufferERKNS_6LengthE
lyx:_ZN3lyx13InsetMathKernC1EPNS_6BufferERKNSt7__cxx1112basic_stringIwSt11char_traitsIwESaIwEEE
lyx:_ZN3lyx13InsetMathKernC2EPNS_6BufferE
lyx:_ZN3lyx13InsetMathKernC2EPNS_6BufferERKNS_6LengthE
lyx:_ZN3lyx13InsetMathKernC2EPNS_6BufferERKNSt7__cxx1112basic_stringIwSt11char_traitsIwESaIwEEE
lyx:_ZN3lyx13InsetMathNest10doDispatchERNS_6CursorERNS_11FuncRequestE
lyx:_ZN3lyx13InsetMathNest10handleFontERNS_6CursorERKNSt7__cxx1112basic_stringIwSt11char_traitsIwESaIwEEEPKc
lyx:_ZN3lyx13InsetMathNest10handleFontERNS_6CursorERKNSt7__cxx1112basic_stringIwSt11char_traitsIwESaIwEEESA_
lyx:_ZN3lyx13InsetMathNest10handleNestERNS_6CursorERKNS_8MathAtomE
lyx:_ZN3lyx13InsetMathNest10handleNestERNS_6CursorERKNS_8MathAtomERKNSt7__cxx1112basic_stringIwSt11char_traitsIwESaIwEEE
lyx:_ZN3lyx13InsetMathNest11handleFont2ERNS_6CursorERKNSt7__cxx1112basic_stringIwSt11char_traitsIwESaIwEEE
lyx:_ZN3lyx13InsetMathNest12updateBufferERKNS_11ParIteratorENS_10UpdateTypeEb
lyx:_ZN3lyx13InsetMathNest13interpretCharERNS_6CursorEw
lyx:_ZN3lyx13InsetMathNest14lfunMousePressERNS_6CursorERNS_11FuncRequestE
lyx:_ZN3lyx13InsetMathNest15interpretStringERNS_6CursorERKNSt7__cxx1112basic_stringIwSt11char_traitsIwESaIwEEE
lyx:_ZN3lyx13InsetMathNest15lfunMouseMotionERNS_6CursorERNS_11FuncRequestE
lyx:_ZN3lyx13InsetMathNest16insertCompletionERNS_6CursorERKNSt7__cxx1112basic_stringIwSt11char_traitsIwESaIwEEEb
lyx:_ZN3lyx13InsetMathNest16lfunMouseReleaseERNS_6CursorERNS_11FuncRequestE
lyx:_ZN3lyx13InsetMathNest18notifyCursorLeavesERKNS_6CursorERS1_
lyx:_ZN3lyx13InsetMathNest4editERNS_6CursorEbNS_5Inset14EntryDirectionE
lyx:_ZN3lyx13InsetMathNest4lockEb
lyx:_ZN3lyx13InsetMathNest6editXYERNS_6CursorEii
lyx:_ZN3lyx13InsetMathNest6scriptERNS_6CursorEb
lyx:_ZN3lyx13InsetMathNest6scriptERNS_6CursorEbRKNSt7__cxx1112basic_stringIwSt11char_traitsIwESaIwEEE
lyx:_ZN3lyx13InsetMathNest7replaceERNS_11ReplaceDataE
lyx:_ZN3lyx13InsetMathNest9setBufferERNS_6BufferE
lyx:_ZN3lyx13InsetMathNestC2EPNS_6BufferEm
lyx:_ZN3lyx13InsetMathNestC2ERKS0_
lyx:_ZN3lyx13InsetMathNestD0Ev
lyx:_ZN3lyx13InsetMathNestD1Ev
lyx:_ZN3lyx13InsetMathNestD2Ev
lyx:_ZN3lyx13InsetMathNestaSERKS0_
lyx:_ZN3lyx13InsetMathRootC1EPNS_6BufferE
lyx:_ZN3lyx13InsetMathRootC2EPNS_6BufferE
lyx:_ZN3lyx13InsetMathSizeC1EPNS_6BufferEPKNS_9latexkeysE
lyx:_ZN3lyx13InsetMathSizeC2EPNS_6BufferEPKNS_9latexkeysE
lyx:_ZN3lyx13InsetMathSqrtC1EPNS_6BufferE
lyx:_ZN3lyx13InsetMathSqrtC2EPNS_6BufferE
lyx:_ZN3lyx13LAYOUT_FORMATE
lyx:_ZN3lyx13LaTeXFeatures11includeFileERKNSt7__cxx1112basic_stringIwSt11char_traitsIwESaIwEEERKNS2_IcS3_IcESaIcEEE
lyx:_ZN3lyx13LaTeXFeatures11isAvailableERKNSt7__cxx1112basic_stringIcSt11char_traitsIcESaIcEEE
lyx:_ZN3lyx13LaTeXFeatures11useLanguageEPKNS_8LanguageE
lyx:_ZN3lyx13LaTeXFeatures13addCSSSnippetERKNSt7__cxx1112basic_stringIcSt11char_traitsIcESaIcEEE
lyx:_ZN3lyx13LaTeXFeatures14useInsetLayoutERKNS_11InsetLayoutE
lyx:_ZN3lyx13LaTeXFeatures15expandMultiplesEv
lyx:_ZN3lyx13LaTeXFeatures18addPreambleSnippetENS_9TexStringEb
lyx:_ZN3lyx13LaTeXFeatures18addPreambleSnippetERKNSt7__cxx1112basic_stringIwSt11char_traitsIwESaIwEEEb
lyx:_ZN3lyx13LaTeXFeatures19resolveAlternativesEv
lyx:_ZN3lyx13LaTeXFeatures22isAvailableAtLeastFromERKNSt7__cxx1112basic_stringIcSt11char_traitsIcESaIcEEEiii
lyx:_ZN3lyx13LaTeXFeatures7provideERKNSt7__cxx1112basic_stringIcSt11char_traitsIcESaIcEEE
lyx:_ZN3lyx13LaTeXFeatures7requireERKNSt7__cxx1112basic_stringIcSt11char_traitsIcESaIcEEE
lyx:_ZN3lyx13LaTeXFeatures7requireERKSt3setINSt7__cxx1112basic_stringIcSt11char_traitsIcESaIcEEESt4lessIS7_ESaIS7_EE
lyx:_ZN3lyx13LaTeXFeatures8useFloatERKNSt7__cxx1112basic_stringIcSt11char_traitsIcESaIcEEEb
lyx:_ZN3lyx13LaTeXFeatures9setBufferERKNS_6BufferE
lyx:_ZN3lyx13LaTeXFeatures9useLayoutERKNSt7__cxx1112basic_stringIwSt11char_traitsIwESaIwEEE
lyx:_ZN3lyx13LaTeXFeatures9useLayoutERKNSt7__cxx1112basic_stringIwSt11char_traitsIwESaIwEEEi
lyx:_ZN3lyx13LaTeXFeaturesC1ERKNS_6BufferERKNS_12BufferParamsERKNS_12OutputParamsE
lyx:_ZN3lyx13LaTeXFeaturesC2ERKNS_6BufferERKNS_12BufferParamsERKNS_12OutputParamsE
lyx:_ZN3lyx13LaTeXPackages11isAvailableERKNSt7__cxx1112basic_stringIcSt11char_traitsIcESaIcEEE
lyx:_ZN3lyx13LaTeXPackages12getAvailableEb
lyx:_ZN3lyx13LaTeXPackages22isAvailableAtLeastFromERKNSt7__cxx1112basic_stringIcSt11char_traitsIcESaIcEEEiii
lyx:_ZN3lyx13LaTeXPackages9packages_B5cxx11E
lyx:_ZN3lyx13LyXCiteEngineC1ERKNSt7__cxx1112basic_stringIcSt11char_traitsIcESaIcEEES8_RKSt6vectorIS6_SaIS6_EES8_SD_S8_SD_
lyx:_ZN3lyx13LyXCiteEngineC2ERKNSt7__cxx1112basic_stringIcSt11char_traitsIcESaIcEEES8_RKSt6vectorIS6_SaIS6_EES8_SD_S8_SD_
lyx:_ZN3lyx13LyXDataSocket6readlnERNSt7__cxx1112basic_stringIcSt11char_traitsIcESaIcEEE
lyx:_ZN3lyx13LyXDataSocket7writelnERKNSt7__cxx1112basic_stringIcSt11char_traitsIcESaIcEEE
lyx:_ZN3lyx13LyXDataSocketC1Ei
lyx:_ZN3lyx13LyXDataSocketC2Ei
lyx:_ZN3lyx13LyXDataSocketD1Ev
lyx:_ZN3lyx13LyXDataSocketD2Ev
lyx:_ZN3lyx13LyXFileDialog11qt_metacallEN11QMetaObject4CallEiPPv
lyx:_ZN3lyx13LyXFileDialog11qt_metacastEPKc
lyx:_ZN3lyx13LyXFileDialog14button1ClickedEv
lyx:_ZN3lyx13LyXFileDialog14button2ClickedEv
lyx:_ZN3lyx13LyXFileDialog16staticMetaObjectE
lyx:_ZN3lyx13LyXFileDialogC1ERK7QStringS3_RK5QListIS1_ERKSt4pairIS1_S1_ESB_
lyx:_ZN3lyx13LyXFileDialogC2ERK7QStringS3_RK5QListIS1_ERKSt4pairIS1_S1_ESB_
lyx:_ZN3lyx13LyXShapeNamesE
lyx:_ZN3lyx13RenderGraphic6updateERKNS_8graphics6ParamsE
lyx:_ZN3lyx13RenderGraphicC1EPKNS_5InsetE
lyx:_ZN3lyx13RenderGraphicC1ERKS0_PKNS_5InsetE
lyx:_ZN3lyx13RenderGraphicC2EPKNS_5InsetE
lyx:_ZN3lyx13RenderGraphicC2ERKS0_PKNS_5InsetE
lyx:_ZN3lyx13RenderPreview10addPreviewERKNSt7__cxx1112basic_stringIwSt11char_traitsIwESaIwEEERKNS_6BufferEb
lyx:_ZN3lyx13RenderPreview10addPreviewERKNSt7__cxx1112basic_stringIwSt11char_traitsIwESaIwEEERNS_8graphics13PreviewLoaderEb
lyx:_ZN3lyx13RenderPreview10imageReadyERKNS_8graphics12PreviewImageE
lyx:_ZN3lyx13RenderPreview11previewMathEv
lyx:_ZN3lyx13RenderPreview11previewTextEv
lyx:_ZN3lyx13RenderPreview13removePreviewERKNS_6BufferE
lyx:_ZN3lyx13RenderPreviewC1EPKNS_5InsetE
lyx:_ZN3lyx13RenderPreviewC1ERKS0_PKNS_5InsetE
lyx:_ZN3lyx13RenderPreviewC2EPKNS_5InsetE
lyx:_ZN3lyx13RenderPreviewC2ERKS0_PKNS_5InsetE
lyx:_ZN3lyx13TeXMathStream10lockedModeEb
lyx:_ZN3lyx13TeXMathStream12pendingBraceEb
lyx:_ZN3lyx13TeXMathStream12pendingSpaceEb
lyx:_ZN3lyx13TeXMathStream13startOuterRowEv
lyx:_ZN3lyx13TeXMathStream14changeRowEntryENS_6TexRow8RowEntryE
lyx:_ZN3lyx13TeXMathStream8addlinesEj
lyx:_ZN3lyx13TeXMathStream8textModeEb
lyx:_ZN3lyx13TeXMathStream9asciiOnlyEb
lyx:_ZN3lyx13TeXMathStream9useBracesEb
lyx:_ZN3lyx13TeXMathStreamC1ERNS_13otexrowstreamEbbNS0_10OutputTypeEPKNS_8EncodingE
lyx:_ZN3lyx13TeXMathStreamC2ERNS_13otexrowstreamEbbNS0_10OutputTypeEPKNS_8EncodingE
lyx:_ZN3lyx13TeXMathStreamD1Ev
lyx:_ZN3lyx13TeXMathStreamD2Ev
lyx:_ZN3lyx13acceptChangesERNS_13ParagraphListERKNS_12BufferParamsE
lyx:_ZN3lyx13bibitemWidestB5cxx11ERKNS_6BufferERKNS_12OutputParamsE
lyx:_ZN3lyx13class_spacingENS_9MathClassES0_RKNS_11MetricsBaseE
lyx:_ZN3lyx13closeBlockTagERNS_9XMLStreamERKNSt7__cxx1112basic_stringIwSt11char_traitsIwESaIwEEE
lyx:_ZN3lyx13extractNumberERKNS_8MathDataERd
lyx:_ZN3lyx13extractNumberERKNS_8MathDataERi
lyx:_ZN3lyx13flavor2formatB5cxx11ENS_6FlavorE
lyx:_ZN3lyx13fontToHtmlTagB5cxx11ENS_3xml9FontTypesE
lyx:_ZN3lyx13formatToolTipE7QStringi
lyx:_ZN3lyx13getLineNumberERKNSt7__cxx1112basic_stringIcSt11char_traitsIcESaIcEEE
lyx:_ZN3lyx13hebrewCounterEi
lyx:_ZN3lyx13ignoreFormatsE
lyx:_ZN3lyx13isAlphaSymbolERKNS_8MathAtomE
lyx:_ZN3lyx13isValidLengthERKNSt7__cxx1112basic_stringIcSt11char_traitsIcESaIcEEEPNS_6LengthE
lyx:_ZN3lyx13libFileSearchERK7QStringS2_S2_NS_7support11search_modeE
lyx:_ZN3lyx13openFileWriteERNS_11ofdocstreamERKNS_7support8FileNameE
lyx:_ZN3lyx13openFileWriteERSt14basic_ofstreamIcSt11char_traitsIcEERKNS_7support8FileNameE
lyx:_ZN3lyx13openInlineTagERNS_9XMLStreamERKNSt7__cxx1112basic_stringIwSt11char_traitsIwESaIwEEES9_
lyx:_ZN3lyx13otexrowstream13releaseTexRowEv
lyx:_ZN3lyx13otexrowstream3putERKw
lyx:_ZN3lyx13otexrowstreamC1ERSt13basic_ostreamIwSt11char_traitsIwEE
lyx:_ZN3lyx13otexrowstreamC2ERSt13basic_ostreamIwSt11char_traitsIwEE
lyx:_ZN3lyx13otexrowstreamD1Ev
lyx:_ZN3lyx13otexrowstreamD2Ev
lyx:_ZN3lyx13params2stringERKNS_9ParagraphERNSt7__cxx1112basic_stringIcSt11char_traitsIcESaIcEEE
lyx:_ZN3lyx13rejectChangesERNS_13ParagraphListERKNS_12BufferParamsE
lyx:_ZN3lyx13system_lcolorE
lyx:_ZN3lyx13theBufferListEv
lyx:_ZN3lyx13theConvertersEv
lyx:_ZN3lyx13theFontLoaderEv
lyx:_ZN3lyx13theLaTeXFontsEv
lyx:_ZN3lyx13theModuleListE
lyx:_ZN3lyx13ucs4_to_utf16EPKwm
lyx:_ZN3lyx13unit_name_guiE
lyx:_ZN3lyx13utf16_to_ucs4EPKtm
lyx:_ZN3lyx13writeArgumentERSoRKNSt7__cxx1112basic_stringIcSt11char_traitsIcESaIcEEERKNS_6Layout8latexargE
lyx:_ZN3lyx14ConverterCache3getEv
lyx:_ZN3lyx14ConverterCache4Impl10writeIndexEv
lyx:_ZN3lyx14ConverterCache4Impl9readIndexEv
lyx:_ZN3lyx14ConverterCache4initEv
lyx:_ZN3lyx14ConverterCacheC1Ev
lyx:_ZN3lyx14ConverterCacheC2Ev
lyx:_ZN3lyx14ConverterCacheD1Ev
lyx:_ZN3lyx14ConverterCacheD2Ev
lyx:_ZN3lyx14EnchantChecker19advanceChangeNumberEv
lyx:_ZN3lyx14EnchantChecker5checkERKNS_13WordLangTupleERKSt6vectorIS1_SaIS1_EE
lyx:_ZN3lyx14EnchantChecker5errorB5cxx11Ev
lyx:_ZN3lyx14EnchantChecker6acceptERKNS_13WordLangTupleE
lyx:_ZN3lyx14EnchantChecker6insertERKNS_13WordLangTupleE
lyx:_ZN3lyx14EnchantChecker6removeERKNS_13WordLangTupleE
lyx:_ZN3lyx14EnchantChecker7Private10addSpellerERKNSt7__cxx1112basic_stringIcSt11char_traitsIcESaIcEEE
lyx:_ZN3lyx14EnchantChecker7Private7spellerERKNSt7__cxx1112basic_stringIcSt11char_traitsIcESaIcEEE
lyx:_ZN3lyx14EnchantChecker7PrivateD1Ev
lyx:_ZN3lyx14EnchantChecker7PrivateD2Ev
lyx:_ZN3lyx14EnchantChecker7suggestERKNS_13WordLangTupleERNS_14docstring_listE
lyx:_ZN3lyx14EnchantCheckerC1Ev
lyx:_ZN3lyx14EnchantCheckerC2Ev
lyx:_ZN3lyx14EnchantCheckerD0Ev
lyx:_ZN3lyx14EnchantCheckerD1Ev
lyx:_ZN3lyx14EnchantCheckerD2Ev
lyx:_ZN3lyx14FileFilterList12parse_filterERKNSt7__cxx1112basic_stringIcSt11char_traitsIcESaIcEEE
lyx:_ZN3lyx14FileFilterListC1ERKNSt7__cxx1112basic_stringIwSt11char_traitsIwESaIwEEE
lyx:_ZN3lyx14FileFilterListC2ERKNSt7__cxx1112basic_stringIwSt11char_traitsIwESaIwEEE
lyx:_ZN3lyx14GUIFamilyNamesE
lyx:_ZN3lyx14GUISeriesNamesE
lyx:_ZN3lyx14IconvProcessor4initEv
lyx:_ZN3lyx14IconvProcessor7convertEPKcmPcm
lyx:_ZN3lyx14IconvProcessorC1ENSt7__cxx1112basic_stringIcSt11char_traitsIcESaIcEEES6_
lyx:_ZN3lyx14IconvProcessorC2ENSt7__cxx1112basic_stringIcSt11char_traitsIcESaIcEEES6_
lyx:_ZN3lyx14InsetBoxParams4readERNS_5LexerE
lyx:_ZN3lyx14InsetBoxParamsC1ERKNSt7__cxx1112basic_stringIcSt11char_traitsIcESaIcEEE
lyx:_ZN3lyx14InsetBoxParamsC2ERKNSt7__cxx1112basic_stringIcSt11char_traitsIcESaIcEEE
lyx:_ZN3lyx14InsetFloatList10doDispatchERNS_6CursorERNS_11FuncRequestE
lyx:_ZN3lyx14InsetFloatList19isCompatibleCommandERKNSt7__cxx1112basic_stringIcSt11char_traitsIcESaIcEEE
lyx:_ZN3lyx14InsetFloatList4readERNS_5LexerE
lyx:_ZN3lyx14InsetFloatList8findInfoERKNSt7__cxx1112basic_stringIcSt11char_traitsIcESaIcEEE
lyx:_ZN3lyx14InsetFloatListC1EPNS_6BufferE
lyx:_ZN3lyx14InsetFloatListC1EPNS_6BufferERKNSt7__cxx1112basic_stringIcSt11char_traitsIcESaIcEEE
lyx:_ZN3lyx14InsetFloatListC2EPNS_6BufferE
lyx:_ZN3lyx14InsetFloatListC2EPNS_6BufferERKNSt7__cxx1112basic_stringIcSt11char_traitsIcESaIcEEE
lyx:_ZN3lyx14InsetHyperlink10doDispatchERNS_6CursorERNS_11FuncRequestE
lyx:_ZN3lyx14InsetHyperlink8findInfoERKNSt7__cxx1112basic_stringIcSt11char_traitsIcESaIcEEE
lyx:_ZN3lyx14InsetHyperlinkC1EPNS_6BufferERKNS_18InsetCommandParamsE
lyx:_ZN3lyx14InsetHyperlinkC2EPNS_6BufferERKNS_18InsetCommandParamsE
lyx:_ZN3lyx14InsetMathArrayC1EPNS_6BufferERKNSt7__cxx1112basic_stringIwSt11char_traitsIwESaIwEEESA_
lyx:_ZN3lyx14InsetMathArrayC1EPNS_6BufferERKNSt7__cxx1112basic_stringIwSt11char_traitsIwESaIwEEEii
lyx:_ZN3lyx14InsetMathArrayC1EPNS_6BufferERKNSt7__cxx1112basic_stringIwSt11char_traitsIwESaIwEEEiicSA_
lyx:_ZN3lyx14InsetMathArrayC2EPNS_6BufferERKNSt7__cxx1112basic_stringIwSt11char_traitsIwESaIwEEESA_
lyx:_ZN3lyx14InsetMathArrayC2EPNS_6BufferERKNSt7__cxx1112basic_stringIwSt11char_traitsIwESaIwEEEii
lyx:_ZN3lyx14InsetMathArrayC2EPNS_6BufferERKNSt7__cxx1112basic_stringIwSt11char_traitsIwESaIwEEEiicSA_
lyx:_ZN3lyx14InsetMathBinomC1EPNS_6BufferENS0_4KindE
lyx:_ZN3lyx14InsetMathBinomC2EPNS_6BufferENS0_4KindE
lyx:_ZN3lyx14InsetMathBoxedC1EPNS_6BufferE
lyx:_ZN3lyx14InsetMathBoxedC2EPNS_6BufferE
lyx:_ZN3lyx14InsetMathBraceC1EPNS_6BufferE
lyx:_ZN3lyx14InsetMathBraceC1EPNS_6BufferERKNS_8MathDataE
lyx:_ZN3lyx14InsetMathBraceC2EPNS_6BufferE
lyx:_ZN3lyx14InsetMathBraceC2EPNS_6BufferERKNS_8MathDataE
lyx:_ZN3lyx14InsetMathCases10doDispatchERNS_6CursorERNS_11FuncRequestE
lyx:_ZN3lyx14InsetMathCasesC1EPNS_6BufferEm
lyx:_ZN3lyx14InsetMathCasesC2EPNS_6BufferEm
lyx:_ZN3lyx14InsetMathClassC1EPNS_6BufferENS_9MathClassE
lyx:_ZN3lyx14InsetMathClassC2EPNS_6BufferENS_9MathClassE
lyx:_ZN3lyx14InsetMathColorC1EPNS_6BufferEbNS_9ColorCodeE
lyx:_ZN3lyx14InsetMathColorC1EPNS_6BufferEbRKNSt7__cxx1112basic_stringIwSt11char_traitsIwESaIwEEE
lyx:_ZN3lyx14InsetMathColorC2EPNS_6BufferEbNS_9ColorCodeE
lyx:_ZN3lyx14InsetMathColorC2EPNS_6BufferEbRKNSt7__cxx1112basic_stringIwSt11char_traitsIwESaIwEEE
lyx:_ZN3lyx14InsetMathDelimC1EPNS_6BufferERKNSt7__cxx1112basic_stringIwSt11char_traitsIwESaIwEEESA_
lyx:_ZN3lyx14InsetMathDelimC1EPNS_6BufferERKNSt7__cxx1112basic_stringIwSt11char_traitsIwESaIwEEESA_RKNS_8MathDataE
lyx:_ZN3lyx14InsetMathDelimC1EPNS_6BufferERKNSt7__cxx1112basic_stringIwSt11char_traitsIwESaIwEEESA_RKNS_8MathDataEb
lyx:_ZN3lyx14InsetMathDelimC2EPNS_6BufferERKNSt7__cxx1112basic_stringIwSt11char_traitsIwESaIwEEESA_
lyx:_ZN3lyx14InsetMathDelimC2EPNS_6BufferERKNSt7__cxx1112basic_stringIwSt11char_traitsIwESaIwEEESA_RKNS_8MathDataE
lyx:_ZN3lyx14InsetMathDelimC2EPNS_6BufferERKNSt7__cxx1112basic_stringIwSt11char_traitsIwESaIwEEESA_RKNS_8MathDataEb
lyx:_ZN3lyx14InsetMathExInt6symbolERKNSt7__cxx1112basic_stringIwSt11char_traitsIwESaIwEEE
lyx:_ZN3lyx14InsetMathExIntC1EPNS_6BufferERKNSt7__cxx1112basic_stringIwSt11char_traitsIwESaIwEEE
lyx:_ZN3lyx14InsetMathExIntC2EPNS_6BufferERKNSt7__cxx1112basic_stringIwSt11char_traitsIwESaIwEEE
lyx:_ZN3lyx14InsetMathMacro11updateMacroERKNS_12MacroContextE
lyx:_ZN3lyx14InsetMathMacro12setOptionalsEi
lyx:_ZN3lyx14InsetMathMacro14insertArgumentEl
lyx:_ZN3lyx14InsetMathMacro14removeArgumentEl
lyx:_ZN3lyx14InsetMathMacro14setDisplayModeENS0_11DisplayModeEi
lyx:_ZN3lyx14InsetMathMacro15attachArgumentsERKSt6vectorINS_8MathDataESaIS2_EEmi
lyx:_ZN3lyx14InsetMathMacro15detachArgumentsERSt6vectorINS_8MathDataESaIS2_EEb
lyx:_ZN3lyx14InsetMathMacro16insertCompletionERNS_6CursorERKNSt7__cxx1112basic_stringIwSt11char_traitsIwESaIwEEEb
lyx:_ZN3lyx14InsetMathMacro18notifyCursorLeavesERKNS_6CursorERS1_
lyx:_ZN3lyx14InsetMathMacro20updateRepresentationEPNS_6CursorERKNS_12MacroContextENS_10UpdateTypeEi
lyx:_ZN3lyx14InsetMathMacro4editERNS_6CursorEbNS_5Inset14EntryDirectionE
lyx:_ZN3lyx14InsetMathMacro4foldERNS_6CursorE
lyx:_ZN3lyx14InsetMathMacro6editXYERNS_6CursorEii
lyx:_ZN3lyx14InsetMathMacro6limitsENS_6LimitsE
lyx:_ZN3lyx14InsetMathMacro6unfoldERNS_6CursorE
lyx:_ZN3lyx14InsetMathMacro7Private14updateChildrenEPS0_
lyx:_ZN3lyx14InsetMathMacro7Private20updateNestedChildrenEPS0_PNS_13InsetMathNestE
lyx:_ZN3lyx14InsetMathMacro9setBufferERNS_6BufferE
lyx:_ZN3lyx14InsetMathMacroC1EPNS_6BufferERKNSt7__cxx1112basic_stringIwSt11char_traitsIwESaIwEEE
lyx:_ZN3lyx14InsetMathMacroC1ERKS0_
lyx:_ZN3lyx14InsetMathMacroC2EPNS_6BufferERKNSt7__cxx1112basic_stringIwSt11char_traitsIwESaIwEEE
lyx:_ZN3lyx14InsetMathMacroC2ERKS0_
lyx:_ZN3lyx14InsetMathMacroD0Ev
lyx:_ZN3lyx14InsetMathMacroD1Ev
lyx:_ZN3lyx14InsetMathMacroD2Ev
lyx:_ZN3lyx14InsetMathMacroaSERKS0_
lyx:_ZN3lyx14InsetMathSpace10doDispatchERNS_6CursorERNS_11FuncRequestE
lyx:_ZN3lyx14InsetMathSpace8incSpaceEv
lyx:_ZN3lyx14InsetMathSpaceC1EPNS_6BufferE
lyx:_ZN3lyx14InsetMathSpaceC1EPNS_6BufferERKNS_6LengthEb
lyx:_ZN3lyx14InsetMathSpaceC1EPNS_6BufferERKNSt7__cxx1112basic_stringIcSt11char_traitsIcESaIcEEESA_
lyx:_ZN3lyx14InsetMathSpaceC2EPNS_6BufferE
lyx:_ZN3lyx14InsetMathSpaceC2EPNS_6BufferERKNS_6LengthEb
lyx:_ZN3lyx14InsetMathSpaceC2EPNS_6BufferERKNSt7__cxx1112basic_stringIcSt11char_traitsIcESaIcEEESA_
lyx:_ZN3lyx14InsetMathSplit15defaultColAlignEm
lyx:_ZN3lyx14InsetMathSplitC1EPNS_6BufferERKNSt7__cxx1112basic_stringIwSt11char_traitsIwESaIwEEEcb
lyx:_ZN3lyx14InsetMathSplitC2EPNS_6BufferERKNSt7__cxx1112basic_stringIwSt11char_traitsIwESaIwEEEcb
lyx:_ZN3lyx14InsetSeparator10doDispatchERNS_6CursorERNS_11FuncRequestE
lyx:_ZN3lyx14InsetSeparator13params2stringB5cxx11ERKNS_20InsetSeparatorParamsE
lyx:_ZN3lyx14InsetSeparator13string2paramsERKNSt7__cxx1112basic_stringIcSt11char_traitsIcESaIcEEERNS_20InsetSeparatorParamsE
lyx:_ZN3lyx14InsetSeparator4readERNS_5LexerE
lyx:_ZN3lyx14InsetSeparatorC1ERKNS_20InsetSeparatorParamsE
lyx:_ZN3lyx14InsetSeparatorC1Ev
lyx:_ZN3lyx14InsetSeparatorC2ERKNS_20InsetSeparatorParamsE
lyx:_ZN3lyx14InsetSeparatorC2Ev
lyx:_ZN3lyx14InsetTableCell8asStringB5cxx11Eb
lyx:_ZN3lyx14InsetTableCellC1EPNS_6BufferE
lyx:_ZN3lyx14InsetTableCellC2EPNS_6BufferE
lyx:_ZN3lyx14LayoutFileList13addEmptyClassERKNSt7__cxx1112basic_stringIcSt11char_traitsIcESaIcEEE
lyx:_ZN3lyx14LayoutFileList14addLocalLayoutERKNSt7__cxx1112basic_stringIcSt11char_traitsIcESaIcEEES8_S8_
lyx:_ZN3lyx14LayoutFileList3getEv
lyx:_ZN3lyx14LayoutFileList4loadERKNSt7__cxx1112basic_stringIcSt11char_traitsIcESaIcEEES8_
lyx:_ZN3lyx14LayoutFileList4readEv
lyx:_ZN3lyx14LayoutFileList5resetERKNS_15LayoutFileIndexE
lyx:_ZN3lyx14LayoutFileListD1Ev
lyx:_ZN3lyx14LayoutFileListD2Ev
lyx:_ZN3lyx14LayoutFileListixERKNSt7__cxx1112basic_stringIcSt11char_traitsIcESaIcEEE
lyx:_ZN3lyx14LyXFamilyNamesE
lyx:_ZN3lyx14LyXSeriesNamesE
lyx:_ZN3lyx14ServerCallbackEPNS_6ServerERKNSt7__cxx1112basic_stringIcSt11char_traitsIcESaIcEEE
lyx:_ZN3lyx14TransInitState7deadkeyB5cxx11EwNS_8KmodInfoE
lyx:_ZN3lyx14TransInitState9normalkeyB5cxx11Ew
lyx:_ZN3lyx14TransInitStateC1Ev
lyx:_ZN3lyx14TransInitStateC2Ev
lyx:_ZN3lyx14alignmentToCSSB5cxx11ENS_12LyXAlignmentE
lyx:_ZN3lyx14author_smallerERKNS_6AuthorES2_
lyx:_ZN3lyx14closeInlineTagERNS_9XMLStreamERKNSt7__cxx1112basic_stringIwSt11char_traitsIwESaIwEEE
lyx:_ZN3lyx14findNextChangeEPNS_10BufferViewE
lyx:_ZN3lyx14findNextChangeEPNS_10BufferViewERNS_6CursorEb
lyx:_ZN3lyx14from_local8bitERKNSt7__cxx1112basic_stringIcSt11char_traitsIcESaIcEEE
lyx:_ZN3lyx14getGuiMessagesEv
lyx:_ZN3lyx14has_math_fontsE
lyx:_ZN3lyx14isValidTagTypeERKNSt7__cxx1112basic_stringIcSt11char_traitsIcESaIcEEE
lyx:_ZN3lyx14latexArgInsetsERKNS_13ParagraphListESt20_List_const_iteratorINS_9ParagraphEERNS_10otexstreamERKNS_12OutputParamsERKSt3mapINSt7__cxx1112basic_stringIcSt11char_traitsIcESaIcEEENS_6Layout8latexargESt4lessISH_ESaISt4pairIKSH_SJ_EEERSN_
lyx:_ZN3lyx14latexArgInsetsERKNS_9ParagraphERNS_10otexstreamERKNS_12OutputParamsERKSt3mapINSt7__cxx1112basic_stringIcSt11char_traitsIcESaIcEEENS_6Layout8latexargESt4lessISE_ESaISt4pairIKSE_SG_EEERSK_
lyx:_ZN3lyx14latex_languageE
lyx:_ZN3lyx14mathedWordListB5cxx11Ev
lyx:_ZN3lyx14mathed_font_emERKNS_8FontInfoE
lyx:_ZN3lyx14mergeParagraphERKNS_12BufferParamsERNS_13ParagraphListEl
lyx:_ZN3lyx14newUnnamedFileERKNS_7support8FileNameERKNSt7__cxx1112basic_stringIcSt11char_traitsIcESaIcEEESB_
lyx:_ZN3lyx14printCallStackB5cxx11Ev
lyx:_ZN3lyx14q_motion_stateE6QFlagsIN2Qt11MouseButtonEE
lyx:_ZN3lyx14replace2stringERKNSt7__cxx1112basic_stringIwSt11char_traitsIwESaIwEEES7_bbbbbbb
lyx:_ZN3lyx14reset_languageE
lyx:_ZN3lyx14rgbFromHexNameERKNSt7__cxx1112basic_stringIcSt11char_traitsIcESaIcEEE
lyx:_ZN3lyx14stringFromUnitEi
lyx:_ZN3lyx14switchEncodingERSt13basic_ostreamIwSt11char_traitsIwEERKNS_12BufferParamsERKNS_12OutputParamsERKNS_8EncodingEbb
lyx:_ZN3lyx14theFilesToLoadB5cxx11Ev
lyx:_ZN3lyx14theFontMetricsERKNS_4FontE
lyx:_ZN3lyx14theFontMetricsERKNS_8FontInfoE
lyx:_ZN3lyx14unitFromStringERKNSt7__cxx1112basic_stringIcSt11char_traitsIcESaIcEEE
lyx:_ZN3lyx15BufferEncodings15initUnicodeMathERKNS_6BufferEb
lyx:_ZN3lyx15BufferEncodings8validateEwRNS_13LaTeXFeaturesEb
lyx:_ZN3lyx15CiteEnginesList13addCiteEngineERKNSt7__cxx1112basic_stringIcSt11char_traitsIcESaIcEEES8_RKSt6vectorIS6_SaIS6_EES8_SD_S8_SD_
lyx:_ZN3lyx15CiteEnginesList3endEv
lyx:_ZN3lyx15CiteEnginesList4readEv
lyx:_ZN3lyx15CiteEnginesList5beginEv
lyx:_ZN3lyx15CiteEnginesListixERKNSt7__cxx1112basic_stringIcSt11char_traitsIcESaIcEEE
lyx:_ZN3lyx15HunspellChecker19advanceChangeNumberEv
lyx:_ZN3lyx15HunspellChecker4stemERKNS_13WordLangTupleERNS_14docstring_listE
lyx:_ZN3lyx15HunspellChecker5checkERKNS_13WordLangTupleERKSt6vectorIS1_SaIS1_EE
lyx:_ZN3lyx15HunspellChecker5errorB5cxx11Ev
lyx:_ZN3lyx15HunspellChecker6acceptERKNS_13WordLangTupleE
lyx:_ZN3lyx15HunspellChecker6insertERKNS_13WordLangTupleE
lyx:_ZN3lyx15HunspellChecker6removeERKNS_13WordLangTupleE
lyx:_ZN3lyx15HunspellChecker7Private10addSpellerEPKNS_8LanguageE
lyx:_ZN3lyx15HunspellChecker7Private10addSpellerEPKNS_8LanguageERNSt7__cxx1112basic_stringIcSt11char_traitsIcESaIcEEE
lyx:_ZN3lyx15HunspellChecker7Private10cleanCacheEv
lyx:_ZN3lyx15HunspellChecker7Private11setUserPathERKNSt7__cxx1112basic_stringIcSt11char_traitsIcESaIcEEE
lyx:_ZN3lyx15HunspellChecker7Private14haveDictionaryEPKNS_8LanguageE
lyx:_ZN3lyx15HunspellChecker7Private14haveDictionaryEPKNS_8LanguageERNSt7__cxx1112basic_stringIcSt11char_traitsIcESaIcEEE
lyx:_ZN3lyx15HunspellChecker7Private17haveLanguageFilesERKNSt7__cxx1112basic_stringIcSt11char_traitsIcESaIcEEE
lyx:_ZN3lyx15HunspellChecker7Private6insertERKNS_13WordLangTupleE
lyx:_ZN3lyx15HunspellChecker7Private6lookupEPKNS_8LanguageE
lyx:_ZN3lyx15HunspellChecker7Private6removeERKNS_13WordLangTupleE
lyx:_ZN3lyx15HunspellChecker7Private7learnedERKNS_13WordLangTupleE
lyx:_ZN3lyx15HunspellChecker7Private7spellerEPKNS_8LanguageE
lyx:_ZN3lyx15HunspellChecker7Private8dictPathB5cxx11Ei
lyx:_ZN3lyx15HunspellChecker7PrivateC1Ev
lyx:_ZN3lyx15HunspellChecker7PrivateC2Ev
lyx:_ZN3lyx15HunspellChecker7PrivateD1Ev
lyx:_ZN3lyx15HunspellChecker7PrivateD2Ev
lyx:_ZN3lyx15HunspellChecker7suggestERKNS_13WordLangTupleERNS_14docstring_listE
lyx:_ZN3lyx15HunspellCheckerC1Ev
lyx:_ZN3lyx15HunspellCheckerC2Ev
lyx:_ZN3lyx15HunspellCheckerD0Ev
lyx:_ZN3lyx15HunspellCheckerD1Ev
lyx:_ZN3lyx15HunspellCheckerD2Ev
lyx:_ZN3lyx15InsetIndexMacro10doDispatchERNS_6CursorERNS_11FuncRequestE
lyx:_ZN3lyx15InsetIndexMacro13params2stringB5cxx11ERKNS_21InsetIndexMacroParamsE
lyx:_ZN3lyx15InsetIndexMacro13string2paramsERKNSt7__cxx1112basic_stringIcSt11char_traitsIcESaIcEEERNS_21InsetIndexMacroParamsE
lyx:_ZN3lyx15InsetIndexMacro4readERNS_5LexerE
lyx:_ZN3lyx15InsetIndexMacroC1EPNS_6BufferERKNSt7__cxx1112basic_stringIcSt11char_traitsIcESaIcEEE
lyx:_ZN3lyx15InsetIndexMacroC2EPNS_6BufferERKNSt7__cxx1112basic_stringIcSt11char_traitsIcESaIcEEE
lyx:_ZN3lyx15InsetIndexMacroD0Ev
lyx:_ZN3lyx15InsetIndexMacroD1Ev
lyx:_ZN3lyx15InsetIndexMacroD2Ev
lyx:_ZN3lyx15InsetMathCancelC1EPNS_6BufferENS0_4KindE
lyx:_ZN3lyx15InsetMathCancelC2EPNS_6BufferENS0_4KindE
lyx:_ZN3lyx15InsetMathExFuncC1EPNS_6BufferERKNSt7__cxx1112basic_stringIwSt11char_traitsIwESaIwEEE
lyx:_ZN3lyx15InsetMathExFuncC1EPNS_6BufferERKNSt7__cxx1112basic_stringIwSt11char_traitsIwESaIwEEERKNS_8MathDataE
lyx:_ZN3lyx15InsetMathExFuncC2EPNS_6BufferERKNSt7__cxx1112basic_stringIwSt11char_traitsIwESaIwEEE
lyx:_ZN3lyx15InsetMathExFuncC2EPNS_6BufferERKNSt7__cxx1112basic_stringIwSt11char_traitsIwESaIwEEERKNS_8MathDataE
lyx:_ZN3lyx15InsetMathMatrixC1ERKNS_13InsetMathGridERKNSt7__cxx1112basic_stringIwSt11char_traitsIwESaIwEEESB_
lyx:_ZN3lyx15InsetMathMatrixC2ERKNS_13InsetMathGridERKNSt7__cxx1112basic_stringIwSt11char_traitsIwESaIwEEESB_
lyx:_ZN3lyx15InsetMathNumberC1EPNS_6BufferERKNSt7__cxx1112basic_stringIwSt11char_traitsIwESaIwEEE
lyx:_ZN3lyx15InsetMathNumberC2EPNS_6BufferERKNSt7__cxx1112basic_stringIwSt11char_traitsIwESaIwEEE
lyx:_ZN3lyx15InsetMathScript12removeScriptEb
lyx:_ZN3lyx15InsetMathScript13asScriptInsetEv
lyx:_ZN3lyx15InsetMathScript18notifyCursorLeavesERKNS_6CursorERS1_
lyx:_ZN3lyx15InsetMathScript2upEv
lyx:_ZN3lyx15InsetMathScript3nucEv
lyx:_ZN3lyx15InsetMathScript4downEv
lyx:_ZN3lyx15InsetMathScript6ensureEb
lyx:_ZN3lyx15InsetMathScript6limitsENS_6LimitsE
lyx:_ZN3lyx15InsetMathScriptC1EPNS_6BufferE
lyx:_ZN3lyx15InsetMathScriptC1EPNS_6BufferERKNS_8MathAtomEb
lyx:_ZN3lyx15InsetMathScriptC1EPNS_6BufferEb
lyx:_ZN3lyx15InsetMathScriptC2EPNS_6BufferE
lyx:_ZN3lyx15InsetMathScriptC2EPNS_6BufferERKNS_8MathAtomEb
lyx:_ZN3lyx15InsetMathScriptC2EPNS_6BufferEb
lyx:_ZN3lyx15InsetMathStringC1EPNS_6BufferERKNSt7__cxx1112basic_stringIwSt11char_traitsIwESaIwEEE
lyx:_ZN3lyx15InsetMathStringC2EPNS_6BufferERKNSt7__cxx1112basic_stringIwSt11char_traitsIwESaIwEEE
lyx:_ZN3lyx15InsetMathSymbolC1EPNS_6BufferEPKNS_9latexkeysE
lyx:_ZN3lyx15InsetMathSymbolC1EPNS_6BufferEPKc
lyx:_ZN3lyx15InsetMathSymbolC1EPNS_6BufferERKNSt7__cxx1112basic_stringIwSt11char_traitsIwESaIwEEE
lyx:_ZN3lyx15InsetMathSymbolC2EPNS_6BufferEPKNS_9latexkeysE
lyx:_ZN3lyx15InsetMathSymbolC2EPNS_6BufferEPKc
lyx:_ZN3lyx15InsetMathSymbolC2EPNS_6BufferERKNSt7__cxx1112basic_stringIwSt11char_traitsIwESaIwEEE
lyx:_ZN3lyx15InsetMathXArrowC1EPNS_6BufferERKNSt7__cxx1112basic_stringIwSt11char_traitsIwESaIwEEE
lyx:_ZN3lyx15InsetMathXArrowC2EPNS_6BufferERKNSt7__cxx1112basic_stringIwSt11char_traitsIwESaIwEEE
lyx:_ZN3lyx15InsetNoteParams4readERNS_5LexerE
lyx:_ZN3lyx15InsetNoteParamsC1Ev
lyx:_ZN3lyx15InsetNoteParamsC2Ev
lyx:_ZN3lyx15InsetPrintIndex10doDispatchERNS_6CursorERNS_11FuncRequestE
lyx:_ZN3lyx15InsetPrintIndex12updateBufferERKNS_11ParIteratorENS_10UpdateTypeEb
lyx:_ZN3lyx15InsetPrintIndex19isCompatibleCommandERKNSt7__cxx1112basic_stringIcSt11char_traitsIcESaIcEEE
lyx:_ZN3lyx15InsetPrintIndex8findInfoERKNSt7__cxx1112basic_stringIcSt11char_traitsIcESaIcEEE
lyx:_ZN3lyx15InsetPrintIndexC1EPNS_6BufferERKNS_18InsetCommandParamsE
lyx:_ZN3lyx15InsetPrintIndexC2EPNS_6BufferERKNS_18InsetCommandParamsE
lyx:_ZN3lyx15InsetWrapParams4readERNS_5LexerE
lyx:_ZN3lyx15UndoGroupHelper11resetBufferEPNS_6BufferE
lyx:_ZN3lyx15UndoGroupHelperC1EPNS_6BufferE
lyx:_ZN3lyx15UndoGroupHelperC2EPNS_6BufferE
lyx:_ZN3lyx15UndoGroupHelperD1Ev
lyx:_ZN3lyx15UndoGroupHelperD2Ev
lyx:_ZN3lyx15changeExtensionERK7QStringS2_
lyx:_ZN3lyx15class_to_stringB5cxx11ENS_9MathClassE
lyx:_ZN3lyx15createInsetMathEPKcPNS_6BufferE
lyx:_ZN3lyx15createInsetMathERKNSt7__cxx1112basic_stringIwSt11char_traitsIwESaIwEEEPNS_6BufferE
lyx:_ZN3lyx15empty_docstringB5cxx11Ev
lyx:_ZN3lyx15featureAsStringB5cxx11ENS_7Tabular7FeatureE
lyx:_ZN3lyx15fnsymbolCounterB5cxx11Ei
lyx:_ZN3lyx15force_overwriteE
lyx:_ZN3lyx15ignore_languageE
lyx:_ZN3lyx15inverseRGBColorENS_8RGBColorE
lyx:_ZN3lyx15latexParagraphsERKNS_6BufferERKNS_4TextERNS_10otexstreamERKNS_12OutputParamsERKNSt7__cxx1112basic_stringIcSt11char_traitsIcESaIcEEE
lyx:_ZN3lyx15locLengthStringERK7QString
lyx:_ZN3lyx15lyxgreyedoutDefB5cxx11Eb
lyx:_ZN3lyx15mathedSymbolDimERNS_11MetricsBaseERNS_9DimensionEPKNS_9latexkeysE
lyx:_ZN3lyx15popLanguageNameEv
lyx:_ZN3lyx15qstring_to_ucs4B5cxx11ERK7QString
lyx:_ZN3lyx15removeExtensionERK7QString
lyx:_ZN3lyx15rescanTexStylesERKNSt7__cxx1112basic_stringIcSt11char_traitsIcESaIcEEE
lyx:_ZN3lyx15setIgnoreFormatERKNSt7__cxx1112basic_stringIcSt11char_traitsIcESaIcEEEbb
lyx:_ZN3lyx15setSpellCheckerEv
lyx:_ZN3lyx15string_to_classERKNSt7__cxx1112basic_stringIwSt11char_traitsIwESaIwEEE
lyx:_ZN3lyx15theServerSocketEv
lyx:_ZN3lyx15theSpellCheckerEv
lyx:_ZN3lyx15theSystemMoversEv
lyx:_ZN3lyx15xhtmlEndFontTagENS_3xml9FontTypesE
lyx:_ZN3lyx15xhtmlParagraphsERKNS_4TextERKNS_6BufferERNS_9XMLStreamERKNS_12OutputParamsE
lyx:_ZN3lyx16AuthFilesSection4readERSi
lyx:_ZN3lyx16AuthFilesSection6insertERKNSt7__cxx1112basic_stringIcSt11char_traitsIcESaIcEEE
lyx:_ZN3lyx16AuthFilesSectionC1Ev
lyx:_ZN3lyx16AuthFilesSectionC2Ev
lyx:_ZN3lyx16BookmarksSection17adjustPosAfterPosERKNS_7support8FileNameEili
lyx:_ZN3lyx16BookmarksSection4readERSi
lyx:_ZN3lyx16BookmarksSection4saveERKNS_7support8FileNameEllilj
lyx:_ZN3lyx16BookmarksSection5clearEv
lyx:_ZN3lyx16ITEMIZE_DEFAULTSE
lyx:_ZN3lyx16InsetCaptionable12updateBufferERKNS_11ParIteratorENS_10UpdateTypeEb
lyx:_ZN3lyx16InsetCaptionable14setCaptionTypeERKNSt7__cxx1112basic_stringIcSt11char_traitsIcESaIcEEE
lyx:_ZN3lyx16InsetCollapsible10doDispatchERNS_6CursorERNS_11FuncRequestE
lyx:_ZN3lyx16InsetCollapsible4editERNS_6CursorEbNS_5Inset14EntryDirectionE
lyx:_ZN3lyx16InsetCollapsible4readERNS_5LexerE
lyx:_ZN3lyx16InsetCollapsible6editXYERNS_6CursorEii
lyx:_ZN3lyx16InsetCollapsible8setLabelERKNSt7__cxx1112basic_stringIwSt11char_traitsIwESaIwEEE
lyx:_ZN3lyx16InsetCollapsible9setStatusERNS_6CursorENS0_14CollapseStatusE
lyx:_ZN3lyx16InsetCollapsibleC1EPNS_6BufferENS_9InsetText8UsePlainE
lyx:_ZN3lyx16InsetCollapsibleC1ERKS0_
lyx:_ZN3lyx16InsetCollapsibleC2EPNS_6BufferENS_9InsetText8UsePlainE
lyx:_ZN3lyx16InsetCollapsibleC2ERKS0_
lyx:_ZN3lyx16InsetCollapsibleD0Ev
lyx:_ZN3lyx16InsetCollapsibleD1Ev
lyx:_ZN3lyx16InsetCollapsibleD2Ev
lyx:_ZN3lyx16InsetCollapsibleaSERKS0_
lyx:_ZN3lyx16InsetColoredCellC1EPNS_6BufferENS_9ColorCodeE
lyx:_ZN3lyx16InsetColoredCellC1EPNS_6BufferENS_9ColorCodeERKNS_8MathAtomE
lyx:_ZN3lyx16InsetColoredCellC2EPNS_6BufferENS_9ColorCodeE
lyx:_ZN3lyx16InsetColoredCellC2EPNS_6BufferENS_9ColorCodeERKNS_8MathAtomE
lyx:_ZN3lyx16InsetFloatParams4readERNS_5LexerE
lyx:_ZN3lyx16InsetIndexParams4readERNS_5LexerE
lyx:_ZN3lyx16InsetMathCommand6editXYERNS_6CursorEii
lyx:_ZN3lyx16InsetMathCommandC1EPNS_6BufferERKNSt7__cxx1112basic_stringIwSt11char_traitsIwESaIwEEEb
lyx:_ZN3lyx16InsetMathCommandC2EPNS_6BufferERKNSt7__cxx1112basic_stringIwSt11char_traitsIwESaIwEEEb
lyx:_ZN3lyx16InsetMathCommentC1EPNS_6BufferE
lyx:_ZN3lyx16InsetMathCommentC1EPNS_6BufferERKNSt7__cxx1112basic_stringIwSt11char_traitsIwESaIwEEE
lyx:_ZN3lyx16InsetMathCommentC1ERKNS_8MathDataE
lyx:_ZN3lyx16InsetMathCommentC2EPNS_6BufferE
lyx:_ZN3lyx16InsetMathCommentC2EPNS_6BufferERKNSt7__cxx1112basic_stringIwSt11char_traitsIwESaIwEEE
lyx:_ZN3lyx16InsetMathCommentC2ERKNS_8MathDataE
lyx:_ZN3lyx16InsetMathDiagramC1EPNS_6BufferE
lyx:_ZN3lyx16InsetMathDiagramC2EPNS_6BufferE
lyx:_ZN3lyx16InsetMathFontOldC1EPNS_6BufferEPKNS_9latexkeysE
lyx:_ZN3lyx16InsetMathFontOldC2EPNS_6BufferEPKNS_9latexkeysE
lyx:_ZN3lyx16InsetMathLefteqnC1EPNS_6BufferE
lyx:_ZN3lyx16InsetMathLefteqnC2EPNS_6BufferE
lyx:_ZN3lyx16InsetMathMakeboxC1EPNS_6BufferEb
lyx:_ZN3lyx16InsetMathMakeboxC2EPNS_6BufferEb
lyx:_ZN3lyx16InsetMathPhantomC1EPNS_6BufferENS0_4KindE
lyx:_ZN3lyx16InsetMathPhantomC2EPNS_6BufferENS0_4KindE
lyx:_ZN3lyx16InsetMathSidesetC1EPNS_6BufferEbb
lyx:_ZN3lyx16InsetMathSidesetC1EPNS_6BufferEbbRKNS_8MathAtomE
lyx:_ZN3lyx16InsetMathSidesetC2EPNS_6BufferEbb
lyx:_ZN3lyx16InsetMathSidesetC2EPNS_6BufferEbbRKNS_8MathAtomE
lyx:_ZN3lyx16InsetMathTabularC1EPNS_6BufferERKNSt7__cxx1112basic_stringIwSt11char_traitsIwESaIwEEEii
lyx:_ZN3lyx16InsetMathTabularC1EPNS_6BufferERKNSt7__cxx1112basic_stringIwSt11char_traitsIwESaIwEEEiicSA_
lyx:_ZN3lyx16InsetMathTabularC2EPNS_6BufferERKNSt7__cxx1112basic_stringIwSt11char_traitsIwESaIwEEEii
lyx:_ZN3lyx16InsetMathTabularC2EPNS_6BufferERKNSt7__cxx1112basic_stringIwSt11char_traitsIwESaIwEEEiicSA_
lyx:_ZN3lyx16InsetMathUnknown7setNameERKNSt7__cxx1112basic_stringIwSt11char_traitsIwESaIwEEE
lyx:_ZN3lyx16InsetMathUnknown8finalizeEv
lyx:_ZN3lyx16InsetMathUnknownC1EPNS_6BufferERKNSt7__cxx1112basic_stringIwSt11char_traitsIwESaIwEEESA_bb
lyx:_ZN3lyx16InsetMathUnknownC2EPNS_6BufferERKNSt7__cxx1112basic_stringIwSt11char_traitsIwESaIwEEESA_bb
lyx:_ZN3lyx16InsetNameWrapperC1EPNS_6BufferEPKNS_8MathDataERKNS_22InsetMathMacroTemplateE
lyx:_ZN3lyx16InsetNameWrapperC2EPNS_6BufferEPKNS_8MathDataERKNS_22InsetMathMacroTemplateE
lyx:_ZN3lyx16InsetSpaceParams4readERNS_5LexerE
lyx:_ZN3lyx16InsetSpecialChar4readERNS_5LexerE
lyx:_ZN3lyx16InsetSpecialCharC1ENS0_4KindE
lyx:_ZN3lyx16InsetSpecialCharC2ENS0_4KindE
lyx:_ZN3lyx16LastFilesSection20setNumberOfLastFilesEj
lyx:_ZN3lyx16LastFilesSection3addERKNS_7support8FileNameE
lyx:_ZN3lyx16LastFilesSection4readERSi
lyx:_ZN3lyx16LastFilesSectionC1Ej
lyx:_ZN3lyx16LastFilesSectionC2Ej
lyx:_ZN3lyx16LayoutModuleList16adaptToBaseClassEPKNS_10LayoutFileERKNSt7__cxx114listINS4_12basic_stringIcSt11char_traitsIcESaIcEEESaISA_EEE
lyx:_ZN3lyx16LayoutModuleList16removeBadModulesEPKNS_10LayoutFileE
lyx:_ZN3lyx16LayoutModuleList17addDefaultModulesEPKNS_10LayoutFileENSt7__cxx114listINS4_12basic_stringIcSt11char_traitsIcESaIcEEESaISA_EEE
lyx:_ZN3lyx16LayoutModuleList22checkModuleConsistencyEPKNS_10LayoutFileE
lyx:_ZN3lyx16ParConstIterator9push_backERKNS_5InsetE
lyx:_ZN3lyx16ParConstIteratorppEv
lyx:_ZN3lyx16ParagraphMetrics11setPositionEi
lyx:_ZN3lyx16ParagraphMetrics13resetPositionEv
lyx:_ZN3lyx16ParagraphMetrics5resetERKNS_9ParagraphE
lyx:_ZN3lyx16ParagraphMetricsC1ERKNS_9ParagraphE
lyx:_ZN3lyx16ParagraphMetricsC2ERKNS_9ParagraphE
lyx:_ZN3lyx16ParagraphMetricsaSERKS0_
lyx:_ZN3lyx16PersonalWordList4loadEv
lyx:_ZN3lyx16PersonalWordList4saveEv
lyx:_ZN3lyx16PersonalWordList6insertERKNSt7__cxx1112basic_stringIwSt11char_traitsIwESaIwEEE
lyx:_ZN3lyx16PersonalWordList6removeERKNSt7__cxx1112basic_stringIwSt11char_traitsIwESaIwEEE
lyx:_ZN3lyx16charFilterRegExpERK7QString
lyx:_ZN3lyx16cleanTranslationERNSt7__cxx1112basic_stringIwSt11char_traitsIwESaIwEEE
lyx:_ZN3lyx16decodeInsetParamERKNSt7__cxx1112basic_stringIcSt11char_traitsIcESaIcEEERS5_RKNS_6BufferE
lyx:_ZN3lyx16defaultBaseclassEv
lyx:_ZN3lyx16defaultRowHeightEv
lyx:_ZN3lyx16default_languageE
lyx:_ZN3lyx16doc_iterator_endEPKNS_6BufferEPKNS_5InsetE
lyx:_ZN3lyx16eightbit_to_ucs4EPKcmRKNSt7__cxx1112basic_stringIcSt11char_traitsIcESaIcEEE
lyx:_ZN3lyx16emergencyCleanupEv
lyx:_ZN3lyx16getDocumentClassERKNS_10LayoutFileERKNS_16LayoutModuleListERKNSt7__cxx1112basic_stringIcSt11char_traitsIcESaIcEEEbb
lyx:_ZN3lyx16insetDisplayNameB5cxx11ENS_9InsetCodeE
lyx:_ZN3lyx16math_autocorrectERNS_6CursorEw
lyx:_ZN3lyx16mathedSymbolDrawERNS_11PainterInfoEiiPKNS_9latexkeysE
lyx:_ZN3lyx16mathed_draw_decoERNS_11PainterInfoEiiiiRKNSt7__cxx1112basic_stringIwSt11char_traitsIwESaIwEEE
lyx:_ZN3lyx16mathed_draw_rootERNS_11PainterInfoEiiRKNS_8MathDataEPS3_RKNS_9DimensionE
lyx:_ZN3lyx16mathed_medmuskipERKNS_8FontInfoE
lyx:_ZN3lyx16openLanguageNameB5cxx11Ev
lyx:_ZN3lyx16otexstringstream6lengthEv
lyx:_ZN3lyx16otexstringstream7releaseEv
lyx:_ZN3lyx16outputLaTeXColorB5cxx11ERKNS_8RGBColorE
lyx:_ZN3lyx16par_iterator_endERNS_5InsetE
lyx:_ZN3lyx16pushLanguageNameERKNSt7__cxx1112basic_stringIcSt11char_traitsIcESaIcEEEb
lyx:_ZN3lyx16theSystemFormatsEv
lyx:_ZN3lyx16translateLyXTypeERKNSt7__cxx1112basic_stringIcSt11char_traitsIcESaIcEEE
lyx:_ZN3lyx16ucs4_to_eightbitEPKwmRKNSt7__cxx1112basic_stringIcSt11char_traitsIcESaIcEEE
lyx:_ZN3lyx16ucs4_to_eightbitEwRKNSt7__cxx1112basic_stringIcSt11char_traitsIcESaIcEEE
lyx:_ZN3lyx16wildcardAllFilesEv
lyx:_ZN3lyx17EncodingExceptionC1Ew
lyx:_ZN3lyx17EncodingExceptionC2Ew
lyx:_ZN3lyx17InsetBranchParams4readERNS_5LexerE
lyx:_ZN3lyx17InsetMathAMSArrayC1EPNS_6BufferERKNSt7__cxx1112basic_stringIwSt11char_traitsIwESaIwEEE
lyx:_ZN3lyx17InsetMathAMSArrayC1EPNS_6BufferERKNSt7__cxx1112basic_stringIwSt11char_traitsIwESaIwEEEii
lyx:_ZN3lyx17InsetMathAMSArrayC2EPNS_6BufferERKNSt7__cxx1112basic_stringIwSt11char_traitsIwESaIwEEE
lyx:_ZN3lyx17InsetMathAMSArrayC2EPNS_6BufferERKNSt7__cxx1112basic_stringIwSt11char_traitsIwESaIwEEEii
lyx:_ZN3lyx17InsetMathCanceltoC1EPNS_6BufferE
lyx:_ZN3lyx17InsetMathCanceltoC2EPNS_6BufferE
lyx:_ZN3lyx17InsetMathFracBaseC2EPNS_6BufferEm
lyx:_ZN3lyx17InsetMathStackrelC1EPNS_6BufferEb
lyx:_ZN3lyx17InsetMathStackrelC2EPNS_6BufferEb
lyx:_ZN3lyx17InsetMathSubstack10doDispatchERNS_6CursorERNS_11FuncRequestE
lyx:_ZN3lyx17InsetMathSubstackC1EPNS_6BufferE
lyx:_ZN3lyx17InsetMathSubstackC2EPNS_6BufferE
lyx:_ZN3lyx17InsetMathTextsizeC1EPNS_6BufferEPKNS_9latexkeysE
lyx:_ZN3lyx17InsetMathTextsizeC2EPNS_6BufferEPKNS_9latexkeysE
lyx:_ZN3lyx17InsetMathXYMatrixC1EPNS_6BufferERKNS_6LengthEcb
lyx:_ZN3lyx17InsetMathXYMatrixC2EPNS_6BufferERKNS_6LengthEcb
lyx:_ZN3lyx17InsetPrintNomencl10doDispatchERNS_6CursorERNS_11FuncRequestE
lyx:_ZN3lyx17InsetPrintNomencl8findInfoERKNSt7__cxx1112basic_stringIcSt11char_traitsIcESaIcEEE
lyx:_ZN3lyx17InsetPrintNomenclC1EPNS_6BufferERKNS_18InsetCommandParamsE
lyx:_ZN3lyx17InsetPrintNomenclC2EPNS_6BufferERKNS_18InsetCommandParamsE
lyx:_ZN3lyx17InsetScriptParams4readERNS_5LexerE
lyx:_ZN3lyx17InsetScriptParamsC1Ev
lyx:_ZN3lyx17InsetScriptParamsC2Ev
lyx:_ZN3lyx17LastOpenedSection3addERKNS_7support8FileNameEb
lyx:_ZN3lyx17LastOpenedSection4readERSi
lyx:_ZN3lyx17LastOpenedSection5clearEv
lyx:_ZN3lyx17RGBColorFromLaTeXERKNSt7__cxx1112basic_stringIcSt11char_traitsIcESaIcEEE
lyx:_ZN3lyx17StableDocIteratorC1ERKNS_11DocIteratorE
lyx:_ZN3lyx17StableDocIteratorC2ERKNS_11DocIteratorE
lyx:_ZN3lyx17TransDeadkeyState7deadkeyB5cxx11EwNS_8KmodInfoE
lyx:_ZN3lyx17TransDeadkeyState9normalkeyB5cxx11Ew
lyx:_ZN3lyx17TransDeadkeyStateC1Ev
lyx:_ZN3lyx17TransDeadkeyStateC2Ev
lyx:_ZN3lyx17actOnUpdatedPrefsERKNS_5LyXRCES2_
lyx:_ZN3lyx17charFilterRegExpCERK7QString
lyx:_ZN3lyx17createApplicationERiPPc
lyx:_ZN3lyx17createInsetHelperEPNS_6BufferERKNS_11FuncRequestE
lyx:_ZN3lyx17docbookEndFontTagENS_3xml9FontTypesE
lyx:_ZN3lyx17docbookParagraphsERKNS_4TextERKNS_6BufferERNS_9XMLStreamERKNS_12OutputParamsE
lyx:_ZN3lyx17docbookSubfiguresERNS_9XMLStreamERKNS_12OutputParamsEPKNS_12InsetCaptionEPKNS_10InsetLabelERKSt6vectorIPKNS_16InsetCollapsibleESaISE_EE
lyx:_ZN3lyx17execBatchCommandsEv
lyx:_ZN3lyx17isOpenPunctuationEw
lyx:_ZN3lyx17isValidGlueLengthERKNSt7__cxx1112basic_stringIcSt11char_traitsIcESaIcEEEPNS_10GlueLengthE
lyx:_ZN3lyx17loweralphaCounterEi
lyx:_ZN3lyx17lowerromanCounterB5cxx11Ei
lyx:_ZN3lyx17math_font_max_dimERKNS_8FontInfoERiS3_
lyx:_ZN3lyx17mathed_char_slopeERKNS_11MetricsBaseEw
lyx:_ZN3lyx17mathed_char_widthERKNS_8FontInfoEw
lyx:_ZN3lyx17mathed_parse_cellERNS_8MathDataERKNSt7__cxx1112basic_stringIwSt11char_traitsIwESaIwEEENS_5Parse5flagsE
lyx:_ZN3lyx17mathed_parse_cellERNS_8MathDataERSiNS_5Parse5flagsE
lyx:_ZN3lyx17mathed_string_dimERKNS_8FontInfoERKNSt7__cxx1112basic_stringIwSt11char_traitsIwESaIwEEERNS_9DimensionE
lyx:_ZN3lyx17mathed_thinmuskipERKNS_8FontInfoE
lyx:_ZN3lyx17max_encoded_bytesERKNSt7__cxx1112basic_stringIcSt11char_traitsIcESaIcEEE
lyx:_ZN3lyx17pipeThroughExternERKNSt7__cxx1112basic_stringIcSt11char_traitsIcESaIcEEERKNS1_IwS2_IwESaIwEEERKNS_8MathDataE
lyx:_ZN3lyx17qtHtmlToPlainTextERK7QString
lyx:_ZN3lyx17theGlobalWordListB5cxx11E
lyx:_ZN3lyx17theTopLevelCmdDefEv
lyx:_ZN3lyx17theTopLevelKeymapEv
lyx:_ZN3lyx17to_filesystem8bitERKNSt7__cxx1112basic_stringIwSt11char_traitsIwESaIwEEE
lyx:_ZN3lyx17to_iconv_encodingERKNSt7__cxx1112basic_stringIwSt11char_traitsIwESaIwEEERKNS1_IcS2_IcESaIcEEE
lyx:_ZN3lyx17unlocLengthStringERK7QString
lyx:_ZN3lyx17xhtmlStartFontTagENS_3xml9FontTypesE
lyx:_ZN3lyx18InsetCommandParams10setCmdNameERKNSt7__cxx1112basic_stringIcSt11char_traitsIcESaIcEEE
lyx:_ZN3lyx18InsetCommandParams13getDefaultCmdB5cxx11ENS_9InsetCodeE
lyx:_ZN3lyx18InsetCommandParams19isCompatibleCommandENS_9InsetCodeERKNSt7__cxx1112basic_stringIcSt11char_traitsIcESaIcEEE
lyx:_ZN3lyx18InsetCommandParams4ReadERNS_5LexerEPKNS_6BufferE
lyx:_ZN3lyx18InsetCommandParams4readERNS_5LexerE
lyx:_ZN3lyx18InsetCommandParams5clearEv
lyx:_ZN3lyx18InsetCommandParamsC1ENS_9InsetCodeE
lyx:_ZN3lyx18InsetCommandParamsC1ENS_9InsetCodeERKNSt7__cxx1112basic_stringIcSt11char_traitsIcESaIcEEE
lyx:_ZN3lyx18InsetCommandParamsC2ENS_9InsetCodeE
lyx:_ZN3lyx18InsetCommandParamsC2ENS_9InsetCodeERKNSt7__cxx1112basic_stringIcSt11char_traitsIcESaIcEEE
lyx:_ZN3lyx18InsetCommandParamsixERKNSt7__cxx1112basic_stringIcSt11char_traitsIcESaIcEEE
lyx:_ZN3lyx18InsetIPADecoParams4readERNS_5LexerE
lyx:_ZN3lyx18InsetIPADecoParamsC1Ev
lyx:_ZN3lyx18InsetIPADecoParamsC2Ev
lyx:_ZN3lyx18InsetNewlineParams4readERNS_5LexerE
lyx:_ZN3lyx18InsetNewpageParams4readERNS_5LexerE
lyx:_ZN3lyx18InsetPhantomParams4readERNS_5LexerE
lyx:_ZN3lyx18InsetPhantomParamsC1Ev
lyx:_ZN3lyx18InsetPhantomParamsC2Ev
lyx:_ZN3lyx18LastFilePosSection4readERSi
lyx:_ZN3lyx18LastFilePosSection4saveERKNS0_7FilePosE
lyx:_ZN3lyx18MathCompletionList7globalsB5cxx11E
lyx:_ZN3lyx18MathCompletionListC1ERKNS_6CursorE
lyx:_ZN3lyx18MathCompletionListC2ERKNS_6CursorE
lyx:_ZN3lyx18MathCompletionListD0Ev
lyx:_ZN3lyx18MathCompletionListD1Ev
lyx:_ZN3lyx18MathCompletionListD2Ev
lyx:_ZN3lyx18ShellEscapeSection4readERSi
lyx:_ZN3lyx18ShellEscapeSection6insertERKNSt7__cxx1112basic_stringIcSt11char_traitsIcESaIcEEEb
lyx:_ZN3lyx18ShellEscapeSection6removeERKNSt7__cxx1112basic_stringIcSt11char_traitsIcESaIcEEE
lyx:_ZN3lyx18TransCombinedState7deadkeyB5cxx11EwNS_8KmodInfoE
lyx:_ZN3lyx18TransCombinedState9normalkeyB5cxx11Ew
lyx:_ZN3lyx18TransCombinedStateC1Ev
lyx:_ZN3lyx18TransCombinedStateC2Ev
lyx:_ZN3lyx18doc_iterator_beginEPKNS_6BufferEPKNS_5InsetE
lyx:_ZN3lyx18externalLineEndingERKNSt7__cxx1112basic_stringIwSt11char_traitsIwESaIwEEE
lyx:_ZN3lyx18findPreviousChangeEPNS_10BufferViewE
lyx:_ZN3lyx18findPreviousChangeEPNS_10BufferViewERNS_6CursorEb
lyx:_ZN3lyx18imageLibFileSearchER7QStringRKS0_S3_NS_7support11search_modeEb
lyx:_ZN3lyx18internalLineEndingB5cxx11ERK7QString
lyx:_ZN3lyx18languageStackEmptyEv
lyx:_ZN3lyx18locLengthDocStringENSt7__cxx1112basic_stringIwSt11char_traitsIwESaIwEEE
lyx:_ZN3lyx18mathed_thickmuskipERKNS_8FontInfoE
lyx:_ZN3lyx18metricsStrRedBlackERNS_11MetricsInfoERNS_9DimensionERKNSt7__cxx1112basic_stringIwSt11char_traitsIwESaIwEEE
lyx:_ZN3lyx18par_iterator_beginERNS_5InsetE
lyx:_ZN3lyx18superarabicCounterB5cxx11Ei
lyx:_ZN3lyx18theCiteEnginesListE
lyx:_ZN3lyx18ucs4_to_multibytesEwRSt6vectorIcSaIcEERKNSt7__cxx1112basic_stringIcSt11char_traitsIcES1_EE
lyx:_ZN3lyx18validate_math_wordERNS_13LaTeXFeaturesERKNSt7__cxx1112basic_stringIwSt11char_traitsIwESaIwEEE
lyx:_ZN3lyx18writePlaintextFileERKNS_6BufferERKNS_7support8FileNameERKNS_12OutputParamsE
lyx:_ZN3lyx18writePlaintextFileERKNS_6BufferERSt13basic_ostreamIwSt11char_traitsIwEERKNS_12OutputParamsE
lyx:_ZN3lyx19InsetExternalParams11settemplateERKNSt7__cxx1112basic_stringIcSt11char_traitsIcESaIcEEE
lyx:_ZN3lyx19InsetExternalParams4readERKNS_6BufferERNS_5LexerE
lyx:_ZN3lyx19InsetExternalParamsC1Ev
lyx:_ZN3lyx19InsetExternalParamsC2Ev
lyx:_ZN3lyx19InsetGraphicsParams4ReadERNS_5LexerERKNSt7__cxx1112basic_stringIcSt11char_traitsIcESaIcEEERKNS_6BufferEb
lyx:_ZN3lyx19InsetGraphicsParams4copyERKS0_
lyx:_ZN3lyx19InsetGraphicsParams4initEv
lyx:_ZN3lyx19InsetGraphicsParamsC1ERKS0_
lyx:_ZN3lyx19InsetGraphicsParamsC1Ev
lyx:_ZN3lyx19InsetGraphicsParamsC2ERKS0_
lyx:_ZN3lyx19InsetGraphicsParamsC2Ev
lyx:_ZN3lyx19InsetGraphicsParamsaSERKS0_
lyx:_ZN3lyx19InsetListingsParams17fromEncodedStringERKNSt7__cxx1112basic_stringIcSt11char_traitsIcESaIcEEE
lyx:_ZN3lyx19InsetListingsParams4readERNS_5LexerE
lyx:_ZN3lyx19InsetListingsParams8addParamERKNSt7__cxx1112basic_stringIcSt11char_traitsIcESaIcEEES8_b
lyx:_ZN3lyx19InsetListingsParams8package_E
lyx:_ZN3lyx19InsetListingsParams9addParamsERKNSt7__cxx1112basic_stringIcSt11char_traitsIcESaIcEEE
lyx:_ZN3lyx19InsetListingsParams9setParamsERKNSt7__cxx1112basic_stringIcSt11char_traitsIcESaIcEEE
lyx:_ZN3lyx19InsetListingsParamsC1ERKNSt7__cxx1112basic_stringIcSt11char_traitsIcESaIcEEEbNS_16InsetCollapsible14CollapseStatusE
lyx:_ZN3lyx19InsetListingsParamsC1Ev
lyx:_ZN3lyx19InsetListingsParamsC2ERKNSt7__cxx1112basic_stringIcSt11char_traitsIcESaIcEEEbNS_16InsetCollapsible14CollapseStatusE
lyx:_ZN3lyx19InsetListingsParamsC2Ev
lyx:_ZN3lyx19InsetMathBoldSymbolC1EPNS_6BufferENS0_4KindE
lyx:_ZN3lyx19InsetMathBoldSymbolC2EPNS_6BufferENS0_4KindE
lyx:_ZN3lyx19InsetMathDecorationC1EPNS_6BufferEPKNS_9latexkeysE
lyx:_ZN3lyx19InsetMathDecorationC2EPNS_6BufferEPKNS_9latexkeysE
lyx:_ZN3lyx19InsetMathEnsureMathC1EPNS_6BufferE
lyx:_ZN3lyx19InsetMathEnsureMathC2EPNS_6BufferE
lyx:_ZN3lyx19LastCommandsSection23setNumberOfLastCommandsEj
lyx:_ZN3lyx19LastCommandsSection3addERKNSt7__cxx1112basic_stringIcSt11char_traitsIcESaIcEEE
lyx:_ZN3lyx19LastCommandsSection4readERSi
lyx:_ZN3lyx19LastCommandsSection5clearEv
lyx:_ZN3lyx19LastCommandsSectionC1Ej
lyx:_ZN3lyx19LastCommandsSectionC2Ej
lyx:_ZN3lyx19ParagraphParameters10leftIndentERKNS_6LengthE
lyx:_ZN3lyx19ParagraphParameters11labelStringERKNSt7__cxx1112basic_stringIwSt11char_traitsIwESaIwEEE
lyx:_ZN3lyx19ParagraphParameters15startOfAppendixEb
lyx:_ZN3lyx19ParagraphParameters16labelWidthStringERKNSt7__cxx1112basic_stringIwSt11char_traitsIwESaIwEEE
lyx:_ZN3lyx19ParagraphParameters4readERKNSt7__cxx1112basic_stringIcSt11char_traitsIcESaIcEEEb
lyx:_ZN3lyx19ParagraphParameters4readERNS_5LexerEb
lyx:_ZN3lyx19ParagraphParameters5alignENS_12LyXAlignmentE
lyx:_ZN3lyx19ParagraphParameters5applyERKS0_RKNS_6LayoutE
lyx:_ZN3lyx19ParagraphParameters5clearEv
lyx:_ZN3lyx19ParagraphParameters5depthEm
lyx:_ZN3lyx19ParagraphParameters7spacingERKNS_7SpacingE
lyx:_ZN3lyx19ParagraphParameters8appendixEb
lyx:_ZN3lyx19ParagraphParameters8noindentEb
lyx:_ZN3lyx19ParagraphParametersC1Ev
lyx:_ZN3lyx19ParagraphParametersC2Ev
lyx:_ZN3lyx19checkAndLoadLyXFileERKNS_7support8FileNameEb
lyx:_ZN3lyx19defaultBufferParamsEv
lyx:_ZN3lyx19docbookNoSubfiguresERNS_9XMLStreamERKNS_12OutputParamsEPKNS_12InsetCaptionEPKNS_10InsetLabelERKNS_8FloatingEPKNS_10InsetFloatE
lyx:_ZN3lyx19docbookStartFontTagENS_3xml9FontTypesE
lyx:_ZN3lyx19fontToHtmlAttributeB5cxx11ENS_3xml9FontTypesE
lyx:_ZN3lyx19from_filesystem8bitERKNSt7__cxx1112basic_stringIcSt11char_traitsIcESaIcEEE
lyx:_ZN3lyx19from_iconv_encodingERKNSt7__cxx1112basic_stringIcSt11char_traitsIcESaIcEEES7_
lyx:_ZN3lyx19insetToLaTeXSnippetB5cxx11EPKNS_6BufferEPKNS_5InsetE
lyx:_ZN3lyx19isPrintableNonspaceEw
lyx:_ZN3lyx19mathed_char_kerningERKNS_8FontInfoEw
lyx:_ZN3lyx19mathed_parse_normalEPNS_6BufferERNS_8MathAtomERKNSt7__cxx1112basic_stringIwSt11char_traitsIwESaIwEEENS_5Parse5flagsE
lyx:_ZN3lyx19mathed_parse_normalEPNS_6BufferERNS_8MathAtomERNS_5LexerENS_5Parse5flagsE
lyx:_ZN3lyx19mathed_parse_normalERNS_13InsetMathGridERKNSt7__cxx1112basic_stringIwSt11char_traitsIwESaIwEEENS_5Parse5flagsE
lyx:_ZN3lyx19mathed_root_metricsERNS_11MetricsInfoERKNS_8MathDataEPS3_RNS_9DimensionE
lyx:_ZN3lyx19mathed_string_widthERKNS_8FontInfoERKNSt7__cxx1112basic_stringIwSt11char_traitsIwESaIwEEE
lyx:_ZN3lyx19theSystemConvertersEv
lyx:_ZN3lyx19translateDecorationERKNSt7__cxx1112basic_stringIcSt11char_traitsIcESaIcEEE
lyx:_ZN3lyx19translateIfPossibleERKNSt7__cxx1112basic_stringIwSt11char_traitsIwESaIwEEE
lyx:_ZN3lyx19translateIfPossibleERKNSt7__cxx1112basic_stringIwSt11char_traitsIwESaIwEEERKNS1_IcS2_IcESaIcEEE
lyx:_ZN3lyx1_ERKNSt7__cxx1112basic_stringIcSt11char_traitsIcESaIcEEE
lyx:_ZN3lyx20InsetDisplayLabelBoxC1EPNS_6BufferERKNS_8MathAtomERKNSt7__cxx1112basic_stringIwSt11char_traitsIwESaIwEEERKNS_22InsetMathMacroTemplateE
lyx:_ZN3lyx20InsetDisplayLabelBoxC2EPNS_6BufferERKNS_8MathAtomERKNSt7__cxx1112basic_stringIwSt11char_traitsIwESaIwEEERKNS_22InsetMathMacroTemplateE
lyx:_ZN3lyx20InsetMathSpecialCharC1EPNS_6BufferERKNSt7__cxx1112basic_stringIwSt11char_traitsIwESaIwEEE
lyx:_ZN3lyx20InsetMathSpecialCharC2EPNS_6BufferERKNSt7__cxx1112basic_stringIwSt11char_traitsIwESaIwEEE
lyx:_ZN3lyx20InsetSeparatorParams4readERNS_5LexerE
lyx:_ZN3lyx20mathed_font_x_heightERKNS_8FontInfoE
lyx:_ZN3lyx21FindAndReplaceOptionsC1ERKNSt7__cxx1112basic_stringIwSt11char_traitsIwESaIwEEEbbbbbS8_bNS0_11SearchScopeENS0_17SearchRestrictionEb
lyx:_ZN3lyx21FindAndReplaceOptionsC2ERKNSt7__cxx1112basic_stringIwSt11char_traitsIwESaIwEEEbbbbbS8_bNS0_11SearchScopeENS0_17SearchRestrictionEb
lyx:_ZN3lyx21InsetIndexMacroParams4readERNS_5LexerE
lyx:_ZN3lyx21InsetIndexMacroParamsC1Ev
lyx:_ZN3lyx21InsetIndexMacroParamsC2Ev
lyx:_ZN3lyx21LYXFILE_LAYOUT_FORMATE
lyx:_ZN3lyx21citationStyleToStringB5cxx11ERKNS_13CitationStyleEb
lyx:_ZN3lyx21doAssertWithCallstackEb
lyx:_ZN3lyx21ignore_missing_glyphsE
lyx:_ZN3lyx22InsetMathMacroArgument9setNumberEi
lyx:_ZN3lyx22InsetMathMacroArgumentC1EPNS_6BufferEi
lyx:_ZN3lyx22InsetMathMacroArgumentC2EPNS_6BufferEi
lyx:_ZN3lyx22InsetMathMacroTemplate10doDispatchERNS_6CursorERNS_11FuncRequestE
lyx:_ZN3lyx22InsetMathMacroTemplate10fromStringERKNSt7__cxx1112basic_stringIwSt11char_traitsIwESaIwEEE
lyx:_ZN3lyx22InsetMathMacroTemplate11changeArityERNS_6CursorERKNS_11DocIteratorEi
lyx:_ZN3lyx22InsetMathMacroTemplate12makeOptionalERNS_6CursorERKNS_11DocIteratorE
lyx:_ZN3lyx22InsetMathMacroTemplate14shiftArgumentsEmi
lyx:_ZN3lyx22InsetMathMacroTemplate15insertParameterERNS_6CursorERKNS_11DocIteratorEibb
lyx:_ZN3lyx22InsetMathMacroTemplate15makeNonOptionalERNS_6CursorERKNS_11DocIteratorE
lyx:_ZN3lyx22InsetMathMacroTemplate15removeArgumentsERNS_6CursorERKNS_11DocIteratorEii
lyx:_ZN3lyx22InsetMathMacroTemplate15removeParameterERNS_6CursorERKNS_11DocIteratorEib
lyx:_ZN3lyx22InsetMathMacroTemplate15updateToContextERKNS_12MacroContextE
lyx:_ZN3lyx22InsetMathMacroTemplate17commitEditChangesERNS_6CursorERKNS_11DocIteratorE
lyx:_ZN3lyx22InsetMathMacroTemplate18notifyCursorLeavesERKNS_6CursorERS1_
lyx:_ZN3lyx22InsetMathMacroTemplate22fixNameAndCheckIfValidEv
lyx:_ZN3lyx22InsetMathMacroTemplate22insertMissingArgumentsEi
lyx:_ZN3lyx22InsetMathMacroTemplate4editERNS_6CursorEbNS_5Inset14EntryDirectionE
lyx:_ZN3lyx22InsetMathMacroTemplate4readERNS_5LexerE
lyx:_ZN3lyx22InsetMathMacroTemplateC1EPNS_6BufferE
lyx:_ZN3lyx22InsetMathMacroTemplateC1EPNS_6BufferERKNSt7__cxx1112basic_stringIwSt11char_traitsIwESaIwEEEiiNS_9MacroTypeE
lyx:_ZN3lyx22InsetMathMacroTemplateC1EPNS_6BufferERKNSt7__cxx1112basic_stringIwSt11char_traitsIwESaIwEEEiiNS_9MacroTypeERKSt6vectorINS_8MathDataESaISD_EERKSD_SJ_
lyx:_ZN3lyx22InsetMathMacroTemplateC2EPNS_6BufferE
lyx:_ZN3lyx22InsetMathMacroTemplateC2EPNS_6BufferERKNSt7__cxx1112basic_stringIwSt11char_traitsIwESaIwEEEiiNS_9MacroTypeE
lyx:_ZN3lyx22InsetMathMacroTemplateC2EPNS_6BufferERKNSt7__cxx1112basic_stringIwSt11char_traitsIwESaIwEEEiiNS_9MacroTypeERKSt6vectorINS_8MathDataESaISD_EERKSD_SJ_
lyx:_ZN3lyx22RenderMonitoredPreview10setAbsFileERKNS_7support8FileNameE
lyx:_ZN3lyx22RenderMonitoredPreview7connectERKSt8functionIFvvEE
lyx:_ZN3lyx22RenderMonitoredPreviewC1EPKNS_5InsetE
lyx:_ZN3lyx22RenderMonitoredPreviewC2EPKNS_5InsetE
lyx:_ZN3lyx22gatherMacroDefinitionsEPKNS_6BufferEPKNS_5InsetE
lyx:_ZN3lyx22stringifyFromForSearchB5cxx11ERKNS_21FindAndReplaceOptionsERKNS_11DocIteratorEi
lyx:_ZN3lyx23citationStyleFromStringERKNSt7__cxx1112basic_stringIcSt11char_traitsIcESaIcEEERKNS_12BufferParamsE
lyx:_ZN3lyx23convertDelimToXMLEscapeERKNSt7__cxx1112basic_stringIwSt11char_traitsIwESaIwEEE
lyx:_ZN3lyx23isCommonNumberSeparatorEw
lyx:_ZN3lyx23latexArgInsetsForParentERKNS_13ParagraphListERNS_10otexstreamERKNS_12OutputParamsERKSt3mapINSt7__cxx1112basic_stringIcSt11char_traitsIcESaIcEEENS_6Layout8latexargESt4lessISE_ESaISt4pairIKSE_SG_EEERSK_
lyx:_ZN3lyx23writePlaintextParagraphERKNS_6BufferERKNS_9ParagraphERSt13basic_ostreamIwSt11char_traitsIwEERKNS_12OutputParamsERbm
lyx:_ZN3lyx25findSubfiguresInParagraphERKNS_9ParagraphE
lyx:_ZN3lyx26breakParagraphConservativeERKNS_12BufferParamsERNS_13ParagraphListEll
lyx:_ZN3lyx26docbookGenerateFillerMediaERNS_9XMLStreamE
lyx:_ZN3lyx26docbookGenerateFillerTableERNS_9XMLStreamENS_12BufferParams11TableOutputE
lyx:_ZN3lyx26docbookSimpleAllParagraphsERKNS_4TextERKNS_6BufferERNS_9XMLStreamERKNS_12OutputParamsE
lyx:_ZN3lyx26isEuropeanNumberTerminatorEw
lyx:_ZN3lyx26notifyCursorLeavesOrEntersERKNS_6CursorERS0_
lyx:_ZN3lyx27authorsToDocBookAuthorGroupERKNSt7__cxx1112basic_stringIwSt11char_traitsIwESaIwEEERNS_9XMLStreamERKNS_6BufferENS1_IcS2_IcESaIcEEE
lyx:_ZN3lyx29createInsetMath_fromDialogStrERKNSt7__cxx1112basic_stringIwSt11char_traitsIwESaIwEEERNS_8MathDataE
lyx:_ZN3lyx29docbookParseHopelessSubfigureEPKNS_9InsetTextE
lyx:_ZN3lyx3BoxC1Eiiii
lyx:_ZN3lyx3BoxC1Ev
lyx:_ZN3lyx3BoxC2Eiiii
lyx:_ZN3lyx3BoxC2Ev
lyx:_ZN3lyx3CVS10repoUpdateB5cxx11Ev
lyx:_ZN3lyx3CVS10scanMasterEv
lyx:_ZN3lyx3CVS11copyEnabledEv
lyx:_ZN3lyx3CVS11scanLogFileERKNS_7support8FileNameERNSt7__cxx1112basic_stringIcSt11char_traitsIcESaIcEEE
lyx:_ZN3lyx3CVS12revisionInfoB5cxx11ENS_5LyXVC12RevisionInfoE
lyx:_ZN3lyx3CVS13lockingToggleB5cxx11Ev
lyx:_ZN3lyx3CVS13renameEnabledEv
lyx:_ZN3lyx3CVS14checkInEnabledEv
lyx:_ZN3lyx3CVS15checkOutEnabledEv
lyx:_ZN3lyx3CVS15getRevisionInfoEv
lyx:_ZN3lyx3CVS15undoLastEnabledEv
lyx:_ZN3lyx3CVS17repoUpdateEnabledEv
lyx:_ZN3lyx3CVS19prepareFileRevisionERKNSt7__cxx1112basic_stringIcSt11char_traitsIcESaIcEEERS6_
lyx:_ZN3lyx3CVS20lockingToggleEnabledEv
lyx:_ZN3lyx3CVS21doVCCommandWithOutputERKNSt7__cxx1112basic_stringIcSt11char_traitsIcESaIcEEERKNS_7support8FileNameESC_b
lyx:_ZN3lyx3CVS21toggleReadOnlyEnabledEv
lyx:_ZN3lyx3CVS24isRevertWithConfirmationEv
lyx:_ZN3lyx3CVS25doVCCommandCallWithOutputERKNSt7__cxx1112basic_stringIcSt11char_traitsIcESaIcEEERKNS_7support8FileNameESC_
lyx:_ZN3lyx3CVS25isCheckInWithConfirmationEv
lyx:_ZN3lyx3CVS26prepareFileRevisionEnabledEv
lyx:_ZN3lyx3CVS4copyERKNS_7support8FileNameERKNSt7__cxx1112basic_stringIcSt11char_traitsIcESaIcEEE
lyx:_ZN3lyx3CVS4editEv
lyx:_ZN3lyx3CVS6getLogERKNS_7support8FileNameE
lyx:_ZN3lyx3CVS6renameERKNS_7support8FileNameERKNSt7__cxx1112basic_stringIcSt11char_traitsIcESaIcEEE
lyx:_ZN3lyx3CVS6revertEv
lyx:_ZN3lyx3CVS6uneditEv
lyx:_ZN3lyx3CVS6updateENS0_13OperationModeERKNS_7support8FileNameE
lyx:_ZN3lyx3CVS7checkInERKNSt7__cxx1112basic_stringIcSt11char_traitsIcESaIcEEERS6_
lyx:_ZN3lyx3CVS7getDiffENS0_13OperationModeERKNS_7support8FileNameE
lyx:_ZN3lyx3CVS8checkOutB5cxx11Ev
lyx:_ZN3lyx3CVS8findFileERKNS_7support8FileNameE
lyx:_ZN3lyx3CVS8retrieveERKNS_7support8FileNameE
lyx:_ZN3lyx3CVS8undoLastEv
lyx:_ZN3lyx3CVS9getStatusEv
lyx:_ZN3lyx3CVS9registrerERKNSt7__cxx1112basic_stringIcSt11char_traitsIcESaIcEEE
lyx:_ZN3lyx3CVSC1ERKNS_7support8FileNameEPNS_6BufferE
lyx:_ZN3lyx3CVSC2ERKNS_7support8FileNameEPNS_6BufferE
lyx:_ZN3lyx3GIT10repoUpdateB5cxx11Ev
lyx:_ZN3lyx3GIT10scanMasterEv
lyx:_ZN3lyx3GIT11copyEnabledEv
lyx:_ZN3lyx3GIT11scanLogFileERKNS_7support8FileNameERNSt7__cxx1112basic_stringIcSt11char_traitsIcESaIcEEE
lyx:_ZN3lyx3GIT12revisionInfoB5cxx11ENS_5LyXVC12RevisionInfoE
lyx:_ZN3lyx3GIT13lockingToggleB5cxx11Ev
lyx:_ZN3lyx3GIT13renameEnabledEv
lyx:_ZN3lyx3GIT14checkInEnabledEv
lyx:_ZN3lyx3GIT15checkOutEnabledEv
lyx:_ZN3lyx3GIT15undoLastEnabledEv
lyx:_ZN3lyx3GIT17repoUpdateEnabledEv
lyx:_ZN3lyx3GIT19getFileRevisionInfoEv
lyx:_ZN3lyx3GIT19getTreeRevisionInfoEv
lyx:_ZN3lyx3GIT19prepareFileRevisionERKNSt7__cxx1112basic_stringIcSt11char_traitsIcESaIcEEERS6_
lyx:_ZN3lyx3GIT20lockingToggleEnabledEv
lyx:_ZN3lyx3GIT21toggleReadOnlyEnabledEv
lyx:_ZN3lyx3GIT24isRevertWithConfirmationEv
lyx:_ZN3lyx3GIT25isCheckInWithConfirmationEv
lyx:_ZN3lyx3GIT26prepareFileRevisionEnabledEv
lyx:_ZN3lyx3GIT4copyERKNS_7support8FileNameERKNSt7__cxx1112basic_stringIcSt11char_traitsIcESaIcEEE
lyx:_ZN3lyx3GIT6getLogERKNS_7support8FileNameE
lyx:_ZN3lyx3GIT6renameERKNS_7support8FileNameERKNSt7__cxx1112basic_stringIcSt11char_traitsIcESaIcEEE
lyx:_ZN3lyx3GIT6revertEv
lyx:_ZN3lyx3GIT7checkInERKNSt7__cxx1112basic_stringIcSt11char_traitsIcESaIcEEERS6_
lyx:_ZN3lyx3GIT7checkInERKSt6vectorINS_7support8FileNameESaIS3_EERKNSt7__cxx1112basic_stringIcSt11char_traitsIcESaIcEEERSD_
lyx:_ZN3lyx3GIT8checkOutB5cxx11Ev
lyx:_ZN3lyx3GIT8findFileERKNS_7support8FileNameE
lyx:_ZN3lyx3GIT8retrieveERKNS_7support8FileNameE
lyx:_ZN3lyx3GIT8undoLastEv
lyx:_ZN3lyx3GIT9registrerERKNSt7__cxx1112basic_stringIcSt11char_traitsIcESaIcEEE
lyx:_ZN3lyx3GITC1EPNS_6BufferE
lyx:_ZN3lyx3GITC2EPNS_6BufferE
lyx:_ZN3lyx3LyX10printErrorERKNS_9ErrorItemE
lyx:_ZN3lyx3LyX10readRcFileERKNSt7__cxx1112basic_stringIcSt11char_traitsIcESaIcEEEb
lyx:_ZN3lyx3LyX11prepareExitEv
lyx:_ZN3lyx3LyX12execCommandsEv
lyx:_ZN3lyx3LyX14execWithoutGuiERiPPc
lyx:_ZN3lyx3LyX15queryUserLyXDirEb
lyx:_ZN3lyx3LyX17readEncodingsFileERKNSt7__cxx1112basic_stringIcSt11char_traitsIcESaIcEEES8_
lyx:_ZN3lyx3LyX17readLanguagesFileERKNSt7__cxx1112basic_stringIcSt11char_traitsIcESaIcEEE
lyx:_ZN3lyx3LyX4execERiPPc
lyx:_ZN3lyx3LyX4initERiPPc
lyx:_ZN3lyx3LyX4initEv
lyx:_ZN3lyx3LyX8messagesERKNSt7__cxx1112basic_stringIcSt11char_traitsIcESaIcEEE
lyx:_ZN3lyx3LyX9earlyExitEi
lyx:_ZN3lyx3LyX9easyParseERiPPc
lyx:_ZN3lyx3LyXC1Ev
lyx:_ZN3lyx3LyXC2Ev
lyx:_ZN3lyx3LyXD1Ev
lyx:_ZN3lyx3LyXD2Ev
lyx:_ZN3lyx3RCS10repoUpdateB5cxx11Ev
lyx:_ZN3lyx3RCS10scanMasterEv
lyx:_ZN3lyx3RCS11copyEnabledEv
lyx:_ZN3lyx3RCS12revisionInfoB5cxx11ENS_5LyXVC12RevisionInfoE
lyx:_ZN3lyx3RCS13lockingToggleB5cxx11Ev
lyx:_ZN3lyx3RCS13renameEnabledEv
lyx:_ZN3lyx3RCS14checkInEnabledEv
lyx:_ZN3lyx3RCS15checkOutEnabledEv
lyx:_ZN3lyx3RCS15getRevisionInfoEv
lyx:_ZN3lyx3RCS15undoLastEnabledEv
lyx:_ZN3lyx3RCS17repoUpdateEnabledEv
lyx:_ZN3lyx3RCS19prepareFileRevisionERKNSt7__cxx1112basic_stringIcSt11char_traitsIcESaIcEEERS6_
lyx:_ZN3lyx3RCS20lockingToggleEnabledEv
lyx:_ZN3lyx3RCS21toggleReadOnlyEnabledEv
lyx:_ZN3lyx3RCS24isRevertWithConfirmationEv
lyx:_ZN3lyx3RCS25isCheckInWithConfirmationEv
lyx:_ZN3lyx3RCS26prepareFileRevisionEnabledEv
lyx:_ZN3lyx3RCS4copyERKNS_7support8FileNameERKNSt7__cxx1112basic_stringIcSt11char_traitsIcESaIcEEE
lyx:_ZN3lyx3RCS6getLogERKNS_7support8FileNameE
lyx:_ZN3lyx3RCS6renameERKNS_7support8FileNameERKNSt7__cxx1112basic_stringIcSt11char_traitsIcESaIcEEE
lyx:_ZN3lyx3RCS6revertEv
lyx:_ZN3lyx3RCS7checkInERKNSt7__cxx1112basic_stringIcSt11char_traitsIcESaIcEEERS6_
lyx:_ZN3lyx3RCS8checkOutB5cxx11Ev
lyx:_ZN3lyx3RCS8findFileERKNS_7support8FileNameE
lyx:_ZN3lyx3RCS8retrieveERKNS_7support8FileNameE
lyx:_ZN3lyx3RCS8undoLastEv
lyx:_ZN3lyx3RCS9registrerERKNSt7__cxx1112basic_stringIcSt11char_traitsIcESaIcEEE
lyx:_ZN3lyx3RCSC1ERKNS_7support8FileNameEPNS_6BufferE
lyx:_ZN3lyx3RCSC2ERKNS_7support8FileNameEPNS_6BufferE
lyx:_ZN3lyx3Row10addVirtualElRKNSt7__cxx1112basic_stringIwSt11char_traitsIwESaIwEEERKNS_4FontERKNS_6ChangeE
lyx:_ZN3lyx3Row10reverseRTLEv
lyx:_ZN3lyx3Row12finalizeLastEv
lyx:_ZN3lyx3Row13setExtraWidthEi
lyx:_ZN3lyx3Row14addMarginSpaceEliRKNS_4FontERKNS_6ChangeE
lyx:_ZN3lyx3Row15shortenIfNeededEii
lyx:_ZN3lyx3Row3addElPKNS_5InsetERKNS_9DimensionERKNS_4FontERKNS_6ChangeE
lyx:_ZN3lyx3Row3addElwRKNS_4FontERKNS_6ChangeE
lyx:_ZN3lyx3Row7Element5rtrimEv
lyx:_ZN3lyx3Row7Element7splitAtEiiNS0_9SplitTypeERSt6vectorIS1_SaIS1_EE
lyx:_ZN3lyx3Row7Element8setExtraEd
lyx:_ZN3lyx3Row8addSpaceEliRKNS_4FontERKNS_6ChangeE
lyx:_ZN3lyx3Row8pop_backEv
lyx:_ZN3lyx3Row9push_backERKNS0_7ElementE
lyx:_ZN3lyx3SVN10repoUpdateB5cxx11Ev
lyx:_ZN3lyx3SVN10scanMasterEv
lyx:_ZN3lyx3SVN11copyEnabledEv
lyx:_ZN3lyx3SVN11scanLogFileERKNS_7support8FileNameERNSt7__cxx1112basic_stringIcSt11char_traitsIcESaIcEEE
lyx:_ZN3lyx3SVN12revisionInfoB5cxx11ENS_5LyXVC12RevisionInfoE
lyx:_ZN3lyx3SVN13checkLockModeEv
lyx:_ZN3lyx3SVN13lockingToggleB5cxx11Ev
lyx:_ZN3lyx3SVN13renameEnabledEv
lyx:_ZN3lyx3SVN14checkInEnabledEv
lyx:_ZN3lyx3SVN15checkOutEnabledEv
lyx:_ZN3lyx3SVN15undoLastEnabledEv
lyx:_ZN3lyx3SVN17repoUpdateEnabledEv
lyx:_ZN3lyx3SVN19getFileRevisionInfoEv
lyx:_ZN3lyx3SVN19getTreeRevisionInfoEv
lyx:_ZN3lyx3SVN19prepareFileRevisionERKNSt7__cxx1112basic_stringIcSt11char_traitsIcESaIcEEERS6_
lyx:_ZN3lyx3SVN20lockingToggleEnabledEv
lyx:_ZN3lyx3SVN21toggleReadOnlyEnabledEv
lyx:_ZN3lyx3SVN24isRevertWithConfirmationEv
lyx:_ZN3lyx3SVN25isCheckInWithConfirmationEv
lyx:_ZN3lyx3SVN26prepareFileRevisionEnabledEv
lyx:_ZN3lyx3SVN4copyERKNS_7support8FileNameERKNSt7__cxx1112basic_stringIcSt11char_traitsIcESaIcEEE
lyx:_ZN3lyx3SVN6getLogERKNS_7support8FileNameE
lyx:_ZN3lyx3SVN6renameERKNS_7support8FileNameERKNSt7__cxx1112basic_stringIcSt11char_traitsIcESaIcEEE
lyx:_ZN3lyx3SVN6revertEv
lyx:_ZN3lyx3SVN7checkInERKNSt7__cxx1112basic_stringIcSt11char_traitsIcESaIcEEERS6_
lyx:_ZN3lyx3SVN7checkInERKSt6vectorINS_7support8FileNameESaIS3_EERKNSt7__cxx1112basic_stringIcSt11char_traitsIcESaIcEEERSD_
lyx:_ZN3lyx3SVN8checkOutB5cxx11Ev
lyx:_ZN3lyx3SVN8fileLockEbRKNS_7support8FileNameERNSt7__cxx1112basic_stringIcSt11char_traitsIcESaIcEEE
lyx:_ZN3lyx3SVN8findFileERKNS_7support8FileNameE
lyx:_ZN3lyx3SVN8retrieveERKNS_7support8FileNameE
lyx:_ZN3lyx3SVN8undoLastEv
lyx:_ZN3lyx3SVN9registrerERKNSt7__cxx1112basic_stringIcSt11char_traitsIcESaIcEEE
lyx:_ZN3lyx3SVNC1EPNS_6BufferE
lyx:_ZN3lyx3SVNC2EPNS_6BufferE
lyx:_ZN3lyx3VCS11doVCCommandERKNSt7__cxx1112basic_stringIcSt11char_traitsIcESaIcEEERKNS_7support8FileNameEb
lyx:_ZN3lyx3VCS15checkParentDirsERKNS_7support8FileNameERKNSt7__cxx1112basic_stringIcSt11char_traitsIcESaIcEEE
lyx:_ZN3lyx3VCS15doVCCommandCallERKNSt7__cxx1112basic_stringIcSt11char_traitsIcESaIcEEERKNS_7support8FileNameE
lyx:_ZN3lyx3cap12cutSelectionERNS_6CursorEb
lyx:_ZN3lyx3cap13clearCutStackEv
lyx:_ZN3lyx3cap13copySelectionERKNS_6CursorE
lyx:_ZN3lyx3cap13copySelectionERKNS_6CursorERKNSt7__cxx1112basic_stringIwSt11char_traitsIwESaIwEEE
lyx:_ZN3lyx3cap13grabSelectionB5cxx11ERKNS_10CursorDataE
lyx:_ZN3lyx3cap13pasteFromTempERNS_6CursorERNS_9ErrorListE
lyx:_ZN3lyx3cap13saveSelectionERKNS_6CursorE
lyx:_ZN3lyx3cap13selClearOrDelERNS_6CursorE
lyx:_ZN3lyx3cap14clearSelectionEv
lyx:_ZN3lyx3cap14eraseSelectionERNS_6CursorE
lyx:_ZN3lyx3cap14pasteFromStackERNS_6CursorERNS_9ErrorListEm
lyx:_ZN3lyx3cap14pasteSelectionERNS_6CursorERNS_9ErrorListE
lyx:_ZN3lyx3cap15copyInsetToTempERKNS_6CursorEPNS_5InsetE
lyx:_ZN3lyx3cap15pasteSimpleTextERNS_6CursorEb
lyx:_ZN3lyx3cap16replaceSelectionERNS_6CursorE
lyx:_ZN3lyx3cap17dirtyTabularStackEb
lyx:_ZN3lyx3cap17tabularStackDirtyEv
lyx:_ZN3lyx3cap18cutSelectionToTempERNS_6CursorEb
lyx:_ZN3lyx3cap18numberOfSelectionsEv
lyx:_ZN3lyx3cap18pasteClipboardTextERNS_6CursorERNS_9ErrorListEbNS_8frontend9Clipboard8TextTypeE
lyx:_ZN3lyx3cap18pasteParagraphListERNS_6CursorERKNS_13ParagraphListESt10shared_ptrIKNS_13DocumentClassEERKNS_10AuthorListERNS_9ErrorListENS0_12BranchActionE
lyx:_ZN3lyx3cap19availableSelectionsB5cxx11EPKNS_6BufferE
lyx:_ZN3lyx3cap19copySelectionToTempERKNS_6CursorE
lyx:_ZN3lyx3cap20copySelectionToStackEv
lyx:_ZN3lyx3cap20switchBetweenClassesESt10shared_ptrIKNS_13DocumentClassEES4_RNS_9InsetTextE
lyx:_ZN3lyx3cap20switchBetweenClassesESt10shared_ptrIKNS_13DocumentClassEES4_RNS_9InsetTextERNS_9ErrorListE
lyx:_ZN3lyx3cap21grabAndEraseSelectionB5cxx11ERNS_6CursorE
lyx:_ZN3lyx3cap21multipleCellsSelectedERKNS_10CursorDataE
lyx:_ZN3lyx3cap22pasteClipboardGraphicsERNS_6CursorERNS_9ErrorListENS_8frontend9Clipboard12GraphicsTypeE
lyx:_ZN3lyx3cap24reduceSelectionToOneCellERNS_10CursorDataE
lyx:_ZN3lyx3cap26replaceSelectionWithStringERNS_6CursorERKNSt7__cxx1112basic_stringIwSt11char_traitsIwESaIwEEE
lyx:_ZN3lyx3cap6regionERKNS_11CursorSliceES3_RmS4_S4_S4_
lyx:_ZN3lyx3cap6selDelERNS_6CursorE
lyx:_ZN3lyx3cap9copyInsetERKNS_6CursorEPNS_5InsetERKNSt7__cxx1112basic_stringIwSt11char_traitsIwESaIwEEE
lyx:_ZN3lyx3cap9selectionB5cxx11EmSt4pairISt10shared_ptrIKNS_13DocumentClassEENS_10AuthorListEEb
lyx:_ZN3lyx3cap9selectionEv
lyx:_ZN3lyx3endERNS_5InsetE
lyx:_ZN3lyx3qt_EPKcS1_
lyx:_ZN3lyx3qt_ERK7QString
lyx:_ZN3lyx3qt_ERKNSt7__cxx1112basic_stringIcSt11char_traitsIcESaIcEEE
lyx:_ZN3lyx3xml10escapeCharB5cxx11EcNS_9XMLStream14EscapeSettingsE
lyx:_ZN3lyx3xml10escapeCharB5cxx11EwNS_9XMLStream14EscapeSettingsE
lyx:_ZN3lyx3xml12escapeStringERKNSt7__cxx1112basic_stringIwSt11char_traitsIwESaIwEEENS_9XMLStream14EscapeSettingsE
lyx:_ZN3lyx3xml14isNotOnlySpaceERKNSt7__cxx1112basic_stringIwSt11char_traitsIwESaIwEEE
lyx:_ZN3lyx3xml7cleanIDERKNSt7__cxx1112basic_stringIwSt11char_traitsIwESaIwEEE
lyx:_ZN3lyx3xml7compTagERNS_9XMLStreamERKNSt7__cxx1112basic_stringIcSt11char_traitsIcESaIcEEERKNS4_IwS5_IwESaIwEEESA_
lyx:_ZN3lyx3xml7compTagERNS_9XMLStreamERKNSt7__cxx1112basic_stringIcSt11char_traitsIcESaIcEEESA_SA_
lyx:_ZN3lyx3xml7compTagERNS_9XMLStreamERKNSt7__cxx1112basic_stringIwSt11char_traitsIwESaIwEEERKNS4_IcS5_IcESaIcEEESF_
lyx:_ZN3lyx3xml7compTagERNS_9XMLStreamERKNSt7__cxx1112basic_stringIwSt11char_traitsIwESaIwEEESA_RKNS4_IcS5_IcESaIcEEE
lyx:_ZN3lyx3xml7openTagERKNS_6BufferERSt13basic_ostreamIwSt11char_traitsIwEERKNS_12OutputParamsERKNS_9ParagraphE
lyx:_ZN3lyx3xml7openTagERNS_9XMLStreamERKNSt7__cxx1112basic_stringIcSt11char_traitsIcESaIcEEERKNS4_IwS5_IwESaIwEEESA_
lyx:_ZN3lyx3xml7openTagERNS_9XMLStreamERKNSt7__cxx1112basic_stringIcSt11char_traitsIcESaIcEEESA_SA_
lyx:_ZN3lyx3xml7openTagERNS_9XMLStreamERKNSt7__cxx1112basic_stringIwSt11char_traitsIwESaIwEEERKNS4_IcS5_IcESaIcEEESF_
lyx:_ZN3lyx3xml7openTagERNS_9XMLStreamERKNSt7__cxx1112basic_stringIwSt11char_traitsIwESaIwEEESA_RKNS4_IcS5_IcESaIcEEE
lyx:_ZN3lyx3xml7openTagERSt13basic_ostreamIwSt11char_traitsIwEERKNSt7__cxx1112basic_stringIcS2_IcESaIcEEESC_
lyx:_ZN3lyx3xml8closeTagERNS_9XMLStreamERKNSt7__cxx1112basic_stringIcSt11char_traitsIcESaIcEEESA_
lyx:_ZN3lyx3xml8closeTagERNS_9XMLStreamERKNSt7__cxx1112basic_stringIwSt11char_traitsIwESaIwEEERKNS4_IcS5_IcESaIcEEE
lyx:_ZN3lyx3xml8closeTagERSt13basic_ostreamIwSt11char_traitsIwEERKNS_9ParagraphE
lyx:_ZN3lyx3xml8closeTagERSt13basic_ostreamIwSt11char_traitsIwEERKNSt7__cxx1112basic_stringIcS2_IcESaIcEEE
lyx:_ZN3lyx3xml8trimLeftERKNSt7__cxx1112basic_stringIwSt11char_traitsIwESaIwEEE
lyx:_ZN3lyx3xml8uniqueIDERKNSt7__cxx1112basic_stringIwSt11char_traitsIwESaIwEEE
lyx:_ZN3lyx3xml9cleanAttrERKNSt7__cxx1112basic_stringIwSt11char_traitsIwESaIwEEE
lyx:_ZN3lyx4Font10fromStringERKNSt7__cxx1112basic_stringIcSt11char_traitsIcESaIcEEERb
lyx:_ZN3lyx4Font11setLanguageEPKNS_8LanguageE
lyx:_ZN3lyx4Font6updateERKS0_PKNS_8LanguageEb
lyx:_ZN3lyx4FontC1ENS_8FontInfoEPKNS_8LanguageE
lyx:_ZN3lyx4FontC2ENS_8FontInfoEPKNS_8LanguageE
lyx:_ZN3lyx4Intl10keyMapPrimEv
lyx:_ZN3lyx4Intl12toggleKeyMapEv
lyx:_ZN3lyx4Intl13initKeyMapperEb
lyx:_ZN3lyx4Intl8keyMapOnEb
lyx:_ZN3lyx4Intl9keyMapSecEv
lyx:_ZN3lyx4IntlC1Ev
lyx:_ZN3lyx4IntlC2Ev
lyx:_ZN3lyx4Text10changeCaseERNS_6CursorENS_8TextCaseEb
lyx:_ZN3lyx4Text10insertCharERNS_6CursorEw
lyx:_ZN3lyx4Text10selectWordERNS_6CursorENS_13word_locationE
lyx:_ZN3lyx4Text10splitInsetERNS_6CursorE
lyx:_ZN3lyx4Text10toggleFreeERNS_6CursorERKNS_4FontEb
lyx:_ZN3lyx4Text11changeDepthERNS_6CursorENS0_12DEPTH_CHANGEE
lyx:_ZN3lyx4Text11insertInsetERNS_6CursorEPNS_5InsetE
lyx:_ZN3lyx4Text11pasteStringERNS_6CursorERKNSt7__cxx1112basic_stringIwSt11char_traitsIwESaIwEEEb
lyx:_ZN3lyx4Text11setCharFontEllRKNS_4FontES3_
lyx:_ZN3lyx4Text12charInsertedERNS_6CursorE
lyx:_ZN3lyx4Text12cursorBottomERNS_6CursorE
lyx:_ZN3lyx4Text12readParTokenERNS_9ParagraphERNS_5LexerERKNSt7__cxx1112basic_stringIcSt11char_traitsIcESaIcEEERNS_4FontERNS_6ChangeERNS_9ErrorListE
lyx:_ZN3lyx4Text12setInsetFontERKNS_10BufferViewEllRKNS_4FontE
lyx:_ZN3lyx4Text13acceptChangesEv
lyx:_ZN3lyx4Text13backspacePos0ERNS_6CursorE
lyx:_ZN3lyx4Text13cursorForwardERNS_6CursorE
lyx:_ZN3lyx4Text13cursorVisLeftERNS_6CursorEb
lyx:_ZN3lyx4Text13dissolveInsetERNS_6CursorE
lyx:_ZN3lyx4Text13expandWordSelERNS_6CursorE
lyx:_ZN3lyx4Text13readParagraphERNS_9ParagraphERNS_5LexerERNS_9ErrorListE
lyx:_ZN3lyx4Text13rejectChangesEv
lyx:_ZN3lyx4Text13setParagraphsERKNS_6CursorERKNS_19ParagraphParametersE
lyx:_ZN3lyx4Text13setParagraphsERKNS_6CursorERKNSt7__cxx1112basic_stringIwSt11char_traitsIwESaIwEEEb
lyx:_ZN3lyx4Text14breakParagraphERNS_6CursorEb
lyx:_ZN3lyx4Text14charsTransposeERNS_6CursorE
lyx:_ZN3lyx4Text14cursorBackwardERNS_6CursorE
lyx:_ZN3lyx4Text14cursorVisRightERNS_6CursorEb
lyx:_ZN3lyx4Text14handleBibitemsERNS_6CursorE
lyx:_ZN3lyx4Text15setCursorInternERNS_6CursorEllbb
lyx:_ZN3lyx4Text16insertCompletionERNS_6CursorERKNSt7__cxx1112basic_stringIwSt11char_traitsIwESaIwEEE
lyx:_ZN3lyx4Text17cursorUpParagraphERNS_6CursorE
lyx:_ZN3lyx4Text17deleteWordForwardERNS_6CursorEb
lyx:_ZN3lyx4Text18deleteWordBackwardERNS_6CursorEb
lyx:_ZN3lyx4Text18getStringForDialogB5cxx11ERNS_6CursorE
lyx:_ZN3lyx4Text18shortenForOutlinerERNSt7__cxx1112basic_stringIwSt11char_traitsIwESaIwEEEm
lyx:_ZN3lyx4Text19cursorDownParagraphERNS_6CursorE
lyx:_ZN3lyx4Text19insertStringAsLinesERNS_6CursorERKNSt7__cxx1112basic_stringIwSt11char_traitsIwESaIwEEERKNS_4FontE
lyx:_ZN3lyx4Text20cursorForwardOneWordERNS_6CursorE
lyx:_ZN3lyx4Text20cursorVisLeftOneWordERNS_6CursorE
lyx:_ZN3lyx4Text21acceptOrRejectChangesERNS_6CursorENS0_8ChangeOpE
lyx:_ZN3lyx4Text21checkAndActivateInsetERNS_6CursorEb
lyx:_ZN3lyx4Text21cursorBackwardOneWordERNS_6CursorE
lyx:_ZN3lyx4Text21cursorVisRightOneWordERNS_6CursorE
lyx:_ZN3lyx4Text23setMacrocontextPositionERKNS_11DocIteratorE
lyx:_ZN3lyx4Text24insertStringAsParagraphsERNS_6CursorERKNSt7__cxx1112basic_stringIwSt11char_traitsIwESaIwEEERKNS_4FontE
lyx:_ZN3lyx4Text25selectWordWhenUnderCursorERNS_6CursorENS_13word_locationE
lyx:_ZN3lyx4Text27checkAndActivateInsetVisualERNS_6CursorEbb
lyx:_ZN3lyx4Text29deleteEmptyParagraphMechanismERNS_6CursorES2_Rb
lyx:_ZN3lyx4Text29deleteEmptyParagraphMechanismEllb
lyx:_ZN3lyx4Text29deleteEmptyParagraphMechanismEllllb
lyx:_ZN3lyx4Text29setLabelWidthStringToSequenceERKNS_6CursorERKNSt7__cxx1112basic_stringIwSt11char_traitsIwESaIwEEE
lyx:_ZN3lyx4Text4readERNS_5LexerERNS_9ErrorListEPNS_9InsetTextE
lyx:_ZN3lyx4Text5eraseERNS_6CursorE
lyx:_ZN3lyx4Text6numberERNS_6CursorE
lyx:_ZN3lyx4Text7setFontERKNS_10BufferViewERKNS_11CursorSliceES6_RKNS_4FontE
lyx:_ZN3lyx4Text7setFontERNS_6CursorERKNS_4FontEb
lyx:_ZN3lyx4Text8dispatchERNS_6CursorERNS_11FuncRequestE
lyx:_ZN3lyx4Text9backspaceERNS_6CursorE
lyx:_ZN3lyx4Text9cursorTopERNS_6CursorE
lyx:_ZN3lyx4Text9selectAllERNS_6CursorE
lyx:_ZN3lyx4Text9setCursorERNS_6CursorEllbb
lyx:_ZN3lyx4Text9setLayoutERNS_6CursorERKNSt7__cxx1112basic_stringIwSt11char_traitsIwESaIwEEE
lyx:_ZN3lyx4Text9setLayoutEllRKNSt7__cxx1112basic_stringIwSt11char_traitsIwESaIwEEE
lyx:_ZN3lyx4TextC1EPNS_9InsetTextERKS0_
lyx:_ZN3lyx4TextC1EPNS_9InsetTextEb
lyx:_ZN3lyx4TextC2EPNS_9InsetTextERKS0_
lyx:_ZN3lyx4TextC2EPNS_9InsetTextEb
lyx:_ZN3lyx4Undo10finishUndoEv
lyx:_ZN3lyx4Undo10recordUndoERKNS_10CursorDataENS_8UndoKindE
lyx:_ZN3lyx4Undo10recordUndoERKNS_10CursorDataEll
lyx:_ZN3lyx4Undo10redoActionERNS_10CursorDataE
lyx:_ZN3lyx4Undo10undoActionERNS_10CursorDataE
lyx:_ZN3lyx4Undo12endUndoGroupERKNS_10CursorDataE
lyx:_ZN3lyx4Undo12endUndoGroupEv
lyx:_ZN3lyx4Undo14beginUndoGroupERKNS_10CursorDataE
lyx:_ZN3lyx4Undo14beginUndoGroupEv
lyx:_ZN3lyx4Undo14splitUndoGroupERKNS_10CursorDataE
lyx:_ZN3lyx4Undo15recordUndoInsetERKNS_10CursorDataEPKNS_5InsetE
lyx:_ZN3lyx4Undo20recordUndoFullBufferERKNS_10CursorDataE
lyx:_ZN3lyx4Undo22recordUndoBufferParamsERKNS_10CursorDataE
lyx:_ZN3lyx4Undo5clearEv
lyx:_ZN3lyx4Undo7Private10recordUndoENS_8UndoKindERKNS_11DocIteratorEllRKNS_10CursorDataE
lyx:_ZN3lyx4Undo7Private12doRecordUndoENS_8UndoKindERKNS_11DocIteratorEllRKNS_10CursorDataERNS_16UndoElementStackE
lyx:_ZN3lyx4Undo7Private14undoRedoActionERNS_10CursorDataEb
lyx:_ZN3lyx4Undo7Private16doUndoRedoActionERNS_10CursorDataERNS_16UndoElementStackES5_
lyx:_ZN3lyx4Undo7Private22recordUndoBufferParamsERKNS_10CursorDataE
lyx:_ZN3lyx4Undo7Private24doRecordUndoBufferParamsERKNS_10CursorDataERNS_16UndoElementStackE
lyx:_ZN3lyx4Undo9markDirtyEv
lyx:_ZN3lyx4UndoC1ERNS_6BufferE
lyx:_ZN3lyx4UndoC2ERNS_6BufferE
lyx:_ZN3lyx4UndoD1Ev
lyx:_ZN3lyx4UndoD2Ev
lyx:_ZN3lyx5ColorC1ENS_9ColorCodeE
lyx:_ZN3lyx5ColorC2ENS_9ColorCodeE
lyx:_ZN3lyx5Debug10levelCountEv
lyx:_ZN3lyx5Debug11descriptionB5cxx11ENS0_4TypeE
lyx:_ZN3lyx5Debug4nameB5cxx11ENS0_4TypeE
lyx:_ZN3lyx5Debug5valueERKNSt7__cxx1112basic_stringIcSt11char_traitsIcESaIcEEE
lyx:_ZN3lyx5Debug5valueEi
lyx:_ZN3lyx5Debug8badValueERKNSt7__cxx1112basic_stringIcSt11char_traitsIcESaIcEEE
lyx:_ZN3lyx5Debug8realNameB5cxx11Ei
lyx:_ZN3lyx5Debug8showTagsERSo
lyx:_ZN3lyx5Debug9showLevelERSoNS0_4TypeE
lyx:_ZN3lyx5Graph11isReachableEii
lyx:_ZN3lyx5Graph12getReachableEibbSt3setIiSt4lessIiESaIiEE
lyx:_ZN3lyx5Graph14getReachableToEib
lyx:_ZN3lyx5Graph4initEi
lyx:_ZN3lyx5Graph7addEdgeEii
lyx:_ZN3lyx5Graph7getPathEii
lyx:_ZN3lyx5Graph8bfs_initEibRSt5queueIiSt5dequeIiSaIiEEE
lyx:_ZN3lyx5Index11setShortcutERKNSt7__cxx1112basic_stringIwSt11char_traitsIwESaIwEEE
lyx:_ZN3lyx5Index8setColorERKNS_8RGBColorE
lyx:_ZN3lyx5Index8setColorERKNSt7__cxx1112basic_stringIcSt11char_traitsIcESaIcEEE
lyx:_ZN3lyx5Index8setIndexERKNSt7__cxx1112basic_stringIwSt11char_traitsIwESaIwEEE
lyx:_ZN3lyx5IndexC1Ev
lyx:_ZN3lyx5IndexC2Ev
lyx:_ZN3lyx5Inset10doDispatchERNS_6CursorERNS_11FuncRequestE
lyx:_ZN3lyx5Inset11resetBufferEv
lyx:_ZN3lyx5Inset4editERNS_6CursorEbNS0_14EntryDirectionE
lyx:_ZN3lyx5Inset6bufferEv
lyx:_ZN3lyx5Inset6editXYERNS_6CursorEii
lyx:_ZN3lyx5Inset8dispatchERNS_6CursorERNS_11FuncRequestE
lyx:_ZN3lyx5Inset9setBufferERNS_6BufferE
lyx:_ZN3lyx5LaTeX11scanAuxFileERKNS_7support8FileNameE
lyx:_ZN3lyx5LaTeX11scanAuxFileERKNS_7support8FileNameERNS_7AuxInfoE
lyx:_ZN3lyx5LaTeX11scanBlgFileERNS_8DepTableERNS_9TeXErrorsE
lyx:_ZN3lyx5LaTeX11scanIlgFileERNS_9TeXErrorsE
lyx:_ZN3lyx5LaTeX11scanLogFileERNS_9TeXErrorsE
lyx:_ZN3lyx5LaTeX11startscriptEv
lyx:_ZN3lyx5LaTeX12runMakeIndexERKNSt7__cxx1112basic_stringIcSt11char_traitsIcESaIcEEERKNS_12OutputParamsES8_
lyx:_ZN3lyx5LaTeX12scanAuxFilesERKNS_7support8FileNameEb
lyx:_ZN3lyx5LaTeX19runMakeIndexNomenclERKNS_7support8FileNameERKNSt7__cxx1112basic_stringIcSt11char_traitsIcESaIcEEESC_
lyx:_ZN3lyx5LaTeX24updateBibtexDependenciesERNS_8DepTableERKSt6vectorINS_7AuxInfoESaIS4_EE
lyx:_ZN3lyx5LaTeX3runERNS_9TeXErrorsE
lyx:_ZN3lyx5LaTeX6deplogERNS_8DepTableE
lyx:_ZN3lyx5LaTeX9runBibTeXERKSt6vectorINS_7AuxInfoESaIS2_EERKNS_12OutputParamsERi
lyx:_ZN3lyx5LaTeXC1ERKNSt7__cxx1112basic_stringIcSt11char_traitsIcESaIcEEERKNS_12OutputParamsERKNS_7support8FileNameES8_S8_bb
lyx:_ZN3lyx5LaTeXC2ERKNSt7__cxx1112basic_stringIcSt11char_traitsIcESaIcEEERKNS_12OutputParamsERKNS_7support8FileNameES8_S8_bb
lyx:_ZN3lyx5Lexer10printTableERSo
lyx:_ZN3lyx5Lexer10setContextERKNSt7__cxx1112basic_stringIcSt11char_traitsIcESaIcEEE
lyx:_ZN3lyx5Lexer11quoteStringERKNSt7__cxx1112basic_stringIcSt11char_traitsIcESaIcEEE
lyx:_ZN3lyx5Lexer11quoteStringERKNSt7__cxx1112basic_stringIwSt11char_traitsIwESaIwEEE
lyx:_ZN3lyx5Lexer13getLongStringERKNSt7__cxx1112basic_stringIwSt11char_traitsIwESaIwEEE
lyx:_ZN3lyx5Lexer13setLineNumberEi
lyx:_ZN3lyx5Lexer14setCommentCharEc
lyx:_ZN3lyx5Lexer3lexEv
lyx:_ZN3lyx5Lexer4initEPNS_12LexerKeywordEi
lyx:_ZN3lyx5Lexer4nextEb
lyx:_ZN3lyx5Lexer5Pimpl10printTableERSo
lyx:_ZN3lyx5Lexer5Pimpl11verifyTableEv
lyx:_ZN3lyx5Lexer5Pimpl14inputAvailableEv
lyx:_ZN3lyx5Lexer5Pimpl14setCommentCharEc
lyx:_ZN3lyx5Lexer5Pimpl3lexEv
lyx:_ZN3lyx5Lexer5Pimpl4nextEb
lyx:_ZN3lyx5Lexer5Pimpl7eatLineEv
lyx:_ZN3lyx5Lexer5Pimpl7setFileERKNS_7support8FileNameE
lyx:_ZN3lyx5Lexer5Pimpl8popTableEv
lyx:_ZN3lyx5Lexer5Pimpl9nextTokenEv
lyx:_ZN3lyx5Lexer5Pimpl9pushTableEPNS_12LexerKeywordEi
lyx:_ZN3lyx5Lexer5Pimpl9pushTokenERKNSt7__cxx1112basic_stringIcSt11char_traitsIcESaIcEEE
lyx:_ZN3lyx5Lexer5Pimpl9setStreamERSi
lyx:_ZN3lyx5Lexer5PimplC1EPNS_12LexerKeywordEi
lyx:_ZN3lyx5Lexer5PimplC2EPNS_12LexerKeywordEi
lyx:_ZN3lyx5Lexer7eatLineEv
lyx:_ZN3lyx5Lexer7setFileERKNS_7support8FileNameE
lyx:_ZN3lyx5Lexer8checkForEPKc
lyx:_ZN3lyx5Lexer8popTableEv
lyx:_ZN3lyx5Lexer9getStreamEv
lyx:_ZN3lyx5Lexer9nextTokenEv
lyx:_ZN3lyx5Lexer9pushTableEPNS_12LexerKeywordEi
lyx:_ZN3lyx5Lexer9pushTokenERKNSt7__cxx1112basic_stringIcSt11char_traitsIcESaIcEEE
lyx:_ZN3lyx5Lexer9setStreamERSi
lyx:_ZN3lyx5LexerC1Ev
lyx:_ZN3lyx5LexerC2Ev
lyx:_ZN3lyx5LexerD1Ev
lyx:_ZN3lyx5LexerD2Ev
lyx:_ZN3lyx5LexerrsEPKc
lyx:_ZN3lyx5LexerrsERNSt7__cxx1112basic_stringIcSt11char_traitsIcESaIcEEE
lyx:_ZN3lyx5LexerrsERNSt7__cxx1112basic_stringIwSt11char_traitsIwESaIwEEE
lyx:_ZN3lyx5LexerrsERb
lyx:_ZN3lyx5LexerrsERc
lyx:_ZN3lyx5LexerrsERd
lyx:_ZN3lyx5LexerrsERi
lyx:_ZN3lyx5LexerrsERj
lyx:_ZN3lyx5LyXRC4readERKNS_7support8FileNameEb
lyx:_ZN3lyx5LyXRC4readERNS_5LexerEb
lyx:_ZN3lyx5LyXRC4readERSi
lyx:_ZN3lyx5LyXRC6getRCsB5cxx11Ev
lyx:_ZN3lyx5LyXVC10repoUpdateB5cxx11Ev
lyx:_ZN3lyx5LyXVC13lockingToggleB5cxx11Ev
lyx:_ZN3lyx5LyXVC14toggleReadOnlyB5cxx11Ev
lyx:_ZN3lyx5LyXVC15file_found_hookERKNS_7support8FileNameE
lyx:_ZN3lyx5LyXVC19file_not_found_hookERKNS_7support8FileNameE
lyx:_ZN3lyx5LyXVC19prepareFileRevisionERKNSt7__cxx1112basic_stringIcSt11char_traitsIcESaIcEEERS6_
lyx:_ZN3lyx5LyXVC26prepareFileRevisionEnabledEv
lyx:_ZN3lyx5LyXVC4copyB5cxx11ERKNS_7support8FileNameE
lyx:_ZN3lyx5LyXVC6renameB5cxx11ERKNS_7support8FileNameE
lyx:_ZN3lyx5LyXVC6revertEv
lyx:_ZN3lyx5LyXVC7checkInERNSt7__cxx1112basic_stringIcSt11char_traitsIcESaIcEEE
lyx:_ZN3lyx5LyXVC8checkOutB5cxx11Ev
lyx:_ZN3lyx5LyXVC8fileInVCERKNS_7support8FileNameE
lyx:_ZN3lyx5LyXVC8undoLastEv
lyx:_ZN3lyx5LyXVC9registrerEv
lyx:_ZN3lyx5LyXVC9setBufferEPNS_6BufferE
lyx:_ZN3lyx5LyXVCC1Ev
lyx:_ZN3lyx5LyXVCC2Ev
lyx:_ZN3lyx5Mutex6LockerC1EPS0_
lyx:_ZN3lyx5Mutex6LockerC2EPS0_
lyx:_ZN3lyx5Mutex6LockerD1Ev
lyx:_ZN3lyx5Mutex6LockerD2Ev
lyx:_ZN3lyx5MutexC1Ev
lyx:_ZN3lyx5MutexC2Ev
lyx:_ZN3lyx5MutexD1Ev
lyx:_ZN3lyx5MutexD2Ev
lyx:_ZN3lyx5PointC1Eii
lyx:_ZN3lyx5PointC2Eii
lyx:_ZN3lyx5Timer12currentToStrB5cxx11Ev
lyx:_ZN3lyx5Timer7restartEv
lyx:_ZN3lyx5TimerC1Ev
lyx:_ZN3lyx5TimerC2Ev
lyx:_ZN3lyx5TimerD1Ev
lyx:_ZN3lyx5TimerD2Ev
lyx:_ZN3lyx5Trans10addDeadkeyENS_10tex_accentERKNSt7__cxx1112basic_stringIwSt11char_traitsIwESaIwEEE
lyx:_ZN3lyx5Trans10freeKeymapEv
lyx:_ZN3lyx5Trans13freeExceptionERNSt7__cxx114listINS_6KeyexcESaIS3_EEE
lyx:_ZN3lyx5Trans15insertExceptionERNSt7__cxx114listINS_6KeyexcESaIS3_EEEwRKNS1_12basic_stringIwSt11char_traitsIwESaIwEEEbNS_10tex_accentE
lyx:_ZN3lyx5Trans4loadERKNSt7__cxx1112basic_stringIcSt11char_traitsIcESaIcEEE
lyx:_ZN3lyx5Trans4loadERNS_5LexerE
lyx:_ZN3lyx5Trans7processB5cxx11EwRNS_12TransManagerE
lyx:_ZN3lyx5beginERNS_5InsetE
lyx:_ZN3lyx5lyxrcE
lyx:_ZN3lyx5mapleERKNS_8MathDataERNS_11MapleStreamE
lyx:_ZN3lyx5writeERKNS_8MathDataERNS_13TeXMathStreamE
lyx:_ZN3lyx6AuthorC1ERKNSt7__cxx1112basic_stringIwSt11char_traitsIwESaIwEEES8_S8_
lyx:_ZN3lyx6AuthorC1Ei
lyx:_ZN3lyx6AuthorC2ERKNSt7__cxx1112basic_stringIwSt11char_traitsIwESaIwEEES8_S8_
lyx:_ZN3lyx6AuthorC2Ei
lyx:_ZN3lyx6Branch11setSelectedEb
lyx:_ZN3lyx6Branch17setFileNameSuffixEb
lyx:_ZN3lyx6Branch8setColorERKNSt7__cxx1112basic_stringIcSt11char_traitsIcESaIcEEE
lyx:_ZN3lyx6Branch9setBranchERKNSt7__cxx1112basic_stringIwSt11char_traitsIwESaIwEEE
lyx:_ZN3lyx6Branch9setColorsERKNSt7__cxx1112basic_stringIcSt11char_traitsIcESaIcEEES8_
lyx:_ZN3lyx6Buffer10importFileERKNSt7__cxx1112basic_stringIcSt11char_traitsIcESaIcEEERKNS_7support8FileNameERNS_9ErrorListE
lyx:_ZN3lyx6Buffer10paragraphsEv
lyx:_ZN3lyx6Buffer10readHeaderERNS_5LexerE
lyx:_ZN3lyx6Buffer10readStringERKNSt7__cxx1112basic_stringIcSt11char_traitsIcESaIcEEE
lyx:_ZN3lyx6Buffer10setUnnamedEb
lyx:_ZN3lyx6Buffer11loadLyXFileEv
lyx:_ZN3lyx6Buffer11setFileNameERKNS_7support8FileNameE
lyx:_ZN3lyx6Buffer11setInternalEb
lyx:_ZN3lyx6Buffer11setReadonlyEb
lyx:_ZN3lyx6Buffer12addReferenceERKNSt7__cxx1112basic_stringIwSt11char_traitsIwESaIwEEEPNS_5InsetENS_11ParIteratorE
lyx:_ZN3lyx6Buffer12importStringERKNSt7__cxx1112basic_stringIcSt11char_traitsIcESaIcEEERKNS2_IwS3_IwESaIwEEERNS_9ErrorListE
lyx:_ZN3lyx6Buffer12loadAutosaveEv
lyx:_ZN3lyx6Buffer12markDepCleanERKNSt7__cxx1112basic_stringIcSt11char_traitsIcESaIcEEE
lyx:_ZN3lyx6Buffer12readDocumentERNS_5LexerE
lyx:_ZN3lyx6Buffer12setLayoutPosERKNSt7__cxx1112basic_stringIcSt11char_traitsIcESaIcEEE
lyx:_ZN3lyx6Buffer13extractFromVCEv
lyx:_ZN3lyx6Buffer13loadEmergencyEv
lyx:_ZN3lyx6Buffer13setInsetLabelERKNSt7__cxx1112basic_stringIwSt11char_traitsIwESaIwEEEPKNS_10InsetLabelEb
lyx:_ZN3lyx6Buffer14changeLanguageEPKNS_8LanguageES3_
lyx:_ZN3lyx6Buffer14setFullyLoadedEb
lyx:_ZN3lyx6Buffer14setGuiDelegateEPNS_8frontend17GuiBufferDelegateE
lyx:_ZN3lyx6Buffer15loadThisLyXFileERKNS_7support8FileNameE
lyx:_ZN3lyx6Buffer16convertLyXFormatERKNS_7support8FileNameERS2_i
lyx:_ZN3lyx6Buffer16par_iterator_endEv
lyx:_ZN3lyx6Buffer17checkChildBuffersEv
lyx:_ZN3lyx6Buffer17checkMasterBufferEv
lyx:_ZN3lyx6Buffer17getReferenceCacheERKNSt7__cxx1112basic_stringIwSt11char_traitsIwESaIwEEE
lyx:_ZN3lyx6Buffer17requestSpellcheckEv
lyx:_ZN3lyx6Buffer18changeRefsIfUniqueERKNSt7__cxx1112basic_stringIwSt11char_traitsIwESaIwEEES8_
lyx:_ZN3lyx6Buffer18firstChildPositionEPKS0_
lyx:_ZN3lyx6Buffer18par_iterator_beginEv
lyx:_ZN3lyx6Buffer24branchActivationDispatchENS_8FuncCodeERKNSt7__cxx1112basic_stringIwSt11char_traitsIwESaIwEEE
lyx:_ZN3lyx6Buffer4Impl12updateMacrosERNS_11DocIteratorES3_
lyx:_ZN3lyx6Buffer4Impl16updateStatisticsERNS_11DocIteratorES3_b
lyx:_ZN3lyx6Buffer4Impl18refreshFileMonitorEv
lyx:_ZN3lyx6Buffer4Impl22fileExternallyModifiedEb
lyx:_ZN3lyx6Buffer4ImplC1EPS0_RKNS_7support8FileNameEbPKS0_
lyx:_ZN3lyx6Buffer4ImplC2EPS0_RKNS_7support8FileNameEbPKS0_
lyx:_ZN3lyx6Buffer4undoEv
lyx:_ZN3lyx6Buffer5lyxvcEv
lyx:_ZN3lyx6Buffer6paramsEv
lyx:_ZN3lyx6Buffer6reloadEv
lyx:_ZN3lyx6Buffer6saveAsERKNS_7support8FileNameE
lyx:_ZN3lyx6Buffer6texrowEv
lyx:_ZN3lyx6Buffer8dispatchERKNS_11FuncRequestERNS_14DispatchResultE
lyx:_ZN3lyx6Buffer8dispatchERKNSt7__cxx1112basic_stringIcSt11char_traitsIcESaIcEEERNS_14DispatchResultE
lyx:_ZN3lyx6Buffer8readFileERKNS_7support8FileNameENSt7__cxx1112basic_stringIcSt11char_traitsIcESaIcEEE
lyx:_ZN3lyx6Buffer8setChildERKNS_11DocIteratorEPS0_
lyx:_ZN3lyx6Buffer8updateIdEv
lyx:_ZN3lyx6Buffer9markDirtyEv
lyx:_ZN3lyx6Buffer9runChktexEv
lyx:_ZN3lyx6Buffer9setParentEPKS0_
lyx:_ZN3lyx6BufferC1ERKNSt7__cxx1112basic_stringIcSt11char_traitsIcESaIcEEEbPKS0_
lyx:_ZN3lyx6BufferC2ERKNSt7__cxx1112basic_stringIcSt11char_traitsIcESaIcEEEbPKS0_
lyx:_ZN3lyx6BufferD1Ev
lyx:_ZN3lyx6BufferD2Ev
lyx:_ZN3lyx6Bullet10bulletSizeB5cxx11Ei
lyx:_ZN3lyx6Bullet11bulletEntryB5cxx11Eii
lyx:_ZN3lyx6Bullet11bulletLabelB5cxx11Eii
lyx:_ZN3lyx6Bullet12setCharacterEi
lyx:_ZN3lyx6Bullet14bulletFontSizeEi
lyx:_ZN3lyx6Bullet7setFontEi
lyx:_ZN3lyx6Bullet7setSizeEi
lyx:_ZN3lyx6Bullet7setTextERKNSt7__cxx1112basic_stringIwSt11char_traitsIwESaIwEEE
lyx:_ZN3lyx6BulletC1ERKNSt7__cxx1112basic_stringIwSt11char_traitsIwESaIwEEE
lyx:_ZN3lyx6BulletC1Eiii
lyx:_ZN3lyx6BulletC2ERKNSt7__cxx1112basic_stringIwSt11char_traitsIwESaIwEEE
lyx:_ZN3lyx6BulletC2Eiii
lyx:_ZN3lyx6BulletaSERKS0_
lyx:_ZN3lyx6Chktex11scanLogFileERNS_9TeXErrorsE
lyx:_ZN3lyx6Chktex3runERNS_9TeXErrorsE
lyx:_ZN3lyx6ChktexC1ERKNSt7__cxx1112basic_stringIcSt11char_traitsIcESaIcEEES8_S8_
lyx:_ZN3lyx6ChktexC2ERKNSt7__cxx1112basic_stringIcSt11char_traitsIcESaIcEEES8_S8_
lyx:_ZN3lyx6CmdDef4lockERKNSt7__cxx1112basic_stringIcSt11char_traitsIcESaIcEEERNS_11FuncRequestE
lyx:_ZN3lyx6CmdDef4readERKNSt7__cxx1112basic_stringIcSt11char_traitsIcESaIcEEE
lyx:_ZN3lyx6CmdDef7releaseERKNSt7__cxx1112basic_stringIcSt11char_traitsIcESaIcEEE
lyx:_ZN3lyx6CmdDef9newCmdDefERKNSt7__cxx1112basic_stringIcSt11char_traitsIcESaIcEEES8_
lyx:_ZN3lyx6Cursor10handleFontERKNSt7__cxx1112basic_stringIcSt11char_traitsIcESaIcEEE
lyx:_ZN3lyx6Cursor10handleNestERKNS_8MathAtomE
lyx:_ZN3lyx6Cursor10niceInsertERKNS_8MathAtomE
lyx:_ZN3lyx6Cursor10niceInsertERKNSt7__cxx1112basic_stringIwSt11char_traitsIwESaIwEEENS_5Parse5flagsEb
lyx:_ZN3lyx6Cursor10plainEraseEv
lyx:_ZN3lyx6Cursor10popForwardEv
lyx:_ZN3lyx6Cursor10posVisLeftEb
lyx:_ZN3lyx6Cursor10setTargetXEi
lyx:_ZN3lyx6Cursor10setTargetXEv
lyx:_ZN3lyx6Cursor11activeMacroEv
lyx:_ZN3lyx6Cursor11mathForwardEb
lyx:_ZN3lyx6Cursor11plainInsertERKNS_8MathAtomE
lyx:_ZN3lyx6Cursor11popBackwardEv
lyx:_ZN3lyx6Cursor11posVisRightEb
lyx:_ZN3lyx6Cursor11setClickPosEii
lyx:_ZN3lyx6Cursor12clearTargetXEv
lyx:_ZN3lyx6Cursor12mathBackwardEb
lyx:_ZN3lyx6Cursor12pushBackwardERNS_5InsetE
lyx:_ZN3lyx6Cursor12upDownInMathEb
lyx:_ZN3lyx6Cursor12upDownInTextEbRb
lyx:_ZN3lyx6Cursor13setCursorDataERKNS_10CursorDataE
lyx:_ZN3lyx6Cursor14macroModeCloseEb
lyx:_ZN3lyx6Cursor14posVisToNewRowEb
lyx:_ZN3lyx6Cursor14setCurrentFontEv
lyx:_ZN3lyx6Cursor16atFirstOrLastRowEb
lyx:_ZN3lyx6Cursor17editInsertedInsetEv
lyx:_ZN3lyx6Cursor17moveToClosestEdgeEib
lyx:_ZN3lyx6Cursor20checkBufferStructureEv
lyx:_ZN3lyx6Cursor20posVisToRowExtremityEb
lyx:_ZN3lyx6Cursor20setLanguageFromInputEv
lyx:_ZN3lyx6Cursor22updateTextTargetOffsetEv
lyx:_ZN3lyx6Cursor23saveBeforeDispatchPosXYEv
lyx:_ZN3lyx6Cursor2upEv
lyx:_ZN3lyx6Cursor3popEv
lyx:_ZN3lyx6Cursor4downEv
lyx:_ZN3lyx6Cursor4pushERNS_5InsetE
lyx:_ZN3lyx6Cursor5eraseEb
lyx:_ZN3lyx6Cursor5resetEv
lyx:_ZN3lyx6Cursor6insertEPNS_5InsetE
lyx:_ZN3lyx6Cursor6insertERKNS_8MathAtomE
lyx:_ZN3lyx6Cursor6insertERKNS_8MathDataE
lyx:_ZN3lyx6Cursor6insertERKNSt7__cxx1112basic_stringIwSt11char_traitsIwESaIwEEE
lyx:_ZN3lyx6Cursor6insertEw
lyx:_ZN3lyx6Cursor7pullArgEv
lyx:_ZN3lyx6Cursor8dispatchERKNS_11FuncRequestE
lyx:_ZN3lyx6Cursor8sanitizeEv
lyx:_ZN3lyx6Cursor9backspaceEb
lyx:_ZN3lyx6Cursor9macroNameB5cxx11Ev
lyx:_ZN3lyx6Cursor9normalizeEv
lyx:_ZN3lyx6Cursor9selHandleEb
lyx:_ZN3lyx6CursorC1ERNS_10BufferViewE
lyx:_ZN3lyx6CursorC2ERNS_10BufferViewE
lyx:_ZN3lyx6FilterC1ERKNSt7__cxx1112basic_stringIwSt11char_traitsIwESaIwEEERKNS2_IcS3_IcESaIcEEE
lyx:_ZN3lyx6FilterC2ERKNSt7__cxx1112basic_stringIwSt11char_traitsIwESaIwEEERKNS2_IcS3_IcESaIcEEE
lyx:_ZN3lyx6Format12formatSorterEPKS0_S2_
lyx:_ZN3lyx6Format13setExtensionsERKNSt7__cxx1112basic_stringIcSt11char_traitsIcESaIcEEE
lyx:_ZN3lyx6FormatC1ERKNSt7__cxx1112basic_stringIcSt11char_traitsIcESaIcEEES8_RKNS2_IwS3_IwESaIwEEES8_S8_S8_S8_i
lyx:_ZN3lyx6FormatC2ERKNSt7__cxx1112basic_stringIcSt11char_traitsIcESaIcEEES8_RKNS2_IwS3_IwESaIwEEES8_S8_S8_S8_i
lyx:_ZN3lyx6KeyMap10getBindingERKNS_11KeySequenceEj
lyx:_ZN3lyx6KeyMap11printKeySymB5cxx11ERKNS_9KeySymbolEj
lyx:_ZN3lyx6KeyMap15readWithoutConvERKNS_7support8FileNameEPS0_
lyx:_ZN3lyx6KeyMap4bindEPNS_11KeySequenceERKNS_11FuncRequestEj
lyx:_ZN3lyx6KeyMap4bindERKNSt7__cxx1112basic_stringIcSt11char_traitsIcESaIcEEERKNS_11FuncRequestE
lyx:_ZN3lyx6KeyMap4readERKNS_7support8FileNameEPS0_
lyx:_ZN3lyx6KeyMap4readERKNSt7__cxx1112basic_stringIcSt11char_traitsIcESaIcEEEPS0_NS0_12BindReadTypeEb
lyx:_ZN3lyx6KeyMap5clearEv
lyx:_ZN3lyx6KeyMap6unbindEPNS_11KeySequenceERKNS_11FuncRequestEj
lyx:_ZN3lyx6KeyMap6unbindERKNSt7__cxx1112basic_stringIcSt11char_traitsIcESaIcEEERKNS_11FuncRequestE
lyx:_ZN3lyx6Layout10NOT_IN_TOCE
lyx:_ZN3lyx6Layout10readMarginERNS_5LexerE
lyx:_ZN3lyx6Layout11readSpacingERNS_5LexerE
lyx:_ZN3lyx6Layout12readArgumentERNS_5LexerEb
lyx:_ZN3lyx6Layout13readLabelTypeERNS_5LexerE
lyx:_ZN3lyx6Layout13readLatexTypeERNS_5LexerE
lyx:_ZN3lyx6Layout16readEndLabelTypeERNS_5LexerE
lyx:_ZN3lyx6Layout17readAlignPossibleERNS_5LexerE
lyx:_ZN3lyx6Layout20readIgnoreForcelocalERNS_5LexerERKNS_9TextClassEb
lyx:_ZN3lyx6Layout4readERNS_5LexerERKNS_9TextClassEb
lyx:_ZN3lyx6Layout9readAlignERNS_5LexerE
lyx:_ZN3lyx6LayoutC1Ev
lyx:_ZN3lyx6LayoutC2Ev
lyx:_ZN3lyx6Length11defaultUnitEv
lyx:_ZN3lyx6LengthC1ERKNSt7__cxx1112basic_stringIcSt11char_traitsIcESaIcEEE
lyx:_ZN3lyx6LengthC2ERKNSt7__cxx1112basic_stringIcSt11char_traitsIcESaIcEEE
lyx:_ZN3lyx6LyXErr4endlEv
lyx:_ZN3lyx6LyXErr6enableEv
lyx:_ZN3lyx6LyXErr7disableEv
lyx:_ZN3lyx6LyXErr9stripNameEPKc
lyx:_ZN3lyx6Matrix9transformERdS1_
lyx:_ZN3lyx6MatrixC1Eidd
lyx:_ZN3lyx6MatrixC2Eidd
lyx:_ZN3lyx6Movers3setERKNSt7__cxx1112basic_stringIcSt11char_traitsIcESaIcEEES8_
lyx:_ZN3lyx6Server12notifyClientERKNSt7__cxx1112basic_stringIcSt11char_traitsIcESaIcEEE
lyx:_ZN3lyx6Server8callbackERKNSt7__cxx1112basic_stringIcSt11char_traitsIcESaIcEEE
lyx:_ZN3lyx6ServerC1ERKNSt7__cxx1112basic_stringIcSt11char_traitsIcESaIcEEE
lyx:_ZN3lyx6ServerC2ERKNSt7__cxx1112basic_stringIcSt11char_traitsIcESaIcEEE
lyx:_ZN3lyx6ServerD1Ev
lyx:_ZN3lyx6ServerD2Ev
lyx:_ZN3lyx6TexRow10comparePosENS0_8RowEntryES1_
lyx:_ZN3lyx6TexRow10currentRowEv
lyx:_ZN3lyx6TexRow10forceStartEil
lyx:_ZN3lyx6TexRow12RowEntryList13forceAddEntryENS0_8RowEntryE
lyx:_ZN3lyx6TexRow12RowEntryList6appendES1_
lyx:_ZN3lyx6TexRow12RowEntryList8addEntryENS0_8RowEntryE
lyx:_ZN3lyx6TexRow13beginDocumentEv
lyx:_ZN3lyx6TexRow18sameParOrInsetMathENS0_8RowEntryES1_
lyx:_ZN3lyx6TexRow23rowEntryFromCursorSliceERKNS_11CursorSliceE
lyx:_ZN3lyx6TexRow26getDocIteratorsFromEntriesENS0_9TextEntryES1_RKNS_6BufferE
lyx:_ZN3lyx6TexRow5resetEv
lyx:_ZN3lyx6TexRow5startENS0_8RowEntryE
lyx:_ZN3lyx6TexRow5startEil
lyx:_ZN3lyx6TexRow6appendES0_
lyx:_ZN3lyx6TexRow6isNoneENS0_8RowEntryE
lyx:_ZN3lyx6TexRow6isNoneENS0_9TextEntryE
lyx:_ZN3lyx6TexRow7newlineEv
lyx:_ZN3lyx6TexRow7setRowsEm
lyx:_ZN3lyx6TexRow8asStringB5cxx11ENS0_8RowEntryE
lyx:_ZN3lyx6TexRow8goToFuncENS0_9TextEntryES1_
lyx:_ZN3lyx6TexRow8newlinesEm
lyx:_ZN3lyx6TexRow8row_noneE
lyx:_ZN3lyx6TexRow9mathEntryEPKvm
lyx:_ZN3lyx6TexRow9startMathEPKvm
lyx:_ZN3lyx6TexRow9textEntryEil
lyx:_ZN3lyx6TexRow9text_noneE
lyx:_ZN3lyx6TexRowC1Ev
lyx:_ZN3lyx6TexRowC2Ev
lyx:_ZN3lyx6VSpaceC1ENS0_10VSpaceKindE
lyx:_ZN3lyx6VSpaceC1ERKNS_10GlueLengthE
lyx:_ZN3lyx6VSpaceC1ERKNS_6LengthE
lyx:_ZN3lyx6VSpaceC1ERKNSt7__cxx1112basic_stringIcSt11char_traitsIcESaIcEEE
lyx:_ZN3lyx6VSpaceC1Ev
lyx:_ZN3lyx6VSpaceC2ENS0_10VSpaceKindE
lyx:_ZN3lyx6VSpaceC2ERKNS_10GlueLengthE
lyx:_ZN3lyx6VSpaceC2ERKNS_6LengthE
lyx:_ZN3lyx6VSpaceC2ERKNSt7__cxx1112basic_stringIcSt11char_traitsIcESaIcEEE
lyx:_ZN3lyx6VSpaceC2Ev
lyx:_ZN3lyx6lcolorE
lyx:_ZN3lyx6lyxerrE
lyx:_ZN3lyx6maximaERKNS_8MathDataERNS_12MaximaStreamE
lyx:_ZN3lyx6octaveERKNS_8MathDataERNS_12OctaveStreamE
lyx:_ZN3lyx6theAppEv
lyx:_ZN3lyx6toqstrEPKc
lyx:_ZN3lyx6toqstrERKNSt7__cxx1112basic_stringIcSt11char_traitsIcESaIcEEE
lyx:_ZN3lyx6toqstrERKNSt7__cxx1112basic_stringIwSt11char_traitsIwESaIwEEE
lyx:_ZN3lyx6toqstrEw
lyx:_ZN3lyx7Changes13lyxMarkChangeERSoRKNS_12BufferParamsERiRKNS_6ChangeES8_
lyx:_ZN3lyx7Changes15latexMarkChangeERNS_10otexstreamERKNS_12BufferParamsERKNS_6ChangeES8_RKNS_12OutputParamsE
lyx:_ZN3lyx7Changes3setERKNS_6ChangeEl
lyx:_ZN3lyx7Changes3setERKNS_6ChangeEll
lyx:_ZN3lyx7Changes5eraseEl
lyx:_ZN3lyx7Changes5mergeEv
lyx:_ZN3lyx7Changes6insertERKNS_6ChangeEl
lyx:_ZN3lyx7Compare11qt_metacallEN11QMetaObject4CallEiPPv
lyx:_ZN3lyx7Compare11qt_metacastEPKc
lyx:_ZN3lyx7Compare15doStatusMessageEv
lyx:_ZN3lyx7Compare16staticMetaObjectE
lyx:_ZN3lyx7Compare3runEv
lyx:_ZN3lyx7Compare4Impl12processSnakeERKNS_12DocRangePairE
lyx:_ZN3lyx7Compare4Impl15findMiddleSnakeERKNS_12DocRangePairERNS_7DocPairE
lyx:_ZN3lyx7Compare4Impl17writeToDestBufferERKNS_8DocRangeENS_6Change4TypeE
lyx:_ZN3lyx7Compare4Impl19retrieveMiddleSnakeEiiNS_9DirectionERNS_7DocPairE
lyx:_ZN3lyx7Compare4Impl22furthestDpathKdiagonalEiiRKNS_12DocRangePairENS_9DirectionE
lyx:_ZN3lyx7Compare4Impl4diffEPKNS_6BufferES4_S4_
lyx:_ZN3lyx7Compare4Impl6diff_iERKNS_12DocRangePairE
lyx:_ZN3lyx7Compare4Impl7overlapEii
lyx:_ZN3lyx7Compare4Impl8diffPartERKNS_12DocRangePairE
lyx:_ZN3lyx7Compare4Impl9diffInsetEPNS_5InsetERKNS_7DocPairE
lyx:_ZN3lyx7Compare5abortEv
lyx:_ZN3lyx7Compare9doCompareEv
lyx:_ZN3lyx7CompareC1EPKNS_6BufferES3_PS1_RKNS_14CompareOptionsE
lyx:_ZN3lyx7CompareC2EPKNS_6BufferES3_PS1_RKNS_14CompareOptionsE
lyx:_ZN3lyx7Counter12restoreValueEv
lyx:_ZN3lyx7Counter20checkAndRemoveParentERKNSt7__cxx1112basic_stringIwSt11char_traitsIwESaIwEEE
lyx:_ZN3lyx7Counter3setEi
lyx:_ZN3lyx7Counter4readERNS_5LexerE
lyx:_ZN3lyx7Counter4stepEv
lyx:_ZN3lyx7Counter5addtoEi
lyx:_ZN3lyx7Counter5resetEv
lyx:_ZN3lyx7Counter9saveValueEv
lyx:_ZN3lyx7CounterC1ERKNSt7__cxx1112basic_stringIwSt11char_traitsIwESaIwEEES8_S8_S8_S8_
lyx:_ZN3lyx7CounterC1Ev
lyx:_ZN3lyx7CounterC2ERKNSt7__cxx1112basic_stringIwSt11char_traitsIwESaIwEEES8_S8_S8_S8_
lyx:_ZN3lyx7CounterC2Ev
lyx:_ZN3lyx7Formats11setAutoOpenEv
lyx:_ZN3lyx7Formats18isZippedFileFormatERKNSt7__cxx1112basic_stringIcSt11char_traitsIcESaIcEEE
lyx:_ZN3lyx7Formats22isPostScriptFileFormatERKNSt7__cxx1112basic_stringIcSt11char_traitsIcESaIcEEE
lyx:_ZN3lyx7Formats3addERKNSt7__cxx1112basic_stringIcSt11char_traitsIcESaIcEEE
lyx:_ZN3lyx7Formats3addERKNSt7__cxx1112basic_stringIcSt11char_traitsIcESaIcEEES8_RKNS2_IwS3_IwESaIwEEES8_S8_S8_S8_i
lyx:_ZN3lyx7Formats4sortEv
lyx:_ZN3lyx7Formats5eraseERKNSt7__cxx1112basic_stringIcSt11char_traitsIcESaIcEEE
lyx:_ZN3lyx7Formats9getFormatERKNSt7__cxx1112basic_stringIcSt11char_traitsIcESaIcEEE
lyx:_ZN3lyx7Formats9setEditorERKNSt7__cxx1112basic_stringIcSt11char_traitsIcESaIcEEES8_
lyx:_ZN3lyx7Formats9setViewerERKNSt7__cxx1112basic_stringIcSt11char_traitsIcESaIcEEES8_
lyx:_ZN3lyx7LyXComm10read_readyEv
lyx:_ZN3lyx7LyXComm14openConnectionEv
lyx:_ZN3lyx7LyXComm15closeConnectionEv
lyx:_ZN3lyx7LyXComm16emergencyCleanupEv
lyx:_ZN3lyx7LyXComm4sendERKNSt7__cxx1112basic_stringIcSt11char_traitsIcESaIcEEE
lyx:_ZN3lyx7LyXComm7endPipeERiRKNSt7__cxx1112basic_stringIcSt11char_traitsIcESaIcEEEb
lyx:_ZN3lyx7LyXComm9startPipeERKNSt7__cxx1112basic_stringIcSt11char_traitsIcESaIcEEEb
lyx:_ZN3lyx7LyXCommC1ERKNSt7__cxx1112basic_stringIcSt11char_traitsIcESaIcEEEPNS_6ServerEPFvSA_S8_E
lyx:_ZN3lyx7LyXCommC2ERKNSt7__cxx1112basic_stringIcSt11char_traitsIcESaIcEEEPNS_6ServerEPFvSA_S8_E
lyx:_ZN3lyx7MathRow7ElementC1ERKNS_11MetricsInfoENS0_4TypeENS_9MathClassE
lyx:_ZN3lyx7MathRow7ElementC2ERKNS_11MetricsInfoENS0_4TypeENS_9MathClassE
lyx:_ZN3lyx7MathRow7metricsERNS_11MetricsInfoERNS_9DimensionE
lyx:_ZN3lyx7MathRowC1ERNS_11MetricsInfoEPKNS_8MathDataE
lyx:_ZN3lyx7MathRowC2ERNS_11MetricsInfoEPKNS_8MathDataE
lyx:_ZN3lyx7Session8readFileEv
lyx:_ZN3lyx7SessionC1Ejj
lyx:_ZN3lyx7SessionC2Ejj
lyx:_ZN3lyx7SetModeC1ERNS_12MathMLStreamEb
lyx:_ZN3lyx7SetModeC2ERNS_12MathMLStreamEb
lyx:_ZN3lyx7SetModeD1Ev
lyx:_ZN3lyx7SetModeD2Ev
lyx:_ZN3lyx7Spacing14spacing_stringB5cxx11E
lyx:_ZN3lyx7Spacing3setENS0_5SpaceERKNSt7__cxx1112basic_stringIcSt11char_traitsIcESaIcEEE
lyx:_ZN3lyx7Spacing3setENS0_5SpaceEd
lyx:_ZN3lyx7Tabular10ColumnDataC1Ev
lyx:_ZN3lyx7Tabular10ColumnDataC2Ev
lyx:_ZN3lyx7Tabular10copyColumnEm
lyx:_ZN3lyx7Tabular10moveColumnEmmNS0_12ColDirectionE
lyx:_ZN3lyx7Tabular10setTopLineEmb
lyx:_ZN3lyx7Tabular11setLeftLineEmb
lyx:_ZN3lyx7Tabular11setMROffsetERNS_6CursorEmRKNS_6LengthE
lyx:_ZN3lyx7Tabular11setMultiRowERNS_6CursorEmmbNS_12LyXAlignmentE
lyx:_ZN3lyx7Tabular12appendColumnEm
lyx:_ZN3lyx7Tabular12deleteColumnEmb
lyx:_ZN3lyx7Tabular12insertColumnEmb
lyx:_ZN3lyx7Tabular12setAlignmentEmNS_12LyXAlignmentEb
lyx:_ZN3lyx7Tabular12setCellInsetEmmSt10shared_ptrINS_14InsetTableCellEE
lyx:_ZN3lyx7Tabular12setLTCaptionERNS_6CursorEmb
lyx:_ZN3lyx7Tabular12setLTNewPageEmb
lyx:_ZN3lyx7Tabular12setRightLineEmb
lyx:_ZN3lyx7Tabular12setRowAscentEmi
lyx:_ZN3lyx7Tabular13setBottomLineEmb
lyx:_ZN3lyx7Tabular13setFixedWidthEmm
lyx:_ZN3lyx7Tabular13setRotateCellEmi
lyx:_ZN3lyx7Tabular13setRowDescentEmi
lyx:_ZN3lyx7Tabular13setVAlignmentEmNS0_10VAlignmentEb
lyx:_ZN3lyx7Tabular13unsetMultiRowEm
lyx:_ZN3lyx7Tabular13updateIndexesEv
lyx:_ZN3lyx7Tabular14setMultiColumnERNS_6CursorEmmb
lyx:_ZN3lyx7Tabular14setTopLineTrimEmSt4pairIbbE
lyx:_ZN3lyx7Tabular14toggleVarwidthEmb
lyx:_ZN3lyx7Tabular15setAlignSpecialEmRKNSt7__cxx1112basic_stringIwSt11char_traitsIwESaIwEEENS0_7FeatureE
lyx:_ZN3lyx7Tabular15setColumnPWidthERNS_6CursorEmRKNS_6LengthE
lyx:_ZN3lyx7Tabular15setTopLineLTrimEmb
lyx:_ZN3lyx7Tabular15setTopLineRTrimEmb
lyx:_ZN3lyx7Tabular16setMColumnPWidthERNS_6CursorEmRKNS_6LengthE
lyx:_ZN3lyx7Tabular16unsetMultiColumnEm
lyx:_ZN3lyx7Tabular17setBottomLineTrimEmSt4pairIbbE
lyx:_ZN3lyx7Tabular18setBottomLineLTrimEmb
lyx:_ZN3lyx7Tabular18setBottomLineRTrimEmb
lyx:_ZN3lyx7Tabular18updateColumnWidthsERNS_11MetricsInfoE
lyx:_ZN3lyx7Tabular4initEPNS_6BufferEmm
lyx:_ZN3lyx7Tabular4readERNS_5LexerE
lyx:_ZN3lyx7Tabular6ltTypeC1Ev
lyx:_ZN3lyx7Tabular6ltTypeC2Ev
lyx:_ZN3lyx7Tabular7RowDataC1Ev
lyx:_ZN3lyx7Tabular7RowDataC2Ev
lyx:_ZN3lyx7Tabular7copyRowEm
lyx:_ZN3lyx7Tabular7moveRowEmmNS0_12RowDirectionE
lyx:_ZN3lyx7Tabular8CellDataC1EPNS_6BufferE
lyx:_ZN3lyx7Tabular8CellDataC1ERKS1_
lyx:_ZN3lyx7Tabular8CellDataC2EPNS_6BufferE
lyx:_ZN3lyx7Tabular8CellDataC2ERKS1_
lyx:_ZN3lyx7Tabular8CellDataaSERKS1_
lyx:_ZN3lyx7Tabular8cellInfoEm
lyx:_ZN3lyx7Tabular8setLinesEmmmmbb
lyx:_ZN3lyx7Tabular9appendRowEm
lyx:_ZN3lyx7Tabular9cellInsetEm
lyx:_ZN3lyx7Tabular9cellInsetEmm
lyx:_ZN3lyx7Tabular9deleteRowEmb
lyx:_ZN3lyx7Tabular9insertRowEmb
lyx:_ZN3lyx7Tabular9setBufferERNS_6BufferE
lyx:_ZN3lyx7Tabular9setLTFootEmbRKNS0_6ltTypeEb
lyx:_ZN3lyx7Tabular9setLTHeadEmbRKNS0_6ltTypeEb
lyx:_ZN3lyx7Tabular9setUseboxEmNS0_7BoxTypeE
lyx:_ZN3lyx7TabularC1EPNS_6BufferEmm
lyx:_ZN3lyx7TabularC2EPNS_6BufferEmm
lyx:_ZN3lyx7Timeout10setTimeoutEj
lyx:_ZN3lyx7Timeout4Impl4stopEv
lyx:_ZN3lyx7Timeout4Impl5resetEv
lyx:_ZN3lyx7Timeout4Impl5startEv
lyx:_ZN3lyx7Timeout4emitEv
lyx:_ZN3lyx7Timeout4stopEv
lyx:_ZN3lyx7Timeout5startEv
lyx:_ZN3lyx7Timeout7restartEv
lyx:_ZN3lyx7Timeout7setTypeENS0_4TypeE
lyx:_ZN3lyx7TimeoutC1EjNS0_4TypeE
lyx:_ZN3lyx7TimeoutC2EjNS0_4TypeE
lyx:_ZN3lyx7TimeoutD1Ev
lyx:_ZN3lyx7TimeoutD2Ev
lyx:_ZN3lyx7TocItemC1ERKNS_11DocIteratorEiRKNSt7__cxx1112basic_stringIwSt11char_traitsIwESaIwEEEbbRKNS_11FuncRequestE
lyx:_ZN3lyx7TocItemC2ERKNS_11DocIteratorEiRKNSt7__cxx1112basic_stringIwSt11char_traitsIwESaIwEEEbbRKNS_11FuncRequestE
lyx:_ZN3lyx7asArrayERKNSt7__cxx1112basic_stringIwSt11char_traitsIwESaIwEEERNS_8MathDataENS_5Parse5flagsE
lyx:_ZN3lyx7breaklnE
lyx:_ZN3lyx7compareEPKcS1_j
lyx:_ZN3lyx7convertERKNSt7__cxx1112basic_stringIcSt11char_traitsIcESaIcEEEi
lyx:_ZN3lyx7convertINSt7__cxx1112basic_stringIcSt11char_traitsIcESaIcEEEbEET_T0_
lyx:_ZN3lyx7convertINSt7__cxx1112basic_stringIcSt11char_traitsIcESaIcEEEcEET_T0_
lyx:_ZN3lyx7convertINSt7__cxx1112basic_stringIcSt11char_traitsIcESaIcEEEdEET_T0_
lyx:_ZN3lyx7convertINSt7__cxx1112basic_stringIcSt11char_traitsIcESaIcEEEfEET_T0_
lyx:_ZN3lyx7convertINSt7__cxx1112basic_stringIcSt11char_traitsIcESaIcEEEiEET_T0_
lyx:_ZN3lyx7convertINSt7__cxx1112basic_stringIcSt11char_traitsIcESaIcEEEjEET_T0_
lyx:_ZN3lyx7convertINSt7__cxx1112basic_stringIcSt11char_traitsIcESaIcEEElEET_T0_
lyx:_ZN3lyx7convertINSt7__cxx1112basic_stringIcSt11char_traitsIcESaIcEEEmEET_T0_
lyx:_ZN3lyx7convertINSt7__cxx1112basic_stringIcSt11char_traitsIcESaIcEEEtEET_T0_
lyx:_ZN3lyx7convertINSt7__cxx1112basic_stringIcSt11char_traitsIcESaIcEEExEET_T0_
lyx:_ZN3lyx7convertINSt7__cxx1112basic_stringIcSt11char_traitsIcESaIcEEEyEET_T0_
lyx:_ZN3lyx7convertINSt7__cxx1112basic_stringIwSt11char_traitsIwESaIwEEEdEET_T0_
lyx:_ZN3lyx7convertINSt7__cxx1112basic_stringIwSt11char_traitsIwESaIwEEEiEET_T0_
lyx:_ZN3lyx7convertINSt7__cxx1112basic_stringIwSt11char_traitsIwESaIwEEEjEET_T0_
lyx:_ZN3lyx7convertINSt7__cxx1112basic_stringIwSt11char_traitsIwESaIwEEElEET_T0_
lyx:_ZN3lyx7convertINSt7__cxx1112basic_stringIwSt11char_traitsIwESaIwEEEmEET_T0_
lyx:_ZN3lyx7convertINSt7__cxx1112basic_stringIwSt11char_traitsIwESaIwEEExEET_T0_
lyx:_ZN3lyx7convertINSt7__cxx1112basic_stringIwSt11char_traitsIwESaIwEEEyEET_T0_
lyx:_ZN3lyx7convertIdNSt7__cxx1112basic_stringIcSt11char_traitsIcESaIcEEEEET_T0_
lyx:_ZN3lyx7convertIdPKcEET_T0_
lyx:_ZN3lyx7convertIiNSt7__cxx1112basic_stringIcSt11char_traitsIcESaIcEEEEET_T0_
lyx:_ZN3lyx7convertIiNSt7__cxx1112basic_stringIwSt11char_traitsIwESaIwEEEEET_T0_
lyx:_ZN3lyx7convertIiPKcEET_T0_
lyx:_ZN3lyx7convertIjNSt7__cxx1112basic_stringIcSt11char_traitsIcESaIcEEEEET_T0_
lyx:_ZN3lyx7convertImNSt7__cxx1112basic_stringIcSt11char_traitsIcESaIcEEEEET_T0_
lyx:_ZN3lyx7convertIyNSt7__cxx1112basic_stringIcSt11char_traitsIcESaIcEEEEET_T0_
lyx:_ZN3lyx7findAdvEPNS_10BufferViewERNS_21FindAndReplaceOptionsE
lyx:_ZN3lyx7findOneEPNS_10BufferViewERKNSt7__cxx1112basic_stringIwSt11char_traitsIwESaIwEEEbbbbbbbb
lyx:_ZN3lyx7getFontERKNSt7__cxx1112basic_stringIcSt11char_traitsIcESaIcEEE
lyx:_ZN3lyx7htmlizeERKNS_8MathDataERNS_10HtmlStreamE
lyx:_ZN3lyx7isASCIIEw
lyx:_ZN3lyx7isLowerEw
lyx:_ZN3lyx7isSpaceEw
lyx:_ZN3lyx7lyxReadERNS_5LexerERKNS_8FontInfoE
lyx:_ZN3lyx7lyxfindEPNS_10BufferViewERKNS_11FuncRequestE
lyx:_ZN3lyx7makeAnyERKNS_4TextERKNS_6BufferERNS_9XMLStreamERKNS_12OutputParamsESt20_List_const_iteratorINS_9ParagraphEE
lyx:_ZN3lyx7makeURLERKNSt7__cxx1112basic_stringIwSt11char_traitsIwESaIwEEES7_
lyx:_ZN3lyx7newFileERKNSt7__cxx1112basic_stringIcSt11char_traitsIcESaIcEEES7_b
lyx:_ZN3lyx7sameParERKNS_11DocIteratorES2_
lyx:_ZN3lyx7support10ForkedCall11startScriptENS0_13ForkedProcess9StarttypeERKNSt7__cxx1112basic_stringIcSt11char_traitsIcESaIcEEE
lyx:_ZN3lyx7support10ForkedCall11startScriptERKNSt7__cxx1112basic_stringIcSt11char_traitsIcESaIcEEESt10shared_ptrIN3nod11signal_typeINSB_18multithread_policyEFviiEEEE
lyx:_ZN3lyx7support10ForkedCall13generateChildEv
lyx:_ZN3lyx7support10ForkedCallC1ERKNSt7__cxx1112basic_stringIcSt11char_traitsIcESaIcEEES9_
lyx:_ZN3lyx7support10ForkedCallC2ERKNSt7__cxx1112basic_stringIcSt11char_traitsIcESaIcEEES9_
lyx:_ZN3lyx7support10Systemcall10killscriptEv
lyx:_ZN3lyx7support10Systemcall11startscriptENS1_9StarttypeERKNSt7__cxx1112basic_stringIcSt11char_traitsIcESaIcEEESA_SA_b
lyx:_ZN3lyx7support10capitalizeERKNSt7__cxx1112basic_stringIwSt11char_traitsIwESaIwEEE
lyx:_ZN3lyx7support10count_charERKNSt7__cxx1112basic_stringIcSt11char_traitsIcESaIcEEEc
lyx:_ZN3lyx7support10count_charERKNSt7__cxx1112basic_stringIwSt11char_traitsIwESaIwEEEw
lyx:_ZN3lyx7support10equivalentERKNS0_8FileNameES3_
lyx:_ZN3lyx7support10fileSearchERKNSt7__cxx1112basic_stringIcSt11char_traitsIcESaIcEEES8_S8_NS0_11search_modeE
lyx:_ZN3lyx7support10fileUnlockEiPKc
lyx:_ZN3lyx7support10getEnvPathERKNSt7__cxx1112basic_stringIcSt11char_traitsIcESaIcEEE
lyx:_ZN3lyx7support10latex_pathERKNSt7__cxx1112basic_stringIcSt11char_traitsIcESaIcEEENS0_20latex_path_extensionENS0_15latex_path_dotsE
lyx:_ZN3lyx7support10runCommandERKNSt7__cxx1112basic_stringIcSt11char_traitsIcESaIcEEE
lyx:_ZN3lyx7support10setEnvPathERKNSt7__cxx1112basic_stringIcSt11char_traitsIcESaIcEEERKSt6vectorIS6_SaIS6_EE
lyx:_ZN3lyx7support10user_emailB5cxx11Ev
lyx:_ZN3lyx7support11DocFileName3setERKNSt7__cxx1112basic_stringIcSt11char_traitsIcESaIcEEES9_
lyx:_ZN3lyx7support11DocFileName5eraseEv
lyx:_ZN3lyx7support11DocFileNameC1ERKNS0_8FileNameEb
lyx:_ZN3lyx7support11DocFileNameC1ERKNSt7__cxx1112basic_stringIcSt11char_traitsIcESaIcEEEb
lyx:_ZN3lyx7support11DocFileNameC1Ev
lyx:_ZN3lyx7support11DocFileNameC2ERKNS0_8FileNameEb
lyx:_ZN3lyx7support11DocFileNameC2ERKNSt7__cxx1112basic_stringIcSt11char_traitsIcESaIcEEEb
lyx:_ZN3lyx7support11DocFileNameC2Ev
lyx:_ZN3lyx7support11FileMonitor11qt_metacallEN11QMetaObject4CallEiPPv
lyx:_ZN3lyx7support11FileMonitor11qt_metacastEPKc
lyx:_ZN3lyx7support11FileMonitor16staticMetaObjectE
lyx:_ZN3lyx7support11FileMonitor25connectToFileMonitorGuardEv
lyx:_ZN3lyx7support11FileMonitor7changedEb
lyx:_ZN3lyx7support11FileMonitor7connectERKSt8functionIFvbEE
lyx:_ZN3lyx7support11FileMonitorC1ESt10shared_ptrINS0_16FileMonitorGuardEE
lyx:_ZN3lyx7support11FileMonitorC2ESt10shared_ptrINS0_16FileMonitorGuardEE
lyx:_ZN3lyx7support11PathChanger3popEv
lyx:_ZN3lyx7support11PathChangerC1ERKNS0_8FileNameE
lyx:_ZN3lyx7support11PathChangerC2ERKNS0_8FileNameE
lyx:_ZN3lyx7support11PathChangerD1Ev
lyx:_ZN3lyx7support11PathChangerD2Ev
lyx:_ZN3lyx7support11addPathNameERKNSt7__cxx1112basic_stringIcSt11char_traitsIcESaIcEEES8_
lyx:_ZN3lyx7support11commandPrepERKNSt7__cxx1112basic_stringIcSt11char_traitsIcESaIcEEE
lyx:_ZN3lyx7support11findtexfileERKNSt7__cxx1112basic_stringIcSt11char_traitsIcESaIcEEES8_b
lyx:_ZN3lyx7support11isLowerCaseEw
lyx:_ZN3lyx7support11isUpperCaseEw
lyx:_ZN3lyx7support11makeAbsPathERKNSt7__cxx1112basic_stringIcSt11char_traitsIcESaIcEEES8_
lyx:_ZN3lyx7support11makeRelPathERKNSt7__cxx1112basic_stringIwSt11char_traitsIwESaIwEEES8_
lyx:_ZN3lyx7support11prefs2prefsERKNS0_8FileNameES3_b
lyx:_ZN3lyx7support11superscriptEw
lyx:_ZN3lyx7support12addExtensionERKNSt7__cxx1112basic_stringIcSt11char_traitsIcESaIcEEES8_
lyx:_ZN3lyx7support12containsOnlyERKNSt7__cxx1112basic_stringIcSt11char_traitsIcESaIcEEES8_
lyx:_ZN3lyx7support12containsOnlyERKNSt7__cxx1112basic_stringIwSt11char_traitsIwESaIwEEERKNS2_IcS3_IcESaIcEEE
lyx:_ZN3lyx7support12current_timeEv
lyx:_ZN3lyx7support12getExtensionERKNSt7__cxx1112basic_stringIcSt11char_traitsIcESaIcEEE
lyx:_ZN3lyx7support12init_packageERKNSt7__cxx1112basic_stringIcSt11char_traitsIcESaIcEEES8_S8_
lyx:_ZN3lyx7support12isBinaryFileERKNS0_8FileNameE
lyx:_ZN3lyx7support12onlyFileNameERKNSt7__cxx1112basic_stringIcSt11char_traitsIcESaIcEEE
lyx:_ZN3lyx7support12tempFileNameENS0_8FileNameEb
lyx:_ZN3lyx7support12tempFileNameERKNS0_8FileNameERKNSt7__cxx1112basic_stringIcSt11char_traitsIcESaIcEEEb
lyx:_ZN3lyx7support12tempFileNameERKNSt7__cxx1112basic_stringIcSt11char_traitsIcESaIcEEEb
lyx:_ZN3lyx7support13ForkedProcess10emitSignalEv
lyx:_ZN3lyx7support13ForkedProcess12waitForChildEv
lyx:_ZN3lyx7support13ForkedProcess3runENS1_9StarttypeE
lyx:_ZN3lyx7support13ForkedProcess4forkEv
lyx:_ZN3lyx7support13ForkedProcess4killEi
lyx:_ZN3lyx7support13ForkedProcess9IAmAChildE
lyx:_ZN3lyx7support13ForkedProcessC2Ev
lyx:_ZN3lyx7support13hasDigitASCIIERKNSt7__cxx1112basic_stringIwSt11char_traitsIwESaIwEEE
lyx:_ZN3lyx7support13isLyXFileNameERKNSt7__cxx1112basic_stringIcSt11char_traitsIcESaIcEEE
lyx:_ZN3lyx7support13libFileSearchERKNSt7__cxx1112basic_stringIcSt11char_traitsIcESaIcEEES8_S8_NS0_11search_modeEb
lyx:_ZN3lyx7support13makeLatexNameERKNS0_8FileNameE
lyx:_ZN3lyx7support13provideSchemeERKNSt7__cxx1112basic_stringIwSt11char_traitsIwESaIwEEES8_
lyx:_ZN3lyx7support14compare_localeERKNSt7__cxx1112basic_stringIwSt11char_traitsIwESaIwEEES8_
lyx:_ZN3lyx7support14countExpandersERKNSt7__cxx1112basic_stringIwSt11char_traitsIwESaIwEEE
lyx:_ZN3lyx7support14formatFPNumberB5cxx11Ed
lyx:_ZN3lyx7support14isSGMLFileNameERKNSt7__cxx1112basic_stringIcSt11char_traitsIcESaIcEEE
lyx:_ZN3lyx7support14prependEnvPathERKNSt7__cxx1112basic_stringIcSt11char_traitsIcESaIcEEES8_
lyx:_ZN3lyx7support14removeTempFileERKNS0_8FileNameE
lyx:_ZN3lyx7support15ForkedCallQueue10stopCallerEv
lyx:_ZN3lyx7support15ForkedCallQueue11startCallerEv
lyx:_ZN3lyx7support15ForkedCallQueue3addERKNSt7__cxx1112basic_stringIcSt11char_traitsIcESaIcEEE
lyx:_ZN3lyx7support15ForkedCallQueue7runningEv
lyx:_ZN3lyx7support15ForkedCallQueue8callNextEv
lyx:_ZN3lyx7support15ForkedCallQueue8callbackEii
lyx:_ZN3lyx7support15ascii_lowercaseERKNSt7__cxx1112basic_stringIcSt11char_traitsIcESaIcEEE
lyx:_ZN3lyx7support15ascii_lowercaseERKNSt7__cxx1112basic_stringIwSt11char_traitsIwESaIwEEE
lyx:_ZN3lyx7support15changeExtensionERKNSt7__cxx1112basic_stringIcSt11char_traitsIcESaIcEEES8_
lyx:_ZN3lyx7support15compare_no_caseERKNSt7__cxx1112basic_stringIwSt11char_traitsIwESaIwEEES8_
lyx:_ZN3lyx7support15count_bin_charsERKNSt7__cxx1112basic_stringIcSt11char_traitsIcESaIcEEE
lyx:_ZN3lyx7support15createLyXTmpDirERKNS0_8FileNameE
lyx:_ZN3lyx7support15makeDisplayPathERKNSt7__cxx1112basic_stringIcSt11char_traitsIcESaIcEEEj
lyx:_ZN3lyx7support15protectArgumentERNSt7__cxx1112basic_stringIwSt11char_traitsIwESaIwEEEcc
lyx:_ZN3lyx7support15removeExtensionERKNSt7__cxx1112basic_stringIcSt11char_traitsIcESaIcEEE
lyx:_ZN3lyx7support16FileMonitorGuard11qt_metacallEN11QMetaObject4CallEiPPv
lyx:_ZN3lyx7support16FileMonitorGuard11qt_metacastEPKc
lyx:_ZN3lyx7support16FileMonitorGuard12notifyChangeERK7QString
lyx:_ZN3lyx7support16FileMonitorGuard16staticMetaObjectE
lyx:_ZN3lyx7support16FileMonitorGuard7refreshEb
lyx:_ZN3lyx7support16FileMonitorGuardC1ERKNSt7__cxx1112basic_stringIcSt11char_traitsIcESaIcEEEP18QFileSystemWatcher
lyx:_ZN3lyx7support16FileMonitorGuardC2ERKNSt7__cxx1112basic_stringIcSt11char_traitsIcESaIcEEEP18QFileSystemWatcher
lyx:_ZN3lyx7support16FileMonitorGuardD0Ev
lyx:_ZN3lyx7support16FileMonitorGuardD1Ev
lyx:_ZN3lyx7support16FileMonitorGuardD2Ev
lyx:_ZN3lyx7support16collision_existsERKSt3mapINSt7__cxx1112basic_stringIcSt11char_traitsIcESaIcEEES7_St4lessIS7_ESaISt4pairIKS7_S7_EEERSB_
lyx:_ZN3lyx7support16from_asctime_utcENSt7__cxx1112basic_stringIcSt11char_traitsIcESaIcEEE
lyx:_ZN3lyx7support16isStrUnsignedIntERKNSt7__cxx1112basic_stringIcSt11char_traitsIcESaIcEEE
lyx:_ZN3lyx7support16sanitizeFileNameERKNSt7__cxx1112basic_stringIcSt11char_traitsIcESaIcEEE
lyx:_ZN3lyx7support16unzippedFileNameERKNSt7__cxx1112basic_stringIcSt11char_traitsIcESaIcEEE
lyx:_ZN3lyx7support17ActiveFileMonitor11qt_metacallEN11QMetaObject4CallEiPPv
lyx:_ZN3lyx7support17ActiveFileMonitor11qt_metacastEPKc
lyx:_ZN3lyx7support17ActiveFileMonitor13checkModifiedEv
lyx:_ZN3lyx7support17ActiveFileMonitor16staticMetaObjectE
lyx:_ZN3lyx7support17ActiveFileMonitor18checkModifiedAsyncEv
lyx:_ZN3lyx7support17ActiveFileMonitorC1ESt10shared_ptrINS0_16FileMonitorGuardEERKNS0_8FileNameEi
lyx:_ZN3lyx7support17ActiveFileMonitorC2ESt10shared_ptrINS0_16FileMonitorGuardEERKNS0_8FileNameEi
lyx:_ZN3lyx7support17FileSystemWatcher13activeMonitorERKNS0_8FileNameEi
lyx:_ZN3lyx7support17FileSystemWatcher5debugEv
lyx:_ZN3lyx7support17FileSystemWatcher7monitorERKNS0_8FileNameE
lyx:_ZN3lyx7support17FileSystemWatcher8getGuardERKNS0_8FileNameE
lyx:_ZN3lyx7support17FileSystemWatcher8instanceEv
lyx:_ZN3lyx7support17FileSystemWatcherC1Ev
lyx:_ZN3lyx7support17FileSystemWatcherC2Ev
lyx:_ZN3lyx7support17ProgressInterface11setInstanceEPS1_
lyx:_ZN3lyx7support17ProgressInterface8instanceEv
lyx:_ZN3lyx7support17SystemcallPrivate11killProcessEP8QProcess
lyx:_ZN3lyx7support17SystemcallPrivate11killProcessEv
lyx:_ZN3lyx7support17SystemcallPrivate11kill_scriptE
lyx:_ZN3lyx7support17SystemcallPrivate11qt_metacallEN11QMetaObject4CallEiPPv
lyx:_ZN3lyx7support17SystemcallPrivate11qt_metacastEPKc
lyx:_ZN3lyx7support17SystemcallPrivate12processErrorEN8QProcess12ProcessErrorE
lyx:_ZN3lyx7support17SystemcallPrivate12startProcessERK7QStringRKNSt7__cxx1112basic_stringIcSt11char_traitsIcESaIcEEESC_b
lyx:_ZN3lyx7support17SystemcallPrivate12waitAndCheckEv
lyx:_ZN3lyx7support17SystemcallPrivate14processStartedEv
lyx:_ZN3lyx7support17SystemcallPrivate14releaseProcessEv
lyx:_ZN3lyx7support17SystemcallPrivate15processFinishedEiN8QProcess10ExitStatusE
lyx:_ZN3lyx7support17SystemcallPrivate16staticMetaObjectE
lyx:_ZN3lyx7support17SystemcallPrivate6stdErrEv
lyx:_ZN3lyx7support17SystemcallPrivate6stdOutEv
lyx:_ZN3lyx7support17SystemcallPrivate8exitCodeEv
lyx:_ZN3lyx7support17SystemcallPrivate9waitWhileENS1_5StateEbi
lyx:_ZN3lyx7support17SystemcallPrivateC1ERKNSt7__cxx1112basic_stringIcSt11char_traitsIcESaIcEEES9_S9_
lyx:_ZN3lyx7support17SystemcallPrivateC2ERKNSt7__cxx1112basic_stringIcSt11char_traitsIcESaIcEEES9_S9_
lyx:_ZN3lyx7support17SystemcallPrivateD0Ev
lyx:_ZN3lyx7support17SystemcallPrivateD1Ev
lyx:_ZN3lyx7support17SystemcallPrivateD2Ev
lyx:_ZN3lyx7support17i18nLibFileSearchERKNSt7__cxx1112basic_stringIcSt11char_traitsIcESaIcEEES8_S8_
lyx:_ZN3lyx7support17latexEnvCmdPrefixERKNSt7__cxx1112basic_stringIcSt11char_traitsIcESaIcEEES8_
lyx:_ZN3lyx7support17replaceCurdirPathERKNSt7__cxx1112basic_stringIcSt11char_traitsIcESaIcEEES8_
lyx:_ZN3lyx7support18ConsoleApplication4execEv
lyx:_ZN3lyx7support18ConsoleApplication4exitEi
lyx:_ZN3lyx7support18ConsoleApplicationC2ERKNSt7__cxx1112basic_stringIcSt11char_traitsIcESaIcEEERiPPc
lyx:_ZN3lyx7support18ConsoleApplicationD0Ev
lyx:_ZN3lyx7support18ConsoleApplicationD1Ev
lyx:_ZN3lyx7support18ConsoleApplicationD2Ev
lyx:_ZN3lyx7support18compare_timestampsERKNS0_8FileNameES3_
lyx:_ZN3lyx7support18formatted_datetimeElRKNSt7__cxx1112basic_stringIcSt11char_traitsIcESaIcEEE
lyx:_ZN3lyx7support18imageLibFileSearchERNSt7__cxx1112basic_stringIcSt11char_traitsIcESaIcEEERKS6_S9_NS0_11search_modeEb
lyx:_ZN3lyx7support18isValidDVIFileNameERKNSt7__cxx1112basic_stringIcSt11char_traitsIcESaIcEEE
lyx:_ZN3lyx7support19getStringFromVectorERKSt6vectorINSt7__cxx1112basic_stringIcSt11char_traitsIcESaIcEEESaIS7_EERKS7_
lyx:_ZN3lyx7support19getStringFromVectorERKSt6vectorINSt7__cxx1112basic_stringIwSt11char_traitsIwESaIwEEESaIS7_EERKS7_
lyx:_ZN3lyx7support19getVectorFromStringERKNSt7__cxx1112basic_stringIcSt11char_traitsIcESaIcEEES8_bb
lyx:_ZN3lyx7support19getVectorFromStringERKNSt7__cxx1112basic_stringIwSt11char_traitsIwESaIwEEES8_bb
lyx:_ZN3lyx7support19to_percent_encodingERKNSt7__cxx1112basic_stringIwSt11char_traitsIwESaIwEEES8_
lyx:_ZN3lyx7support20isValidLaTeXFileNameERKNSt7__cxx1112basic_stringIcSt11char_traitsIcESaIcEEE
lyx:_ZN3lyx7support20truncateWithEllipsisERNSt7__cxx1112basic_stringIwSt11char_traitsIwESaIwEEEmb
lyx:_ZN3lyx7support21ForkedCallsController24handleCompletedProcessesEv
lyx:_ZN3lyx7support21ForkedCallsController4killEii
lyx:_ZN3lyx7support21ForkedCallsController7addCallERKNS0_13ForkedProcessE
lyx:_ZN3lyx7support21ForkedCallsController8find_pidEi
lyx:_ZN3lyx7support21compare_ascii_no_caseERKNSt7__cxx1112basic_stringIcSt11char_traitsIcESaIcEEES8_
lyx:_ZN3lyx7support21compare_ascii_no_caseERKNSt7__cxx1112basic_stringIwSt11char_traitsIwESaIwEEES8_
lyx:_ZN3lyx7support21configFileNeedsUpdateERKNSt7__cxx1112basic_stringIcSt11char_traitsIcESaIcEEE
lyx:_ZN3lyx7support21from_percent_encodingERKNSt7__cxx1112basic_stringIcSt11char_traitsIcESaIcEEE
lyx:_ZN3lyx7support22replaceEnvironmentPathERKNSt7__cxx1112basic_stringIcSt11char_traitsIcESaIcEEE
lyx:_ZN3lyx7support25ConsoleApplicationPrivate11qt_metacallEN11QMetaObject4CallEiPPv
lyx:_ZN3lyx7support25ConsoleApplicationPrivate11qt_metacastEPKc
lyx:_ZN3lyx7support25ConsoleApplicationPrivate16staticMetaObjectE
lyx:_ZN3lyx7support26checksum_ifstream_fallbackEPKc
lyx:_ZN3lyx7support2os10latex_pathERKNSt7__cxx1112basic_stringIcSt11char_traitsIcESaIcEEE
lyx:_ZN3lyx7support2os10timeout_msEv
lyx:_ZN3lyx7support2os11common_pathERKNSt7__cxx1112basic_stringIwSt11char_traitsIwESaIwEEES9_
lyx:_ZN3lyx7support2os11python_infoB5cxx11Ev
lyx:_ZN3lyx7support2os12autoOpenFileERKNSt7__cxx1112basic_stringIcSt11char_traitsIcESaIcEEENS1_14auto_open_modeES9_
lyx:_ZN3lyx7support2os12current_rootB5cxx11Ev
lyx:_ZN3lyx7support2os13external_pathERKNSt7__cxx1112basic_stringIcSt11char_traitsIcESaIcEEE
lyx:_ZN3lyx7support2os13internal_pathERKNSt7__cxx1112basic_stringIcSt11char_traitsIcESaIcEEE
lyx:_ZN3lyx7support2os14path_prefix_isERKNSt7__cxx1112basic_stringIcSt11char_traitsIcESaIcEEES9_
lyx:_ZN3lyx7support2os14path_prefix_isERNSt7__cxx1112basic_stringIcSt11char_traitsIcESaIcEEERKS7_NS1_9path_caseE
lyx:_ZN3lyx7support2os14path_separatorENS1_9path_typeE
lyx:_ZN3lyx7support2os15canAutoOpenFileERKNSt7__cxx1112basic_stringIcSt11char_traitsIcESaIcEEENS1_14auto_open_modeE
lyx:_ZN3lyx7support2os15latex_path_listERKNSt7__cxx1112basic_stringIcSt11char_traitsIcESaIcEEE
lyx:_ZN3lyx7support2os15popen_read_modeEv
lyx:_ZN3lyx7support2os18external_path_listERKNSt7__cxx1112basic_stringIcSt11char_traitsIcESaIcEEE
lyx:_ZN3lyx7support2os18internal_path_listERKNSt7__cxx1112basic_stringIcSt11char_traitsIcESaIcEEE
lyx:_ZN3lyx7support2os18safe_internal_pathERKNSt7__cxx1112basic_stringIcSt11char_traitsIcESaIcEEENS1_11file_accessE
lyx:_ZN3lyx7support2os20remove_internal_argsEii
lyx:_ZN3lyx7support2os23windows_style_tex_pathsEb
lyx:_ZN3lyx7support2os25isFilesystemCaseSensitiveEv
lyx:_ZN3lyx7support2os4initEiPPPc
lyx:_ZN3lyx7support2os5shellEv
lyx:_ZN3lyx7support2os6pythonB5cxx11Eb
lyx:_ZN3lyx7support2os7nulldevB5cxx11Ev
lyx:_ZN3lyx7support2os9hasPythonEv
lyx:_ZN3lyx7support2os9real_pathERKNSt7__cxx1112basic_stringIcSt11char_traitsIcESaIcEEE
lyx:_ZN3lyx7support2os9utf8_argvB5cxx11Ei
lyx:_ZN3lyx7support4killEii
lyx:_ZN3lyx7support4trimERKNSt7__cxx1112basic_stringIcSt11char_traitsIcESaIcEEEPKc
lyx:_ZN3lyx7support4trimERKNSt7__cxx1112basic_stringIwSt11char_traitsIwESaIwEEEPKc
lyx:_ZN3lyx7support4wrapERKNSt7__cxx1112basic_stringIwSt11char_traitsIwESaIwEEEim
lyx:_ZN3lyx7support5isHexERKNSt7__cxx1112basic_stringIwSt11char_traitsIwESaIwEEE
lyx:_ZN3lyx7support5ltrimERKNSt7__cxx1112basic_stringIcSt11char_traitsIcESaIcEEEPKc
lyx:_ZN3lyx7support5ltrimERKNSt7__cxx1112basic_stringIwSt11char_traitsIwESaIwEEEPKc
lyx:_ZN3lyx7support5rtrimERKNSt7__cxx1112basic_stringIcSt11char_traitsIcESaIcEEEPKc
lyx:_ZN3lyx7support5rtrimERKNSt7__cxx1112basic_stringIwSt11char_traitsIwESaIwEEEPKc
lyx:_ZN3lyx7support5splitERKNSt7__cxx1112basic_stringIcSt11char_traitsIcESaIcEEERS6_c
lyx:_ZN3lyx7support5splitERKNSt7__cxx1112basic_stringIcSt11char_traitsIcESaIcEEEc
lyx:_ZN3lyx7support5splitERKNSt7__cxx1112basic_stringIwSt11char_traitsIwESaIwEEERS6_w
lyx:_ZN3lyx7support5substERKNSt7__cxx1112basic_stringIcSt11char_traitsIcESaIcEEES8_S8_
lyx:_ZN3lyx7support5substERKNSt7__cxx1112basic_stringIcSt11char_traitsIcESaIcEEEcc
lyx:_ZN3lyx7support5substERKNSt7__cxx1112basic_stringIwSt11char_traitsIwESaIwEEES8_S8_b
lyx:_ZN3lyx7support5substERKNSt7__cxx1112basic_stringIwSt11char_traitsIwESaIwEEEww
lyx:_ZN3lyx7support5tokenERKNSt7__cxx1112basic_stringIcSt11char_traitsIcESaIcEEEci
lyx:_ZN3lyx7support5tokenERKNSt7__cxx1112basic_stringIwSt11char_traitsIwESaIwEEEwi
lyx:_ZN3lyx7support6escapeERKNSt7__cxx1112basic_stringIwSt11char_traitsIwESaIwEEE
lyx:_ZN3lyx7support6getEnvERKNSt7__cxx1112basic_stringIcSt11char_traitsIcESaIcEEE
lyx:_ZN3lyx7support6hasEnvERKNSt7__cxx1112basic_stringIcSt11char_traitsIcESaIcEEE
lyx:_ZN3lyx7support6rsplitERKNSt7__cxx1112basic_stringIcSt11char_traitsIcESaIcEEERS6_c
lyx:_ZN3lyx7support6rsplitERKNSt7__cxx1112basic_stringIwSt11char_traitsIwESaIwEEERS6_w
lyx:_ZN3lyx7support6rsplitERKNSt7__cxx1112basic_stringIwSt11char_traitsIwESaIwEEEw
lyx:_ZN3lyx7support6setEnvERKNSt7__cxx1112basic_stringIcSt11char_traitsIcESaIcEEES8_
lyx:_ZN3lyx7support7Package10top_srcdirEv
lyx:_ZN3lyx7support7Package12get_home_dirEv
lyx:_ZN3lyx7support7PackageC1ERKNSt7__cxx1112basic_stringIcSt11char_traitsIcESaIcEEES9_S9_
lyx:_ZN3lyx7support7PackageC2ERKNSt7__cxx1112basic_stringIcSt11char_traitsIcESaIcEEES9_S9_
lyx:_ZN3lyx7support7addNameERKNSt7__cxx1112basic_stringIcSt11char_traitsIcESaIcEEES8_
lyx:_ZN3lyx7support7addPathERKNSt7__cxx1112basic_stringIcSt11char_traitsIcESaIcEEES8_
lyx:_ZN3lyx7support7bformatERKNSt7__cxx1112basic_stringIwSt11char_traitsIwESaIwEEEPKcS8_
lyx:_ZN3lyx7support7bformatERKNSt7__cxx1112basic_stringIwSt11char_traitsIwESaIwEEEPc
lyx:_ZN3lyx7support7bformatERKNSt7__cxx1112basic_stringIwSt11char_traitsIwESaIwEEES8_
lyx:_ZN3lyx7support7bformatERKNSt7__cxx1112basic_stringIwSt11char_traitsIwESaIwEEES8_S8_
lyx:_ZN3lyx7support7bformatERKNSt7__cxx1112basic_stringIwSt11char_traitsIwESaIwEEES8_S8_S8_
lyx:_ZN3lyx7support7bformatERKNSt7__cxx1112basic_stringIwSt11char_traitsIwESaIwEEES8_S8_S8_S8_
lyx:_ZN3lyx7support7bformatERKNSt7__cxx1112basic_stringIwSt11char_traitsIwESaIwEEES8_S8_S8_S8_S8_
lyx:_ZN3lyx7support7bformatERKNSt7__cxx1112basic_stringIwSt11char_traitsIwESaIwEEES8_i
lyx:_ZN3lyx7support7bformatERKNSt7__cxx1112basic_stringIwSt11char_traitsIwESaIwEEEi
lyx:_ZN3lyx7support7bformatERKNSt7__cxx1112basic_stringIwSt11char_traitsIwESaIwEEEii
lyx:_ZN3lyx7support7bformatERKNSt7__cxx1112basic_stringIwSt11char_traitsIwESaIwEEEj
lyx:_ZN3lyx7support7bformatERKNSt7__cxx1112basic_stringIwSt11char_traitsIwESaIwEEEl
lyx:_ZN3lyx7support7bformatERKNSt7__cxx1112basic_stringIwSt11char_traitsIwESaIwEEEx
lyx:_ZN3lyx7support7isAsciiERKNSt7__cxx1112basic_stringIcSt11char_traitsIcESaIcEEE
lyx:_ZN3lyx7support7isAsciiERKNSt7__cxx1112basic_stringIwSt11char_traitsIwESaIwEEE
lyx:_ZN3lyx7support7packageEv
lyx:_ZN3lyx7support8FileName10isAbsoluteERKNSt7__cxx1112basic_stringIcSt11char_traitsIcESaIcEEE
lyx:_ZN3lyx7support8FileName12hasExtensionERKNSt7__cxx1112basic_stringIcSt11char_traitsIcESaIcEEE
lyx:_ZN3lyx7support8FileName15changeExtensionERKNSt7__cxx1112basic_stringIcSt11char_traitsIcESaIcEEE
lyx:_ZN3lyx7support8FileName15ensureExtensionERKNSt7__cxx1112basic_stringIcSt11char_traitsIcESaIcEEE
lyx:_ZN3lyx7support8FileName16clonePermissionsERKS1_
lyx:_ZN3lyx7support8FileName22fromFilesystemEncodingERKNSt7__cxx1112basic_stringIcSt11char_traitsIcESaIcEEE
lyx:_ZN3lyx7support8FileName3setERKNSt7__cxx1112basic_stringIcSt11char_traitsIcESaIcEEE
lyx:_ZN3lyx7support8FileName3setERKS1_RKNSt7__cxx1112basic_stringIcSt11char_traitsIcESaIcEEE
lyx:_ZN3lyx7support8FileName5eraseEv
lyx:_ZN3lyx7support8FileName6getcwdEv
lyx:_ZN3lyx7support8FileName8tempPathEv
lyx:_ZN3lyx7support8FileNameC1ERKNSt7__cxx1112basic_stringIcSt11char_traitsIcESaIcEEE
lyx:_ZN3lyx7support8FileNameC1ERKS1_
lyx:_ZN3lyx7support8FileNameC1ERKS1_RKNSt7__cxx1112basic_stringIcSt11char_traitsIcESaIcEEE
lyx:_ZN3lyx7support8FileNameC1Ev
lyx:_ZN3lyx7support8FileNameC2ERKNSt7__cxx1112basic_stringIcSt11char_traitsIcESaIcEEE
lyx:_ZN3lyx7support8FileNameC2ERKS1_
lyx:_ZN3lyx7support8FileNameC2ERKS1_RKNSt7__cxx1112basic_stringIcSt11char_traitsIcESaIcEEE
lyx:_ZN3lyx7support8FileNameC2Ev
lyx:_ZN3lyx7support8FileNameD0Ev
lyx:_ZN3lyx7support8FileNameD1Ev
lyx:_ZN3lyx7support8FileNameD2Ev
lyx:_ZN3lyx7support8FileNameaSERKS1_
lyx:_ZN3lyx7support8TempFile13setAutoRemoveEb
lyx:_ZN3lyx7support8TempFileC1ERKNS0_8FileNameERKNSt7__cxx1112basic_stringIcSt11char_traitsIcESaIcEEE
lyx:_ZN3lyx7support8TempFileC1ERKNSt7__cxx1112basic_stringIcSt11char_traitsIcESaIcEEE
lyx:_ZN3lyx7support8TempFileC2ERKNS0_8FileNameERKNSt7__cxx1112basic_stringIcSt11char_traitsIcESaIcEEE
lyx:_ZN3lyx7support8TempFileC2ERKNSt7__cxx1112basic_stringIcSt11char_traitsIcESaIcEEE
lyx:_ZN3lyx7support8TempFileD1Ev
lyx:_ZN3lyx7support8TempFileD2Ev
lyx:_ZN3lyx7support8checksumEPKhS2_
lyx:_ZN3lyx7support8checksumERKNSt7__cxx1112basic_stringIcSt11char_traitsIcESaIcEEE
lyx:_ZN3lyx7support8checksumERSt14basic_ifstreamIcSt11char_traitsIcEE
lyx:_ZN3lyx7support8fileLockEPKc
lyx:_ZN3lyx7support8hexToIntERKNSt7__cxx1112basic_stringIwSt11char_traitsIwESaIwEEE
lyx:_ZN3lyx7support8isStrDblERKNSt7__cxx1112basic_stringIcSt11char_traitsIcESaIcEEE
lyx:_ZN3lyx7support8isStrIntERKNSt7__cxx1112basic_stringIcSt11char_traitsIcESaIcEEE
lyx:_ZN3lyx7support8onlyPathERKNSt7__cxx1112basic_stringIcSt11char_traitsIcESaIcEEE
lyx:_ZN3lyx7support8prefixIsERKNSt7__cxx1112basic_stringIcSt11char_traitsIcESaIcEEES8_
lyx:_ZN3lyx7support8prefixIsERKNSt7__cxx1112basic_stringIwSt11char_traitsIwESaIwEEES8_
lyx:_ZN3lyx7support8prefixIsERKNSt7__cxx1112basic_stringIwSt11char_traitsIwESaIwEEEw
lyx:_ZN3lyx7support8readLinkERKNS0_8FileNameERS1_
lyx:_ZN3lyx7support8suffixIsERKNSt7__cxx1112basic_stringIcSt11char_traitsIcESaIcEEES8_
lyx:_ZN3lyx7support8suffixIsERKNSt7__cxx1112basic_stringIcSt11char_traitsIcESaIcEEEc
lyx:_ZN3lyx7support8suffixIsERKNSt7__cxx1112basic_stringIwSt11char_traitsIwESaIwEEES8_
lyx:_ZN3lyx7support8suffixIsERKNSt7__cxx1112basic_stringIwSt11char_traitsIwESaIwEEEw
lyx:_ZN3lyx7support8tokenPosERKNSt7__cxx1112basic_stringIcSt11char_traitsIcESaIcEEEcS8_
lyx:_ZN3lyx7support8tokenPosERKNSt7__cxx1112basic_stringIwSt11char_traitsIwESaIwEEEwS8_
lyx:_ZN3lyx7support8unsetEnvERKNSt7__cxx1112basic_stringIcSt11char_traitsIcESaIcEEE
lyx:_ZN3lyx7support9findTokenEPKPKcRKNSt7__cxx1112basic_stringIcSt11char_traitsIcESaIcEEE
lyx:_ZN3lyx7support9isHexCharEw
lyx:_ZN3lyx7support9lowercaseERKNSt7__cxx1112basic_stringIwSt11char_traitsIwESaIwEEE
lyx:_ZN3lyx7support9lowercaseEc
lyx:_ZN3lyx7support9lowercaseEw
lyx:_ZN3lyx7support9quoteNameERKNSt7__cxx1112basic_stringIcSt11char_traitsIcESaIcEEENS0_11quote_styleE
lyx:_ZN3lyx7support9socktools6acceptEi
lyx:_ZN3lyx7support9socktools6listenERKNS0_8FileNameEi
lyx:_ZN3lyx7support9subscriptEw
lyx:_ZN3lyx7support9toHexHashERKNSt7__cxx1112basic_stringIcSt11char_traitsIcESaIcEEEb
lyx:_ZN3lyx7support9unzipFileERKNS0_8FileNameERKNSt7__cxx1112basic_stringIcSt11char_traitsIcESaIcEEE
lyx:_ZN3lyx7support9uppercaseERKNSt7__cxx1112basic_stringIwSt11char_traitsIwESaIwEEE
lyx:_ZN3lyx7support9uppercaseEc
lyx:_ZN3lyx7support9uppercaseEw
lyx:_ZN3lyx7support9user_nameB5cxx11Ev
lyx:_ZN3lyx7support9wordCountERKNSt7__cxx1112basic_stringIwSt11char_traitsIwESaIwEEE
lyx:_ZN3lyx7support9wrapParasERKNSt7__cxx1112basic_stringIwSt11char_traitsIwESaIwEEEimm
lyx:_ZN3lyx7supporteqERKNS0_11DocFileNameES3_
lyx:_ZN3lyx7supporteqERKNS0_8FileNameES3_
lyx:_ZN3lyx7supportgtERKNS0_8FileNameES3_
lyx:_ZN3lyx7supportlsERSoRKNS0_8FileNameE
lyx:_ZN3lyx7supportltERKNS0_8FileNameES3_
lyx:_ZN3lyx7supportneERKNS0_11DocFileNameES3_
lyx:_ZN3lyx7supportneERKNS0_8FileNameES3_
lyx:_ZN3lyx7termcmdE
lyx:_ZN3lyx7to_utf8ERKNSt7__cxx1112basic_stringIwSt11char_traitsIwESaIwEEE
lyx:_ZN3lyx7use_guiE
lyx:_ZN3lyx7verboseE
lyx:_ZN3lyx8CharInfoC1ERKNSt7__cxx1112basic_stringIwSt11char_traitsIwESaIwEEES8_RKNS2_IcS3_IcESaIcEEESD_SD_j
lyx:_ZN3lyx8CharInfoC1ERKSt6vectorINSt7__cxx1112basic_stringIwSt11char_traitsIwESaIwEEESaIS7_EESB_RKNS3_IcS4_IcESaIcEEESG_SG_j
lyx:_ZN3lyx8CharInfoC2ERKNSt7__cxx1112basic_stringIwSt11char_traitsIwESaIwEEES8_RKNS2_IcS3_IcESaIcEEESD_SD_j
lyx:_ZN3lyx8CharInfoC2ERKSt6vectorINSt7__cxx1112basic_stringIwSt11char_traitsIwESaIwEEESaIS7_EESB_RKNS3_IcS4_IcESaIcEEESG_SG_j
lyx:_ZN3lyx8ColorSet10setGUINameERKNSt7__cxx1112basic_stringIcSt11char_traitsIcESaIcEEES8_
lyx:_ZN3lyx8ColorSet12setLaTeXNameERKNSt7__cxx1112basic_stringIcSt11char_traitsIcESaIcEEES8_
lyx:_ZN3lyx8ColorSet4fillERKNS0_10ColorEntryE
lyx:_ZN3lyx8ColorSet8addColorENS_9ColorCodeERKNSt7__cxx1112basic_stringIcSt11char_traitsIcESaIcEEE
lyx:_ZN3lyx8ColorSet8setColorENS_9ColorCodeERKNSt7__cxx1112basic_stringIcSt11char_traitsIcESaIcEEES9_
lyx:_ZN3lyx8ColorSet8setColorERKNSt7__cxx1112basic_stringIcSt11char_traitsIcESaIcEEES8_S8_
lyx:_ZN3lyx8ColorSetC1Ev
lyx:_ZN3lyx8ColorSetC2Ev
lyx:_ZN3lyx8Counters10newCounterERKNSt7__cxx1112basic_stringIwSt11char_traitsIwESaIwEEES8_S8_S8_S8_S8_
lyx:_ZN3lyx8Counters10stepParentERKNSt7__cxx1112basic_stringIwSt11char_traitsIwESaIwEEENS_10UpdateTypeE
lyx:_ZN3lyx8Counters13resetChildrenERKNSt7__cxx1112basic_stringIwSt11char_traitsIwESaIwEEE
lyx:_ZN3lyx8Counters14endEnvironmentEv
lyx:_ZN3lyx8Counters15setActiveLayoutERKNS_6LayoutE
lyx:_ZN3lyx8Counters16beginEnvironmentEv
lyx:_ZN3lyx8Counters3setERKNSt7__cxx1112basic_stringIwSt11char_traitsIwESaIwEEEi
lyx:_ZN3lyx8Counters4copyERKNSt7__cxx1112basic_stringIwSt11char_traitsIwESaIwEEES8_
lyx:_ZN3lyx8Counters4readERNS_5LexerERKNSt7__cxx1112basic_stringIwSt11char_traitsIwESaIwEEEb
lyx:_ZN3lyx8Counters4stepERKNSt7__cxx1112basic_stringIwSt11char_traitsIwESaIwEEENS_10UpdateTypeE
lyx:_ZN3lyx8Counters5addtoERKNSt7__cxx1112basic_stringIwSt11char_traitsIwESaIwEEEi
lyx:_ZN3lyx8Counters5resetERKNSt7__cxx1112basic_stringIwSt11char_traitsIwESaIwEEE
lyx:_ZN3lyx8Counters5resetEv
lyx:_ZN3lyx8Counters6removeERKNSt7__cxx1112basic_stringIwSt11char_traitsIwESaIwEEE
lyx:_ZN3lyx8CountersC1Ev
lyx:_ZN3lyx8CountersC2Ev
lyx:_ZN3lyx8DepTable11remove_fileERKNS_7support8FileNameE
lyx:_ZN3lyx8DepTable27remove_files_with_extensionERKNSt7__cxx1112basic_stringIcSt11char_traitsIcESaIcEEE
lyx:_ZN3lyx8DepTable4readERKNS_7support8FileNameE
lyx:_ZN3lyx8DepTable6insertERKNS_7support8FileNameEb
lyx:_ZN3lyx8DepTable6updateEv
lyx:_ZN3lyx8Encoding3anyE
lyx:_ZN3lyx8EncodingC1ERKNSt7__cxx1112basic_stringIcSt11char_traitsIcESaIcEEES8_S8_S8_bbNS0_7PackageE
lyx:_ZN3lyx8EncodingC2ERKNSt7__cxx1112basic_stringIcSt11char_traitsIcESaIcEEES8_S8_S8_bbNS0_7PackageE
lyx:_ZN3lyx8FloatingC1ERKNSt7__cxx1112basic_stringIcSt11char_traitsIcESaIcEEES8_S8_S8_S8_S8_S8_S8_S8_S8_S8_S8_RKNS2_IwS3_IwESaIwEEES8_S8_S8_S8_S8_S8_bbbb
lyx:_ZN3lyx8FloatingC2ERKNSt7__cxx1112basic_stringIcSt11char_traitsIcESaIcEEES8_S8_S8_S8_S8_S8_S8_S8_S8_S8_S8_RKNS2_IwS3_IwESaIwEEES8_S8_S8_S8_S8_S8_bbbb
lyx:_ZN3lyx8FontInfo11changeColorENS_9ColorCodeE
lyx:_ZN3lyx8FontInfo11changeShapeENS_9FontShapeE
lyx:_ZN3lyx8FontInfo11changeStyleENS_9MathStyleE
lyx:_ZN3lyx8FontInfo6changeES0_b
lyx:_ZN3lyx8FontInfo6reduceERKS0_
lyx:_ZN3lyx8FontInfo6updateERKS0_b
lyx:_ZN3lyx8FontInfo7decSizeEv
lyx:_ZN3lyx8FontInfo7incSizeEv
lyx:_ZN3lyx8FontInfo7realizeERKS0_
lyx:_ZN3lyx8FontInfoC1Ev
lyx:_ZN3lyx8FontInfoC2Ev
lyx:_ZN3lyx8FontList12fontIteratorEl
lyx:_ZN3lyx8FontList19decreasePosAfterPosEl
lyx:_ZN3lyx8FontList19increasePosAfterPosEl
lyx:_ZN3lyx8FontList3getEl
lyx:_ZN3lyx8FontList3setElRKNS_4FontE
lyx:_ZN3lyx8FontList5eraseEl
lyx:_ZN3lyx8InsetBox10doDispatchERNS_6CursorERNS_11FuncRequestE
lyx:_ZN3lyx8InsetBox13params2stringB5cxx11ERKNS_14InsetBoxParamsE
lyx:_ZN3lyx8InsetBox13string2paramsERKNSt7__cxx1112basic_stringIcSt11char_traitsIcESaIcEEERNS_14InsetBoxParamsE
lyx:_ZN3lyx8InsetBox14setButtonLabelEv
lyx:_ZN3lyx8InsetBox4readERNS_5LexerE
lyx:_ZN3lyx8InsetBoxC1EPNS_6BufferERKNSt7__cxx1112basic_stringIcSt11char_traitsIcESaIcEEE
lyx:_ZN3lyx8InsetBoxC2EPNS_6BufferERKNSt7__cxx1112basic_stringIcSt11char_traitsIcESaIcEEE
lyx:_ZN3lyx8InsetERT10doDispatchERNS_6CursorERNS_11FuncRequestE
lyx:_ZN3lyx8InsetERT13params2stringB5cxx11ENS_16InsetCollapsible14CollapseStatusE
lyx:_ZN3lyx8InsetERT13string2paramsERKNSt7__cxx1112basic_stringIcSt11char_traitsIcESaIcEEE
lyx:_ZN3lyx8InsetERTC1EPNS_6BufferENS_16InsetCollapsible14CollapseStatusE
lyx:_ZN3lyx8InsetERTC1ERKS0_
lyx:_ZN3lyx8InsetERTC2EPNS_6BufferENS_16InsetCollapsible14CollapseStatusE
lyx:_ZN3lyx8InsetERTC2ERKS0_
lyx:_ZN3lyx8InsetIPA10doDispatchERNS_6CursorERNS_11FuncRequestE
lyx:_ZN3lyx8InsetIPA18notifyCursorLeavesERKNS_6CursorERS1_
lyx:_ZN3lyx8InsetIPA4editERNS_6CursorEbNS_5Inset14EntryDirectionE
lyx:_ZN3lyx8InsetIPA6editXYERNS_6CursorEii
lyx:_ZN3lyx8InsetIPAC1EPNS_6BufferE
lyx:_ZN3lyx8InsetIPAC1ERKS0_
lyx:_ZN3lyx8InsetIPAC2EPNS_6BufferE
lyx:_ZN3lyx8InsetIPAC2ERKS0_
lyx:_ZN3lyx8InsetIPAD0Ev
lyx:_ZN3lyx8InsetIPAD1Ev
lyx:_ZN3lyx8InsetIPAD2Ev
lyx:_ZN3lyx8InsetIPAaSERKS0_
lyx:_ZN3lyx8InsetRef10doDispatchERNS_6CursorERNS_11FuncRequestE
lyx:_ZN3lyx8InsetRef12changeTargetERKNSt7__cxx1112basic_stringIwSt11char_traitsIwESaIwEEE
lyx:_ZN3lyx8InsetRef12updateBufferERKNS_11ParIteratorENS_10UpdateTypeEb
lyx:_ZN3lyx8InsetRef15getFormattedCmdERKNSt7__cxx1112basic_stringIwSt11char_traitsIwESaIwEEERS6_S9_bb
lyx:_ZN3lyx8InsetRef19isCompatibleCommandERKNSt7__cxx1112basic_stringIcSt11char_traitsIcESaIcEEE
lyx:_ZN3lyx8InsetRef5typesE
lyx:_ZN3lyx8InsetRef8findInfoERKNSt7__cxx1112basic_stringIcSt11char_traitsIcESaIcEEE
lyx:_ZN3lyx8InsetRefC1EPNS_6BufferERKNS_18InsetCommandParamsE
lyx:_ZN3lyx8InsetRefC1ERKS0_
lyx:_ZN3lyx8InsetRefC2EPNS_6BufferERKNS_18InsetCommandParamsE
lyx:_ZN3lyx8InsetRefC2ERKS0_
lyx:_ZN3lyx8InsetTOC10doDispatchERNS_6CursorERNS_11FuncRequestE
lyx:_ZN3lyx8InsetTOC19isCompatibleCommandERKNSt7__cxx1112basic_stringIcSt11char_traitsIcESaIcEEE
lyx:_ZN3lyx8InsetTOC8findInfoERKNSt7__cxx1112basic_stringIcSt11char_traitsIcESaIcEEE
lyx:_ZN3lyx8InsetTOCC1EPNS_6BufferERKNS_18InsetCommandParamsE
lyx:_ZN3lyx8InsetTOCC2EPNS_6BufferERKNS_18InsetCommandParamsE
lyx:_ZN3lyx8Language12readLanguageERNS_5LexerE
lyx:_ZN3lyx8Language22readLayoutTranslationsERKSt3mapINSt7__cxx1112basic_stringIcSt11char_traitsIcESaIcEEENS3_IwS4_IwESaIwEEESt4lessIS7_ESaISt4pairIKS7_SA_EEEb
lyx:_ZN3lyx8Language4readERNS_5LexerE
lyx:_ZN3lyx8MathAtomC1EPNS_9InsetMathE
lyx:_ZN3lyx8MathAtomC1ERKS0_
lyx:_ZN3lyx8MathAtomC2EPNS_9InsetMathE
lyx:_ZN3lyx8MathAtomC2ERKS0_
lyx:_ZN3lyx8MathAtomaSERKS0_
lyx:_ZN3lyx8MathData12updateBufferERKNS_11ParIteratorENS_10UpdateTypeEb
lyx:_ZN3lyx8MathData12updateMacrosEPNS_6CursorERKNS_12MacroContextENS_10UpdateTypeEi
lyx:_ZN3lyx8MathData17collectParametersEPNS_6CursorEmRSt6vectorIS0_SaIS0_EERmRNS_8MathAtomEmiim
lyx:_ZN3lyx8MathData17setContentsBufferEv
lyx:_ZN3lyx8MathData21attachMacroParametersEPNS_6CursorEmmibbm
lyx:_ZN3lyx8MathData21detachMacroParametersEPNS_11DocIteratorEm
lyx:_ZN3lyx8MathData25collectOptionalParametersEPNS_6CursorEmRSt6vectorIS0_SaIS0_EERmRNS_8MathAtomEmii
lyx:_ZN3lyx8MathData5eraseEN9__gnu_cxx17__normal_iteratorIPNS_8MathAtomESt6vectorIS3_SaIS3_EEEE
lyx:_ZN3lyx8MathData5eraseEN9__gnu_cxx17__normal_iteratorIPNS_8MathAtomESt6vectorIS3_SaIS3_EEEES8_
lyx:_ZN3lyx8MathData5eraseEm
lyx:_ZN3lyx8MathData5eraseEmm
lyx:_ZN3lyx8MathData6appendERKS0_
lyx:_ZN3lyx8MathData6insertEmRKNS_8MathAtomE
lyx:_ZN3lyx8MathData6insertEmRKS0_
lyx:_ZN3lyx8MathData7replaceERNS_11ReplaceDataE
lyx:_ZN3lyx8MathData9push_backERKNS_8MathAtomE
lyx:_ZN3lyx8MathData9setBufferERNS_6BufferE
lyx:_ZN3lyx8MathDataC1EPNS_6BufferEN9__gnu_cxx17__normal_iteratorIPKNS_8MathAtomESt6vectorIS5_SaIS5_EEEESB_
lyx:_ZN3lyx8MathDataC2EPNS_6BufferEN9__gnu_cxx17__normal_iteratorIPKNS_8MathAtomESt6vectorIS5_SaIS5_EEEESB_
lyx:_ZN3lyx8MathDataixEm
lyx:_ZN3lyx8Messages10readMoFileEv
lyx:_ZN3lyx8Messages9availableERKNSt7__cxx1112basic_stringIcSt11char_traitsIcESaIcEEE
lyx:_ZN3lyx8Messages9gui_lang_B5cxx11E
lyx:_ZN3lyx8MessagesC1ERKNSt7__cxx1112basic_stringIcSt11char_traitsIcESaIcEEE
lyx:_ZN3lyx8MessagesC2ERKNSt7__cxx1112basic_stringIcSt11char_traitsIcESaIcEEE
lyx:_ZN3lyx8TransFSMC1Ev
lyx:_ZN3lyx8TransFSMC2Ev
lyx:_ZN3lyx8WordList6insertERKNSt7__cxx1112basic_stringIwSt11char_traitsIwESaIwEEE
lyx:_ZN3lyx8WordList6removeERKNSt7__cxx1112basic_stringIwSt11char_traitsIwESaIwEEE
lyx:_ZN3lyx8WordListC1Ev
lyx:_ZN3lyx8WordListC2Ev
lyx:_ZN3lyx8asStringB5cxx11ERKNS_8MathAtomE
lyx:_ZN3lyx8asStringB5cxx11ERKNS_8MathDataE
lyx:_ZN3lyx8asStringB5cxx11ERKNS_9InsetMathE
lyx:_ZN3lyx8copyFileERKNSt7__cxx1112basic_stringIcSt11char_traitsIcESaIcEEERKNS_7support8FileNameESB_S7_bb
lyx:_ZN3lyx8dispatchERKNS_11FuncRequestE
lyx:_ZN3lyx8dispatchERKNS_11FuncRequestERNS_14DispatchResultE
lyx:_ZN3lyx8doAppErrEPKcS1_l
lyx:_ZN3lyx8doAssertEPKcS1_l
lyx:_ZN3lyx8doBufErrEPKcS1_l
lyx:_ZN3lyx8doWarnIfEPKcS1_l
lyx:_ZN3lyx8external10DumpFormatB5cxx11ERSo
lyx:_ZN3lyx8external12DumpTemplateB5cxx11ERSo
lyx:_ZN3lyx8external12RotationData6originERKNSt7__cxx1112basic_stringIcSt11char_traitsIcESaIcEEE
lyx:_ZN3lyx8external12editExternalERKNS_19InsetExternalParamsERKNS_6BufferE
lyx:_ZN3lyx8external13writeExternalERKNS_19InsetExternalParamsERKNSt7__cxx1112basic_stringIcSt11char_traitsIcESaIcEEERKNS_6BufferERNS_10otexstreamERNS_10ExportDataEbb
lyx:_ZN3lyx8external14doSubstitutionERKNS_19InsetExternalParamsERKNS_6BufferERKNSt7__cxx1112basic_stringIcSt11char_traitsIcESaIcEEEbbNS0_10SubstituteE
lyx:_ZN3lyx8external14getTemplatePtrERKNS_19InsetExternalParamsE
lyx:_ZN3lyx8external15DumpPreambleDefB5cxx11ERSo
lyx:_ZN3lyx8external15TemplateManager13readTemplatesERKNS_7support8FileNameE
lyx:_ZN3lyx8external15TemplateManager3getEv
lyx:_ZN3lyx8external15TemplateManagerC1Ev
lyx:_ZN3lyx8external15TemplateManagerC2Ev
lyx:_ZN3lyx8external19sanitizeLatexOptionERKNSt7__cxx1112basic_stringIcSt11char_traitsIcESaIcEEE
lyx:_ZN3lyx8external21sanitizeDocBookOptionERKNSt7__cxx1112basic_stringIcSt11char_traitsIcESaIcEEE
lyx:_ZN3lyx8external8TempNameC1ERKS1_
lyx:_ZN3lyx8external8TempNameC1Ev
lyx:_ZN3lyx8external8TempNameC2ERKS1_
lyx:_ZN3lyx8external8TempNameC2Ev
lyx:_ZN3lyx8external8TempNameD1Ev
lyx:_ZN3lyx8external8TempNameD2Ev
lyx:_ZN3lyx8external8TempNameaSERKS1_
lyx:_ZN3lyx8external8Template12readTemplateERNS_5LexerE
lyx:_ZN3lyx8external8Template6Format10readFormatERNS_5LexerE
lyx:_ZN3lyx8external8Template6FormatC1Ev
lyx:_ZN3lyx8external8Template6FormatC2Ev
lyx:_ZN3lyx8external8TemplateC1Ev
lyx:_ZN3lyx8external8TemplateC2Ev
lyx:_ZN3lyx8external9ExtraData3setERKNSt7__cxx1112basic_stringIcSt11char_traitsIcESaIcEEES9_
lyx:_ZN3lyx8fakeFontERKNSt7__cxx1112basic_stringIcSt11char_traitsIcESaIcEEES7_
lyx:_ZN3lyx8fromqstrB5cxx11ERK7QString
lyx:_ZN3lyx8frontend10ButtonMenu11qt_metacallEN11QMetaObject4CallEiPPv
lyx:_ZN3lyx8frontend10ButtonMenu11qt_metacastEPKc
lyx:_ZN3lyx8frontend10ButtonMenu12updateParentEv
lyx:_ZN3lyx8frontend10ButtonMenu16staticMetaObjectE
lyx:_ZN3lyx8frontend10ButtonMenu3addEP7QAction
lyx:_ZN3lyx8frontend10ButtonMenuC1ERK7QStringP7QWidget
lyx:_ZN3lyx8frontend10ButtonMenuC2ERK7QStringP7QWidget
lyx:_ZN3lyx8frontend10DialogView10closeEventEP11QCloseEvent
lyx:_ZN3lyx8frontend10DialogView11qt_metacallEN11QMetaObject4CallEiPPv
lyx:_ZN3lyx8frontend10DialogView11qt_metacastEPKc
lyx:_ZN3lyx8frontend10DialogView16staticMetaObjectE
lyx:_ZN3lyx8frontend10DialogView9hideEventEP10QHideEvent
lyx:_ZN3lyx8frontend10DialogViewC2ERNS0_7GuiViewERK7QStringS6_
lyx:_ZN3lyx8frontend10FontLoader14canBeDisplayedEw
lyx:_ZN3lyx8frontend10FontLoader6updateEv
lyx:_ZN3lyx8frontend10FontLoader7metricsERKNS_8FontInfoE
lyx:_ZN3lyx8frontend10FontLoader9availableERKNS_8FontInfoE
lyx:_ZN3lyx8frontend10FontLoaderC1Ev
lyx:_ZN3lyx8frontend10FontLoaderC2Ev
lyx:_ZN3lyx8frontend10FontLoaderD1Ev
lyx:_ZN3lyx8frontend10FontLoaderD2Ev
lyx:_ZN3lyx8frontend10FontModule11qt_metacallEN11QMetaObject4CallEiPPv
lyx:_ZN3lyx8frontend10FontModule11qt_metacastEPKc
lyx:_ZN3lyx8frontend10FontModule16staticMetaObjectE
lyx:_ZN3lyx8frontend10GuiBibitem11qt_metacallEN11QMetaObject4CallEiPPv
lyx:_ZN3lyx8frontend10GuiBibitem11qt_metacastEPKc
lyx:_ZN3lyx8frontend10GuiBibitem14paramsToDialogEPKNS_5InsetE
lyx:_ZN3lyx8frontend10GuiBibitem16staticMetaObjectE
lyx:_ZN3lyx8frontend10GuiBibitemC1EP7QWidget
lyx:_ZN3lyx8frontend10GuiBibitemC2EP7QWidget
lyx:_ZN3lyx8frontend10GuiChanges10nextChangeEv
lyx:_ZN3lyx8frontend10GuiChanges11qt_metacallEN11QMetaObject4CallEiPPv
lyx:_ZN3lyx8frontend10GuiChanges11qt_metacastEPKc
lyx:_ZN3lyx8frontend10GuiChanges12acceptChangeEv
lyx:_ZN3lyx8frontend10GuiChanges12rejectChangeEv
lyx:_ZN3lyx8frontend10GuiChanges14previousChangeEv
lyx:_ZN3lyx8frontend10GuiChanges14updateContentsEv
lyx:_ZN3lyx8frontend10GuiChanges16staticMetaObjectE
lyx:_ZN3lyx8frontend10GuiChangesC1ERNS0_7GuiViewE
lyx:_ZN3lyx8frontend10GuiChangesC2ERNS0_7GuiViewE
lyx:_ZN3lyx8frontend10GuiCompare10closeEventEP11QCloseEvent
lyx:_ZN3lyx8frontend10GuiCompare10slotCancelEv
lyx:_ZN3lyx8frontend10GuiCompare11qt_metacallEN11QMetaObject4CallEiPPv
lyx:_ZN3lyx8frontend10GuiCompare11qt_metacastEPKc
lyx:_ZN3lyx8frontend10GuiCompare13changeAdaptorEv
lyx:_ZN3lyx8frontend10GuiCompare13selectNewFileEv
lyx:_ZN3lyx8frontend10GuiCompare13selectOldFileEv
lyx:_ZN3lyx8frontend10GuiCompare13slotButtonBoxEP15QAbstractButton
lyx:_ZN3lyx8frontend10GuiCompare14enableControlsEb
lyx:_ZN3lyx8frontend10GuiCompare14updateContentsEv
lyx:_ZN3lyx8frontend10GuiCompare16initialiseParamsERKNSt7__cxx1112basic_stringIcSt11char_traitsIcESaIcEEE
lyx:_ZN3lyx8frontend10GuiCompare16setStatusMessageERK7QString
lyx:_ZN3lyx8frontend10GuiCompare16staticMetaObjectE
lyx:_ZN3lyx8frontend10GuiCompare3runEb
lyx:_ZN3lyx8frontend10GuiCompare5errorEv
lyx:_ZN3lyx8frontend10GuiCompare6browseERK7QString
lyx:_ZN3lyx8frontend10GuiCompare6slotOKEv
lyx:_ZN3lyx8frontend10GuiCompare7isValidEv
lyx:_ZN3lyx8frontend10GuiCompare8finishedEb
lyx:_ZN3lyx8frontend10GuiCompare8progressEi
lyx:_ZN3lyx8frontend10GuiCompareC1ERNS0_7GuiViewE
lyx:_ZN3lyx8frontend10GuiCompareC2ERNS0_7GuiViewE
lyx:_ZN3lyx8frontend10GuiCompareD0Ev
lyx:_ZN3lyx8frontend10GuiCompareD1Ev
lyx:_ZN3lyx8frontend10GuiCompareD2Ev
lyx:_ZN3lyx8frontend10GuiCounter10fillCombosEv
lyx:_ZN3lyx8frontend10GuiCounter11qt_metacallEN11QMetaObject4CallEiPPv
lyx:_ZN3lyx8frontend10GuiCounter11qt_metacastEPKc
lyx:_ZN3lyx8frontend10GuiCounter13processParamsERKNS_18InsetCommandParamsE
lyx:_ZN3lyx8frontend10GuiCounter14paramsToDialogEPKNS_5InsetE
lyx:_ZN3lyx8frontend10GuiCounter16initialiseParamsERKNSt7__cxx1112basic_stringIcSt11char_traitsIcESaIcEEE
lyx:_ZN3lyx8frontend10GuiCounter16staticMetaObjectE
lyx:_ZN3lyx8frontend10GuiCounterC1ERNS0_7GuiViewEP7QWidget
lyx:_ZN3lyx8frontend10GuiCounterC2ERNS0_7GuiViewEP7QWidget
lyx:_ZN3lyx8frontend10GuiInclude11qt_metacallEN11QMetaObject4CallEiPPv
lyx:_ZN3lyx8frontend10GuiInclude11qt_metacastEPKc
lyx:_ZN3lyx8frontend10GuiInclude11typeChangedEi
lyx:_ZN3lyx8frontend10GuiInclude14change_adaptorEv
lyx:_ZN3lyx8frontend10GuiInclude14dispatchParamsEv
lyx:_ZN3lyx8frontend10GuiInclude14paramsToDialogERKNS_18InsetCommandParamsE
lyx:_ZN3lyx8frontend10GuiInclude14setListingsMsgEv
lyx:_ZN3lyx8frontend10GuiInclude16initialiseParamsERKNSt7__cxx1112basic_stringIcSt11char_traitsIcESaIcEEE
lyx:_ZN3lyx8frontend10GuiInclude16staticMetaObjectE
lyx:_ZN3lyx8frontend10GuiInclude24validate_listings_paramsB5cxx11Ev
lyx:_ZN3lyx8frontend10GuiInclude4editEv
lyx:_ZN3lyx8frontend10GuiInclude6browseERK7QStringNS1_4TypeE
lyx:_ZN3lyx8frontend10GuiInclude6browseEv
lyx:_ZN3lyx8frontend10GuiInclude7isValidEv
lyx:_ZN3lyx8frontend10GuiInclude9applyViewEv
lyx:_ZN3lyx8frontend10GuiIncludeC1ERNS0_7GuiViewE
lyx:_ZN3lyx8frontend10GuiIncludeC2ERNS0_7GuiViewE
lyx:_ZN3lyx8frontend10GuiIndices10updateViewEv
lyx:_ZN3lyx8frontend10GuiIndices11qt_metacallEN11QMetaObject4CallEiPPv
lyx:_ZN3lyx8frontend10GuiIndices11qt_metacastEPKc
lyx:_ZN3lyx8frontend10GuiIndices11toggleColorEP15QTreeWidgetItem
lyx:_ZN3lyx8frontend10GuiIndices13updateWidgetsEv
lyx:_ZN3lyx8frontend10GuiIndices16staticMetaObjectE
lyx:_ZN3lyx8frontend10GuiIndices18on_colorPB_clickedEv
lyx:_ZN3lyx8frontend10GuiIndices19on_removePB_pressedEv
lyx:_ZN3lyx8frontend10GuiIndices19on_renamePB_clickedEv
lyx:_ZN3lyx8frontend10GuiIndices20on_indexCO_activatedEi
lyx:_ZN3lyx8frontend10GuiIndices21on_addIndexPB_pressedEv
lyx:_ZN3lyx8frontend10GuiIndices25on_newIndexLE_textChangedE7QString
lyx:_ZN3lyx8frontend10GuiIndices28on_multipleIndicesCB_toggledEb
lyx:_ZN3lyx8frontend10GuiIndices29on_indexOptionsLE_textChangedE7QString
lyx:_ZN3lyx8frontend10GuiIndices30on_indicesTW_itemDoubleClickedEP15QTreeWidgetItemi
lyx:_ZN3lyx8frontend10GuiIndices33on_indicesTW_itemSelectionChangedEv
lyx:_ZN3lyx8frontend10GuiIndices6updateERKNS_12BufferParamsEb
lyx:_ZN3lyx8frontend10GuiIndices7changedEv
lyx:_ZN3lyx8frontend10GuiIndicesC1EP7QWidget
lyx:_ZN3lyx8frontend10GuiIndicesC2EP7QWidget
lyx:_ZN3lyx8frontend10GuiPainter10buttonTextEiiRKNSt7__cxx1112basic_stringIwSt11char_traitsIwESaIwEEERKNS_8FontInfoENS_5ColorESD_i
lyx:_ZN3lyx8frontend10GuiPainter11filterColorERK6QColor
lyx:_ZN3lyx8frontend10GuiPainter11preeditTextEiiwRKNS_8FontInfoENS0_7Painter13preedit_styleE
lyx:_ZN3lyx8frontend10GuiPainter12computeColorENS_5ColorE
lyx:_ZN3lyx8frontend10GuiPainter13crossoutLinesERKNS_8FontInfoEiii
lyx:_ZN3lyx8frontend10GuiPainter13fillRectangleEiiiiNS_5ColorE
lyx:_ZN3lyx8frontend10GuiPainter13strikeoutLineERKNS_8FontInfoEiii
lyx:_ZN3lyx8frontend10GuiPainter14setQPainterPenERK6QColorNS0_7Painter10line_styleEiN2Qt12PenJoinStyleE
lyx:_ZN3lyx8frontend10GuiPainter14textDecorationERKNS_8FontInfoEiii
lyx:_ZN3lyx8frontend10GuiPainter15dashedUnderlineERKNS_8FontInfoEiii
lyx:_ZN3lyx8frontend10GuiPainter15doubleUnderlineERKNS_8FontInfoEiii
lyx:_ZN3lyx8frontend10GuiPainter18wavyHorizontalLineERKNS_8FontInfoEiiiNS_9ColorCodeE
lyx:_ZN3lyx8frontend10GuiPainter19enterMonochromeModeERKNS_5ColorE
lyx:_ZN3lyx8frontend10GuiPainter19leaveMonochromeModeEv
lyx:_ZN3lyx8frontend10GuiPainter3arcEiijjiiNS_5ColorE
lyx:_ZN3lyx8frontend10GuiPainter4lineEiiiiNS_5ColorENS0_7Painter10line_styleEi
lyx:_ZN3lyx8frontend10GuiPainter4pathEPKiS3_S3_S3_S3_S3_iNS_5ColorENS0_7Painter10fill_styleENS5_10line_styleEi
lyx:_ZN3lyx8frontend10GuiPainter4textEiiRKNSt7__cxx1112basic_stringIwSt11char_traitsIwESaIwEEERKNS_4FontENS_5ColorEmmdd
lyx:_ZN3lyx8frontend10GuiPainter4textEiiRKNSt7__cxx1112basic_stringIwSt11char_traitsIwESaIwEEERKNS_4FontEdd
lyx:_ZN3lyx8frontend10GuiPainter4textEiiRKNSt7__cxx1112basic_stringIwSt11char_traitsIwESaIwEEERKNS_8FontInfoENS0_7Painter9DirectionE
lyx:_ZN3lyx8frontend10GuiPainter4textEiiRKNSt7__cxx1112basic_stringIwSt11char_traitsIwESaIwEEERKNS_8FontInfoENS0_7Painter9DirectionEdd
lyx:_ZN3lyx8frontend10GuiPainter4textEiiwRKNS_8FontInfoENS0_7Painter9DirectionE
lyx:_ZN3lyx8frontend10GuiPainter5imageEiiiiRKNS_8graphics5ImageEb
lyx:_ZN3lyx8frontend10GuiPainter5linesEPKiS3_iNS_5ColorENS0_7Painter10fill_styleENS5_10line_styleEi
lyx:_ZN3lyx8frontend10GuiPainter5pointEiiNS_5ColorE
lyx:_ZN3lyx8frontend10GuiPainter7ellipseEddddNS_5ColorENS0_7Painter10fill_styleENS3_10line_styleEi
lyx:_ZN3lyx8frontend10GuiPainter8rectTextEiiRKNSt7__cxx1112basic_stringIwSt11char_traitsIwESaIwEEERKNS_8FontInfoENS_5ColorESD_
lyx:_ZN3lyx8frontend10GuiPainter9rectangleEiiiiNS_5ColorENS0_7Painter10line_styleEi
lyx:_ZN3lyx8frontend10GuiPainter9underlineERKNS_8FontInfoEiiiNS0_7Painter10line_styleE
lyx:_ZN3lyx8frontend10GuiPainterC1EP12QPaintDevicedb
lyx:_ZN3lyx8frontend10GuiPainterC2EP12QPaintDevicedb
lyx:_ZN3lyx8frontend10GuiPainterD0Ev
lyx:_ZN3lyx8frontend10GuiPainterD1Ev
lyx:_ZN3lyx8frontend10GuiPainterD2Ev
lyx:_ZN3lyx8frontend10GuiPhantom11clearParamsEv
lyx:_ZN3lyx8frontend10GuiPhantom11qt_metacallEN11QMetaObject4CallEiPPv
lyx:_ZN3lyx8frontend10GuiPhantom11qt_metacastEPKc
lyx:_ZN3lyx8frontend10GuiPhantom14change_adaptorEv
lyx:_ZN3lyx8frontend10GuiPhantom14dispatchParamsEv
lyx:_ZN3lyx8frontend10GuiPhantom14updateContentsEv
lyx:_ZN3lyx8frontend10GuiPhantom16initialiseParamsERKNSt7__cxx1112basic_stringIcSt11char_traitsIcESaIcEEE
lyx:_ZN3lyx8frontend10GuiPhantom16staticMetaObjectE
lyx:_ZN3lyx8frontend10GuiPhantom9applyViewEv
lyx:_ZN3lyx8frontend10GuiPhantomC1ERNS0_7GuiViewE
lyx:_ZN3lyx8frontend10GuiPhantomC2ERNS0_7GuiViewE
lyx:_ZN3lyx8frontend10GuiSymbols10enableViewEb
lyx:_ZN3lyx8frontend10GuiSymbols10updateViewEv
lyx:_ZN3lyx8frontend10GuiSymbols11qt_metacallEN11QMetaObject4CallEiPPv
lyx:_ZN3lyx8frontend10GuiSymbols11qt_metacastEPKc
lyx:_ZN3lyx8frontend10GuiSymbols12scrollToItemERK7QString
lyx:_ZN3lyx8frontend10GuiSymbols14dispatchParamsEv
lyx:_ZN3lyx8frontend10GuiSymbols16staticMetaObjectE
lyx:_ZN3lyx8frontend10GuiSymbols16updateSymbolListEb
lyx:_ZN3lyx8frontend10GuiSymbols20on_buttonBox_clickedEP15QAbstractButton
lyx:_ZN3lyx8frontend10GuiSymbols20on_symbolsLW_clickedERK11QModelIndex
lyx:_ZN3lyx8frontend10GuiSymbols22on_symbolsLW_activatedERK11QModelIndex
lyx:_ZN3lyx8frontend10GuiSymbols23on_categoryCO_activatedEi
lyx:_ZN3lyx8frontend10GuiSymbols23on_chosenLE_textChangedERK7QString
lyx:_ZN3lyx8frontend10GuiSymbols25on_chosenLE_returnPressedEv
lyx:_ZN3lyx8frontend10GuiSymbols27on_categoryFilterCB_toggledEb
lyx:_ZN3lyx8frontend10GuiSymbols6slotOKEv
lyx:_ZN3lyx8frontend10GuiSymbolsC1ERNS0_7GuiViewE
lyx:_ZN3lyx8frontend10GuiSymbolsC2ERNS0_7GuiViewE
lyx:_ZN3lyx8frontend10GuiTabular11borderStateEN12GuiSetBorder11BorderStateEb
lyx:_ZN3lyx8frontend10GuiTabular11qt_metacallEN11QMetaObject4CallEiPPv
lyx:_ZN3lyx8frontend10GuiTabular11qt_metacastEPKc
lyx:_ZN3lyx8frontend10GuiTabular12checkEnabledEv
lyx:_ZN3lyx8frontend10GuiTabular14paramsToDialogEPKNS_5InsetE
lyx:_ZN3lyx8frontend10GuiTabular16booktabs_toggledEb
lyx:_ZN3lyx8frontend10GuiTabular16staticMetaObjectE
lyx:_ZN3lyx8frontend10GuiTabular17borderSet_clickedEv
lyx:_ZN3lyx8frontend10GuiTabular19borderUnset_clickedEv
lyx:_ZN3lyx8frontend10GuiTabular19nonbooktabs_toggledEb
lyx:_ZN3lyx8frontend10GuiTabular23on_topspaceCO_activatedEi
lyx:_ZN3lyx8frontend10GuiTabular25on_columnTypeCO_activatedEi
lyx:_ZN3lyx8frontend10GuiTabular26on_bottomspaceCO_activatedEi
lyx:_ZN3lyx8frontend10GuiTabular29on_interlinespaceCO_activatedEi
lyx:_ZN3lyx8frontend10GuiTabularC1EP7QWidget
lyx:_ZN3lyx8frontend10GuiTabularC2EP7QWidget
lyx:_ZN3lyx8frontend10GuiTexInfo10updateViewEv
lyx:_ZN3lyx8frontend10GuiTexInfo11qt_metacallEN11QMetaObject4CallEiPPv
lyx:_ZN3lyx8frontend10GuiTexInfo11qt_metacastEPKc
lyx:_ZN3lyx8frontend10GuiTexInfo11viewClickedEv
lyx:_ZN3lyx8frontend10GuiTexInfo12enableViewPBEv
lyx:_ZN3lyx8frontend10GuiTexInfo12updateStylesENS1_11TexFileTypeE
lyx:_ZN3lyx8frontend10GuiTexInfo12updateStylesEv
lyx:_ZN3lyx8frontend10GuiTexInfo13rescanClickedEv
lyx:_ZN3lyx8frontend10GuiTexInfo14change_adaptorEv
lyx:_ZN3lyx8frontend10GuiTexInfo16staticMetaObjectE
lyx:_ZN3lyx8frontend10GuiTexInfoC1ERNS0_7GuiViewE
lyx:_ZN3lyx8frontend10GuiTexInfoC2ERNS0_7GuiViewE
lyx:_ZN3lyx8frontend10GuiToolbar10setVisibleEb
lyx:_ZN3lyx8frontend10GuiToolbar11qt_metacallEN11QMetaObject4CallEiPPv
lyx:_ZN3lyx8frontend10GuiToolbar11qt_metacastEPKc
lyx:_ZN3lyx8frontend10GuiToolbar13setVisibilityEi
lyx:_ZN3lyx8frontend10GuiToolbar14restoreSessionEv
lyx:_ZN3lyx8frontend10GuiToolbar15showContextMenuE6QPoint
lyx:_ZN3lyx8frontend10GuiToolbar16staticMetaObjectE
lyx:_ZN3lyx8frontend10GuiToolbar3addERKNS0_11ToolbarItemE
lyx:_ZN3lyx8frontend10GuiToolbar4fillEv
lyx:_ZN3lyx8frontend10GuiToolbar6refillEv
lyx:_ZN3lyx8frontend10GuiToolbar6toggleEv
lyx:_ZN3lyx8frontend10GuiToolbar6updateEi
lyx:_ZN3lyx8frontend10GuiToolbar7addItemERKNS0_11ToolbarItemEb
lyx:_ZN3lyx8frontend10GuiToolbar7movableEb
lyx:_ZN3lyx8frontend10GuiToolbar7updatedEv
lyx:_ZN3lyx8frontend10GuiToolbar8setStateENSt7__cxx1112basic_stringIcSt11char_traitsIcESaIcEEE
lyx:_ZN3lyx8frontend10GuiToolbar9showEventEP10QShowEvent
lyx:_ZN3lyx8frontend10GuiToolbarC1ERKNS0_11ToolbarInfoERNS0_7GuiViewE
lyx:_ZN3lyx8frontend10GuiToolbarC2ERKNS0_11ToolbarInfoERNS0_7GuiViewE
lyx:_ZN3lyx8frontend10IconButton10paintEventEP11QPaintEvent
lyx:_ZN3lyx8frontend10IconButton11animateShowEb
lyx:_ZN3lyx8frontend10IconButton11qt_metacallEN11QMetaObject4CallEiPPv
lyx:_ZN3lyx8frontend10IconButton11qt_metacastEPKc
lyx:_ZN3lyx8frontend10IconButton16staticMetaObjectE
lyx:_ZN3lyx8frontend10IconButtonC1EP7QWidget
lyx:_ZN3lyx8frontend10IconButtonC2EP7QWidget
lyx:_ZN3lyx8frontend10PanelStack11addCategoryERK7QStringS4_
lyx:_ZN3lyx8frontend10PanelStack11qt_metacallEN11QMetaObject4CallEiPPv
lyx:_ZN3lyx8frontend10PanelStack11qt_metacastEPKc
lyx:_ZN3lyx8frontend10PanelStack11resetSearchEv
lyx:_ZN3lyx8frontend10PanelStack11switchPanelEP15QTreeWidgetItemS3_
lyx:_ZN3lyx8frontend10PanelStack12itemSelectedEP15QTreeWidgetItemi
lyx:_ZN3lyx8frontend10PanelStack13filterChangedERK7QString
lyx:_ZN3lyx8frontend10PanelStack14markPanelValidERK7QStringb
lyx:_ZN3lyx8frontend10PanelStack15setCurrentPanelERK7QString
lyx:_ZN3lyx8frontend10PanelStack16staticMetaObjectE
lyx:_ZN3lyx8frontend10PanelStack6searchEv
lyx:_ZN3lyx8frontend10PanelStack8addPanelEP7QWidgetRK7QStringS6_
lyx:_ZN3lyx8frontend10PanelStack9hideEventEP10QHideEvent
lyx:_ZN3lyx8frontend10PanelStack9showPanelERK7QStringb
lyx:_ZN3lyx8frontend10PanelStackC1EP7QWidget
lyx:_ZN3lyx8frontend10PanelStackC2EP7QWidget
lyx:_ZN3lyx8frontend10PrefColors10resetColorEv
lyx:_ZN3lyx8frontend10PrefColors11changeColorEv
lyx:_ZN3lyx8frontend10PrefColors11qt_metacallEN11QMetaObject4CallEiPPv
lyx:_ZN3lyx8frontend10PrefColors11qt_metacastEPKc
lyx:_ZN3lyx8frontend10PrefColors13resetAllColorEv
lyx:_ZN3lyx8frontend10PrefColors14changeSysColorEv
lyx:_ZN3lyx8frontend10PrefColors14isDefaultColorEiRK7QString
lyx:_ZN3lyx8frontend10PrefColors16staticMetaObjectE
lyx:_ZN3lyx8frontend10PrefColors17setDisabledResetsEv
lyx:_ZN3lyx8frontend10PrefColors20getDefaultColorByRowEi
lyx:_ZN3lyx8frontend10PrefColors25changeLyxObjectsSelectionEv
lyx:_ZN3lyx8frontend10PrefColors8setColorEiRK6QColorRK7QString
lyx:_ZN3lyx8frontend10PrefColors8updateRCERKNS_5LyXRCE
lyx:_ZN3lyx8frontend10PrefColorsC1EPNS0_14GuiPreferencesE
lyx:_ZN3lyx8frontend10PrefColorsC2EPNS0_14GuiPreferencesE
lyx:_ZN3lyx8frontend10PrefModule11qt_metacallEN11QMetaObject4CallEiPPv
lyx:_ZN3lyx8frontend10PrefModule11qt_metacastEPKc
lyx:_ZN3lyx8frontend10PrefModule16staticMetaObjectE
lyx:_ZN3lyx8frontend10PrefModule7changedEv
lyx:_ZN3lyx8frontend10PrefOutput11qt_metacallEN11QMetaObject4CallEiPPv
lyx:_ZN3lyx8frontend10PrefOutput11qt_metacastEPKc
lyx:_ZN3lyx8frontend10PrefOutput16staticMetaObjectE
lyx:_ZN3lyx8frontend10PrefOutput8updateRCERKNS_5LyXRCE
lyx:_ZN3lyx8frontend10PrefOutputC1EPNS0_14GuiPreferencesE
lyx:_ZN3lyx8frontend10PrefOutputC2EPNS0_14GuiPreferencesE
lyx:_ZN3lyx8frontend10bulletIconB5cxx11Eii
lyx:_ZN3lyx8frontend10font_sizesE
lyx:_ZN3lyx8frontend10info_typesE
lyx:_ZN3lyx8frontend10showTargetERKNSt7__cxx1112basic_stringIcSt11char_traitsIcESaIcEEERKNS_6BufferE
lyx:_ZN3lyx8frontend11Application10applyPrefsEv
lyx:_ZN3lyx8frontend11Application19getRgbColorUncachedENS_9ColorCodeERNS_8RGBColorE
lyx:_ZN3lyx8frontend11Application8iconNameB5cxx11ERKNS_11FuncRequestEb
lyx:_ZN3lyx8frontend11Application8mathIconERKNSt7__cxx1112basic_stringIwSt11char_traitsIwESaIwEEE
lyx:_ZN3lyx8frontend11ColorSorterENS_9ColorCodeES1_
lyx:_ZN3lyx8frontend11DisplayPath14ellipsisSlash_E
lyx:_ZN3lyx8frontend11GuiBranches10addUnknownEv
lyx:_ZN3lyx8frontend11GuiBranches10updateViewEv
lyx:_ZN3lyx8frontend11GuiBranches11eventFilterEP7QObjectP6QEvent
lyx:_ZN3lyx8frontend11GuiBranches11qt_metacallEN11QMetaObject4CallEiPPv
lyx:_ZN3lyx8frontend11GuiBranches11qt_metacastEPKc
lyx:_ZN3lyx8frontend11GuiBranches11toggleColorEP15QTreeWidgetItem
lyx:_ZN3lyx8frontend11GuiBranches12toggleBranchEP15QTreeWidgetItem
lyx:_ZN3lyx8frontend11GuiBranches12toggleSuffixEP15QTreeWidgetItem
lyx:_ZN3lyx8frontend11GuiBranches13addAllUnknownEv
lyx:_ZN3lyx8frontend11GuiBranches14renameBranchesERKNSt7__cxx1112basic_stringIwSt11char_traitsIwESaIwEEES9_
lyx:_ZN3lyx8frontend11GuiBranches16staticMetaObjectE
lyx:_ZN3lyx8frontend11GuiBranches18on_colorPB_clickedEv
lyx:_ZN3lyx8frontend11GuiBranches19on_removePB_pressedEv
lyx:_ZN3lyx8frontend11GuiBranches19on_renamePB_pressedEv
lyx:_ZN3lyx8frontend11GuiBranches19on_suffixPB_pressedEv
lyx:_ZN3lyx8frontend11GuiBranches20on_unknownPB_pressedEv
lyx:_ZN3lyx8frontend11GuiBranches21on_activatePB_pressedEv
lyx:_ZN3lyx8frontend11GuiBranches22on_addBranchPB_pressedEv
lyx:_ZN3lyx8frontend11GuiBranches23on_resetColorPB_clickedEv
lyx:_ZN3lyx8frontend11GuiBranches23unknownBranchSelChangedEv
lyx:_ZN3lyx8frontend11GuiBranches26on_newBranchLE_textChangedE7QString
lyx:_ZN3lyx8frontend11GuiBranches31on_branchesTW_itemDoubleClickedEP15QTreeWidgetItemi
lyx:_ZN3lyx8frontend11GuiBranches34on_branchesTW_itemSelectionChangedEv
lyx:_ZN3lyx8frontend11GuiBranches6updateERKNS_12BufferParamsE
lyx:_ZN3lyx8frontend11GuiBranches7changedEv
lyx:_ZN3lyx8frontend11GuiBranches9okPressedEv
lyx:_ZN3lyx8frontend11GuiBranchesC1EP7QWidget
lyx:_ZN3lyx8frontend11GuiBranchesC2EP7QWidget
lyx:_ZN3lyx8frontend11GuiCitation10closeEventEP11QCloseEvent
lyx:_ZN3lyx8frontend11GuiCitation10fillFieldsERKNS_10BiblioInfoE
lyx:_ZN3lyx8frontend11GuiCitation10isSelectedERK11QModelIndex
lyx:_ZN3lyx8frontend11GuiCitation10searchKeysERKNS_10BiblioInfoERKSt6vectorINSt7__cxx1112basic_stringIwSt11char_traitsIwESaIwEEESaISB_EEbRKSB_SH_bb
lyx:_ZN3lyx8frontend11GuiCitation10setButtonsEv
lyx:_ZN3lyx8frontend11GuiCitation10updateInfoERKNS_10BiblioInfoERK11QModelIndex
lyx:_ZN3lyx8frontend11GuiCitation11applyParamsEibb7QStringS2_
lyx:_ZN3lyx8frontend11GuiCitation11caseChangedEv
lyx:_ZN3lyx8frontend11GuiCitation11clearParamsEv
lyx:_ZN3lyx8frontend11GuiCitation11fillEntriesERKNS_10BiblioInfoE
lyx:_ZN3lyx8frontend11GuiCitation11getPreTextsB5cxx11Ev
lyx:_ZN3lyx8frontend11GuiCitation11qt_metacallEN11QMetaObject4CallEiPPv
lyx:_ZN3lyx8frontend11GuiCitation11qt_metacastEPKc
lyx:_ZN3lyx8frontend11GuiCitation11resetFilterEv
lyx:_ZN3lyx8frontend11GuiCitation11setPreTextsERKSt6vectorINSt7__cxx1112basic_stringIwSt11char_traitsIwESaIwEEESaIS8_EE
lyx:_ZN3lyx8frontend11GuiCitation12getPostTextsB5cxx11Ev
lyx:_ZN3lyx8frontend11GuiCitation12regexChangedEv
lyx:_ZN3lyx8frontend11GuiCitation12selectedKeysEv
lyx:_ZN3lyx8frontend11GuiCitation12setCitedKeysEv
lyx:_ZN3lyx8frontend11GuiCitation12setPostTextsERKSt6vectorINSt7__cxx1112basic_stringIwSt11char_traitsIwESaIwEEESaIS8_EE
lyx:_ZN3lyx8frontend11GuiCitation12updateStylesERKNS_10BiblioInfoE
lyx:_ZN3lyx8frontend11GuiCitation12updateStylesEv
lyx:_ZN3lyx8frontend11GuiCitation13filterChangedERK7QString
lyx:_ZN3lyx8frontend11GuiCitation13filterPressedEv
lyx:_ZN3lyx8frontend11GuiCitation14citationStylesB5cxx11ERKNS_10BiblioInfoEm
lyx:_ZN3lyx8frontend11GuiCitation14clearSelectionEv
lyx:_ZN3lyx8frontend11GuiCitation14dispatchParamsEv
lyx:_ZN3lyx8frontend11GuiCitation14instantChangedEb
lyx:_ZN3lyx8frontend11GuiCitation14restoreSessionEv
lyx:_ZN3lyx8frontend11GuiCitation14updateControlsERKNS_10BiblioInfoE
lyx:_ZN3lyx8frontend11GuiCitation14updateControlsEv
lyx:_ZN3lyx8frontend11GuiCitation15setSelectedKeysERK5QListI7QStringE
lyx:_ZN3lyx8frontend11GuiCitation16initialiseParamsERKNSt7__cxx1112basic_stringIcSt11char_traitsIcESaIcEEE
lyx:_ZN3lyx8frontend11GuiCitation16staticMetaObjectE
lyx:_ZN3lyx8frontend11GuiCitation16updateFilterHintEv
lyx:_ZN3lyx8frontend11GuiCitation16updateFormattingERKNS_13CitationStyleE
lyx:_ZN3lyx8frontend11GuiCitation17filterByEntryTypeERKNS_10BiblioInfoERSt6vectorINSt7__cxx1112basic_stringIwSt11char_traitsIwESaIwEEESaISB_EERKSB_
lyx:_ZN3lyx8frontend11GuiCitation20on_buttonBox_clickedEP15QAbstractButton
lyx:_ZN3lyx8frontend11GuiCitation20on_literalCB_clickedEv
lyx:_ZN3lyx8frontend11GuiCitation21on_buttonBox_acceptedEv
lyx:_ZN3lyx8frontend11GuiCitation21on_buttonBox_rejectedEv
lyx:_ZN3lyx8frontend11GuiCitation31on_fieldsCO_currentIndexChangedEi
lyx:_ZN3lyx8frontend11GuiCitation32on_entriesCO_currentIndexChangedEi
lyx:_ZN3lyx8frontend11GuiCitation38on_citationStyleCO_currentIndexChangedEi
lyx:_ZN3lyx8frontend11GuiCitation4initEv
lyx:_ZN3lyx8frontend11GuiCitation7changedEv
lyx:_ZN3lyx8frontend11GuiCitation7findKeyERKNS_10BiblioInfoERK7QStringbNSt7__cxx1112basic_stringIwSt11char_traitsIwESaIwEEESD_bbb
lyx:_ZN3lyx8frontend11GuiCitation8findTextERK7QStringb
lyx:_ZN3lyx8frontend11GuiCitation9applyViewEv
lyx:_ZN3lyx8frontend11GuiCitation9showEventEP10QShowEvent
lyx:_ZN3lyx8frontend11GuiCitationC1ERNS0_7GuiViewE
lyx:_ZN3lyx8frontend11GuiCitationC2ERNS0_7GuiViewE
lyx:_ZN3lyx8frontend11GuiDocument10closeEventEP11QCloseEvent
lyx:_ZN3lyx8frontend11GuiDocument10enableSkipEb
lyx:_ZN3lyx8frontend11GuiDocument10setMarginsEv
lyx:_ZN3lyx8frontend11GuiDocument11allPackagesEi
lyx:_ZN3lyx8frontend11GuiDocument11clearParamsEv
lyx:_ZN3lyx8frontend11GuiDocument11eventFilterEP7QObjectP6QEvent
lyx:_ZN3lyx8frontend11GuiDocument11qt_metacallEN11QMetaObject4CallEiPPv
lyx:_ZN3lyx8frontend11GuiDocument11qt_metacastEPKc
lyx:_ZN3lyx8frontend11GuiDocument11sansChangedEi
lyx:_ZN3lyx8frontend11GuiDocument11setLSpacingEi
lyx:_ZN3lyx8frontend11GuiDocument12browseLayoutEv
lyx:_ZN3lyx8frontend11GuiDocument12browseMasterEv
lyx:_ZN3lyx8frontend11GuiDocument12classChangedEv
lyx:_ZN3lyx8frontend11GuiDocument12enableIndentEb
lyx:_ZN3lyx8frontend11GuiDocument12fontfamiliesE
lyx:_ZN3lyx8frontend11GuiDocument12romanChangedEi
lyx:_ZN3lyx8frontend11GuiDocument13biblioChangedEv
lyx:_ZN3lyx8frontend11GuiDocument13bibtexChangedEi
lyx:_ZN3lyx8frontend11GuiDocument13filterModulesERK7QString
lyx:_ZN3lyx8frontend11GuiDocument13fontScToggledEb
lyx:_ZN3lyx8frontend11GuiDocument13getModuleInfoB5cxx11Ev
lyx:_ZN3lyx8frontend11GuiDocument13linenoToggledEb
lyx:_ZN3lyx8frontend11GuiDocument13setOutputSyncEb
lyx:_ZN3lyx8frontend11GuiDocument13slotButtonBoxEP15QAbstractButton
lyx:_ZN3lyx8frontend11GuiDocument14allPackagesNotEv
lyx:_ZN3lyx8frontend11GuiDocument14branchesRenameERKNSt7__cxx1112basic_stringIwSt11char_traitsIwESaIwEEES9_
lyx:_ZN3lyx8frontend11GuiDocument14change_adaptorEv
lyx:_ZN3lyx8frontend11GuiDocument14checkOnClosingEv
lyx:_ZN3lyx8frontend11GuiDocument14dispatchParamsEv
lyx:_ZN3lyx8frontend11GuiDocument14fontOsfToggledEb
lyx:_ZN3lyx8frontend11GuiDocument14fontencChangedEi
lyx:_ZN3lyx8frontend11GuiDocument14getTableStylesEv
lyx:_ZN3lyx8frontend11GuiDocument14loadModuleInfoEv
lyx:_ZN3lyx8frontend11GuiDocument14makeModuleInfoB5cxx11ERKNS_16LayoutModuleListE
lyx:_ZN3lyx8frontend11GuiDocument14modulesChangedEv
lyx:_ZN3lyx8frontend11GuiDocument14osFontsChangedEb
lyx:_ZN3lyx8frontend11GuiDocument14paramsToDialogEv
lyx:_ZN3lyx8frontend11GuiDocument14rescanBibFilesEv
lyx:_ZN3lyx8frontend11GuiDocument14saveDocDefaultEv
lyx:_ZN3lyx8frontend11GuiDocument14updateContentsEv
lyx:_ZN3lyx8frontend11GuiDocument14updateFontlistEv
lyx:_ZN3lyx8frontend11GuiDocument14updateFontsizeERKNSt7__cxx1112basic_stringIcSt11char_traitsIcESaIcEEES9_
lyx:_ZN3lyx8frontend11GuiDocument14updateTexFontsEv
lyx:_ZN3lyx8frontend11GuiDocument15allPackagesAutoEv
lyx:_ZN3lyx8frontend11GuiDocument15allowMathIndentEv
lyx:_ZN3lyx8frontend11GuiDocument15changeFontColorEv
lyx:_ZN3lyx8frontend11GuiDocument15deleteFontColorEv
lyx:_ZN3lyx8frontend11GuiDocument15isChildIncludedERKNSt7__cxx1112basic_stringIcSt11char_traitsIcESaIcEEE
lyx:_ZN3lyx8frontend11GuiDocument15languageChangedEi
lyx:_ZN3lyx8frontend11GuiDocument15mathFontChangedEi
lyx:_ZN3lyx8frontend11GuiDocument15modulesToParamsERNS_12BufferParamsE
lyx:_ZN3lyx8frontend11GuiDocument15updateExtraOptsEv
lyx:_ZN3lyx8frontend11GuiDocument15updateMathFontsERK7QString
lyx:_ZN3lyx8frontend11GuiDocument15updateNumberingEv
lyx:_ZN3lyx8frontend11GuiDocument15updatePagestyleERKNSt7__cxx1112basic_stringIcSt11char_traitsIcESaIcEEES9_
lyx:_ZN3lyx8frontend11GuiDocument16citeStyleChangedEv
lyx:_ZN3lyx8frontend11GuiDocument16enableMathIndentEi
lyx:_ZN3lyx8frontend11GuiDocument16encodingSwitchedEi
lyx:_ZN3lyx8frontend11GuiDocument16fontfamilies_guiE
lyx:_ZN3lyx8frontend11GuiDocument16initialiseParamsERKNSt7__cxx1112basic_stringIcSt11char_traitsIcESaIcEEE
lyx:_ZN3lyx8frontend11GuiDocument16papersizeChangedEi
lyx:_ZN3lyx8frontend11GuiDocument16setCustomMarginsEb
lyx:_ZN3lyx8frontend11GuiDocument16staticMetaObjectE
lyx:_ZN3lyx8frontend11GuiDocument16updateCiteStylesERKSt6vectorINSt7__cxx1112basic_stringIcSt11char_traitsIcESaIcEEESaIS8_EERKNS_14CiteEngineTypeE
lyx:_ZN3lyx8frontend11GuiDocument16updateEngineTypeERKNSt7__cxx1112basic_stringIcSt11char_traitsIcESaIcEEERKNS_14CiteEngineTypeE
lyx:_ZN3lyx8frontend11GuiDocument16updateModuleInfoEv
lyx:_ZN3lyx8frontend11GuiDocument16useClassDefaultsEv
lyx:_ZN3lyx8frontend11GuiDocument17allPackagesAlwaysEv
lyx:_ZN3lyx8frontend11GuiDocument17citeEngineChangedEi
lyx:_ZN3lyx8frontend11GuiDocument17resetModuleFilterEv
lyx:_ZN3lyx8frontend11GuiDocument17updateFontOptionsEv
lyx:_ZN3lyx8frontend11GuiDocument17updateQuoteStylesEb
lyx:_ZN3lyx8frontend11GuiDocument18getProvidedModulesB5cxx11Ev
lyx:_ZN3lyx8frontend11GuiDocument18getSelectedModulesB5cxx11Ev
lyx:_ZN3lyx8frontend11GuiDocument18includeonlyClickedEP15QTreeWidgetItemi
lyx:_ZN3lyx8frontend11GuiDocument18saveDefaultClickedEv
lyx:_ZN3lyx8frontend11GuiDocument18setCustomPapersizeEb
lyx:_ZN3lyx8frontend11GuiDocument18setListingsMessageEv
lyx:_ZN3lyx8frontend11GuiDocument18shellescapeChangedEv
lyx:_ZN3lyx8frontend11GuiDocument18updateIncludeonlysEb
lyx:_ZN3lyx8frontend11GuiDocument18updateMarginLabelsEi
lyx:_ZN3lyx8frontend11GuiDocument18useDefaultsClickedEv
lyx:_ZN3lyx8frontend11GuiDocument19changeNoteFontColorEv
lyx:_ZN3lyx8frontend11GuiDocument19deleteNoteFontColorEv
lyx:_ZN3lyx8frontend11GuiDocument19matchBiblatexStylesEv
lyx:_ZN3lyx8frontend11GuiDocument19moduleFilterChangedERK7QString
lyx:_ZN3lyx8frontend11GuiDocument19moduleFilterPressedEv
lyx:_ZN3lyx8frontend11GuiDocument19onBufferViewChangedEv
lyx:_ZN3lyx8frontend11GuiDocument19resetDefaultBibfileERKNSt7__cxx1112basic_stringIcSt11char_traitsIcESaIcEEE
lyx:_ZN3lyx8frontend11GuiDocument19updateDefaultBiblioERKNSt7__cxx1112basic_stringIcSt11char_traitsIcESaIcEEES9_
lyx:_ZN3lyx8frontend11GuiDocument19updateDefaultFormatEv
lyx:_ZN3lyx8frontend11GuiDocument20bookmarksopenChangedEb
lyx:_ZN3lyx8frontend11GuiDocument20classChanged_adaptorEv
lyx:_ZN3lyx8frontend11GuiDocument20colorlinksCB_adaptorEb
lyx:_ZN3lyx8frontend11GuiDocument20outputChangesToggledEb
lyx:_ZN3lyx8frontend11GuiDocument21changeBackgroundColorEv
lyx:_ZN3lyx8frontend11GuiDocument21changeTrackingChangedEb
lyx:_ZN3lyx8frontend11GuiDocument21deleteBackgroundColorEv
lyx:_ZN3lyx8frontend11GuiDocument21inputencodingToDialogEv
lyx:_ZN3lyx8frontend11GuiDocument21updateSelectedModulesEv
lyx:_ZN3lyx8frontend11GuiDocument21updateUnknownBranchesEv
lyx:_ZN3lyx8frontend11GuiDocument22languagePackageChangedEi
lyx:_ZN3lyx8frontend11GuiDocument22listingsPackageChangedEi
lyx:_ZN3lyx8frontend11GuiDocument22resetDefaultBbxBibfileEv
lyx:_ZN3lyx8frontend11GuiDocument22resetDefaultCbxBibfileEv
lyx:_ZN3lyx8frontend11GuiDocument22updateAvailableModulesEv
lyx:_ZN3lyx8frontend11GuiDocument22updateEngineDependendsEv
lyx:_ZN3lyx8frontend11GuiDocument24changeBoxBackgroundColorEv
lyx:_ZN3lyx8frontend11GuiDocument24checkPossibleCiteEnginesEv
lyx:_ZN3lyx8frontend11GuiDocument24deleteBoxBackgroundColorEv
lyx:_ZN3lyx8frontend11GuiDocument24setLayoutComboByIDStringERKNSt7__cxx1112basic_stringIcSt11char_traitsIcESaIcEEE
lyx:_ZN3lyx8frontend11GuiDocument24updateIncludeonlyDisplayEv
lyx:_ZN3lyx8frontend11GuiDocument24updateResetDefaultBiblioEv
lyx:_ZN3lyx8frontend11GuiDocument26validateListingsParametersEv
lyx:_ZN3lyx8frontend11GuiDocument6slotOKEv
lyx:_ZN3lyx8frontend11GuiDocument7isValidEv
lyx:_ZN3lyx8frontend11GuiDocument7modInfoERKNS_9LyXModuleE
lyx:_ZN3lyx8frontend11GuiDocument7setSkipEi
lyx:_ZN3lyx8frontend11GuiDocument9applyViewEv
lyx:_ZN3lyx8frontend11GuiDocument9onClosingEi
lyx:_ZN3lyx8frontend11GuiDocument9setColSepEv
lyx:_ZN3lyx8frontend11GuiDocument9setIndentEi
lyx:_ZN3lyx8frontend11GuiDocument9slotApplyEv
lyx:_ZN3lyx8frontend11GuiDocument9ttChangedEi
lyx:_ZN3lyx8frontend11GuiDocumentC1ERNS0_7GuiViewE
lyx:_ZN3lyx8frontend11GuiDocumentC2ERNS0_7GuiViewE
lyx:_ZN3lyx8frontend11GuiExternal11clearParamsEv
lyx:_ZN3lyx8frontend11GuiExternal11qt_metacallEN11QMetaObject4CallEiPPv
lyx:_ZN3lyx8frontend11GuiExternal11qt_metacastEPKc
lyx:_ZN3lyx8frontend11GuiExternal11sizeChangedEv
lyx:_ZN3lyx8frontend11GuiExternal12extraChangedERK7QString
lyx:_ZN3lyx8frontend11GuiExternal12getbbClickedEv
lyx:_ZN3lyx8frontend11GuiExternal13browseClickedEv
lyx:_ZN3lyx8frontend11GuiExternal13formatChangedEi
lyx:_ZN3lyx8frontend11GuiExternal14change_adaptorEv
lyx:_ZN3lyx8frontend11GuiExternal14dispatchParamsEv
lyx:_ZN3lyx8frontend11GuiExternal14updateContentsEv
lyx:_ZN3lyx8frontend11GuiExternal14updateTemplateEv
lyx:_ZN3lyx8frontend11GuiExternal15templateChangedEv
lyx:_ZN3lyx8frontend11GuiExternal16initialiseParamsERKNSt7__cxx1112basic_stringIcSt11char_traitsIcESaIcEEE
lyx:_ZN3lyx8frontend11GuiExternal16staticMetaObjectE
lyx:_ZN3lyx8frontend11GuiExternal16widthUnitChangedEv
lyx:_ZN3lyx8frontend11GuiExternal6browseERK7QStringS4_
lyx:_ZN3lyx8frontend11GuiExternal9applyViewEv
lyx:_ZN3lyx8frontend11GuiExternal9bbChangedEv
lyx:_ZN3lyx8frontend11GuiExternalC1ERNS0_7GuiViewE
lyx:_ZN3lyx8frontend11GuiExternalC2ERNS0_7GuiViewE
lyx:_ZN3lyx8frontend11GuiFontInfoC1ERKNS_8FontInfoE
lyx:_ZN3lyx8frontend11GuiFontInfoC2ERKNS_8FontInfoE
lyx:_ZN3lyx8frontend11GuiGraphics11changeGroupEi
lyx:_ZN3lyx8frontend11GuiGraphics11clearParamsEv
lyx:_ZN3lyx8frontend11GuiGraphics11isChangedBBEv
lyx:_ZN3lyx8frontend11GuiGraphics11qt_metacallEN11QMetaObject4CallEiPPv
lyx:_ZN3lyx8frontend11GuiGraphics11qt_metacastEPKc
lyx:_ZN3lyx8frontend11GuiGraphics11setAutoTextEv
lyx:_ZN3lyx8frontend11GuiGraphics14change_adaptorEv
lyx:_ZN3lyx8frontend11GuiGraphics14dispatchParamsEv
lyx:_ZN3lyx8frontend11GuiGraphics14paramsToDialogERKNS_19InsetGraphicsParamsE
lyx:_ZN3lyx8frontend11GuiGraphics15readBoundingBoxERKNSt7__cxx1112basic_stringIcSt11char_traitsIcESaIcEEE
lyx:_ZN3lyx8frontend11GuiGraphics16initialiseParamsERKNSt7__cxx1112basic_stringIcSt11char_traitsIcESaIcEEE
lyx:_ZN3lyx8frontend11GuiGraphics16on_getPB_clickedEv
lyx:_ZN3lyx8frontend11GuiGraphics16staticMetaObjectE
lyx:_ZN3lyx8frontend11GuiGraphics18on_WidthCB_toggledEb
lyx:_ZN3lyx8frontend11GuiGraphics18on_scaleCB_toggledEb
lyx:_ZN3lyx8frontend11GuiGraphics19on_HeightCB_toggledEb
lyx:_ZN3lyx8frontend11GuiGraphics19on_browsePB_clickedEv
lyx:_ZN3lyx8frontend11GuiGraphics20on_angle_textChangedERK7QString
lyx:_ZN3lyx8frontend11GuiGraphics21on_newGroupPB_clickedEv
lyx:_ZN3lyx8frontend11GuiGraphics22on_aspectratio_toggledEb
lyx:_ZN3lyx8frontend11GuiGraphics23updateAspectRatioStatusEv
lyx:_ZN3lyx8frontend11GuiGraphics5getBBEv
lyx:_ZN3lyx8frontend11GuiGraphics6browseERK7QString
lyx:_ZN3lyx8frontend11GuiGraphics7isValidEv
lyx:_ZN3lyx8frontend11GuiGraphics8changeBBEv
lyx:_ZN3lyx8frontend11GuiGraphics9applyViewEv
lyx:_ZN3lyx8frontend11GuiGraphicsC1ERNS0_7GuiViewE
lyx:_ZN3lyx8frontend11GuiGraphicsC2ERNS0_7GuiViewE
lyx:_ZN3lyx8frontend11GuiListings11clearParamsEv
lyx:_ZN3lyx8frontend11GuiListings11qt_metacallEN11QMetaObject4CallEiPPv
lyx:_ZN3lyx8frontend11GuiListings11qt_metacastEPKc
lyx:_ZN3lyx8frontend11GuiListings14change_adaptorEv
lyx:_ZN3lyx8frontend11GuiListings14dispatchParamsEv
lyx:_ZN3lyx8frontend11GuiListings14setListingsMsgEv
lyx:_ZN3lyx8frontend11GuiListings14updateContentsEv
lyx:_ZN3lyx8frontend11GuiListings16construct_paramsB5cxx11Ev
lyx:_ZN3lyx8frontend11GuiListings16initialiseParamsERKNSt7__cxx1112basic_stringIcSt11char_traitsIcESaIcEEE
lyx:_ZN3lyx8frontend11GuiListings16staticMetaObjectE
lyx:_ZN3lyx8frontend11GuiListings23on_floatCB_stateChangedEi
lyx:_ZN3lyx8frontend11GuiListings24on_inlineCB_stateChangedEi
lyx:_ZN3lyx8frontend11GuiListings24validate_listings_paramsB5cxx11Ev
lyx:_ZN3lyx8frontend11GuiListings33on_languageCO_currentIndexChangedEi
lyx:_ZN3lyx8frontend11GuiListings35on_numberSideCO_currentIndexChangedEi
lyx:_ZN3lyx8frontend11GuiListings7isValidEv
lyx:_ZN3lyx8frontend11GuiListings9applyViewEv
lyx:_ZN3lyx8frontend11GuiListings9setParamsERKNS_19InsetListingsParamsE
lyx:_ZN3lyx8frontend11GuiListingsC1ERNS0_7GuiViewE
lyx:_ZN3lyx8frontend11GuiListingsC2ERNS0_7GuiViewE
lyx:_ZN3lyx8frontend11GuiLyXFiles10passParamsERKNSt7__cxx1112basic_stringIcSt11char_traitsIcESaIcEEE
lyx:_ZN3lyx8frontend11GuiLyXFiles10selectItemERK7QString
lyx:_ZN3lyx8frontend11GuiLyXFiles11getRealPathE7QString
lyx:_ZN3lyx8frontend11GuiLyXFiles11qt_metacallEN11QMetaObject4CallEiPPv
lyx:_ZN3lyx8frontend11GuiLyXFiles11qt_metacastEPKc
lyx:_ZN3lyx8frontend11GuiLyXFiles11resetFilterEv
lyx:_ZN3lyx8frontend11GuiLyXFiles11setLanguageEv
lyx:_ZN3lyx8frontend11GuiLyXFiles12fileSelectedE7QString
lyx:_ZN3lyx8frontend11GuiLyXFiles12filterLabelsEv
lyx:_ZN3lyx8frontend11GuiLyXFiles13slotButtonBoxEP15QAbstractButton
lyx:_ZN3lyx8frontend11GuiLyXFiles14dispatchParamsEv
lyx:_ZN3lyx8frontend11GuiLyXFiles14paramsToDialogEv
lyx:_ZN3lyx8frontend11GuiLyXFiles14updateContentsEv
lyx:_ZN3lyx8frontend11GuiLyXFiles16initialiseParamsERKNSt7__cxx1112basic_stringIcSt11char_traitsIcESaIcEEE
lyx:_ZN3lyx8frontend11GuiLyXFiles16staticMetaObjectE
lyx:_ZN3lyx8frontend11GuiLyXFiles19on_browsePB_pressedEv
lyx:_ZN3lyx8frontend11GuiLyXFiles20fileSelectionChangedEv
lyx:_ZN3lyx8frontend11GuiLyXFiles22on_filesLW_itemClickedEP15QTreeWidgetItemi
lyx:_ZN3lyx8frontend11GuiLyXFiles23on_fileTypeCO_activatedEi
lyx:_ZN3lyx8frontend11GuiLyXFiles23on_languageCO_activatedEi
lyx:_ZN3lyx8frontend11GuiLyXFiles28on_filesLW_itemDoubleClickedEP15QTreeWidgetItemi
lyx:_ZN3lyx8frontend11GuiLyXFiles7isValidEv
lyx:_ZN3lyx8frontend11GuiLyXFiles8getFilesEv
lyx:_ZN3lyx8frontend11GuiLyXFiles9applyViewEv
lyx:_ZN3lyx8frontend11GuiLyXFiles9getSuffixEv
lyx:_ZN3lyx8frontend11GuiLyXFilesC1ERNS0_7GuiViewE
lyx:_ZN3lyx8frontend11GuiLyXFilesC2ERNS0_7GuiViewE
lyx:_ZN3lyx8frontend11GuiProgress10appendTextERK7QString
lyx:_ZN3lyx8frontend11GuiProgress11appendErrorERK7QString
lyx:_ZN3lyx8frontend11GuiProgress11currentTimeEv
lyx:_ZN3lyx8frontend11GuiProgress11informationERK7QStringS4_
lyx:_ZN3lyx8frontend11GuiProgress11lyxerrFlushEv
lyx:_ZN3lyx8frontend11GuiProgress11qt_metacallEN11QMetaObject4CallEiPPv
lyx:_ZN3lyx8frontend11GuiProgress11qt_metacastEPKc
lyx:_ZN3lyx8frontend11GuiProgress12triggerFlushEv
lyx:_ZN3lyx8frontend11GuiProgress13appendMessageERK7QString
lyx:_ZN3lyx8frontend11GuiProgress13clearMessagesEv
lyx:_ZN3lyx8frontend11GuiProgress13doAppendErrorERK7QString
lyx:_ZN3lyx8frontend11GuiProgress13doInformationERK7QStringS4_
lyx:_ZN3lyx8frontend11GuiProgress13lyxerrConnectEv
lyx:_ZN3lyx8frontend11GuiProgress13startFlushingEv
lyx:_ZN3lyx8frontend11GuiProgress13toggleWarningERK7QStringS4_S4_
lyx:_ZN3lyx8frontend11GuiProgress14processStartedERK7QString
lyx:_ZN3lyx8frontend11GuiProgress15doAppendMessageERK7QString
lyx:_ZN3lyx8frontend11GuiProgress15doClearMessagesEv
lyx:_ZN3lyx8frontend11GuiProgress15doToggleWarningERK7QStringS4_S4_
lyx:_ZN3lyx8frontend11GuiProgress15processFinishedERK7QString
lyx:_ZN3lyx8frontend11GuiProgress16clearMessageTextEv
lyx:_ZN3lyx8frontend11GuiProgress16doProcessStartedERK7QString
lyx:_ZN3lyx8frontend11GuiProgress16lyxerrDisconnectEv
lyx:_ZN3lyx8frontend11GuiProgress16staticMetaObjectE
lyx:_ZN3lyx8frontend11GuiProgress16updateWithLyXErrEv
lyx:_ZN3lyx8frontend11GuiProgress17doProcessFinishedERK7QString
lyx:_ZN3lyx8frontend11GuiProgress19appendLyXErrMessageERK7QString
lyx:_ZN3lyx8frontend11GuiProgress22updateStatusBarMessageERK7QString
lyx:_ZN3lyx8frontend11GuiProgress5errorERK7QStringS4_S4_
lyx:_ZN3lyx8frontend11GuiProgress6promptERKNSt7__cxx1112basic_stringIwSt11char_traitsIwESaIwEEES9_iiS9_S9_
lyx:_ZN3lyx8frontend11GuiProgress7doErrorERK7QStringS4_S4_
lyx:_ZN3lyx8frontend11GuiProgress7warningERK7QStringS4_
lyx:_ZN3lyx8frontend11GuiProgress9doWarningERK7QStringS4_
lyx:_ZN3lyx8frontend11GuiProgressC1Ev
lyx:_ZN3lyx8frontend11GuiProgressC2Ev
lyx:_ZN3lyx8frontend11GuiProgressD0Ev
lyx:_ZN3lyx8frontend11GuiProgressD1Ev
lyx:_ZN3lyx8frontend11GuiProgressD2Ev
lyx:_ZN3lyx8frontend11GuiShowFile11clearParamsEv
lyx:_ZN3lyx8frontend11GuiShowFile11qt_metacallEN11QMetaObject4CallEiPPv
lyx:_ZN3lyx8frontend11GuiShowFile11qt_metacastEPKc
lyx:_ZN3lyx8frontend11GuiShowFile14updateContentsEv
lyx:_ZN3lyx8frontend11GuiShowFile16initialiseParamsERKNSt7__cxx1112basic_stringIcSt11char_traitsIcESaIcEEE
lyx:_ZN3lyx8frontend11GuiShowFile16staticMetaObjectE
lyx:_ZN3lyx8frontend11GuiShowFileC1ERNS0_7GuiViewE
lyx:_ZN3lyx8frontend11GuiShowFileC2ERNS0_7GuiViewE
lyx:_ZN3lyx8frontend11GuiWorkArea10bufferViewEv
lyx:_ZN3lyx8frontend11GuiWorkArea10paintEventEP11QPaintEvent
lyx:_ZN3lyx8frontend11GuiWorkArea10setGuiViewERNS0_7GuiViewE
lyx:_ZN3lyx8frontend11GuiWorkArea10wheelEventEP11QWheelEvent
lyx:_ZN3lyx8frontend11GuiWorkArea11qt_metacallEN11QMetaObject4CallEiPPv
lyx:_ZN3lyx8frontend11GuiWorkArea11qt_metacastEPKc
lyx:_ZN3lyx8frontend11GuiWorkArea11resizeEventEP12QResizeEvent
lyx:_ZN3lyx8frontend11GuiWorkArea11toggleCaretEv
lyx:_ZN3lyx8frontend11GuiWorkArea12focusInEventEP11QFocusEvent
lyx:_ZN3lyx8frontend11GuiWorkArea12titleChangedEPS1_
lyx:_ZN3lyx8frontend11GuiWorkArea13focusOutEventEP11QFocusEvent
lyx:_ZN3lyx8frontend11GuiWorkArea13keyPressEventEP9QKeyEvent
lyx:_ZN3lyx8frontend11GuiWorkArea13processKeySymERKNS_9KeySymbolEj
lyx:_ZN3lyx8frontend11GuiWorkArea13setDialogModeEb
lyx:_ZN3lyx8frontend11GuiWorkArea13setFullScreenEb
lyx:_ZN3lyx8frontend11GuiWorkArea14compressKeySymENS_9KeySymbolEjb
lyx:_ZN3lyx8frontend11GuiWorkArea14mouseMoveEventEP11QMouseEvent
lyx:_ZN3lyx8frontend11GuiWorkArea14scheduleRedrawEb
lyx:_ZN3lyx8frontend11GuiWorkArea15mousePressEventEP11QMouseEvent
lyx:_ZN3lyx8frontend11GuiWorkArea16contextMenuEventEP17QContextMenuEvent
lyx:_ZN3lyx8frontend11GuiWorkArea16inputMethodEventEP17QInputMethodEvent
lyx:_ZN3lyx8frontend11GuiWorkArea16staticMetaObjectE
lyx:_ZN3lyx8frontend11GuiWorkArea17bufferViewChangedEv
lyx:_ZN3lyx8frontend11GuiWorkArea17mouseReleaseEventEP11QMouseEvent
lyx:_ZN3lyx8frontend11GuiWorkArea17stopBlinkingCaretEv
lyx:_ZN3lyx8frontend11GuiWorkArea17updateWindowTitleEv
lyx:_ZN3lyx8frontend11GuiWorkArea18doubleClickTimeoutEv
lyx:_ZN3lyx8frontend11GuiWorkArea18startBlinkingCaretEv
lyx:_ZN3lyx8frontend11GuiWorkArea20fixVerticalScrollBarEv
lyx:_ZN3lyx8frontend11GuiWorkArea21mouseDoubleClickEventEP11QMouseEvent
lyx:_ZN3lyx8frontend11GuiWorkArea22queryInputItemGeometryEv
lyx:_ZN3lyx8frontend11GuiWorkArea22resetInputItemGeometryEb
lyx:_ZN3lyx8frontend11GuiWorkArea22resetInputItemGeometryEv
lyx:_ZN3lyx8frontend11GuiWorkArea27generateSyntheticMouseEventEv
lyx:_ZN3lyx8frontend11GuiWorkArea4busyEb
lyx:_ZN3lyx8frontend11GuiWorkArea4initEv
lyx:_ZN3lyx8frontend11GuiWorkArea4viewEv
lyx:_ZN3lyx8frontend11GuiWorkArea5closeEv
lyx:_ZN3lyx8frontend11GuiWorkArea5eventEP6QEvent
lyx:_ZN3lyx8frontend11GuiWorkArea7Private10resetCaretEv
lyx:_ZN3lyx8frontend11GuiWorkArea7Private11resetScreenEv
lyx:_ZN3lyx8frontend11GuiWorkArea7Private12screenDeviceEv
lyx:_ZN3lyx8frontend11GuiWorkArea7Private12updateScreenERK6QRectF
lyx:_ZN3lyx8frontend11GuiWorkArea7Private15updateScrollbarEv
lyx:_ZN3lyx8frontend11GuiWorkArea7Private16paintPreeditTextERNS0_10GuiPainterE
lyx:_ZN3lyx8frontend11GuiWorkArea7Private16resizeBufferViewEv
lyx:_ZN3lyx8frontend11GuiWorkArea7Private17updateCursorShapeEv
lyx:_ZN3lyx8frontend11GuiWorkArea7Private19updateCaretGeometryEv
lyx:_ZN3lyx8frontend11GuiWorkArea7Private8dispatchERKNS_11FuncRequestE
lyx:_ZN3lyx8frontend11GuiWorkArea7Private9hideCaretEv
lyx:_ZN3lyx8frontend11GuiWorkArea7Private9showCaretEv
lyx:_ZN3lyx8frontend11GuiWorkArea7PrivateC1EPS1_
lyx:_ZN3lyx8frontend11GuiWorkArea7PrivateC2EPS1_
lyx:_ZN3lyx8frontend11GuiWorkArea7PrivateD1Ev
lyx:_ZN3lyx8frontend11GuiWorkArea7PrivateD2Ev
lyx:_ZN3lyx8frontend11GuiWorkArea8scrollToEi
lyx:_ZN3lyx8frontend11GuiWorkArea9completerEv
lyx:_ZN3lyx8frontend11GuiWorkArea9setBufferERNS_6BufferE
lyx:_ZN3lyx8frontend11GuiWorkAreaC1EP7QWidget
lyx:_ZN3lyx8frontend11GuiWorkAreaC1ERNS_6BufferERNS0_7GuiViewE
lyx:_ZN3lyx8frontend11GuiWorkAreaC2EP7QWidget
lyx:_ZN3lyx8frontend11GuiWorkAreaC2ERNS_6BufferERNS0_7GuiViewE
lyx:_ZN3lyx8frontend11GuiWorkAreaD0Ev
lyx:_ZN3lyx8frontend11GuiWorkAreaD1Ev
lyx:_ZN3lyx8frontend11GuiWorkAreaD2Ev
lyx:_ZN3lyx8frontend11IconPalette10paintEventEP11QPaintEvent
lyx:_ZN3lyx8frontend11IconPalette11qt_metacallEN11QMetaObject4CallEiPPv
lyx:_ZN3lyx8frontend11IconPalette11qt_metacastEPKc
lyx:_ZN3lyx8frontend11IconPalette16staticMetaObjectE
lyx:_ZN3lyx8frontend11IconPalette7clickedEP7QAction
lyx:_ZN3lyx8frontend11IconPalette7tearOffEv
lyx:_ZN3lyx8frontend11IconPalette7visibleEb
lyx:_ZN3lyx8frontend11IconPalette9addButtonEP7QAction
lyx:_ZN3lyx8frontend11IconPalette9hideEventEP10QHideEvent
lyx:_ZN3lyx8frontend11IconPalette9showEventEP10QShowEvent
lyx:_ZN3lyx8frontend11IconPalette9triggeredEP7QAction
lyx:_ZN3lyx8frontend11IconPaletteC1EP7QWidget
lyx:_ZN3lyx8frontend11IconPaletteC2EP7QWidget
lyx:_ZN3lyx8frontend11LengthCombo10noPercentsEv
lyx:_ZN3lyx8frontend11LengthCombo10removeUnitENS_6Length4UNITE
lyx:_ZN3lyx8frontend11LengthCombo10setEnabledEb
lyx:_ZN3lyx8frontend11LengthCombo11qt_metacallEN11QMetaObject4CallEiPPv
lyx:_ZN3lyx8frontend11LengthCombo11qt_metacastEPKc
lyx:_ZN3lyx8frontend11LengthCombo12hasActivatedEi
lyx:_ZN3lyx8frontend11LengthCombo14setCurrentItemENS_6Length4UNITE
lyx:_ZN3lyx8frontend11LengthCombo14setCurrentItemERK7QString
lyx:_ZN3lyx8frontend11LengthCombo14setCurrentItemEi
lyx:_ZN3lyx8frontend11LengthCombo16selectionChangedENS_6Length4UNITE
lyx:_ZN3lyx8frontend11LengthCombo16staticMetaObjectE
lyx:_ZN3lyx8frontend11LengthCombo19removeFontDependentEv
lyx:_ZN3lyx8frontend11LengthCombo7addUnitENS_6Length4UNITE
lyx:_ZN3lyx8frontend11LengthComboC1EP7QWidget
lyx:_ZN3lyx8frontend11LengthComboC2EP7QWidget
lyx:_ZN3lyx8frontend11LocalLayout11hideConvertEv
lyx:_ZN3lyx8frontend11LocalLayout11qt_metacallEN11QMetaObject4CallEiPPv
lyx:_ZN3lyx8frontend11LocalLayout11qt_metacastEPKc
lyx:_ZN3lyx8frontend11LocalLayout11textChangedEv
lyx:_ZN3lyx8frontend11LocalLayout12editExternalEv
lyx:_ZN3lyx8frontend11LocalLayout14convertPressedEv
lyx:_ZN3lyx8frontend11LocalLayout15validatePressedEv
lyx:_ZN3lyx8frontend11LocalLayout16staticMetaObjectE
lyx:_ZN3lyx8frontend11LocalLayout5applyERNS_12BufferParamsE
lyx:_ZN3lyx8frontend11LocalLayout6updateERKNS_12BufferParamsEPKNS_6BufferE
lyx:_ZN3lyx8frontend11LocalLayout7changedEv
lyx:_ZN3lyx8frontend11LocalLayout7convertEv
lyx:_ZN3lyx8frontend11LocalLayout8validateEv
lyx:_ZN3lyx8frontend11LocalLayoutC1EP7QWidget
lyx:_ZN3lyx8frontend11LocalLayoutC2EP7QWidget
lyx:_ZN3lyx8frontend11PrefDisplay11qt_metacallEN11QMetaObject4CallEiPPv
lyx:_ZN3lyx8frontend11PrefDisplay11qt_metacastEPKc
lyx:_ZN3lyx8frontend11PrefDisplay16staticMetaObjectE
lyx:_ZN3lyx8frontend11PrefDisplay39on_instantPreviewCO_currentIndexChangedEi
lyx:_ZN3lyx8frontend11PrefDisplay8updateRCERKNS_5LyXRCE
lyx:_ZN3lyx8frontend11PrefDisplayC1EPNS0_14GuiPreferencesE
lyx:_ZN3lyx8frontend11PrefDisplayC2EPNS0_14GuiPreferencesE
lyx:_ZN3lyx8frontend11TabWorkArea10paintEventEP11QPaintEvent
lyx:_ZN3lyx8frontend11TabWorkArea11addWorkAreaERNS_6BufferERNS0_7GuiViewE
lyx:_ZN3lyx8frontend11TabWorkArea11qt_metacallEN11QMetaObject4CallEiPPv
lyx:_ZN3lyx8frontend11TabWorkArea11qt_metacastEPKc
lyx:_ZN3lyx8frontend11TabWorkArea13setFullScreenEb
lyx:_ZN3lyx8frontend11TabWorkArea14closeOtherTabsEv
lyx:_ZN3lyx8frontend11TabWorkArea14hasTabsToRightEi
lyx:_ZN3lyx8frontend11TabWorkArea14hideCurrentTabEv
lyx:_ZN3lyx8frontend11TabWorkArea14removeWorkAreaEPNS0_11GuiWorkAreaE
lyx:_ZN3lyx8frontend11TabWorkArea14updateTabTextsEv
lyx:_ZN3lyx8frontend11TabWorkArea15closeTabsToLeftEv
lyx:_ZN3lyx8frontend11TabWorkArea15mousePressEventEP11QMouseEvent
lyx:_ZN3lyx8frontend11TabWorkArea15showContextMenuERK6QPoint
lyx:_ZN3lyx8frontend11TabWorkArea16closeTabsToRightEv
lyx:_ZN3lyx8frontend11TabWorkArea16on_tabBarClickedEi
lyx:_ZN3lyx8frontend11TabWorkArea16staticMetaObjectE
lyx:_ZN3lyx8frontend11TabWorkArea17mouseReleaseEventEP11QMouseEvent
lyx:_ZN3lyx8frontend11TabWorkArea18closeCurrentBufferEv
lyx:_ZN3lyx8frontend11TabWorkArea18setCurrentWorkAreaEPNS0_11GuiWorkAreaE
lyx:_ZN3lyx8frontend11TabWorkArea19lastWorkAreaRemovedEv
lyx:_ZN3lyx8frontend11TabWorkArea19moveToEndCurrentTabEv
lyx:_ZN3lyx8frontend11TabWorkArea20on_currentTabChangedEi
lyx:_ZN3lyx8frontend11TabWorkArea21mouseDoubleClickEventEP11QMouseEvent
lyx:_ZN3lyx8frontend11TabWorkArea21moveToStartCurrentTabEv
lyx:_ZN3lyx8frontend11TabWorkArea22currentWorkAreaChangedEPNS0_11GuiWorkAreaE
lyx:_ZN3lyx8frontend11TabWorkArea22openEnclosingDirectoryEv
lyx:_ZN3lyx8frontend11TabWorkArea7moveTabEii
lyx:_ZN3lyx8frontend11TabWorkArea7showBarEb
lyx:_ZN3lyx8frontend11TabWorkArea8closeAllEv
lyx:_ZN3lyx8frontend11TabWorkArea8closeTabEi
lyx:_ZN3lyx8frontend11TabWorkArea8posIsTabE6QPoint
lyx:_ZN3lyx8frontend11TabWorkAreaC1EP7QWidget
lyx:_ZN3lyx8frontend11TabWorkAreaC2EP7QWidget
lyx:_ZN3lyx8frontend11ToolbarInfo3addERKNS0_11ToolbarItemE
lyx:_ZN3lyx8frontend11ToolbarInfo4readERNS_5LexerE
lyx:_ZN3lyx8frontend11ToolbarItemC1ENS1_4TypeERKNS_11FuncRequestERKNSt7__cxx1112basic_stringIwSt11char_traitsIwESaIwEEE
lyx:_ZN3lyx8frontend11ToolbarItemC1ENS1_4TypeERKNSt7__cxx1112basic_stringIcSt11char_traitsIcESaIcEEERKNS4_IwS5_IwESaIwEEE
lyx:_ZN3lyx8frontend11ToolbarItemC2ENS1_4TypeERKNS_11FuncRequestERKNSt7__cxx1112basic_stringIwSt11char_traitsIwESaIwEEE
lyx:_ZN3lyx8frontend11ToolbarItemC2ENS1_4TypeERKNSt7__cxx1112basic_stringIcSt11char_traitsIcESaIcEEERKNS4_IwS5_IwESaIwEEE
lyx:_ZN3lyx8frontend11emfMimeTypeEv
lyx:_ZN3lyx8frontend11exprWarningE
lyx:_ZN3lyx8frontend11font_stylesE
lyx:_ZN3lyx8frontend11lyxMimeTypeEv
lyx:_ZN3lyx8frontend11noAppDialogERK7QStringS3_N11QMessageBox4IconE
lyx:_ZN3lyx8frontend11pdfMimeTypeEv
lyx:_ZN3lyx8frontend11texMimeTypeEv
lyx:_ZN3lyx8frontend11wmfMimeTypeEv
lyx:_ZN3lyx8frontend12ButtonPolicy5inputENS1_7SMInputE
lyx:_ZN3lyx8frontend12ButtonPolicy7Private12initOkCancelEv
lyx:_ZN3lyx8frontend12ButtonPolicy7Private15initPreferencesEv
lyx:_ZN3lyx8frontend12ButtonPolicy7Private17initOkApplyCancelEv
lyx:_ZN3lyx8frontend12ButtonPolicy7Private19initNoRepeatedApplyEv
lyx:_ZN3lyx8frontend12ButtonPolicy7Private20initOkCancelReadOnlyEv
lyx:_ZN3lyx8frontend12ButtonPolicy7Private25initOkApplyCancelReadOnlyEv
lyx:_ZN3lyx8frontend12ButtonPolicy7Private27initNoRepeatedApplyReadOnlyEv
lyx:_ZN3lyx8frontend12ButtonPolicy7Private29initOkApplyCancelAutoReadOnlyEv
lyx:_ZN3lyx8frontend12ButtonPolicy7Private9nextStateENS1_7SMInputE
lyx:_ZN3lyx8frontend12ButtonPolicy7PrivateC1ENS1_6PolicyE
lyx:_ZN3lyx8frontend12ButtonPolicy7PrivateC2ENS1_6PolicyE
lyx:_ZN3lyx8frontend12ButtonPolicy9setPolicyENS1_6PolicyE
lyx:_ZN3lyx8frontend12ButtonPolicyC1ENS1_6PolicyE
lyx:_ZN3lyx8frontend12ButtonPolicyC2ENS1_6PolicyE
lyx:_ZN3lyx8frontend12ButtonPolicyD1Ev
lyx:_ZN3lyx8frontend12ButtonPolicyD2Ev
lyx:_ZN3lyx8frontend12GuiCharacter11qt_metacallEN11QMetaObject4CallEiPPv
lyx:_ZN3lyx8frontend12GuiCharacter11qt_metacastEPKc
lyx:_ZN3lyx8frontend12GuiCharacter14change_adaptorEv
lyx:_ZN3lyx8frontend12GuiCharacter14dispatchParamsEv
lyx:_ZN3lyx8frontend12GuiCharacter14paramsToDialogERKNS_4FontE
lyx:_ZN3lyx8frontend12GuiCharacter14resetToDefaultEv
lyx:_ZN3lyx8frontend12GuiCharacter14restoreSessionEv
lyx:_ZN3lyx8frontend12GuiCharacter14updateContentsEv
lyx:_ZN3lyx8frontend12GuiCharacter15resetToNoChangeEv
lyx:_ZN3lyx8frontend12GuiCharacter16initialiseParamsERKNSt7__cxx1112basic_stringIcSt11char_traitsIcESaIcEEE
lyx:_ZN3lyx8frontend12GuiCharacter16staticMetaObjectE
lyx:_ZN3lyx8frontend12GuiCharacter17on_emphCB_clickedEv
lyx:_ZN3lyx8frontend12GuiCharacter17on_nounCB_clickedEv
lyx:_ZN3lyx8frontend12GuiCharacter20checkRestoreDefaultsEv
lyx:_ZN3lyx8frontend12GuiCharacter25on_nospellcheckCB_clickedEv
lyx:_ZN3lyx8frontend12GuiCharacter6setBarERNS_8FontInfoENS0_8FontDecoE
lyx:_ZN3lyx8frontend12GuiCharacter9applyViewEv
lyx:_ZN3lyx8frontend12GuiCharacter9setStrikeERNS_8FontInfoENS0_8FontDecoE
lyx:_ZN3lyx8frontend12GuiCharacterC1ERNS0_7GuiViewE
lyx:_ZN3lyx8frontend12GuiCharacterC2ERNS0_7GuiViewE
lyx:_ZN3lyx8frontend12GuiClipboard11qt_metacallEN11QMetaObject4CallEiPPv
lyx:_ZN3lyx8frontend12GuiClipboard11qt_metacastEPKc
lyx:_ZN3lyx8frontend12GuiClipboard13setFindBufferERKNSt7__cxx1112basic_stringIwSt11char_traitsIwESaIwEEE
lyx:_ZN3lyx8frontend12GuiClipboard14on_dataChangedEv
lyx:_ZN3lyx8frontend12GuiClipboard14on_findChangedEv
lyx:_ZN3lyx8frontend12GuiClipboard16staticMetaObjectE
lyx:_ZN3lyx8frontend12GuiClipboard3putERKNSt7__cxx1112basic_stringIcSt11char_traitsIcESaIcEEERKNS3_IwS4_IwESaIwEEESE_
lyx:_ZN3lyx8frontend12GuiClipboard6updateEv
lyx:_ZN3lyx8frontend12GuiClipboardC1Ev
lyx:_ZN3lyx8frontend12GuiClipboardC2Ev
lyx:_ZN3lyx8frontend12GuiCompleter10hideInlineERKNS_6CursorE
lyx:_ZN3lyx8frontend12GuiCompleter10hideInlineEv
lyx:_ZN3lyx8frontend12GuiCompleter10showInlineERKNS_6CursorE
lyx:_ZN3lyx8frontend12GuiCompleter10showInlineEv
lyx:_ZN3lyx8frontend12GuiCompleter11eventFilterEP7QObjectP6QEvent
lyx:_ZN3lyx8frontend12GuiCompleter11qt_metacallEN11QMetaObject4CallEiPPv
lyx:_ZN3lyx8frontend12GuiCompleter11qt_metacastEPKc
lyx:_ZN3lyx8frontend12GuiCompleter11updateModelERKNS_6CursorEbb
lyx:_ZN3lyx8frontend12GuiCompleter11updatePopupERKNS_6CursorE
lyx:_ZN3lyx8frontend12GuiCompleter12updateInlineERKNS_6CursorERK7QString
lyx:_ZN3lyx8frontend12GuiCompleter12updatePrefixERKNS_6CursorE
lyx:_ZN3lyx8frontend12GuiCompleter14asyncHidePopupEv
lyx:_ZN3lyx8frontend12GuiCompleter14popupActivatedERK7QString
lyx:_ZN3lyx8frontend12GuiCompleter15asyncHideInlineEv
lyx:_ZN3lyx8frontend12GuiCompleter16asyncUpdatePopupEv
lyx:_ZN3lyx8frontend12GuiCompleter16popupHighlightedERK7QString
lyx:_ZN3lyx8frontend12GuiCompleter16staticMetaObjectE
lyx:_ZN3lyx8frontend12GuiCompleter16updateVisibilityERNS_6CursorEbb
lyx:_ZN3lyx8frontend12GuiCompleter16updateVisibilityEbb
lyx:_ZN3lyx8frontend12GuiCompleter18updateAvailabilityEv
lyx:_ZN3lyx8frontend12GuiCompleter20setCurrentCompletionERK7QString
lyx:_ZN3lyx8frontend12GuiCompleter3tabEv
lyx:_ZN3lyx8frontend12GuiCompleter8activateEv
lyx:_ZN3lyx8frontend12GuiCompleter9hidePopupEv
lyx:_ZN3lyx8frontend12GuiCompleter9showPopupERKNS_6CursorE
lyx:_ZN3lyx8frontend12GuiCompleter9showPopupEv
lyx:_ZN3lyx8frontend12GuiCompleterC1EPNS0_11GuiWorkAreaEP7QObject
lyx:_ZN3lyx8frontend12GuiCompleterC2EPNS0_11GuiWorkAreaEP7QObject
lyx:_ZN3lyx8frontend12GuiCompleterD0Ev
lyx:_ZN3lyx8frontend12GuiCompleterD1Ev
lyx:_ZN3lyx8frontend12GuiCompleterD2Ev
lyx:_ZN3lyx8frontend12GuiDelimiter11qt_metacallEN11QMetaObject4CallEiPPv
lyx:_ZN3lyx8frontend12GuiDelimiter11qt_metacastEPKc
lyx:_ZN3lyx8frontend12GuiDelimiter13updateTeXCodeEi
lyx:_ZN3lyx8frontend12GuiDelimiter16staticMetaObjectE
lyx:_ZN3lyx8frontend12GuiDelimiter17on_swapPB_clickedEv
lyx:_ZN3lyx8frontend12GuiDelimiter19on_sizeCO_activatedEi
lyx:_ZN3lyx8frontend12GuiDelimiter20on_buttonBox_clickedEP15QAbstractButton
lyx:_ZN3lyx8frontend12GuiDelimiter23on_leftLW_itemActivatedEP15QListWidgetItem
lyx:_ZN3lyx8frontend12GuiDelimiter23on_matchCB_stateChangedEi
lyx:_ZN3lyx8frontend12GuiDelimiter24on_rightLW_itemActivatedEP15QListWidgetItem
lyx:_ZN3lyx8frontend12GuiDelimiter27on_leftLW_currentRowChangedEi
lyx:_ZN3lyx8frontend12GuiDelimiter28on_rightLW_currentRowChangedEi
lyx:_ZN3lyx8frontend12GuiDelimiter6insertEv
lyx:_ZN3lyx8frontend12GuiDelimiter7doMatchEw
lyx:_ZN3lyx8frontend12GuiDelimiterC1ERNS0_7GuiViewE
lyx:_ZN3lyx8frontend12GuiDelimiterC2ERNS0_7GuiViewE
lyx:_ZN3lyx8frontend12GuiErrorList10showAnywayEv
lyx:_ZN3lyx8frontend12GuiErrorList11qt_metacallEN11QMetaObject4CallEiPPv
lyx:_ZN3lyx8frontend12GuiErrorList11qt_metacastEPKc
lyx:_ZN3lyx8frontend12GuiErrorList14paramsToDialogEv
lyx:_ZN3lyx8frontend12GuiErrorList16initialiseParamsERKNSt7__cxx1112basic_stringIcSt11char_traitsIcESaIcEEE
lyx:_ZN3lyx8frontend12GuiErrorList16staticMetaObjectE
lyx:_ZN3lyx8frontend12GuiErrorList4goToEi
lyx:_ZN3lyx8frontend12GuiErrorList6selectEv
lyx:_ZN3lyx8frontend12GuiErrorList7viewLogEv
lyx:_ZN3lyx8frontend12GuiErrorList9showEventEP10QShowEvent
lyx:_ZN3lyx8frontend12GuiErrorListC1ERNS0_7GuiViewE
lyx:_ZN3lyx8frontend12GuiErrorListC2ERNS0_7GuiViewE
lyx:_ZN3lyx8frontend12GuiHyperlink11qt_metacallEN11QMetaObject4CallEiPPv
lyx:_ZN3lyx8frontend12GuiHyperlink11qt_metacastEPKc
lyx:_ZN3lyx8frontend12GuiHyperlink14paramsToDialogEPKNS_5InsetE
lyx:_ZN3lyx8frontend12GuiHyperlink16initialiseParamsERKNSt7__cxx1112basic_stringIcSt11char_traitsIcESaIcEEE
lyx:_ZN3lyx8frontend12GuiHyperlink16staticMetaObjectE
lyx:_ZN3lyx8frontend12GuiHyperlinkC1EP7QWidget
lyx:_ZN3lyx8frontend12GuiHyperlinkC2EP7QWidget
lyx:_ZN3lyx8frontend12GuiParagraph10enableViewEb
lyx:_ZN3lyx8frontend12GuiParagraph10setButtonsEb
lyx:_ZN3lyx8frontend12GuiParagraph10updateViewEv
lyx:_ZN3lyx8frontend12GuiParagraph11qt_metacallEN11QMetaObject4CallEiPPv
lyx:_ZN3lyx8frontend12GuiParagraph11qt_metacastEPKc
lyx:_ZN3lyx8frontend12GuiParagraph14dispatchParamsEv
lyx:_ZN3lyx8frontend12GuiParagraph14restoreSessionEv
lyx:_ZN3lyx8frontend12GuiParagraph16staticMetaObjectE
lyx:_ZN3lyx8frontend12GuiParagraph20on_buttonBox_clickedEP15QAbstractButton
lyx:_ZN3lyx8frontend12GuiParagraph23alignmentToRadioButtonsENS_12LyXAlignmentE
lyx:_ZN3lyx8frontend12GuiParagraph24on_linespacing_activatedEi
lyx:_ZN3lyx8frontend12GuiParagraph26checkAlignmentRadioButtonsEv
lyx:_ZN3lyx8frontend12GuiParagraph34on_synchronizedViewCB_stateChangedEi
lyx:_ZN3lyx8frontend12GuiParagraph7changedEv
lyx:_ZN3lyx8frontend12GuiParagraph9applyViewEv
lyx:_ZN3lyx8frontend12GuiParagraphC1ERNS0_7GuiViewE
lyx:_ZN3lyx8frontend12GuiParagraphC2ERNS0_7GuiViewE
lyx:_ZN3lyx8frontend12GuiSelection11qt_metacallEN11QMetaObject4CallEiPPv
lyx:_ZN3lyx8frontend12GuiSelection11qt_metacastEPKc
lyx:_ZN3lyx8frontend12GuiSelection13haveSelectionEb
lyx:_ZN3lyx8frontend12GuiSelection14on_dataChangedEv
lyx:_ZN3lyx8frontend12GuiSelection16staticMetaObjectE
lyx:_ZN3lyx8frontend12GuiSelection3putERKNSt7__cxx1112basic_stringIwSt11char_traitsIwESaIwEEE
lyx:_ZN3lyx8frontend12GuiSelectionC1Ev
lyx:_ZN3lyx8frontend12GuiSelectionC2Ev
lyx:_ZN3lyx8frontend12GuiThesaurus11checkStatusEv
lyx:_ZN3lyx8frontend12GuiThesaurus11clearParamsEv
lyx:_ZN3lyx8frontend12GuiThesaurus11getMeaningsB5cxx11ERKNS_13WordLangTupleE
lyx:_ZN3lyx8frontend12GuiThesaurus11itemClickedEP15QTreeWidgetItemi
lyx:_ZN3lyx8frontend12GuiThesaurus11qt_metacallEN11QMetaObject4CallEiPPv
lyx:_ZN3lyx8frontend12GuiThesaurus11qt_metacastEPKc
lyx:_ZN3lyx8frontend12GuiThesaurus11updateListsEv
lyx:_ZN3lyx8frontend12GuiThesaurus12entryChangedEv
lyx:_ZN3lyx8frontend12GuiThesaurus14change_adaptorEv
lyx:_ZN3lyx8frontend12GuiThesaurus14replaceClickedEv
lyx:_ZN3lyx8frontend12GuiThesaurus14updateContentsEv
lyx:_ZN3lyx8frontend12GuiThesaurus16initialiseParamsERKNSt7__cxx1112basic_stringIcSt11char_traitsIcESaIcEEE
lyx:_ZN3lyx8frontend12GuiThesaurus16selectionChangedEv
lyx:_ZN3lyx8frontend12GuiThesaurus16selectionClickedEP15QTreeWidgetItemi
lyx:_ZN3lyx8frontend12GuiThesaurus16staticMetaObjectE
lyx:_ZN3lyx8frontend12GuiThesaurus7replaceERKNSt7__cxx1112basic_stringIwSt11char_traitsIwESaIwEEE
lyx:_ZN3lyx8frontend12GuiThesaurusC1ERNS0_7GuiViewE
lyx:_ZN3lyx8frontend12GuiThesaurusC2ERNS0_7GuiViewE
lyx:_ZN3lyx8frontend12PrefIdentity11qt_metacallEN11QMetaObject4CallEiPPv
lyx:_ZN3lyx8frontend12PrefIdentity11qt_metacastEPKc
lyx:_ZN3lyx8frontend12PrefIdentity16staticMetaObjectE
lyx:_ZN3lyx8frontend12PrefIdentity8updateRCERKNS_5LyXRCE
lyx:_ZN3lyx8frontend12PrefIdentityC1EPNS0_14GuiPreferencesE
lyx:_ZN3lyx8frontend12PrefIdentityC2EPNS0_14GuiPreferencesE
lyx:_ZN3lyx8frontend12PrefLanguage11qt_metacallEN11QMetaObject4CallEiPPv
lyx:_ZN3lyx8frontend12PrefLanguage11qt_metacastEPKc
lyx:_ZN3lyx8frontend12PrefLanguage16staticMetaObjectE
lyx:_ZN3lyx8frontend12PrefLanguage35on_uiLanguageCO_currentIndexChangedEi
lyx:_ZN3lyx8frontend12PrefLanguage40on_languagePackageCO_currentIndexChangedEi
lyx:_ZN3lyx8frontend12PrefLanguage42on_defaultDecimalSepCO_currentIndexChangedEi
lyx:_ZN3lyx8frontend12PrefLanguage8updateRCERKNS_5LyXRCE
lyx:_ZN3lyx8frontend12PrefLanguageC1EPNS0_14GuiPreferencesE
lyx:_ZN3lyx8frontend12PrefLanguageC2EPNS0_14GuiPreferencesE
lyx:_ZN3lyx8frontend12commonPrefixERK7QStringS3_
lyx:_ZN3lyx8frontend12createDialogERNS0_7GuiViewERKNSt7__cxx1112basic_stringIcSt11char_traitsIcESaIcEEE
lyx:_ZN3lyx8frontend12functionNameENS0_12ButtonPolicy6PolicyE
lyx:_ZN3lyx8frontend12info_tooltipE
lyx:_ZN3lyx8frontend13BulletsModule10selectItemEiib
lyx:_ZN3lyx8frontend13BulletsModule10setupPanelEP11QListWidgetRK7QString
lyx:_ZN3lyx8frontend13BulletsModule11qt_metacallEN11QMetaObject4CallEiPPv
lyx:_ZN3lyx8frontend13BulletsModule11qt_metacastEPKc
lyx:_ZN3lyx8frontend13BulletsModule13getListWidgetEi
lyx:_ZN3lyx8frontend13BulletsModule14bulletSelectedEP15QListWidgetItem
lyx:_ZN3lyx8frontend13BulletsModule14setCurrentPaneEi
lyx:_ZN3lyx8frontend13BulletsModule16staticMetaObjectE
lyx:_ZN3lyx8frontend13BulletsModule19on_customCB_clickedEb
lyx:_ZN3lyx8frontend13BulletsModule22on_customLE_textEditedERK7QString
lyx:_ZN3lyx8frontend13BulletsModule25on_bulletsizeCO_activatedEi
lyx:_ZN3lyx8frontend13BulletsModule4initEv
lyx:_ZN3lyx8frontend13BulletsModule7changedEv
lyx:_ZN3lyx8frontend13BulletsModule9fillPanelEi
lyx:_ZN3lyx8frontend13BulletsModule9getFolderB5cxx11Ei
lyx:_ZN3lyx8frontend13BulletsModule9setBulletEiRKNS_6BulletE
lyx:_ZN3lyx8frontend13BulletsModule9showLevelEi
lyx:_ZN3lyx8frontend13BulletsModuleC1EP7QWidget
lyx:_ZN3lyx8frontend13BulletsModuleC2EP7QWidget
lyx:_ZN3lyx8frontend13CacheMimeData11qt_metacallEN11QMetaObject4CallEiPPv
lyx:_ZN3lyx8frontend13CacheMimeData11qt_metacastEPKc
lyx:_ZN3lyx8frontend13CacheMimeData16staticMetaObjectE
lyx:_ZN3lyx8frontend13CacheMimeData6updateEv
lyx:_ZN3lyx8frontend13CheckedWidgetC1EP9QLineEditP7QWidget
lyx:_ZN3lyx8frontend13CheckedWidgetC2EP9QLineEditP7QWidget
lyx:_ZN3lyx8frontend13FancyLineEdit11downPressedEv
lyx:_ZN3lyx8frontend13FancyLineEdit11iconClickedEv
lyx:_ZN3lyx8frontend13FancyLineEdit11qt_metacallEN11QMetaObject4CallEiPPv
lyx:_ZN3lyx8frontend13FancyLineEdit11qt_metacastEPKc
lyx:_ZN3lyx8frontend13FancyLineEdit11resizeEventEP12QResizeEvent
lyx:_ZN3lyx8frontend13FancyLineEdit12checkButtonsERK7QString
lyx:_ZN3lyx8frontend13FancyLineEdit13buttonClickedENS1_4SideE
lyx:_ZN3lyx8frontend13FancyLineEdit13keyPressEventEP9QKeyEvent
lyx:_ZN3lyx8frontend13FancyLineEdit13setButtonMenuENS1_4SideEP5QMenu
lyx:_ZN3lyx8frontend13FancyLineEdit13updateMarginsEv
lyx:_ZN3lyx8frontend13FancyLineEdit14setClearButtonEb
lyx:_ZN3lyx8frontend13FancyLineEdit15setButtonPixmapENS1_4SideERK7QPixmap
lyx:_ZN3lyx8frontend13FancyLineEdit16setButtonToolTipENS1_4SideERK7QString
lyx:_ZN3lyx8frontend13FancyLineEdit16setButtonVisibleENS1_4SideEb
lyx:_ZN3lyx8frontend13FancyLineEdit16staticMetaObjectE
lyx:_ZN3lyx8frontend13FancyLineEdit17leftButtonClickedEv
lyx:_ZN3lyx8frontend13FancyLineEdit17setAutoHideButtonENS1_4SideEb
lyx:_ZN3lyx8frontend13FancyLineEdit18rightButtonClickedEv
lyx:_ZN3lyx8frontend13FancyLineEdit20setButtonFocusPolicyENS1_4SideEN2Qt11FocusPolicyE
lyx:_ZN3lyx8frontend13FancyLineEdit21updateButtonPositionsEv
lyx:_ZN3lyx8frontend13FancyLineEdit22setMenuTabFocusTriggerENS1_4SideEb
lyx:_ZN3lyx8frontend13FancyLineEditC1EP7QWidget
lyx:_ZN3lyx8frontend13FancyLineEditC2EP7QWidget
lyx:_ZN3lyx8frontend13GuiMathMatrix11qt_metacallEN11QMetaObject4CallEiPPv
lyx:_ZN3lyx8frontend13GuiMathMatrix11qt_metacastEPKc
lyx:_ZN3lyx8frontend13GuiMathMatrix14change_adaptorEv
lyx:_ZN3lyx8frontend13GuiMathMatrix14columnsChangedEi
lyx:_ZN3lyx8frontend13GuiMathMatrix16staticMetaObjectE
lyx:_ZN3lyx8frontend13GuiMathMatrix17decorationChangedEi
lyx:_ZN3lyx8frontend13GuiMathMatrix20on_buttonBox_clickedEP15QAbstractButton
lyx:_ZN3lyx8frontend13GuiMathMatrix6slotOKEv
lyx:_ZN3lyx8frontend13GuiMathMatrix9slotCloseEv
lyx:_ZN3lyx8frontend13GuiMathMatrixC1ERNS0_7GuiViewE
lyx:_ZN3lyx8frontend13GuiMathMatrixC2ERNS0_7GuiViewE
lyx:_ZN3lyx8frontend13GuiPrintindex11qt_metacallEN11QMetaObject4CallEiPPv
lyx:_ZN3lyx8frontend13GuiPrintindex11qt_metacastEPKc
lyx:_ZN3lyx8frontend13GuiPrintindex14change_adaptorEv
lyx:_ZN3lyx8frontend13GuiPrintindex14dispatchParamsEv
lyx:_ZN3lyx8frontend13GuiPrintindex14paramsToDialogERKNS_18InsetCommandParamsE
lyx:_ZN3lyx8frontend13GuiPrintindex14updateContentsEv
lyx:_ZN3lyx8frontend13GuiPrintindex16initialiseParamsERKNSt7__cxx1112basic_stringIcSt11char_traitsIcESaIcEEE
lyx:_ZN3lyx8frontend13GuiPrintindex16staticMetaObjectE
lyx:_ZN3lyx8frontend13GuiPrintindex9applyViewEv
lyx:_ZN3lyx8frontend13GuiPrintindexC1ERNS0_7GuiViewE
lyx:_ZN3lyx8frontend13GuiPrintindexC2ERNS0_7GuiViewE
lyx:_ZN3lyx8frontend13GuiViewSource10enableViewEb
lyx:_ZN3lyx8frontend13GuiViewSource10updateViewEv
lyx:_ZN3lyx8frontend13GuiViewSource11qt_metacallEN11QMetaObject4CallEiPPv
lyx:_ZN3lyx8frontend13GuiViewSource11qt_metacastEPKc
lyx:_ZN3lyx8frontend13GuiViewSource11updateTitleEv
lyx:_ZN3lyx8frontend13GuiViewSource14realUpdateViewEv
lyx:_ZN3lyx8frontend13GuiViewSource14restoreSessionEv
lyx:_ZN3lyx8frontend13GuiViewSource14scheduleUpdateEv
lyx:_ZN3lyx8frontend13GuiViewSource16initialiseParamsERKNSt7__cxx1112basic_stringIcSt11char_traitsIcESaIcEEE
lyx:_ZN3lyx8frontend13GuiViewSource16staticMetaObjectE
lyx:_ZN3lyx8frontend13GuiViewSource17scheduleUpdateNowEv
lyx:_ZN3lyx8frontend13GuiViewSource19onBufferViewChangedEv
lyx:_ZN3lyx8frontend13GuiViewSourceC1ERNS0_7GuiViewEN2Qt14DockWidgetAreaE6QFlagsINS4_10WindowTypeEE
lyx:_ZN3lyx8frontend13GuiViewSourceC2ERNS0_7GuiViewEN2Qt14DockWidgetAreaE6QFlagsINS4_10WindowTypeEE
lyx:_ZN3lyx8frontend13PathValidator10setCheckerERKNS0_13KernelDocTypeERKNS_5LyXRCE
lyx:_ZN3lyx8frontend13PathValidator11qt_metacallEN11QMetaObject4CallEiPPv
lyx:_ZN3lyx8frontend13PathValidator11qt_metacastEPKc
lyx:_ZN3lyx8frontend13PathValidator16staticMetaObjectE
lyx:_ZN3lyx8frontend13PathValidatorC1EbP7QWidget
lyx:_ZN3lyx8frontend13PathValidatorC2EbP7QWidget
lyx:_ZN3lyx8frontend13PrefShortcuts10selectBindEv
lyx:_ZN3lyx8frontend13PrefShortcuts11qt_metacallEN11QMetaObject4CallEiPPv
lyx:_ZN3lyx8frontend13PrefShortcuts11qt_metacastEPKc
lyx:_ZN3lyx8frontend13PrefShortcuts11setItemTypeEP15QTreeWidgetItemNS_6KeyMap8ItemTypeE
lyx:_ZN3lyx8frontend13PrefShortcuts11unhideEmptyERK7QStringb
lyx:_ZN3lyx8frontend13PrefShortcuts14currentBindingERKNS_11KeySequenceE
lyx:_ZN3lyx8frontend13PrefShortcuts14isAlwaysHiddenER15QTreeWidgetItem
lyx:_ZN3lyx8frontend13PrefShortcuts14modifyShortcutEv
lyx:_ZN3lyx8frontend13PrefShortcuts14removeShortcutEv
lyx:_ZN3lyx8frontend13PrefShortcuts16on_newPB_pressedEv
lyx:_ZN3lyx8frontend13PrefShortcuts16staticMetaObjectE
lyx:_ZN3lyx8frontend13PrefShortcuts17shortcutOkPressedEv
lyx:_ZN3lyx8frontend13PrefShortcuts17updateShortcutsTWEv
lyx:_ZN3lyx8frontend13PrefShortcuts18insertShortcutItemERKNS_11FuncRequestERKNS_11KeySequenceENS_6KeyMap8ItemTypeE
lyx:_ZN3lyx8frontend13PrefShortcuts19deactivateShortcutsERK5QListIP15QTreeWidgetItemE
lyx:_ZN3lyx8frontend13PrefShortcuts19on_modifyPB_pressedEv
lyx:_ZN3lyx8frontend13PrefShortcuts19on_removePB_pressedEv
lyx:_ZN3lyx8frontend13PrefShortcuts19validateNewShortcutERKNS_11FuncRequestERKNS_11KeySequenceERK7QString
lyx:_ZN3lyx8frontend13PrefShortcuts20shortcutClearPressedEv
lyx:_ZN3lyx8frontend13PrefShortcuts21shortcutCancelPressedEv
lyx:_ZN3lyx8frontend13PrefShortcuts21shortcutRemovePressedEv
lyx:_ZN3lyx8frontend13PrefShortcuts22on_searchLE_textEditedEv
lyx:_ZN3lyx8frontend13PrefShortcuts32on_shortcutsTW_itemDoubleClickedEv
lyx:_ZN3lyx8frontend13PrefShortcuts35on_shortcutsTW_itemSelectionChangedEv
lyx:_ZN3lyx8frontend13PrefShortcuts8itemTypeER15QTreeWidgetItem
lyx:_ZN3lyx8frontend13PrefShortcuts8updateRCERKNS_5LyXRCE
lyx:_ZN3lyx8frontend13PrefShortcutsC1EPNS0_14GuiPreferencesE
lyx:_ZN3lyx8frontend13PrefShortcutsC2EPNS0_14GuiPreferencesE
lyx:_ZN3lyx8frontend13info_name_guiE
lyx:_ZN3lyx8frontend13languages_guiE
lyx:_ZN3lyx8frontend13latexMimeTypeEv
lyx:_ZN3lyx8frontend13makeCmdStringB5cxx11ERKNS_11FuncRequestE
lyx:_ZN3lyx8frontend13showDirectoryERKNS_7support8FileNameE
lyx:_ZN3lyx8frontend13themeIconNameERK7QString
lyx:_ZN3lyx8frontend14FindAndReplace10updateViewEv
lyx:_ZN3lyx8frontend14FindAndReplace11qt_metacallEN11QMetaObject4CallEiPPv
lyx:_ZN3lyx8frontend14FindAndReplace11qt_metacastEPKc
lyx:_ZN3lyx8frontend14FindAndReplace16initialiseParamsERKNSt7__cxx1112basic_stringIcSt11char_traitsIcESaIcEEE
lyx:_ZN3lyx8frontend14FindAndReplace16staticMetaObjectE
lyx:_ZN3lyx8frontend14FindAndReplaceC1ERNS0_7GuiViewEN2Qt14DockWidgetAreaE6QFlagsINS4_10WindowTypeEE
lyx:_ZN3lyx8frontend14FindAndReplaceC2ERNS0_7GuiViewEN2Qt14DockWidgetAreaE6QFlagsINS4_10WindowTypeEE
lyx:_ZN3lyx8frontend14FindAndReplaceD0Ev
lyx:_ZN3lyx8frontend14FindAndReplaceD1Ev
lyx:_ZN3lyx8frontend14FindAndReplaceD2Ev
lyx:_ZN3lyx8frontend14FloatPlacement11changedSlotEv
lyx:_ZN3lyx8frontend14FloatPlacement11qt_metacallEN11QMetaObject4CallEiPPv
lyx:_ZN3lyx8frontend14FloatPlacement11qt_metacastEPKc
lyx:_ZN3lyx8frontend14FloatPlacement11useSidewaysEv
lyx:_ZN3lyx8frontend14FloatPlacement12setAlignmentERKNSt7__cxx1112basic_stringIcSt11char_traitsIcESaIcEEE
lyx:_ZN3lyx8frontend14FloatPlacement12setPlacementERKNSt7__cxx1112basic_stringIcSt11char_traitsIcESaIcEEE
lyx:_ZN3lyx8frontend14FloatPlacement14paramsToDialogEPKNS_5InsetE
lyx:_ZN3lyx8frontend14FloatPlacement15initFloatTypeCOERKNS_9FloatListE
lyx:_ZN3lyx8frontend14FloatPlacement16staticMetaObjectE
lyx:_ZN3lyx8frontend14FloatPlacement20initFloatPlacementCOEb
lyx:_ZN3lyx8frontend14FloatPlacement34on_placementCO_currentIndexChangedEi
lyx:_ZN3lyx8frontend14FloatPlacement7useWideEv
lyx:_ZN3lyx8frontend14FloatPlacementC1EbP7QWidget
lyx:_ZN3lyx8frontend14FloatPlacementC2EbP7QWidget
lyx:_ZN3lyx8frontend14GuiApplication10colorCacheEv
lyx:_ZN3lyx8frontend14GuiApplication10commitDataER15QSessionManager
lyx:_ZN3lyx8frontend14GuiApplication10createViewERK7QStringbi
lyx:_ZN3lyx8frontend14GuiApplication10createViewEi
lyx:_ZN3lyx8frontend14GuiApplication10fontLoaderEv
lyx:_ZN3lyx8frontend14GuiApplication10readUIFileERK7QStringb
lyx:_ZN3lyx8frontend14GuiApplication10readUIFileERKNS_7support8FileNameE
lyx:_ZN3lyx8frontend14GuiApplication11getRgbColorENS_9ColorCodeERNS_8RGBColorE
lyx:_ZN3lyx8frontend14GuiApplication11qt_metacallEN11QMetaObject4CallEiPPv
lyx:_ZN3lyx8frontend14GuiApplication11qt_metacastEPKc
lyx:_ZN3lyx8frontend14GuiApplication11reconfigureERKNSt7__cxx1112basic_stringIcSt11char_traitsIcESaIcEEE
lyx:_ZN3lyx8frontend14GuiApplication12clearSessionEv
lyx:_ZN3lyx8frontend14GuiApplication12gotoBookmarkEjbb
lyx:_ZN3lyx8frontend14GuiApplication12isInDarkModeEv
lyx:_ZN3lyx8frontend14GuiApplication12sansFontNameEv
lyx:_ZN3lyx8frontend14GuiApplication13closeAllViewsEv
lyx:_ZN3lyx8frontend14GuiApplication13handleKeyFuncENS_8FuncCodeE
lyx:_ZN3lyx8frontend14GuiApplication13languageModelEv
lyx:_ZN3lyx8frontend14GuiApplication13processKeySymERKNS_9KeySymbolEj
lyx:_ZN3lyx8frontend14GuiApplication13romanFontNameEv
lyx:_ZN3lyx8frontend14GuiApplication14setGuiLanguageEv
lyx:_ZN3lyx8frontend14GuiApplication14unregisterViewEPNS0_7GuiViewE
lyx:_ZN3lyx8frontend14GuiApplication15onLocaleChangedEv
lyx:_ZN3lyx8frontend14GuiApplication15syncZoomSlidersEi
lyx:_ZN3lyx8frontend14GuiApplication16onPaletteChangedEv
lyx:_ZN3lyx8frontend14GuiApplication16staticMetaObjectE
lyx:_ZN3lyx8frontend14GuiApplication17execBatchCommandsEv
lyx:_ZN3lyx8frontend14GuiApplication17firstWorkAreaDoneEv
lyx:_ZN3lyx8frontend14GuiApplication17nativeEventFilterERK10QByteArrayPvPx
lyx:_ZN3lyx8frontend14GuiApplication17restoreGuiSessionEv
lyx:_ZN3lyx8frontend14GuiApplication17stopLongOperationEv
lyx:_ZN3lyx8frontend14GuiApplication17updateCurrentViewERKNS_11FuncRequestERNS_14DispatchResultE
lyx:_ZN3lyx8frontend14GuiApplication17viewStatusMessageB5cxx11Ev
lyx:_ZN3lyx8frontend14GuiApplication18onLastWindowClosedEv
lyx:_ZN3lyx8frontend14GuiApplication18processFuncRequestERKNS_11FuncRequestE
lyx:_ZN3lyx8frontend14GuiApplication18socketDataReceivedEi
lyx:_ZN3lyx8frontend14GuiApplication18startLongOperationEv
lyx:_ZN3lyx8frontend14GuiApplication18typewriterFontNameEv
lyx:_ZN3lyx8frontend14GuiApplication19handleRegularEventsEv
lyx:_ZN3lyx8frontend14GuiApplication19validateCurrentViewEv
lyx:_ZN3lyx8frontend14GuiApplication20longOperationStartedEv
lyx:_ZN3lyx8frontend14GuiApplication20typewriterSystemFontEv
lyx:_ZN3lyx8frontend14GuiApplication21addToFuncRequestQueueERKNS_11FuncRequestE
lyx:_ZN3lyx8frontend14GuiApplication22baseInputItemRectangleEv
lyx:_ZN3lyx8frontend14GuiApplication22baseInputItemTransformEv
lyx:_ZN3lyx8frontend14GuiApplication22longOperationCancelledEv
lyx:_ZN3lyx8frontend14GuiApplication22registerSocketCallbackEiSt8functionIFvvEE
lyx:_ZN3lyx8frontend14GuiApplication23processFuncRequestAsyncERKNS_11FuncRequestE
lyx:_ZN3lyx8frontend14GuiApplication23processFuncRequestQueueEv
lyx:_ZN3lyx8frontend14GuiApplication24prepareAllViewsForLogoutEv
lyx:_ZN3lyx8frontend14GuiApplication24unregisterSocketCallbackEi
lyx:_ZN3lyx8frontend14GuiApplication25onApplicationStateChangedEN2Qt16ApplicationStateE
lyx:_ZN3lyx8frontend14GuiApplication25setBaseInputItemRectangleE6QRectF
lyx:_ZN3lyx8frontend14GuiApplication25setBaseInputItemTransformE10QTransform
lyx:_ZN3lyx8frontend14GuiApplication28processFuncRequestQueueAsyncEv
lyx:_ZN3lyx8frontend14GuiApplication4execEv
lyx:_ZN3lyx8frontend14GuiApplication4exitEi
lyx:_ZN3lyx8frontend14GuiApplication5eventEP6QEvent
lyx:_ZN3lyx8frontend14GuiApplication5menusEv
lyx:_ZN3lyx8frontend14GuiApplication6notifyEP7QObjectP6QEvent
lyx:_ZN3lyx8frontend14GuiApplication6unhideEPNS_6BufferE
lyx:_ZN3lyx8frontend14GuiApplication7hexNameB5cxx11ENS_9ColorCodeE
lyx:_ZN3lyx8frontend14GuiApplication8dispatchERKNS_11FuncRequestE
lyx:_ZN3lyx8frontend14GuiApplication8dispatchERKNS_11FuncRequestERNS_14DispatchResultE
lyx:_ZN3lyx8frontend14GuiApplication8resetGuiEv
lyx:_ZN3lyx8frontend14GuiApplication8toolbarsEv
lyx:_ZN3lyx8frontend14GuiApplication9clipboardEv
lyx:_ZN3lyx8frontend14GuiApplication9selectionEv
lyx:_ZN3lyx8frontend14GuiApplicationC1ERiPPc
lyx:_ZN3lyx8frontend14GuiApplicationC2ERiPPc
lyx:_ZN3lyx8frontend14GuiApplicationD0Ev
lyx:_ZN3lyx8frontend14GuiApplicationD1Ev
lyx:_ZN3lyx8frontend14GuiApplicationD2Ev
lyx:_ZN3lyx8frontend14GuiCommandEdit10tabPressedEv
lyx:_ZN3lyx8frontend14GuiCommandEdit11downPressedEv
lyx:_ZN3lyx8frontend14GuiCommandEdit11qt_metacallEN11QMetaObject4CallEiPPv
lyx:_ZN3lyx8frontend14GuiCommandEdit11qt_metacastEPKc
lyx:_ZN3lyx8frontend14GuiCommandEdit13escapePressedEv
lyx:_ZN3lyx8frontend14GuiCommandEdit13keyPressEventEP9QKeyEvent
lyx:_ZN3lyx8frontend14GuiCommandEdit16staticMetaObjectE
lyx:_ZN3lyx8frontend14GuiCommandEdit5eventEP6QEvent
lyx:_ZN3lyx8frontend14GuiCommandEdit9upPressedEv
lyx:_ZN3lyx8frontend14GuiCommandEditC1EP7QWidget
lyx:_ZN3lyx8frontend14GuiCommandEditC2EP7QWidget
lyx:_ZN3lyx8frontend14GuiFontMetricsC1ERK5QFont
lyx:_ZN3lyx8frontend14GuiFontMetricsC2ERK5QFont
lyx:_ZN3lyx8frontend14GuiIdListModel10insertRowsEiiRK11QModelIndex
lyx:_ZN3lyx8frontend14GuiIdListModel10removeRowsEiiRK11QModelIndex
lyx:_ZN3lyx8frontend14GuiIdListModel12findIDStringERKNSt7__cxx1112basic_stringIcSt11char_traitsIcESaIcEEE
lyx:_ZN3lyx8frontend14GuiIdListModel7setDataERK11QModelIndexRK8QVarianti
lyx:_ZN3lyx8frontend14GuiIdListModel9insertRowEiRK7QStringRKNSt7__cxx1112basic_stringIcSt11char_traitsIcESaIcEEE
lyx:_ZN3lyx8frontend14GuiIdListModel9insertRowEiRK7QStringRKNSt7__cxx1112basic_stringIcSt11char_traitsIcESaIcEEES4_
lyx:_ZN3lyx8frontend14GuiPreferences10browsebindERK7QString
lyx:_ZN3lyx8frontend14GuiPreferences11browsekbmapERK7QString
lyx:_ZN3lyx8frontend14GuiPreferences11qt_metacallEN11QMetaObject4CallEiPPv
lyx:_ZN3lyx8frontend14GuiPreferences11qt_metacastEPKc
lyx:_ZN3lyx8frontend14GuiPreferences12prefsAppliedERKNS_5LyXRCE
lyx:_ZN3lyx8frontend14GuiPreferences13browseLibFileERK7QStringS4_S4_
lyx:_ZN3lyx8frontend14GuiPreferences14change_adaptorEv
lyx:_ZN3lyx8frontend14GuiPreferences14dispatchParamsEv
lyx:_ZN3lyx8frontend14GuiPreferences16initialiseParamsERKNSt7__cxx1112basic_stringIcSt11char_traitsIcESaIcEEE
lyx:_ZN3lyx8frontend14GuiPreferences16slotFileSelectedE7QString
lyx:_ZN3lyx8frontend14GuiPreferences16staticMetaObjectE
lyx:_ZN3lyx8frontend14GuiPreferences6browseERK7QStringS4_
lyx:_ZN3lyx8frontend14GuiPreferences8browseUIERK7QString
lyx:_ZN3lyx8frontend14GuiPreferences8setColorENS_9ColorCodeERK7QString
lyx:_ZN3lyx8frontend14GuiPreferences8updateRCERKNS_5LyXRCE
lyx:_ZN3lyx8frontend14GuiPreferences9addModuleEPNS0_10PrefModuleE
lyx:_ZN3lyx8frontend14GuiPreferences9applyViewEv
lyx:_ZN3lyx8frontend14GuiPreferencesC1ERNS0_7GuiViewE
lyx:_ZN3lyx8frontend14GuiPreferencesC2ERNS0_7GuiViewE
lyx:_ZN3lyx8frontend14LogHighlighter14highlightBlockERK7QString
lyx:_ZN3lyx8frontend14LogHighlighterC1EP13QTextDocument
lyx:_ZN3lyx8frontend14LogHighlighterC2EP13QTextDocument
lyx:_ZN3lyx8frontend14MenuButtonBase11qt_metacallEN11QMetaObject4CallEiPPv
lyx:_ZN3lyx8frontend14MenuButtonBase11qt_metacastEPKc
lyx:_ZN3lyx8frontend14MenuButtonBase15actionTriggeredEP7QAction
lyx:_ZN3lyx8frontend14MenuButtonBase16staticMetaObjectE
lyx:_ZN3lyx8frontend14MenuButtonBaseC2EPNS0_10GuiToolbarERKNS0_11ToolbarItemE
lyx:_ZN3lyx8frontend14PreambleModule10closeEventEP11QCloseEvent
lyx:_ZN3lyx8frontend14PreambleModule11eventFilterEP7QObjectP6QEvent
lyx:_ZN3lyx8frontend14PreambleModule11qt_metacallEN11QMetaObject4CallEiPPv
lyx:_ZN3lyx8frontend14PreambleModule11qt_metacastEPKc
lyx:_ZN3lyx8frontend14PreambleModule12editExternalEv
lyx:_ZN3lyx8frontend14PreambleModule15checkFindButtonEv
lyx:_ZN3lyx8frontend14PreambleModule16staticMetaObjectE
lyx:_ZN3lyx8frontend14PreambleModule5applyERNS_12BufferParamsE
lyx:_ZN3lyx8frontend14PreambleModule6updateERKNS_12BufferParamsEPKNS_6BufferE
lyx:_ZN3lyx8frontend14PreambleModule7changedEv
lyx:_ZN3lyx8frontend14PreambleModule8findTextEv
lyx:_ZN3lyx8frontend14PreambleModuleC1EP7QWidget
lyx:_ZN3lyx8frontend14PreambleModuleC2EP7QWidget
lyx:_ZN3lyx8frontend14PrefCompletion11qt_metacallEN11QMetaObject4CallEiPPv
lyx:_ZN3lyx8frontend14PrefCompletion11qt_metacastEPKc
lyx:_ZN3lyx8frontend14PrefCompletion16staticMetaObjectE
lyx:_ZN3lyx8frontend14PrefCompletion22on_popupTextCB_clickedEv
lyx:_ZN3lyx8frontend14PrefCompletion23on_inlineTextCB_clickedEv
lyx:_ZN3lyx8frontend14PrefCompletion8enableCBEv
lyx:_ZN3lyx8frontend14PrefCompletion8updateRCERKNS_5LyXRCE
lyx:_ZN3lyx8frontend14PrefCompletionC1EPNS0_14GuiPreferencesE
lyx:_ZN3lyx8frontend14PrefCompletionC2EPNS0_14GuiPreferencesE
lyx:_ZN3lyx8frontend14PrefConverters11qt_metacallEN11QMetaObject4CallEiPPv
lyx:_ZN3lyx8frontend14PrefConverters11qt_metacastEPKc
lyx:_ZN3lyx8frontend14PrefConverters13updateButtonsEv
lyx:_ZN3lyx8frontend14PrefConverters15changeConverterEv
lyx:_ZN3lyx8frontend14PrefConverters15removeConverterEv
lyx:_ZN3lyx8frontend14PrefConverters15switchConverterEv
lyx:_ZN3lyx8frontend14PrefConverters15updateConverterEv
lyx:_ZN3lyx8frontend14PrefConverters16staticMetaObjectE
lyx:_ZN3lyx8frontend14PrefConverters21on_needauthCB_toggledEb
lyx:_ZN3lyx8frontend14PrefConverters23on_cacheCB_stateChangedEi
lyx:_ZN3lyx8frontend14PrefConverters30on_needauthForbiddenCB_toggledEb
lyx:_ZN3lyx8frontend14PrefConverters8updateRCERKNS_5LyXRCE
lyx:_ZN3lyx8frontend14PrefConverters9updateGuiEv
lyx:_ZN3lyx8frontend14PrefConvertersC1EPNS0_14GuiPreferencesE
lyx:_ZN3lyx8frontend14PrefConvertersC2EPNS0_14GuiPreferencesE
lyx:_ZN3lyx8frontend14ShortcutWidget11qt_metacallEN11QMetaObject4CallEiPPv
lyx:_ZN3lyx8frontend14ShortcutWidget11qt_metacastEPKc
lyx:_ZN3lyx8frontend14ShortcutWidget13keyPressEventEP9QKeyEvent
lyx:_ZN3lyx8frontend14ShortcutWidget14setKeySequenceERKNS_11KeySequenceE
lyx:_ZN3lyx8frontend14ShortcutWidget16appendToSequenceEP9QKeyEvent
lyx:_ZN3lyx8frontend14ShortcutWidget16staticMetaObjectE
lyx:_ZN3lyx8frontend14ShortcutWidget18removeFromSequenceEv
lyx:_ZN3lyx8frontend14ShortcutWidget5eventEP6QEvent
lyx:_ZN3lyx8frontend14ShortcutWidget5resetEv
lyx:_ZN3lyx8frontend14ShortcutWidgetC1EP7QWidget
lyx:_ZN3lyx8frontend14ShortcutWidgetC2EP7QWidget
lyx:_ZN3lyx8frontend14doubleToWidgetEP9QLineEditRKNSt7__cxx1112basic_stringIcSt11char_traitsIcESaIcEEEci
lyx:_ZN3lyx8frontend14doubleToWidgetEP9QLineEditdci
lyx:_ZN3lyx8frontend14font_sizes_guiE
lyx:_ZN3lyx8frontend14getFontMetricsERKNS_8FontInfoE
lyx:_ZN3lyx8frontend14info_types_guiE
lyx:_ZN3lyx8frontend14widgetToDoubleEPK9QLineEdit
lyx:_ZN3lyx8frontend15CheckedLineEditC1EP9QLineEditP7QWidgeti7QString
lyx:_ZN3lyx8frontend15CheckedLineEditC2EP9QLineEditP7QWidgeti7QString
lyx:_ZN3lyx8frontend15CompressorProxy11qt_metacallEN11QMetaObject4CallEiPPv
lyx:_ZN3lyx8frontend15CompressorProxy11qt_metacastEPKc
lyx:_ZN3lyx8frontend15CompressorProxy16staticMetaObjectE
lyx:_ZN3lyx8frontend15CompressorProxy4slotENS_9KeySymbolEjb
lyx:_ZN3lyx8frontend15CompressorProxy6signalENS_9KeySymbolEj
lyx:_ZN3lyx8frontend15CompressorProxy9emitCheckEb
lyx:_ZN3lyx8frontend15CompressorProxyC1EPNS0_11GuiWorkAreaE
lyx:_ZN3lyx8frontend15CompressorProxyC2EPNS0_11GuiWorkAreaE
lyx:_ZN3lyx8frontend15FormatValidatorC2EP7QWidgetRKNS_7FormatsE
lyx:_ZN3lyx8frontend15GuiNomenclature11qt_metacallEN11QMetaObject4CallEiPPv
lyx:_ZN3lyx8frontend15GuiNomenclature11qt_metacastEPKc
lyx:_ZN3lyx8frontend15GuiNomenclature14paramsToDialogEPKNS_5InsetE
lyx:_ZN3lyx8frontend15GuiNomenclature16initialiseParamsERKNSt7__cxx1112basic_stringIcSt11char_traitsIcESaIcEEE
lyx:_ZN3lyx8frontend15GuiNomenclature16staticMetaObjectE
lyx:_ZN3lyx8frontend15GuiNomenclatureC1EP7QWidget
lyx:_ZN3lyx8frontend15GuiNomenclatureC2EP7QWidget
lyx:_ZN3lyx8frontend15GuiPrintNomencl11qt_metacallEN11QMetaObject4CallEiPPv
lyx:_ZN3lyx8frontend15GuiPrintNomencl11qt_metacastEPKc
lyx:_ZN3lyx8frontend15GuiPrintNomencl14paramsToDialogEPKNS_5InsetE
lyx:_ZN3lyx8frontend15GuiPrintNomencl14paramsToDialogERKNS_18InsetCommandParamsE
lyx:_ZN3lyx8frontend15GuiPrintNomencl16staticMetaObjectE
lyx:_ZN3lyx8frontend15GuiPrintNomencl23on_setWidthCO_activatedEi
lyx:_ZN3lyx8frontend15GuiPrintNomenclC1EP7QWidget
lyx:_ZN3lyx8frontend15GuiPrintNomenclC2EP7QWidget
lyx:_ZN3lyx8frontend15GuiProgressView10appendTextERK7QString
lyx:_ZN3lyx8frontend15GuiProgressView11qt_metacallEN11QMetaObject4CallEiPPv
lyx:_ZN3lyx8frontend15GuiProgressView11qt_metacastEPKc
lyx:_ZN3lyx8frontend15GuiProgressView12levelChangedEv
lyx:_ZN3lyx8frontend15GuiProgressView14restoreSessionEv
lyx:_ZN3lyx8frontend15GuiProgressView16appendLyXErrTextERK7QString
lyx:_ZN3lyx8frontend15GuiProgressView16staticMetaObjectE
lyx:_ZN3lyx8frontend15GuiProgressView21debugMessageActivatedEP15QTreeWidgetItemi
lyx:_ZN3lyx8frontend15GuiProgressView21debugSelectionChangedEv
lyx:_ZN3lyx8frontend15GuiProgressView9clearTextEv
lyx:_ZN3lyx8frontend15GuiProgressView9hideEventEP10QHideEvent
lyx:_ZN3lyx8frontend15GuiProgressView9showEventEP10QShowEvent
lyx:_ZN3lyx8frontend15GuiProgressViewC1ERNS0_7GuiViewEN2Qt14DockWidgetAreaE6QFlagsINS4_10WindowTypeEE
lyx:_ZN3lyx8frontend15GuiProgressViewC2ERNS0_7GuiViewEN2Qt14DockWidgetAreaE6QFlagsINS4_10WindowTypeEE
lyx:_ZN3lyx8frontend15GuiProgressViewD0Ev
lyx:_ZN3lyx8frontend15GuiProgressViewD1Ev
lyx:_ZN3lyx8frontend15GuiProgressViewD2Ev
lyx:_ZN3lyx8frontend15GuiSearchWidget11findChangedEv
lyx:_ZN3lyx8frontend15GuiSearchWidget11findClickedEv
lyx:_ZN3lyx8frontend15GuiSearchWidget11qt_metacallEN11QMetaObject4CallEiPPv
lyx:_ZN3lyx8frontend15GuiSearchWidget11qt_metacastEPKc
lyx:_ZN3lyx8frontend15GuiSearchWidget12hasCoWidgetsEP11QDockWidget
lyx:_ZN3lyx8frontend15GuiSearchWidget13keyPressEventEP9QKeyEvent
lyx:_ZN3lyx8frontend15GuiSearchWidget14replaceClickedEv
lyx:_ZN3lyx8frontend15GuiSearchWidget14restoreSessionERK7QString
lyx:_ZN3lyx8frontend15GuiSearchWidget15findPrevClickedEv
lyx:_ZN3lyx8frontend15GuiSearchWidget15minimizeClickedEb
lyx:_ZN3lyx8frontend15GuiSearchWidget16handleIndicatorsEv
lyx:_ZN3lyx8frontend15GuiSearchWidget16immediateClickedEv
lyx:_ZN3lyx8frontend15GuiSearchWidget16initialiseParamsERKNSt7__cxx1112basic_stringIcSt11char_traitsIcESaIcEEE
lyx:_ZN3lyx8frontend15GuiSearchWidget16staticMetaObjectE
lyx:_ZN3lyx8frontend15GuiSearchWidget16wrapActTriggeredEv
lyx:_ZN3lyx8frontend15GuiSearchWidget17findBufferChangedEv
lyx:_ZN3lyx8frontend15GuiSearchWidget17replaceallClickedEv
lyx:_ZN3lyx8frontend15GuiSearchWidget18replacePrevClickedEv
lyx:_ZN3lyx8frontend15GuiSearchWidget21caseSenseActTriggeredEv
lyx:_ZN3lyx8frontend15GuiSearchWidget21immediateActTriggeredEv
lyx:_ZN3lyx8frontend15GuiSearchWidget21searchSelActTriggeredEv
lyx:_ZN3lyx8frontend15GuiSearchWidget22wholeWordsActTriggeredEv
lyx:_ZN3lyx8frontend15GuiSearchWidget29onDockWidgetVisibilityChangedEv
lyx:_ZN3lyx8frontend15GuiSearchWidget4findERKNSt7__cxx1112basic_stringIwSt11char_traitsIwESaIwEEEbbbbbb
lyx:_ZN3lyx8frontend15GuiSearchWidget6doFindEbb
lyx:_ZN3lyx8frontend15GuiSearchWidget7replaceERKNSt7__cxx1112basic_stringIwSt11char_traitsIwESaIwEEES9_bbbbbb
lyx:_ZN3lyx8frontend15GuiSearchWidget9doReplaceEb
lyx:_ZN3lyx8frontend15GuiSearchWidget9hideEventEP10QHideEvent
lyx:_ZN3lyx8frontend15GuiSearchWidget9showEventEP10QShowEvent
lyx:_ZN3lyx8frontend15GuiSearchWidgetC1EP7QWidgetRNS0_7GuiViewE
lyx:_ZN3lyx8frontend15GuiSearchWidgetC2EP7QWidgetRNS0_7GuiViewE
lyx:_ZN3lyx8frontend15GuiSpellchecker10updateViewEv
lyx:_ZN3lyx8frontend15GuiSpellchecker11qt_metacallEN11QMetaObject4CallEiPPv
lyx:_ZN3lyx8frontend15GuiSpellchecker11qt_metacastEPKc
lyx:_ZN3lyx8frontend15GuiSpellchecker16staticMetaObjectE
lyx:_ZN3lyx8frontend15GuiSpellcheckerC1ERNS0_7GuiViewEN2Qt14DockWidgetAreaE6QFlagsINS4_10WindowTypeEE
lyx:_ZN3lyx8frontend15GuiSpellcheckerC2ERNS0_7GuiViewEN2Qt14DockWidgetAreaE6QFlagsINS4_10WindowTypeEE
lyx:_ZN3lyx8frontend15GuiSpellcheckerD0Ev
lyx:_ZN3lyx8frontend15GuiSpellcheckerD1Ev
lyx:_ZN3lyx8frontend15GuiSpellcheckerD2Ev
lyx:_ZN3lyx8frontend15LengthValidator11qt_metacallEN11QMetaObject4CallEiPPv
lyx:_ZN3lyx8frontend15LengthValidator11qt_metacastEPKc
lyx:_ZN3lyx8frontend15LengthValidator16staticMetaObjectE
lyx:_ZN3lyx8frontend15LengthValidator9setBottomERKNS_10GlueLengthE
lyx:_ZN3lyx8frontend15LengthValidator9setBottomERKNS_6LengthE
lyx:_ZN3lyx8frontend15LengthValidatorC1EP7QWidgetb
lyx:_ZN3lyx8frontend15LengthValidatorC2EP7QWidgetb
lyx:_ZN3lyx8frontend15PrefDocHandling11qt_metacallEN11QMetaObject4CallEiPPv
lyx:_ZN3lyx8frontend15PrefDocHandling11qt_metacastEPKc
lyx:_ZN3lyx8frontend15PrefDocHandling16staticMetaObjectE
lyx:_ZN3lyx8frontend15PrefDocHandling25on_clearSessionPB_clickedEv
lyx:_ZN3lyx8frontend15PrefDocHandling8updateRCERKNS_5LyXRCE
lyx:_ZN3lyx8frontend15PrefDocHandlingC1EPNS0_14GuiPreferencesE
lyx:_ZN3lyx8frontend15PrefDocHandlingC2EPNS0_14GuiPreferencesE
lyx:_ZN3lyx8frontend15PrefFileformats10updateViewEv
lyx:_ZN3lyx8frontend15PrefFileformats11qt_metacallEN11QMetaObject4CallEiPPv
lyx:_ZN3lyx8frontend15PrefFileformats11qt_metacastEPKc
lyx:_ZN3lyx8frontend15PrefFileformats13currentFormatEv
lyx:_ZN3lyx8frontend15PrefFileformats13updateEditorsEv
lyx:_ZN3lyx8frontend15PrefFileformats13updateViewersEv
lyx:_ZN3lyx8frontend15PrefFileformats14formatsChangedEv
lyx:_ZN3lyx8frontend15PrefFileformats16staticMetaObjectE
lyx:_ZN3lyx8frontend15PrefFileformats16updatePrettynameEv
lyx:_ZN3lyx8frontend15PrefFileformats20on_mimeED_textEditedERK7QString
lyx:_ZN3lyx8frontend15PrefFileformats22on_copierED_textEditedERK7QString
lyx:_ZN3lyx8frontend15PrefFileformats22on_editorED_textEditedERK7QString
lyx:_ZN3lyx8frontend15PrefFileformats22on_formatNewPB_clickedEv
lyx:_ZN3lyx8frontend15PrefFileformats22on_viewerED_textEditedERK7QString
lyx:_ZN3lyx8frontend15PrefFileformats23on_formatED_textChangedERK7QString
lyx:_ZN3lyx8frontend15PrefFileformats24on_shortcutED_textEditedERK7QString
lyx:_ZN3lyx8frontend15PrefFileformats25on_formatRemovePB_clickedEv
lyx:_ZN3lyx8frontend15PrefFileformats26on_extensionsED_textEditedERK7QString
lyx:_ZN3lyx8frontend15PrefFileformats27on_formatED_editingFinishedEv
lyx:_ZN3lyx8frontend15PrefFileformats28on_formatsCB_editTextChangedERK7QString
lyx:_ZN3lyx8frontend15PrefFileformats31on_editorCO_currentIndexChangedEi
lyx:_ZN3lyx8frontend15PrefFileformats31on_viewerCO_currentIndexChangedEi
lyx:_ZN3lyx8frontend15PrefFileformats32on_formatsCB_currentIndexChangedEi
lyx:_ZN3lyx8frontend15PrefFileformats8setFlagsEv
lyx:_ZN3lyx8frontend15PrefFileformats8updateRCERKNS_5LyXRCE
lyx:_ZN3lyx8frontend15PrefFileformatsC1EPNS0_14GuiPreferencesE
lyx:_ZN3lyx8frontend15PrefFileformatsC2EPNS0_14GuiPreferencesE
lyx:_ZN3lyx8frontend15PrefScreenFonts10selectSansERK7QString
lyx:_ZN3lyx8frontend15PrefScreenFonts11qt_metacallEN11QMetaObject4CallEiPPv
lyx:_ZN3lyx8frontend15PrefScreenFonts11qt_metacastEPKc
lyx:_ZN3lyx8frontend15PrefScreenFonts11selectRomanERK7QString
lyx:_ZN3lyx8frontend15PrefScreenFonts16selectTypewriterERK7QString
lyx:_ZN3lyx8frontend15PrefScreenFonts16staticMetaObjectE
lyx:_ZN3lyx8frontend15PrefScreenFonts18screenFontsChangedEv
lyx:_ZN3lyx8frontend15PrefScreenFonts21updateScreenFontSizesERKNS_5LyXRCE
lyx:_ZN3lyx8frontend15PrefScreenFonts8updateRCERKNS_5LyXRCE
lyx:_ZN3lyx8frontend15PrefScreenFontsC1EPNS0_14GuiPreferencesE
lyx:_ZN3lyx8frontend15PrefScreenFontsC2EPNS0_14GuiPreferencesE
lyx:_ZN3lyx8frontend15SortLocaleAwareERK7QStringS3_
lyx:_ZN3lyx8frontend15WorkAreaManager12updateTitlesEv
lyx:_ZN3lyx8frontend15WorkAreaManager14scheduleRedrawEv
lyx:_ZN3lyx8frontend15WorkAreaManager15sanitizeCursorsEv
lyx:_ZN3lyx8frontend15WorkAreaManager3addEPNS0_8WorkAreaE
lyx:_ZN3lyx8frontend15WorkAreaManager6removeEPNS0_8WorkAreaE
lyx:_ZN3lyx8frontend15WorkAreaManager8closeAllEv
lyx:_ZN3lyx8frontend15WorkAreaManager9redrawAllEb
lyx:_ZN3lyx8frontend15font_styles_guiE
lyx:_ZN3lyx8frontend15lengthToWidgetsEP9QLineEditPNS0_11LengthComboERKNS_6LengthENS5_4UNITE
lyx:_ZN3lyx8frontend15lengthToWidgetsEP9QLineEditPNS0_11LengthComboERKNSt7__cxx1112basic_stringIcSt11char_traitsIcESaIcEEENS_6Length4UNITE
lyx:_ZN3lyx8frontend15lengthToWidgetsEP9QLineEditPNS0_11LengthComboERKNSt7__cxx1112basic_stringIwSt11char_traitsIwESaIwEEENS_6Length4UNITE
lyx:_ZN3lyx8frontend15widgetsToLengthB5cxx11EPK9QLineEditPKNS0_11LengthComboE
lyx:_ZN3lyx8frontend15widgetsToLengthEPK9QLineEditPK9QComboBox
lyx:_ZN3lyx8frontend16ButtonController10setRestoreEP11QPushButtonb
lyx:_ZN3lyx8frontend16ButtonController11addReadOnlyEP7QWidget
lyx:_ZN3lyx8frontend16ButtonController11setReadOnlyEb
lyx:_ZN3lyx8frontend16ButtonController12setAutoApplyEP9QCheckBox
lyx:_ZN3lyx8frontend16ButtonController18addCheckedLineEditEP9QLineEditP7QWidgeti
lyx:_ZN3lyx8frontend16ButtonController23addCheckedLineEditPanelEP9QLineEditP7QWidget7QString
lyx:_ZN3lyx8frontend16ButtonController2okEv
lyx:_ZN3lyx8frontend16ButtonController4hideEv
lyx:_ZN3lyx8frontend16ButtonController5applyEv
lyx:_ZN3lyx8frontend16ButtonController5inputENS0_12ButtonPolicy7SMInputE
lyx:_ZN3lyx8frontend16ButtonController5setOKEP11QPushButtonb
lyx:_ZN3lyx8frontend16ButtonController6cancelEv
lyx:_ZN3lyx8frontend16ButtonController6policyEv
lyx:_ZN3lyx8frontend16ButtonController7restoreEv
lyx:_ZN3lyx8frontend16ButtonController8setApplyEP11QPushButtonb
lyx:_ZN3lyx8frontend16ButtonController8setValidEb
lyx:_ZN3lyx8frontend16ButtonController9autoApplyEv
lyx:_ZN3lyx8frontend16ButtonController9setCancelEP11QPushButtonb
lyx:_ZN3lyx8frontend16ButtonController9setPolicyENS0_12ButtonPolicy6PolicyE
lyx:_ZN3lyx8frontend16ButtonControllerC1Ev
lyx:_ZN3lyx8frontend16ButtonControllerC2Ev
lyx:_ZN3lyx8frontend16ButtonControllerD1Ev
lyx:_ZN3lyx8frontend16ButtonControllerD2Ev
lyx:_ZN3lyx8frontend16CategorizedCombo11addItemSortERK7QStringS4_S4_S4_bbbbb
lyx:_ZN3lyx8frontend16CategorizedCombo11eventFilterEP7QObjectP6QEvent
lyx:_ZN3lyx8frontend16CategorizedCombo11qt_metacallEN11QMetaObject4CallEiPPv
lyx:_ZN3lyx8frontend16CategorizedCombo11qt_metacastEPKc
lyx:_ZN3lyx8frontend16CategorizedCombo11resetFilterEv
lyx:_ZN3lyx8frontend16CategorizedCombo11setIconSizeE5QSize
lyx:_ZN3lyx8frontend16CategorizedCombo11updateComboEv
lyx:_ZN3lyx8frontend16CategorizedCombo16staticMetaObjectE
lyx:_ZN3lyx8frontend16CategorizedCombo3setERK7QStringb
lyx:_ZN3lyx8frontend16CategorizedCombo5resetEv
lyx:_ZN3lyx8frontend16CategorizedCombo7Private15countCategoriesEv
lyx:_ZN3lyx8frontend16CategorizedCombo7Private9setFilterERK7QString
lyx:_ZN3lyx8frontend16CategorizedCombo9showPopupEv
lyx:_ZN3lyx8frontend16CategorizedComboC1EP7QWidget
lyx:_ZN3lyx8frontend16CategorizedComboC2EP7QWidget
lyx:_ZN3lyx8frontend16CategorizedComboD0Ev
lyx:_ZN3lyx8frontend16CategorizedComboD1Ev
lyx:_ZN3lyx8frontend16CategorizedComboD2Ev
lyx:_ZN3lyx8frontend16EmbeddedWorkArea10closeEventEP11QCloseEvent
lyx:_ZN3lyx8frontend16EmbeddedWorkArea11qt_metacallEN11QMetaObject4CallEiPPv
lyx:_ZN3lyx8frontend16EmbeddedWorkArea11qt_metacastEPKc
lyx:_ZN3lyx8frontend16EmbeddedWorkArea16staticMetaObjectE
lyx:_ZN3lyx8frontend16EmbeddedWorkArea7disableEv
lyx:_ZN3lyx8frontend16EmbeddedWorkArea9hideEventEP10QHideEvent
lyx:_ZN3lyx8frontend16EmbeddedWorkAreaC1EP7QWidget
lyx:_ZN3lyx8frontend16EmbeddedWorkAreaC2EP7QWidget
lyx:_ZN3lyx8frontend16EmbeddedWorkAreaD0Ev
lyx:_ZN3lyx8frontend16EmbeddedWorkAreaD1Ev
lyx:_ZN3lyx8frontend16EmbeddedWorkAreaD2Ev
lyx:_ZN3lyx8frontend16GuiCommandBuffer10hideParentEv
lyx:_ZN3lyx8frontend16GuiCommandBuffer11completionsERKNSt7__cxx1112basic_stringIcSt11char_traitsIcESaIcEEERS7_
lyx:_ZN3lyx8frontend16GuiCommandBuffer11historyDownB5cxx11Ev
lyx:_ZN3lyx8frontend16GuiCommandBuffer11qt_metacallEN11QMetaObject4CallEiPPv
lyx:_ZN3lyx8frontend16GuiCommandBuffer11qt_metacastEPKc
lyx:_ZN3lyx8frontend16GuiCommandBuffer12itemSelectedEP15QListWidgetItem
lyx:_ZN3lyx8frontend16GuiCommandBuffer13listHistoryUpEv
lyx:_ZN3lyx8frontend16GuiCommandBuffer16staticMetaObjectE
lyx:_ZN3lyx8frontend16GuiCommandBuffer2upEv
lyx:_ZN3lyx8frontend16GuiCommandBuffer4downEv
lyx:_ZN3lyx8frontend16GuiCommandBuffer8completeEv
lyx:_ZN3lyx8frontend16GuiCommandBuffer8dispatchERKNSt7__cxx1112basic_stringIcSt11char_traitsIcESaIcEEE
lyx:_ZN3lyx8frontend16GuiCommandBuffer8dispatchEv
lyx:_ZN3lyx8frontend16GuiCommandBuffer9historyUpB5cxx11Ev
lyx:_ZN3lyx8frontend16GuiCommandBufferC1EPNS0_7GuiViewE
lyx:_ZN3lyx8frontend16GuiCommandBufferC2EPNS0_7GuiViewE
lyx:_ZN3lyx8frontend16GuiTabularCreate11clearParamsEv
lyx:_ZN3lyx8frontend16GuiTabularCreate11qt_metacallEN11QMetaObject4CallEiPPv
lyx:_ZN3lyx8frontend16GuiTabularCreate11qt_metacastEPKc
lyx:_ZN3lyx8frontend16GuiTabularCreate11rowsChangedEi
lyx:_ZN3lyx8frontend16GuiTabularCreate14columnsChangedEi
lyx:_ZN3lyx8frontend16GuiTabularCreate14dispatchParamsEv
lyx:_ZN3lyx8frontend16GuiTabularCreate16initialiseParamsERKNSt7__cxx1112basic_stringIcSt11char_traitsIcESaIcEEE
lyx:_ZN3lyx8frontend16GuiTabularCreate16staticMetaObjectE
lyx:_ZN3lyx8frontend16GuiTabularCreate20on_styleCO_activatedEi
lyx:_ZN3lyx8frontend16GuiTabularCreate8getFilesEv
lyx:_ZN3lyx8frontend16GuiTabularCreate9applyViewEv
lyx:_ZN3lyx8frontend16GuiTabularCreateC1ERNS0_7GuiViewE
lyx:_ZN3lyx8frontend16GuiTabularCreateC2ERNS0_7GuiViewE
lyx:_ZN3lyx8frontend16LaTeXHighlighter11setupColorsEv
lyx:_ZN3lyx8frontend16LaTeXHighlighter14highlightBlockERK7QString
lyx:_ZN3lyx8frontend16LaTeXHighlighterC1EP13QTextDocumentbb
lyx:_ZN3lyx8frontend16LaTeXHighlighterC2EP13QTextDocumentbb
lyx:_ZN3lyx8frontend16PrefSpellchecker11qt_metacallEN11QMetaObject4CallEiPPv
lyx:_ZN3lyx8frontend16PrefSpellchecker11qt_metacastEPKc
lyx:_ZN3lyx8frontend16PrefSpellchecker16staticMetaObjectE
lyx:_ZN3lyx8frontend16PrefSpellchecker37on_spellcheckerCB_currentIndexChangedEi
lyx:_ZN3lyx8frontend16PrefSpellchecker8updateRCERKNS_5LyXRCE
lyx:_ZN3lyx8frontend16PrefSpellcheckerC1EPNS0_14GuiPreferencesE
lyx:_ZN3lyx8frontend16PrefSpellcheckerC2EPNS0_14GuiPreferencesE
lyx:_ZN3lyx8frontend16StaticMenuButton10initializeEv
lyx:_ZN3lyx8frontend16StaticMenuButton11qt_metacallEN11QMetaObject4CallEiPPv
lyx:_ZN3lyx8frontend16StaticMenuButton11qt_metacastEPKc
lyx:_ZN3lyx8frontend16StaticMenuButton15updateTriggeredEv
lyx:_ZN3lyx8frontend16StaticMenuButton16staticMetaObjectE
lyx:_ZN3lyx8frontend16StaticMenuButtonC1EPNS0_10GuiToolbarERKNS0_11ToolbarItemEb
lyx:_ZN3lyx8frontend16StaticMenuButtonC2EPNS0_10GuiToolbarERKNS0_11ToolbarItemEb
lyx:_ZN3lyx8frontend16TextLayoutHelperC1ERKNSt7__cxx1112basic_stringIwSt11char_traitsIwESaIwEEEb
lyx:_ZN3lyx8frontend16TextLayoutHelperC2ERKNSt7__cxx1112basic_stringIwSt11char_traitsIwESaIwEEEb
lyx:_ZN3lyx8frontend16ToolTipFormatter11eventFilterEP7QObjectP6QEvent
lyx:_ZN3lyx8frontend16ToolTipFormatter11qt_metacallEN11QMetaObject4CallEiPPv
lyx:_ZN3lyx8frontend16ToolTipFormatter11qt_metacastEPKc
lyx:_ZN3lyx8frontend16ToolTipFormatter16staticMetaObjectE
lyx:_ZN3lyx8frontend16ToolTipFormatterC1EP7QObject
lyx:_ZN3lyx8frontend16ToolTipFormatterC2EP7QObject
lyx:_ZN3lyx8frontend16ViewSourceWidget10getContentERKNS_10BufferViewENS_6Buffer10OutputWhatERNSt7__cxx1112basic_stringIwSt11char_traitsIwESaIwEEERKNS8_IcS9_IcESaIcEEEb
lyx:_ZN3lyx8frontend16ViewSourceWidget10updateViewEPKNS_10BufferViewE
lyx:_ZN3lyx8frontend16ViewSourceWidget11eventFilterEP7QObjectP6QEvent
lyx:_ZN3lyx8frontend16ViewSourceWidget11qt_metacallEN11QMetaObject4CallEiPPv
lyx:_ZN3lyx8frontend16ViewSourceWidget11qt_metacastEPKc
lyx:_ZN3lyx8frontend16ViewSourceWidget11resizeEventEP12QResizeEvent
lyx:_ZN3lyx8frontend16ViewSourceWidget13setViewFormatEi
lyx:_ZN3lyx8frontend16ViewSourceWidget14restoreSessionERK7QString
lyx:_ZN3lyx8frontend16ViewSourceWidget15contentsChangedEv
lyx:_ZN3lyx8frontend16ViewSourceWidget16staticMetaObjectE
lyx:_ZN3lyx8frontend16ViewSourceWidget19updateDefaultFormatERKNS_10BufferViewE
lyx:_ZN3lyx8frontend16ViewSourceWidget7setTextERK7QString
lyx:_ZN3lyx8frontend16ViewSourceWidgetC1EP7QWidget
lyx:_ZN3lyx8frontend16ViewSourceWidgetC2EP7QWidget
lyx:_ZN3lyx8frontend16getPathValidatorEP9QLineEdit
lyx:_ZN3lyx8frontend16setMessageColourENSt7__cxx114listIP7QWidgetSaIS4_EEES6_
lyx:_ZN3lyx8frontend17DynamicMenuButton10icon_undo_E
lyx:_ZN3lyx8frontend17DynamicMenuButton10initializeEv
lyx:_ZN3lyx8frontend17DynamicMenuButton10isMenuTypeERKNSt7__cxx1112basic_stringIcSt11char_traitsIcESaIcEEE
lyx:_ZN3lyx8frontend17DynamicMenuButton11icon_paste_E
lyx:_ZN3lyx8frontend17DynamicMenuButton11qt_metacallEN11QMetaObject4CallEiPPv
lyx:_ZN3lyx8frontend17DynamicMenuButton11qt_metacastEPKc
lyx:_ZN3lyx8frontend17DynamicMenuButton14loadFlexInsetsEv
lyx:_ZN3lyx8frontend17DynamicMenuButton14resetIconCacheEv
lyx:_ZN3lyx8frontend17DynamicMenuButton15updateTriggeredEv
lyx:_ZN3lyx8frontend17DynamicMenuButton16staticMetaObjectE
lyx:_ZN3lyx8frontend17DynamicMenuButton21icon_textstyle_apply_E
lyx:_ZN3lyx8frontend17DynamicMenuButtonC1EPNS0_10GuiToolbarERKNS0_11ToolbarItemE
lyx:_ZN3lyx8frontend17DynamicMenuButtonC2EPNS0_10GuiToolbarERKNS0_11ToolbarItemE
lyx:_ZN3lyx8frontend17DynamicMenuButtonD0Ev
lyx:_ZN3lyx8frontend17DynamicMenuButtonD1Ev
lyx:_ZN3lyx8frontend17DynamicMenuButtonD2Ev
lyx:_ZN3lyx8frontend17GuiClickableLabel11qt_metacallEN11QMetaObject4CallEiPPv
lyx:_ZN3lyx8frontend17GuiClickableLabel11qt_metacastEPKc
lyx:_ZN3lyx8frontend17GuiClickableLabel15mousePressEventEP11QMouseEvent
lyx:_ZN3lyx8frontend17GuiClickableLabel16staticMetaObjectE
lyx:_ZN3lyx8frontend17GuiClickableLabel17mouseReleaseEventEP11QMouseEvent
lyx:_ZN3lyx8frontend17GuiClickableLabel7clickedEv
lyx:_ZN3lyx8frontend17GuiClickableLabel7pressedEv
lyx:_ZN3lyx8frontend17GuiClickableLabelC1EP7QWidget
lyx:_ZN3lyx8frontend17GuiClickableLabelC2EP7QWidget
lyx:_ZN3lyx8frontend17GuiClickableLabelD0Ev
lyx:_ZN3lyx8frontend17GuiClickableLabelD1Ev
lyx:_ZN3lyx8frontend17GuiClickableLabelD2Ev
lyx:_ZN3lyx8frontend17GuiCompareHistory10slotCancelEv
lyx:_ZN3lyx8frontend17GuiCompareHistory11qt_metacallEN11QMetaObject4CallEiPPv
lyx:_ZN3lyx8frontend17GuiCompareHistory11qt_metacastEPKc
lyx:_ZN3lyx8frontend17GuiCompareHistory13selectRevbackEv
lyx:_ZN3lyx8frontend17GuiCompareHistory13slotButtonBoxEP15QAbstractButton
lyx:_ZN3lyx8frontend17GuiCompareHistory14enableControlsEv
lyx:_ZN3lyx8frontend17GuiCompareHistory14updateContentsEv
lyx:_ZN3lyx8frontend17GuiCompareHistory16initialiseParamsERKNSt7__cxx1112basic_stringIcSt11char_traitsIcESaIcEEE
lyx:_ZN3lyx8frontend17GuiCompareHistory16selectBetweenrevEv
lyx:_ZN3lyx8frontend17GuiCompareHistory16staticMetaObjectE
lyx:_ZN3lyx8frontend17GuiCompareHistory6slotOKEv
lyx:_ZN3lyx8frontend17GuiCompareHistoryC1ERNS0_7GuiViewE
lyx:_ZN3lyx8frontend17GuiCompareHistoryC2ERNS0_7GuiViewE
lyx:_ZN3lyx8frontend17GuiShortcutDialog11qt_metacallEN11QMetaObject4CallEiPPv
lyx:_ZN3lyx8frontend17GuiShortcutDialog11qt_metacastEPKc
lyx:_ZN3lyx8frontend17GuiShortcutDialog16staticMetaObjectE
lyx:_ZN3lyx8frontend17GuiShortcutDialog21on_lfunLE_textChangedEv
lyx:_ZN3lyx8frontend17GuiShortcutDialogC1EP7QWidget
lyx:_ZN3lyx8frontend17GuiShortcutDialogC2EP7QWidget
lyx:_ZN3lyx8frontend17InsertTableWidget10paintEventEP11QPaintEvent
lyx:_ZN3lyx8frontend17InsertTableWidget11qt_metacallEN11QMetaObject4CallEiPPv
lyx:_ZN3lyx8frontend17InsertTableWidget11qt_metacastEPKc
lyx:_ZN3lyx8frontend17InsertTableWidget12updateParentEv
lyx:_ZN3lyx8frontend17InsertTableWidget13resetGeometryEv
lyx:_ZN3lyx8frontend17InsertTableWidget14mouseMoveEventEP11QMouseEvent
lyx:_ZN3lyx8frontend17InsertTableWidget15mousePressEventEP11QMouseEvent
lyx:_ZN3lyx8frontend17InsertTableWidget16staticMetaObjectE
lyx:_ZN3lyx8frontend17InsertTableWidget17mouseReleaseEventEP11QMouseEvent
lyx:_ZN3lyx8frontend17InsertTableWidget4initEv
lyx:_ZN3lyx8frontend17InsertTableWidget4showEb
lyx:_ZN3lyx8frontend17InsertTableWidget7visibleEb
lyx:_ZN3lyx8frontend17InsertTableWidget8drawGridEii6QBrush6QColor
lyx:_ZN3lyx8frontend17InsertTableWidget9hideEventEP10QHideEvent
lyx:_ZN3lyx8frontend17InsertTableWidgetC1EP7QWidget
lyx:_ZN3lyx8frontend17InsertTableWidgetC2EP7QWidget
lyx:_ZN3lyx8frontend17InsetParamsDialog10updateViewEb
lyx:_ZN3lyx8frontend17InsetParamsDialog10updateViewEv
lyx:_ZN3lyx8frontend17InsetParamsDialog11qt_metacallEN11QMetaObject4CallEiPPv
lyx:_ZN3lyx8frontend17InsetParamsDialog11qt_metacastEPKc
lyx:_ZN3lyx8frontend17InsetParamsDialog11resetDialogEv
lyx:_ZN3lyx8frontend17InsetParamsDialog12checkWidgetsB5cxx11Eb
lyx:_ZN3lyx8frontend17InsetParamsDialog16initialiseParamsERKNSt7__cxx1112basic_stringIcSt11char_traitsIcESaIcEEE
lyx:_ZN3lyx8frontend17InsetParamsDialog16onWidget_changedEv
lyx:_ZN3lyx8frontend17InsetParamsDialog16staticMetaObjectE
lyx:_ZN3lyx8frontend17InsetParamsDialog20on_buttonBox_clickedEP15QAbstractButton
lyx:_ZN3lyx8frontend17InsetParamsDialog20setInsetParamsWidgetEPNS0_17InsetParamsWidgetE
lyx:_ZN3lyx8frontend17InsetParamsDialog30on_synchronizedCB_stateChangedEi
lyx:_ZN3lyx8frontend17InsetParamsDialog32on_immediateApplyCB_stateChangedEi
lyx:_ZN3lyx8frontend17InsetParamsDialog8newInsetEv
lyx:_ZN3lyx8frontend17InsetParamsDialog9applyViewEv
lyx:_ZN3lyx8frontend17InsetParamsDialogC1ERNS0_7GuiViewEPNS0_17InsetParamsWidgetE
lyx:_ZN3lyx8frontend17InsetParamsDialogC2ERNS0_7GuiViewEPNS0_17InsetParamsWidgetE
lyx:_ZN3lyx8frontend17InsetParamsDialogD0Ev
lyx:_ZN3lyx8frontend17InsetParamsDialogD1Ev
lyx:_ZN3lyx8frontend17InsetParamsDialogD2Ev
lyx:_ZN3lyx8frontend17InsetParamsWidget11qt_metacallEN11QMetaObject4CallEiPPv
lyx:_ZN3lyx8frontend17InsetParamsWidget11qt_metacastEPKc
lyx:_ZN3lyx8frontend17InsetParamsWidget16addCheckedWidgetEP9QLineEditP7QWidget
lyx:_ZN3lyx8frontend17InsetParamsWidget16staticMetaObjectE
lyx:_ZN3lyx8frontend17InsetParamsWidget7changedEv
lyx:_ZN3lyx8frontend17PrefUserInterface11qt_metacallEN11QMetaObject4CallEiPPv
lyx:_ZN3lyx8frontend17PrefUserInterface11qt_metacastEPKc
lyx:_ZN3lyx8frontend17PrefUserInterface16staticMetaObjectE
lyx:_ZN3lyx8frontend17PrefUserInterface8selectUiEv
lyx:_ZN3lyx8frontend17PrefUserInterface8updateRCERKNS_5LyXRCE
lyx:_ZN3lyx8frontend17PrefUserInterfaceC1EPNS0_14GuiPreferencesE
lyx:_ZN3lyx8frontend17PrefUserInterfaceC2EPNS0_14GuiPreferencesE
lyx:_ZN3lyx8frontend17focusAndHighlightEP17QAbstractItemView
lyx:_ZN3lyx8frontend17formatLocFPNumberEd
lyx:_ZN3lyx8frontend17getQuestionStringB5cxx11ERKNS_21FindAndReplaceOptionsE
lyx:_ZN3lyx8frontend17getSelectedPixmapE7QPixmap5QSize
lyx:_ZN3lyx8frontend17widgetToDoubleStrB5cxx11EPK9QLineEdit
lyx:_ZN3lyx8frontend18IntoGuiThreadMover11qt_metacallEN11QMetaObject4CallEiPPv
lyx:_ZN3lyx8frontend18IntoGuiThreadMover11qt_metacastEPKc
lyx:_ZN3lyx8frontend18IntoGuiThreadMover14doFunctionCallEv
lyx:_ZN3lyx8frontend18IntoGuiThreadMover15callInGuiThreadEv
lyx:_ZN3lyx8frontend18IntoGuiThreadMover16staticMetaObjectE
lyx:_ZN3lyx8frontend18IntoGuiThreadMover19triggerFunctionCallEv
lyx:_ZN3lyx8frontend18IntoGuiThreadMoverC2Ev
lyx:_ZN3lyx8frontend18NoNewLineValidator11qt_metacallEN11QMetaObject4CallEiPPv
lyx:_ZN3lyx8frontend18NoNewLineValidator11qt_metacastEPKc
lyx:_ZN3lyx8frontend18NoNewLineValidator16staticMetaObjectE
lyx:_ZN3lyx8frontend18NoNewLineValidatorC1EP7QWidget
lyx:_ZN3lyx8frontend18NoNewLineValidatorC2EP7QWidget
lyx:_ZN3lyx8frontend18PressableSvgWidget11qt_metacallEN11QMetaObject4CallEiPPv
lyx:_ZN3lyx8frontend18PressableSvgWidget11qt_metacastEPKc
lyx:_ZN3lyx8frontend18PressableSvgWidget15mousePressEventEP11QMouseEvent
lyx:_ZN3lyx8frontend18PressableSvgWidget16staticMetaObjectE
lyx:_ZN3lyx8frontend18PressableSvgWidget7pressedEv
lyx:_ZN3lyx8frontend18ProgressViewWidget11qt_metacallEN11QMetaObject4CallEiPPv
lyx:_ZN3lyx8frontend18ProgressViewWidget11qt_metacastEPKc
lyx:_ZN3lyx8frontend18ProgressViewWidget16staticMetaObjectE
lyx:_ZN3lyx8frontend18ProgressViewWidgetC1Ev
lyx:_ZN3lyx8frontend18ProgressViewWidgetC2Ev
lyx:_ZN3lyx8frontend18SpellcheckerWidget10updateViewEv
lyx:_ZN3lyx8frontend18SpellcheckerWidget11eventFilterEP7QObjectP6QEvent
lyx:_ZN3lyx8frontend18SpellcheckerWidget11qt_metacallEN11QMetaObject4CallEiPPv
lyx:_ZN3lyx8frontend18SpellcheckerWidget11qt_metacastEPKc
lyx:_ZN3lyx8frontend18SpellcheckerWidget16initialiseParamsERKNSt7__cxx1112basic_stringIcSt11char_traitsIcESaIcEEE
lyx:_ZN3lyx8frontend18SpellcheckerWidget16on_addPB_clickedEv
lyx:_ZN3lyx8frontend18SpellcheckerWidget16staticMetaObjectE
lyx:_ZN3lyx8frontend18SpellcheckerWidget17on_skipPB_clickedEv
lyx:_ZN3lyx8frontend18SpellcheckerWidget19on_ignorePB_clickedEv
lyx:_ZN3lyx8frontend18SpellcheckerWidget20on_replacePB_clickedEv
lyx:_ZN3lyx8frontend18SpellcheckerWidget20on_skipAllPB_clickedEv
lyx:_ZN3lyx8frontend18SpellcheckerWidget22on_ignoreAllPB_clickedEv
lyx:_ZN3lyx8frontend18SpellcheckerWidget23on_languageCO_activatedEi
lyx:_ZN3lyx8frontend18SpellcheckerWidget23on_replaceAllPB_clickedEv
lyx:_ZN3lyx8frontend18SpellcheckerWidget24on_replaceCO_highlightedEi
lyx:_ZN3lyx8frontend18SpellcheckerWidget28on_suggestionsLW_itemClickedEP15QListWidgetItem
lyx:_ZN3lyx8frontend18SpellcheckerWidget7Private10updateViewEv
lyx:_ZN3lyx8frontend18SpellcheckerWidget7Private11setLanguageEPKNS_8LanguageE
lyx:_ZN3lyx8frontend18SpellcheckerWidget7Private17updateSuggestionsERNS_14docstring_listE
lyx:_ZN3lyx8frontend18SpellcheckerWidget7Private20fixPositionsIfBrokenEv
lyx:_ZN3lyx8frontend18SpellcheckerWidget7Private21continueFromBeginningEv
lyx:_ZN3lyx8frontend18SpellcheckerWidget7Private5checkEv
lyx:_ZN3lyx8frontend18SpellcheckerWidget7Private7forwardEv
lyx:_ZN3lyx8frontend18SpellcheckerWidgetC1EPNS0_7GuiViewEPNS0_8DockViewEP7QWidget
lyx:_ZN3lyx8frontend18SpellcheckerWidgetC2EPNS0_7GuiViewEPNS0_8DockViewEP7QWidget
lyx:_ZN3lyx8frontend18SpellcheckerWidgetD0Ev
lyx:_ZN3lyx8frontend18SpellcheckerWidgetD1Ev
lyx:_ZN3lyx8frontend18SpellcheckerWidgetD2Ev
lyx:_ZN3lyx8frontend19DoubleAutoValidator11qt_metacallEN11QMetaObject4CallEiPPv
lyx:_ZN3lyx8frontend19DoubleAutoValidator11qt_metacastEPKc
lyx:_ZN3lyx8frontend19DoubleAutoValidator16staticMetaObjectE
lyx:_ZN3lyx8frontend19DoubleAutoValidatorC1EP7QWidgetRK7QString
lyx:_ZN3lyx8frontend19DoubleAutoValidatorC1EddiP7QObject
lyx:_ZN3lyx8frontend19DoubleAutoValidatorC2EP7QWidgetRK7QString
lyx:_ZN3lyx8frontend19DoubleAutoValidatorC2EddiP7QObject
lyx:_ZN3lyx8frontend19GuiSelectionManager10isSelectedERK11QModelIndex
lyx:_ZN3lyx8frontend19GuiSelectionManager10updateHookEv
lyx:_ZN3lyx8frontend19GuiSelectionManager10updateUpPBEv
lyx:_ZN3lyx8frontend19GuiSelectionManager11eventFilterEP7QObjectP6QEvent
lyx:_ZN3lyx8frontend19GuiSelectionManager11qt_metacallEN11QMetaObject4CallEiPPv
lyx:_ZN3lyx8frontend19GuiSelectionManager11qt_metacastEPKc
lyx:_ZN3lyx8frontend19GuiSelectionManager11updateAddPBEv
lyx:_ZN3lyx8frontend19GuiSelectionManager11updateDelPBEv
lyx:_ZN3lyx8frontend19GuiSelectionManager12upPB_clickedEv
lyx:_ZN3lyx8frontend19GuiSelectionManager12updateDownPBEv
lyx:_ZN3lyx8frontend19GuiSelectionManager13addPB_clickedEv
lyx:_ZN3lyx8frontend19GuiSelectionManager13updateButtonsEv
lyx:_ZN3lyx8frontend19GuiSelectionManager14downPB_clickedEv
lyx:_ZN3lyx8frontend19GuiSelectionManager14selectedEditedEv
lyx:_ZN3lyx8frontend19GuiSelectionManager15selectedChangedERK11QModelIndexS4_
lyx:_ZN3lyx8frontend19GuiSelectionManager15selectedChangedERK14QItemSelectionS4_
lyx:_ZN3lyx8frontend19GuiSelectionManager16availableChangedERK11QModelIndexS4_
lyx:_ZN3lyx8frontend19GuiSelectionManager16availableChangedERK14QItemSelectionS4_
lyx:_ZN3lyx8frontend19GuiSelectionManager16deletePB_clickedEv
lyx:_ZN3lyx8frontend19GuiSelectionManager16selectionChangedEv
lyx:_ZN3lyx8frontend19GuiSelectionManager16staticMetaObjectE
lyx:_ZN3lyx8frontend19GuiSelectionManager19insertRowToSelectedEiR4QMapIiS2_Ii8QVariantEE
lyx:_ZN3lyx8frontend19GuiSelectionManager19insertRowToSelectedEiRK4QMapIi8QVariantE
lyx:_ZN3lyx8frontend19GuiSelectionManager25availableLV_doubleClickedERK11QModelIndex
lyx:_ZN3lyx8frontend19GuiSelectionManager6okHookEv
lyx:_ZN3lyx8frontend19GuiSelectionManager6updateEv
lyx:_ZN3lyx8frontend19GuiSelectionManagerC1EP7QObjectP17QAbstractItemViewS5_P11QPushButtonS7_S7_S7_P18QAbstractItemModelS9_i
lyx:_ZN3lyx8frontend19GuiSelectionManagerC2EP7QObjectP17QAbstractItemViewS5_P11QPushButtonS7_S7_S7_P18QAbstractItemModelS9_i
lyx:_ZN3lyx8frontend19LengthAutoValidator11qt_metacallEN11QMetaObject4CallEiPPv
lyx:_ZN3lyx8frontend19LengthAutoValidator11qt_metacastEPKc
lyx:_ZN3lyx8frontend19LengthAutoValidator16staticMetaObjectE
lyx:_ZN3lyx8frontend19LengthAutoValidatorC1EP7QWidgetRK7QString
lyx:_ZN3lyx8frontend19LengthAutoValidatorC2EP7QWidgetRK7QString
lyx:_ZN3lyx8frontend19SyntheticMouseEventC1Ev
lyx:_ZN3lyx8frontend19SyntheticMouseEventC2Ev
lyx:_ZN3lyx8frontend19languages_supportedE
lyx:_ZN3lyx8frontend20FancyLineEditPrivate11eventFilterEP7QObjectP6QEvent
lyx:_ZN3lyx8frontend20FancyLineEditPrivateC1EPNS0_13FancyLineEditE
lyx:_ZN3lyx8frontend20FancyLineEditPrivateC2EPNS0_13FancyLineEditE
lyx:_ZN3lyx8frontend20FindAndReplaceWidget10checkStateENSt7__cxx1112basic_stringIcSt11char_traitsIcESaIcEEEb
lyx:_ZN3lyx8frontend20FindAndReplaceWidget10hideDialogEv
lyx:_ZN3lyx8frontend20FindAndReplaceWidget11eventFilterEP7QObjectP6QEvent
lyx:_ZN3lyx8frontend20FindAndReplaceWidget11qt_metacallEN11QMetaObject4CallEiPPv
lyx:_ZN3lyx8frontend20FindAndReplaceWidget11qt_metacastEPKc
lyx:_ZN3lyx8frontend20FindAndReplaceWidget13updateButtonsEv
lyx:_ZN3lyx8frontend20FindAndReplaceWidget14findAndReplaceEbbb
lyx:_ZN3lyx8frontend20FindAndReplaceWidget14findAndReplaceEbbbbbbbb
lyx:_ZN3lyx8frontend20FindAndReplaceWidget15updateWorkAreasEv
lyx:_ZN3lyx8frontend20FindAndReplaceWidget16initialiseParamsERKNSt7__cxx1112basic_stringIcSt11char_traitsIcESaIcEEE
lyx:_ZN3lyx8frontend20FindAndReplaceWidget16setFormatIgnoresEb
lyx:_ZN3lyx8frontend20FindAndReplaceWidget16staticMetaObjectE
lyx:_ZN3lyx8frontend20FindAndReplaceWidget19dockLocationChangedEN2Qt14DockWidgetAreaE
lyx:_ZN3lyx8frontend20FindAndReplaceWidget19findAndReplaceScopeERNS_21FindAndReplaceOptionsEb
lyx:_ZN3lyx8frontend20FindAndReplaceWidget20on_replacePB_clickedEv
lyx:_ZN3lyx8frontend20FindAndReplaceWidget21on_findNextPB_clickedEv
lyx:_ZN3lyx8frontend20FindAndReplaceWidget22on_selectAllPB_clickedEv
lyx:_ZN3lyx8frontend20FindAndReplaceWidget23on_replaceallPB_clickedEv
lyx:_ZN3lyx8frontend20FindAndReplaceWidget23on_searchbackCB_clickedEv
lyx:_ZN3lyx8frontend20FindAndReplaceWidget24on_deselectAllPB_clickedEv
lyx:_ZN3lyx8frontend20FindAndReplaceWidget9hideEventEP10QHideEvent
lyx:_ZN3lyx8frontend20FindAndReplaceWidget9showEventEP10QShowEvent
lyx:_ZN3lyx8frontend20FindAndReplaceWidgetC1ERNS0_7GuiViewE
lyx:_ZN3lyx8frontend20FindAndReplaceWidgetC2ERNS0_7GuiViewE
lyx:_ZN3lyx8frontend20GuiWorkAreaContainer11qt_metacallEN11QMetaObject4CallEiPPv
lyx:_ZN3lyx8frontend20GuiWorkAreaContainer11qt_metacastEPKc
lyx:_ZN3lyx8frontend20GuiWorkAreaContainer13updateDisplayEv
lyx:_ZN3lyx8frontend20GuiWorkAreaContainer16staticMetaObjectE
lyx:_ZN3lyx8frontend20GuiWorkAreaContainer21mouseDoubleClickEventEP11QMouseEvent
lyx:_ZN3lyx8frontend20GuiWorkAreaContainerC1EPNS0_11GuiWorkAreaEP7QWidget
lyx:_ZN3lyx8frontend20GuiWorkAreaContainerC2EPNS0_11GuiWorkAreaEP7QWidget
lyx:_ZN3lyx8frontend20loadableImageFormatsB5cxx11Ev
lyx:_ZN3lyx8frontend22ModuleSelectionManager10updateUpPBEv
lyx:_ZN3lyx8frontend22ModuleSelectionManager11updateAddPBEv
lyx:_ZN3lyx8frontend22ModuleSelectionManager11updateDelPBEv
lyx:_ZN3lyx8frontend22ModuleSelectionManager12updateDownPBEv
lyx:_ZN3lyx8frontend23unsignedLengthValidatorEP9QLineEdit
lyx:_ZN3lyx8frontend27positiveLengthAutoValidatorEP9QLineEditRK7QString
lyx:_ZN3lyx8frontend27unsignedGlueLengthValidatorEP9QLineEdit
lyx:_ZN3lyx8frontend27unsignedLengthAutoValidatorEP9QLineEditRK7QString
lyx:_ZN3lyx8frontend4Menu10updateViewEv
lyx:_ZN3lyx8frontend4Menu11qt_metacallEN11QMetaObject4CallEiPPv
lyx:_ZN3lyx8frontend4Menu11qt_metacastEPKc
lyx:_ZN3lyx8frontend4Menu16staticMetaObjectE
lyx:_ZN3lyx8frontend4Menu5clearEv
lyx:_ZN3lyx8frontend4MenuC1EPNS0_7GuiViewERK7QStringbb
lyx:_ZN3lyx8frontend4MenuC2EPNS0_7GuiViewERK7QStringbb
lyx:_ZN3lyx8frontend4MenuD0Ev
lyx:_ZN3lyx8frontend4MenuD1Ev
lyx:_ZN3lyx8frontend4MenuD2Ev
lyx:_ZN3lyx8frontend5Alert10askForTextERNSt7__cxx1112basic_stringIwSt11char_traitsIwESaIwEEERKS7_SA_
lyx:_ZN3lyx8frontend5Alert11informationERKNSt7__cxx1112basic_stringIwSt11char_traitsIwESaIwEEES9_
lyx:_ZN3lyx8frontend5Alert11toPlainTextERKNSt7__cxx1112basic_stringIwSt11char_traitsIwESaIwEEE
lyx:_ZN3lyx8frontend5Alert12doAskForTextERNSt7__cxx1112basic_stringIwSt11char_traitsIwESaIwEEERKS7_SA_
lyx:_ZN3lyx8frontend5Alert13doInformationERKNSt7__cxx1112basic_stringIwSt11char_traitsIwESaIwEEES9_
lyx:_ZN3lyx8frontend5Alert5errorERKNSt7__cxx1112basic_stringIwSt11char_traitsIwESaIwEEES9_b
lyx:_ZN3lyx8frontend5Alert6promptERKNSt7__cxx1112basic_stringIwSt11char_traitsIwESaIwEEES9_ttS9_S9_S9_S9_
lyx:_ZN3lyx8frontend5Alert7doErrorERKNSt7__cxx1112basic_stringIwSt11char_traitsIwESaIwEEES9_b
lyx:_ZN3lyx8frontend5Alert7warningERKNSt7__cxx1112basic_stringIwSt11char_traitsIwESaIwEEES9_b
lyx:_ZN3lyx8frontend5Alert8doPromptERKNSt7__cxx1112basic_stringIwSt11char_traitsIwESaIwEEES9_ttS9_S9_S9_S9_
lyx:_ZN3lyx8frontend5Alert9doWarningERKNSt7__cxx1112basic_stringIwSt11char_traitsIwESaIwEEES9_b
lyx:_ZN3lyx8frontend5Menus10updateMenuEPNS0_4MenuE
lyx:_ZN3lyx8frontend5Menus11fillMenuBarEP8QMenuBarPNS0_7GuiViewEb
lyx:_ZN3lyx8frontend5Menus4Impl15macxMenuBarInitEP8QMenuBar
lyx:_ZN3lyx8frontend5Menus4menuERK7QStringRNS0_7GuiViewEb
lyx:_ZN3lyx8frontend5Menus4readERNS_5LexerE
lyx:_ZN3lyx8frontend5Menus5resetEv
lyx:_ZN3lyx8frontend5MenusC1Ev
lyx:_ZN3lyx8frontend5MenusC2Ev
lyx:_ZN3lyx8frontend5MenusD1Ev
lyx:_ZN3lyx8frontend5MenusD2Ev
lyx:_ZN3lyx8frontend5qHashERKNS0_13TextLayoutKeyE
lyx:_ZN3lyx8frontend5qHashERKNS0_14BreakStringKeyE
lyx:_ZN3lyx8frontend6Action11qt_metacallEN11QMetaObject4CallEiPPv
lyx:_ZN3lyx8frontend6Action11qt_metacastEPKc
lyx:_ZN3lyx8frontend6Action16staticMetaObjectE
lyx:_ZN3lyx8frontend6Action4initERK7QStringS4_
lyx:_ZN3lyx8frontend6Action6actionEv
lyx:_ZN3lyx8frontend6Action6updateEv
lyx:_ZN3lyx8frontend6Action9triggeredEP7QAction
lyx:_ZN3lyx8frontend6ActionC1ENS_11FuncRequestERK5QIconRK7QStringS8_P7QObject
lyx:_ZN3lyx8frontend6ActionC1ESt10shared_ptrIKNS_11FuncRequestEERK5QIconRK7QStringSB_P7QObject
lyx:_ZN3lyx8frontend6ActionC2ENS_11FuncRequestERK5QIconRK7QStringS8_P7QObject
lyx:_ZN3lyx8frontend6ActionC2ESt10shared_ptrIKNS_11FuncRequestEERK5QIconRK7QStringSB_P7QObject
lyx:_ZN3lyx8frontend6Dialog11checkStatusEv
lyx:_ZN3lyx8frontend6Dialog11prepareViewEv
lyx:_ZN3lyx8frontend6Dialog14restoreSessionEv
lyx:_ZN3lyx8frontend6Dialog17connectToNewInsetEv
lyx:_ZN3lyx8frontend6Dialog5applyEv
lyx:_ZN3lyx8frontend6Dialog8hideViewEv
lyx:_ZN3lyx8frontend6Dialog8showDataERKNSt7__cxx1112basic_stringIcSt11char_traitsIcESaIcEEEN2Qt11FocusReasonE
lyx:_ZN3lyx8frontend6Dialog8showViewEN2Qt11FocusReasonE
lyx:_ZN3lyx8frontend6DialogC2ERNS0_7GuiViewERK7QStringS6_
lyx:_ZN3lyx8frontend6GuiBox10initDialogEv
lyx:_ZN3lyx8frontend6GuiBox10setSpecialEb
lyx:_ZN3lyx8frontend6GuiBox11qt_metacallEN11QMetaObject4CallEiPPv
lyx:_ZN3lyx8frontend6GuiBox11qt_metacastEPKc
lyx:_ZN3lyx8frontend6GuiBox12setInnerTypeEbRK7QString
lyx:_ZN3lyx8frontend6GuiBox14fillComboColorEP9QComboBoxb
lyx:_ZN3lyx8frontend6GuiBox14paramsToDialogEPKNS_5InsetE
lyx:_ZN3lyx8frontend6GuiBox16staticMetaObjectE
lyx:_ZN3lyx8frontend6GuiBox19on_typeCO_activatedEi
lyx:_ZN3lyx8frontend6GuiBox23on_innerBoxCO_activatedEi
lyx:_ZN3lyx8frontend6GuiBox23on_widthCB_stateChangedEi
lyx:_ZN3lyx8frontend6GuiBox24on_heightCB_stateChangedEi
lyx:_ZN3lyx8frontend6GuiBox27on_pagebreakCB_stateChangedEv
lyx:_ZN3lyx8frontend6GuiBoxC1EP7QWidget
lyx:_ZN3lyx8frontend6GuiBoxC2EP7QWidget
lyx:_ZN3lyx8frontend6GuiERT11qt_metacallEN11QMetaObject4CallEiPPv
lyx:_ZN3lyx8frontend6GuiERT11qt_metacastEPKc
lyx:_ZN3lyx8frontend6GuiERT14paramsToDialogEPKNS_5InsetE
lyx:_ZN3lyx8frontend6GuiERT16staticMetaObjectE
lyx:_ZN3lyx8frontend6GuiERTC1EP7QWidget
lyx:_ZN3lyx8frontend6GuiERTC2EP7QWidget
lyx:_ZN3lyx8frontend6GuiLog11clearParamsEv
lyx:_ZN3lyx8frontend6GuiLog11qt_metacallEN11QMetaObject4CallEiPPv
lyx:_ZN3lyx8frontend6GuiLog11qt_metacastEPKc
lyx:_ZN3lyx8frontend6GuiLog11typeChangedEi
lyx:_ZN3lyx8frontend6GuiLog14updateContentsEv
lyx:_ZN3lyx8frontend6GuiLog16initialiseParamsERKNSt7__cxx1112basic_stringIcSt11char_traitsIcESaIcEEE
lyx:_ZN3lyx8frontend6GuiLog16staticMetaObjectE
lyx:_ZN3lyx8frontend6GuiLog20on_openDirPB_clickedEv
lyx:_ZN3lyx8frontend6GuiLog22on_nextErrorPB_clickedEv
lyx:_ZN3lyx8frontend6GuiLog24on_nextWarningPB_clickedEv
lyx:_ZN3lyx8frontend6GuiLog4findEv
lyx:_ZN3lyx8frontend6GuiLogC1ERNS0_7GuiViewE
lyx:_ZN3lyx8frontend6GuiLogC2ERNS0_7GuiViewE
lyx:_ZN3lyx8frontend6GuiRef10closeEventEP11QCloseEvent
lyx:_ZN3lyx8frontend6GuiRef10enableViewEb
lyx:_ZN3lyx8frontend6GuiRef10setGotoRefEv
lyx:_ZN3lyx8frontend6GuiRef10updateRefsEv
lyx:_ZN3lyx8frontend6GuiRef11enableBoxesEv
lyx:_ZN3lyx8frontend6GuiRef11gotoClickedEv
lyx:_ZN3lyx8frontend6GuiRef11qt_metacallEN11QMetaObject4CallEiPPv
lyx:_ZN3lyx8frontend6GuiRef11qt_metacastEPKc
lyx:_ZN3lyx8frontend6GuiRef11refSelectedEP15QTreeWidgetItem
lyx:_ZN3lyx8frontend6GuiRef11resetDialogEv
lyx:_ZN3lyx8frontend6GuiRef11resetFilterEv
lyx:_ZN3lyx8frontend6GuiRef11sortToggledEv
lyx:_ZN3lyx8frontend6GuiRef12filterLabelsEv
lyx:_ZN3lyx8frontend6GuiRef12gotoBookmarkEv
lyx:_ZN3lyx8frontend6GuiRef12groupToggledEv
lyx:_ZN3lyx8frontend6GuiRef13updateClickedEv
lyx:_ZN3lyx8frontend6GuiRef14dialogRejectedEv
lyx:_ZN3lyx8frontend6GuiRef14dispatchParamsEv
lyx:_ZN3lyx8frontend6GuiRef14refHighlightedEP15QTreeWidgetItem
lyx:_ZN3lyx8frontend6GuiRef14refTextChangedERK7QString
lyx:_ZN3lyx8frontend6GuiRef14updateContentsEv
lyx:_ZN3lyx8frontend6GuiRef15changed_adaptorEv
lyx:_ZN3lyx8frontend6GuiRef16initialiseParamsERKNSt7__cxx1112basic_stringIcSt11char_traitsIcESaIcEEE
lyx:_ZN3lyx8frontend6GuiRef16selectionChangedEv
lyx:_ZN3lyx8frontend6GuiRef16staticMetaObjectE
lyx:_ZN3lyx8frontend6GuiRef20on_buttonBox_clickedEP15QAbstractButton
lyx:_ZN3lyx8frontend6GuiRef7gotoRefERKNSt7__cxx1112basic_stringIcSt11char_traitsIcESaIcEEE
lyx:_ZN3lyx8frontend6GuiRef7gotoRefEv
lyx:_ZN3lyx8frontend6GuiRef7isValidEv
lyx:_ZN3lyx8frontend6GuiRef8redoRefsEv
lyx:_ZN3lyx8frontend6GuiRef9applyViewEv
lyx:_ZN3lyx8frontend6GuiRef9setGoBackEv
lyx:_ZN3lyx8frontend6GuiRefC1ERNS0_7GuiViewE
lyx:_ZN3lyx8frontend6GuiRefC2ERNS0_7GuiViewE
lyx:_ZN3lyx8frontend6GuiToc10closeEventEP11QCloseEvent
lyx:_ZN3lyx8frontend6GuiToc10doDispatchERNS_6CursorERKNS_11FuncRequestERNS_14DispatchResultE
lyx:_ZN3lyx8frontend6GuiToc10enableViewEb
lyx:_ZN3lyx8frontend6GuiToc10updateViewEv
lyx:_ZN3lyx8frontend6GuiToc11qt_metacallEN11QMetaObject4CallEiPPv
lyx:_ZN3lyx8frontend6GuiToc11qt_metacastEPKc
lyx:_ZN3lyx8frontend6GuiToc14dispatchParamsEv
lyx:_ZN3lyx8frontend6GuiToc16initialiseParamsERKNSt7__cxx1112basic_stringIcSt11char_traitsIcESaIcEEE
lyx:_ZN3lyx8frontend6GuiToc16staticMetaObjectE
lyx:_ZN3lyx8frontend6GuiTocC1ERNS0_7GuiViewEN2Qt14DockWidgetAreaE6QFlagsINS4_10WindowTypeEE
lyx:_ZN3lyx8frontend6GuiTocC2ERNS0_7GuiViewEN2Qt14DockWidgetAreaE6QFlagsINS4_10WindowTypeEE
lyx:_ZN3lyx8frontend6SEMenu11qt_metacallEN11QMetaObject4CallEiPPv
lyx:_ZN3lyx8frontend6SEMenu11qt_metacastEPKc
lyx:_ZN3lyx8frontend6SEMenu16staticMetaObjectE
lyx:_ZN3lyx8frontend6SEMenuC1EP7QWidget
lyx:_ZN3lyx8frontend6SEMenuC2EP7QWidget
lyx:_ZN3lyx8frontend6guiAppE
lyx:_ZN3lyx8frontend7GuiInfo11qt_metacallEN11QMetaObject4CallEiPPv
lyx:_ZN3lyx8frontend7GuiInfo11qt_metacastEPKc
lyx:_ZN3lyx8frontend7GuiInfo14paramsToDialogEPKNS_5InsetE
lyx:_ZN3lyx8frontend7GuiInfo15updateArgumentsEi
lyx:_ZN3lyx8frontend7GuiInfo16initialiseParamsERKNSt7__cxx1112basic_stringIcSt11char_traitsIcESaIcEEE
lyx:_ZN3lyx8frontend7GuiInfo16staticMetaObjectE
lyx:_ZN3lyx8frontend7GuiInfoC1EP7QWidget
lyx:_ZN3lyx8frontend7GuiInfoC2EP7QWidget
lyx:_ZN3lyx8frontend7GuiLine11qt_metacallEN11QMetaObject4CallEiPPv
lyx:_ZN3lyx8frontend7GuiLine11qt_metacastEPKc
lyx:_ZN3lyx8frontend7GuiLine14paramsToDialogEPKNS_5InsetE
lyx:_ZN3lyx8frontend7GuiLine16staticMetaObjectE
lyx:_ZN3lyx8frontend7GuiLineC1EP7QWidget
lyx:_ZN3lyx8frontend7GuiLineC2EP7QWidget
lyx:_ZN3lyx8frontend7GuiNote11clearParamsEv
lyx:_ZN3lyx8frontend7GuiNote11qt_metacallEN11QMetaObject4CallEiPPv
lyx:_ZN3lyx8frontend7GuiNote11qt_metacastEPKc
lyx:_ZN3lyx8frontend7GuiNote14change_adaptorEv
lyx:_ZN3lyx8frontend7GuiNote14dispatchParamsEv
lyx:_ZN3lyx8frontend7GuiNote14updateContentsEv
lyx:_ZN3lyx8frontend7GuiNote16initialiseParamsERKNSt7__cxx1112basic_stringIcSt11char_traitsIcESaIcEEE
lyx:_ZN3lyx8frontend7GuiNote16staticMetaObjectE
lyx:_ZN3lyx8frontend7GuiNote9applyViewEv
lyx:_ZN3lyx8frontend7GuiNoteC1ERNS0_7GuiViewE
lyx:_ZN3lyx8frontend7GuiNoteC2ERNS0_7GuiViewE
lyx:_ZN3lyx8frontend7GuiView10closeEventEP11QCloseEvent
lyx:_ZN3lyx8frontend7GuiView10dispatchVCERKNS_11FuncRequestERNS_14DispatchResultE
lyx:_ZN3lyx8frontend7GuiView10hideDialogERKNSt7__cxx1112basic_stringIcSt11char_traitsIcESaIcEEEPNS_5InsetE
lyx:_ZN3lyx8frontend7GuiView10saveBufferERNS_6BufferE
lyx:_ZN3lyx8frontend7GuiView10saveBufferERNS_6BufferERKNS_7support8FileNameE
lyx:_ZN3lyx8frontend7GuiView10showDialogERKNSt7__cxx1112basic_stringIcSt11char_traitsIcESaIcEEES9_PNS_5InsetE
lyx:_ZN3lyx8frontend7GuiView11addWorkAreaERNS_6BufferE
lyx:_ZN3lyx8frontend7GuiView11closeBufferERNS_6BufferE
lyx:_ZN3lyx8frontend7GuiView11closeBufferEv
lyx:_ZN3lyx8frontend7GuiView11findOrBuildERKNSt7__cxx1112basic_stringIcSt11char_traitsIcESaIcEEEb
lyx:_ZN3lyx8frontend7GuiView11goToFileRowERKNSt7__cxx1112basic_stringIcSt11char_traitsIcESaIcEEE
lyx:_ZN3lyx8frontend7GuiView11inMultiTabsEPNS0_11GuiWorkAreaE
lyx:_ZN3lyx8frontend7GuiView11inOtherViewERNS_6BufferE
lyx:_ZN3lyx8frontend7GuiView11initToolbarERKNSt7__cxx1112basic_stringIcSt11char_traitsIcESaIcEEE
lyx:_ZN3lyx8frontend7GuiView11newDocumentERKNSt7__cxx1112basic_stringIcSt11char_traitsIcESaIcEEES7_b
lyx:_ZN3lyx8frontend7GuiView11qt_metacallEN11QMetaObject4CallEiPPv
lyx:_ZN3lyx8frontend7GuiView11qt_metacastEPKc
lyx:_ZN3lyx8frontend7GuiView11showMessageEv
lyx:_ZN3lyx8frontend7GuiView11updateInsetEPKNS_5InsetE
lyx:_ZN3lyx8frontend7GuiView12cancelExportEv
lyx:_ZN3lyx8frontend7GuiView12clearMessageEv
lyx:_ZN3lyx8frontend7GuiView12doShowDialogERK7QStringS4_PNS_5InsetE
lyx:_ZN3lyx8frontend7GuiView12focusInEventEP11QFocusEvent
lyx:_ZN3lyx8frontend7GuiView12hideWorkAreaEPNS0_11GuiWorkAreaE
lyx:_ZN3lyx8frontend7GuiView12initToolbarsEv
lyx:_ZN3lyx8frontend7GuiView12lfunUiToggleERKNSt7__cxx1112basic_stringIcSt11char_traitsIcESaIcEEE
lyx:_ZN3lyx8frontend7GuiView12loadDocumentERKNS_7support8FileNameEb
lyx:_ZN3lyx8frontend7GuiView12reloadBufferERNS_6BufferE
lyx:_ZN3lyx8frontend7GuiView12renameBufferERNS_6BufferERKNSt7__cxx1112basic_stringIwSt11char_traitsIwESaIwEEENS1_10RenameKindE
lyx:_ZN3lyx8frontend7GuiView12resetDialogsEv
lyx:_ZN3lyx8frontend7GuiView12restartCaretEv
lyx:_ZN3lyx8frontend7GuiView12scriptKilledEv
lyx:_ZN3lyx8frontend7GuiView12statsPressedEv
lyx:_ZN3lyx8frontend7GuiView12updateDialogERKNSt7__cxx1112basic_stringIcSt11char_traitsIcESaIcEEES9_
lyx:_ZN3lyx8frontend7GuiView13closeWorkAreaEPNS0_11GuiWorkAreaE
lyx:_ZN3lyx8frontend7GuiView13closeWorkAreaEPNS0_11GuiWorkAreaEb
lyx:_ZN3lyx8frontend7GuiView13connectBufferERNS_6BufferE
lyx:_ZN3lyx8frontend7GuiView13insertLyXFileERKNSt7__cxx1112basic_stringIwSt11char_traitsIwESaIwEEEb
lyx:_ZN3lyx8frontend7GuiView13openDocumentsERKNSt7__cxx1112basic_stringIcSt11char_traitsIcESaIcEEEi
lyx:_ZN3lyx8frontend7GuiView13restoreLayoutEv
lyx:_ZN3lyx8frontend7GuiView13updateDialogsEv
lyx:_ZN3lyx8frontend7GuiView13updateTocItemERKNSt7__cxx1112basic_stringIcSt11char_traitsIcESaIcEEERKNS_11DocIteratorE
lyx:_ZN3lyx8frontend7GuiView13zoomInPressedEv
lyx:_ZN3lyx8frontend7GuiView14GuiViewPrivate11busyBuffersE
lyx:_ZN3lyx8frontend7GuiView14GuiViewPrivate12guiWorkAreasEv
lyx:_ZN3lyx8frontend7GuiView14GuiViewPrivate16exportAndDestroyEPKNS_6BufferEPS3_RKNSt7__cxx1112basic_stringIcSt11char_traitsIcESaIcEEE
lyx:_ZN3lyx8frontend7GuiView14GuiViewPrivate17compileAndDestroyEPKNS_6BufferEPS3_RKNSt7__cxx1112basic_stringIcSt11char_traitsIcESaIcEEE
lyx:_ZN3lyx8frontend7GuiView14GuiViewPrivate17previewAndDestroyEPKNS_6BufferEPS3_RKNSt7__cxx1112basic_stringIcSt11char_traitsIcESaIcEEE
lyx:_ZN3lyx8frontend7GuiView14GuiViewPrivate18autosaveAndDestroyB5cxx11EPKNS_6BufferEPS3_
lyx:_ZN3lyx8frontend7GuiView14GuiViewPrivate21asyncBufferProcessingERKNSt7__cxx1112basic_stringIcSt11char_traitsIcESaIcEEEPKNS_6BufferERKNS4_IwS5_IwESaIwEEEPFNSB_12ExportStatusESD_PSB_SA_EMSB_KFSJ_SA_bEMSB_KFSJ_SA_Ebb
lyx:_ZN3lyx8frontend7GuiView14addTabWorkAreaEv
lyx:_ZN3lyx8frontend7GuiView14closeBufferAllEv
lyx:_ZN3lyx8frontend7GuiView14closeScheduledEv
lyx:_ZN3lyx8frontend7GuiView14dragEnterEventEP15QDragEnterEvent
lyx:_ZN3lyx8frontend7GuiView14exportBufferAsERNS_6BufferERKNSt7__cxx1112basic_stringIwSt11char_traitsIwESaIwEEE
lyx:_ZN3lyx8frontend7GuiView14flatGroupBoxesEPK7QObjectb
lyx:_ZN3lyx8frontend7GuiView14importDocumentERKNSt7__cxx1112basic_stringIcSt11char_traitsIcESaIcEEE
lyx:_ZN3lyx8frontend7GuiView14refillToolbarsEv
lyx:_ZN3lyx8frontend7GuiView14removeWorkAreaEPNS0_11GuiWorkAreaE
lyx:_ZN3lyx8frontend7GuiView14setCurrentZoomEi
lyx:_ZN3lyx8frontend7GuiView14updateToolbarsEv
lyx:_ZN3lyx8frontend7GuiView14zoomOutPressedEv
lyx:_ZN3lyx8frontend7GuiView15currentWorkAreaEv
lyx:_ZN3lyx8frontend7GuiView15updateStatusBarEv
lyx:_ZN3lyx8frontend7GuiView15zoomSliderMovedEi
lyx:_ZN3lyx8frontend7GuiView16clearMessageTextEv
lyx:_ZN3lyx8frontend7GuiView16closeTabWorkAreaEPNS0_11TabWorkAreaE
lyx:_ZN3lyx8frontend7GuiView16closeWorkAreaAllEv
lyx:_ZN3lyx8frontend7GuiView16disconnectBufferEv
lyx:_ZN3lyx8frontend7GuiView16disconnectDialogERKNSt7__cxx1112basic_stringIcSt11char_traitsIcESaIcEEE
lyx:_ZN3lyx8frontend7GuiView16getTemplatesPathB5cxx11ERNS_6BufferE
lyx:_ZN3lyx8frontend7GuiView16resetWindowTitleEv
lyx:_ZN3lyx8frontend7GuiView16staticMetaObjectE
lyx:_ZN3lyx8frontend7GuiView16structureChangedEv
lyx:_ZN3lyx8frontend7GuiView16toggleFullScreenEv
lyx:_ZN3lyx8frontend7GuiView16updateCompletionERNS_6CursorEbb
lyx:_ZN3lyx8frontend7GuiView16updateLayoutListEv
lyx:_ZN3lyx8frontend7GuiView16zoomValueChangedEi
lyx:_ZN3lyx8frontend7GuiView17bufferViewChangedEv
lyx:_ZN3lyx8frontend7GuiView17connectBufferViewERNS_10BufferViewE
lyx:_ZN3lyx8frontend7GuiView17constructToolbarsEv
lyx:_ZN3lyx8frontend7GuiView17currentBufferViewEv
lyx:_ZN3lyx8frontend7GuiView17openChildDocumentERKNSt7__cxx1112basic_stringIcSt11char_traitsIcESaIcEEE
lyx:_ZN3lyx8frontend7GuiView17triggerShowDialogERK7QStringS4_PNS_5InsetE
lyx:_ZN3lyx8frontend7GuiView17updateWindowTitleEPNS0_11GuiWorkAreaE
lyx:_ZN3lyx8frontend7GuiView18currentZoomChangedEi
lyx:_ZN3lyx8frontend7GuiView18disableShellEscapeEv
lyx:_ZN3lyx8frontend7GuiView18documentBufferViewEv
lyx:_ZN3lyx8frontend7GuiView18focusNextPrevChildEb
lyx:_ZN3lyx8frontend7GuiView18saveBufferIfNeededERNS_6BufferEb
lyx:_ZN3lyx8frontend7GuiView18setCurrentWorkAreaEPNS0_11GuiWorkAreaE
lyx:_ZN3lyx8frontend7GuiView18updateLockToolbarsEv
lyx:_ZN3lyx8frontend7GuiView19currentMainWorkAreaEv
lyx:_ZN3lyx8frontend7GuiView19gotoNextTabWorkAreaENS1_14NextOrPreviousE
lyx:_ZN3lyx8frontend7GuiView19onBufferViewChangedEv
lyx:_ZN3lyx8frontend7GuiView19resetAutosaveTimersEv
lyx:_ZN3lyx8frontend7GuiView19resetCommandExecuteEv
lyx:_ZN3lyx8frontend7GuiView19showZoomContextMenuEv
lyx:_ZN3lyx8frontend7GuiView20disconnectBufferViewEv
lyx:_ZN3lyx8frontend7GuiView20dispatchToBufferViewERKNS_11FuncRequestERNS_14DispatchResultE
lyx:_ZN3lyx8frontend7GuiView21changeTrackingToggledEb
lyx:_ZN3lyx8frontend7GuiView21checkCancelBackgroundEv
lyx:_ZN3lyx8frontend7GuiView22autoSaveThreadFinishedEv
lyx:_ZN3lyx8frontend7GuiView22on_lastWorkAreaRemovedEv
lyx:_ZN3lyx8frontend7GuiView22updateStatusBarMessageERK7QString
lyx:_ZN3lyx8frontend7GuiView23processingThreadStartedEv
lyx:_ZN3lyx8frontend7GuiView23scheduleRedrawWorkAreasEv
lyx:_ZN3lyx8frontend7GuiView24gotoNextOrPreviousBufferENS1_14NextOrPreviousEb
lyx:_ZN3lyx8frontend7GuiView24processingThreadFinishedEv
lyx:_ZN3lyx8frontend7GuiView24showStatusBarContextMenuEv
lyx:_ZN3lyx8frontend7GuiView25on_currentWorkAreaChangedEPNS0_11GuiWorkAreaE
lyx:_ZN3lyx8frontend7GuiView26prepareAllBuffersForLogoutEv
lyx:_ZN3lyx8frontend7GuiView27dockWidgetVisibilityChangedEv
lyx:_ZN3lyx8frontend7GuiView30checkExternallyModifiedBuffersEv
lyx:_ZN3lyx8frontend7GuiView5buildERKNSt7__cxx1112basic_stringIcSt11char_traitsIcESaIcEEE
lyx:_ZN3lyx8frontend7GuiView5eventEP6QEvent
lyx:_ZN3lyx8frontend7GuiView6errorsERKNSt7__cxx1112basic_stringIcSt11char_traitsIcESaIcEEEbi
lyx:_ZN3lyx8frontend7GuiView7closingEi
lyx:_ZN3lyx8frontend7GuiView7messageERKNSt7__cxx1112basic_stringIwSt11char_traitsIwESaIwEEE
lyx:_ZN3lyx8frontend7GuiView7setBusyEb
lyx:_ZN3lyx8frontend7GuiView7toolbarERKNSt7__cxx1112basic_stringIcSt11char_traitsIcESaIcEEE
lyx:_ZN3lyx8frontend7GuiView8autoSaveEv
lyx:_ZN3lyx8frontend7GuiView8dispatchERKNS_11FuncRequestERNS_14DispatchResultE
lyx:_ZN3lyx8frontend7GuiView8setFocusEN2Qt11FocusReasonE
lyx:_ZN3lyx8frontend7GuiView8setFocusEv
lyx:_ZN3lyx8frontend7GuiView8workAreaERNS_6BufferE
lyx:_ZN3lyx8frontend7GuiView8workAreaEi
lyx:_ZN3lyx8frontend7GuiView9dropEventEP10QDropEvent
lyx:_ZN3lyx8frontend7GuiView9getStatusERKNS_11FuncRequestERNS_10FuncStatusE
lyx:_ZN3lyx8frontend7GuiView9nextErrorERKNSt7__cxx1112basic_stringIcSt11char_traitsIcESaIcEEEbbb
lyx:_ZN3lyx8frontend7GuiView9setBufferEPNS_6BufferEb
lyx:_ZN3lyx8frontend7GuiView9showEventEP10QShowEvent
lyx:_ZN3lyx8frontend7GuiView9showStatsEv
lyx:_ZN3lyx8frontend7GuiView9tocModelsEv
lyx:_ZN3lyx8frontend7GuiViewC1Ei
lyx:_ZN3lyx8frontend7GuiViewC2Ei
lyx:_ZN3lyx8frontend7GuiViewD0Ev
lyx:_ZN3lyx8frontend7GuiViewD1Ev
lyx:_ZN3lyx8frontend7GuiViewD2Ev
lyx:_ZN3lyx8frontend7GuiWrap11clearParamsEv
lyx:_ZN3lyx8frontend7GuiWrap11qt_metacallEN11QMetaObject4CallEiPPv
lyx:_ZN3lyx8frontend7GuiWrap11qt_metacastEPKc
lyx:_ZN3lyx8frontend7GuiWrap14change_adaptorEv
lyx:_ZN3lyx8frontend7GuiWrap14dispatchParamsEv
lyx:_ZN3lyx8frontend7GuiWrap14paramsToDialogERKNS_15InsetWrapParamsE
lyx:_ZN3lyx8frontend7GuiWrap16initialiseParamsERKNSt7__cxx1112basic_stringIcSt11char_traitsIcESaIcEEE
lyx:_ZN3lyx8frontend7GuiWrap16staticMetaObjectE
lyx:_ZN3lyx8frontend7GuiWrap9applyViewEv
lyx:_ZN3lyx8frontend7GuiWrapC1ERNS0_7GuiViewE
lyx:_ZN3lyx8frontend7GuiWrapC2ERNS0_7GuiViewE
lyx:_ZN3lyx8frontend7Painter9thin_lineE
lyx:_ZN3lyx8frontend7TearOff10enterEventEP11QEnterEvent
lyx:_ZN3lyx8frontend7TearOff10leaveEventEP6QEvent
lyx:_ZN3lyx8frontend7TearOff10paintEventEP11QPaintEvent
lyx:_ZN3lyx8frontend7TearOff11qt_metacallEN11QMetaObject4CallEiPPv
lyx:_ZN3lyx8frontend7TearOff11qt_metacastEPKc
lyx:_ZN3lyx8frontend7TearOff16staticMetaObjectE
lyx:_ZN3lyx8frontend7TearOff17mouseReleaseEventEP11QMouseEvent
lyx:_ZN3lyx8frontend7TearOff7tearOffEv
lyx:_ZN3lyx8frontend7TearOffC1EP7QWidget
lyx:_ZN3lyx8frontend7TearOffC2EP7QWidget
lyx:_ZN3lyx8frontend7getFontERKNS_8FontInfoE
lyx:_ZN3lyx8frontend7getIconERKNS_11FuncRequestEbb
lyx:_ZN3lyx8frontend7setCropER9QCheckBoxR9QLineEditS4_S4_S4_RNS0_11LengthComboES6_S6_S6_RKNS_8external8ClipDataE
lyx:_ZN3lyx8frontend8DockView11qt_metacallEN11QMetaObject4CallEiPPv
lyx:_ZN3lyx8frontend8DockView11qt_metacastEPKc
lyx:_ZN3lyx8frontend8DockView13keyPressEventEP9QKeyEvent
lyx:_ZN3lyx8frontend8DockView16staticMetaObjectE
lyx:_ZN3lyx8frontend8DockViewC2ERNS0_7GuiViewERK7QStringS6_N2Qt14DockWidgetAreaE6QFlagsINS7_10WindowTypeEE
lyx:_ZN3lyx8frontend8GuiAbout11qt_metacallEN11QMetaObject4CallEiPPv
lyx:_ZN3lyx8frontend8GuiAbout11qt_metacastEPKc
lyx:_ZN3lyx8frontend8GuiAbout16staticMetaObjectE
lyx:_ZN3lyx8frontend8GuiAbout21on_buttonBox_rejectedEv
lyx:_ZN3lyx8frontend8GuiAbout24on_showDirTempPB_clickedEv
lyx:_ZN3lyx8frontend8GuiAbout24on_showDirUserPB_clickedEv
lyx:_ZN3lyx8frontend8GuiAbout24on_versionCopyPB_clickedEv
lyx:_ZN3lyx8frontend8GuiAbout27on_showDirLibraryPB_clickedEv
lyx:_ZN3lyx8frontend8GuiAboutC1ERNS0_7GuiViewE
lyx:_ZN3lyx8frontend8GuiAboutC2ERNS0_7GuiViewE
lyx:_ZN3lyx8frontend8GuiAboutD0Ev
lyx:_ZN3lyx8frontend8GuiAboutD1Ev
lyx:_ZN3lyx8frontend8GuiAboutD2Ev
lyx:_ZN3lyx8frontend8GuiIndex11clearParamsEv
lyx:_ZN3lyx8frontend8GuiIndex11qt_metacallEN11QMetaObject4CallEiPPv
lyx:_ZN3lyx8frontend8GuiIndex11qt_metacastEPKc
lyx:_ZN3lyx8frontend8GuiIndex14change_adaptorEv
lyx:_ZN3lyx8frontend8GuiIndex14dispatchParamsEv
lyx:_ZN3lyx8frontend8GuiIndex14updateContentsEv
lyx:_ZN3lyx8frontend8GuiIndex16initialiseParamsERKNSt7__cxx1112basic_stringIcSt11char_traitsIcESaIcEEE
lyx:_ZN3lyx8frontend8GuiIndex16staticMetaObjectE
lyx:_ZN3lyx8frontend8GuiIndex17pageFormatChangedEi
lyx:_ZN3lyx8frontend8GuiIndex9applyViewEv
lyx:_ZN3lyx8frontend8GuiIndexC1ERNS0_7GuiViewE
lyx:_ZN3lyx8frontend8GuiIndexC2ERNS0_7GuiViewE
lyx:_ZN3lyx8frontend8GuiLabel10setKeywordERK7QString
lyx:_ZN3lyx8frontend8GuiLabel11qt_metacallEN11QMetaObject4CallEiPPv
lyx:_ZN3lyx8frontend8GuiLabel11qt_metacastEPKc
lyx:_ZN3lyx8frontend8GuiLabel14paramsToDialogEPKNS_5InsetE
lyx:_ZN3lyx8frontend8GuiLabel16initialiseParamsERKNSt7__cxx1112basic_stringIcSt11char_traitsIcESaIcEEE
lyx:_ZN3lyx8frontend8GuiLabel16staticMetaObjectE
lyx:_ZN3lyx8frontend8GuiLabelC1EP7QWidget
lyx:_ZN3lyx8frontend8GuiLabelC2EP7QWidget
lyx:_ZN3lyx8frontend8PrefEdit11qt_metacallEN11QMetaObject4CallEiPPv
lyx:_ZN3lyx8frontend8PrefEdit11qt_metacastEPKc
lyx:_ZN3lyx8frontend8PrefEdit16staticMetaObjectE
lyx:_ZN3lyx8frontend8PrefEdit24on_screenLimitCB_toggledEb
lyx:_ZN3lyx8frontend8PrefEdit27on_citationSearchCB_toggledEb
lyx:_ZN3lyx8frontend8PrefEdit8updateRCERKNS_5LyXRCE
lyx:_ZN3lyx8frontend8PrefEditC1EPNS0_14GuiPreferencesE
lyx:_ZN3lyx8frontend8PrefEditC2EPNS0_14GuiPreferencesE
lyx:_ZN3lyx8frontend8TocModel10updateItemERKNS_11DocIteratorE
lyx:_ZN3lyx8frontend8TocModel4sortEb
lyx:_ZN3lyx8frontend8TocModel5clearEv
lyx:_ZN3lyx8frontend8TocModel5modelEv
lyx:_ZN3lyx8frontend8TocModel5resetESt10shared_ptrIKSt6vectorINS_7TocItemESaIS4_EEE
lyx:_ZN3lyx8frontend8TocModel5resetEv
lyx:_ZN3lyx8frontend8TocModel8populateERjRK11QModelIndex
lyx:_ZN3lyx8frontend8TocModel9setStringERKNS_7TocItemE11QModelIndex
lyx:_ZN3lyx8frontend8TocModelC1EP7QObject
lyx:_ZN3lyx8frontend8TocModelC2EP7QObject
lyx:_ZN3lyx8frontend8Toolbars12readToolbarsERNS_5LexerE
lyx:_ZN3lyx8frontend8Toolbars19readToolbarSettingsERNS_5LexerE
lyx:_ZN3lyx8frontend8Toolbars5resetEv
lyx:_ZN3lyx8frontend8exprInfoE
lyx:_ZN3lyx8frontend8iconInfoERKNS_11FuncRequestEbb
lyx:_ZN3lyx8frontend8setValidEP7QWidgetb
lyx:_ZN3lyx8frontend9GuiBibtex10selUpdatedEv
lyx:_ZN3lyx8frontend9GuiBibtex10setButtonsEv
lyx:_ZN3lyx8frontend9GuiBibtex11addEncComboEi
lyx:_ZN3lyx8frontend9GuiBibtex11hasInheritsEv
lyx:_ZN3lyx8frontend9GuiBibtex11qt_metacallEN11QMetaObject4CallEiPPv
lyx:_ZN3lyx8frontend9GuiBibtex11qt_metacastEPKc
lyx:_ZN3lyx8frontend9GuiBibtex11resetFilterEv
lyx:_ZN3lyx8frontend9GuiBibtex11updateReAbsEv
lyx:_ZN3lyx8frontend9GuiBibtex12selectedBibsEv
lyx:_ZN3lyx8frontend9GuiBibtex13filterChangedERK7QString
lyx:_ZN3lyx8frontend9GuiBibtex13filterPressedEv
lyx:_ZN3lyx8frontend9GuiBibtex13relAbsPressedEv
lyx:_ZN3lyx8frontend9GuiBibtex13rescanClickedEv
lyx:_ZN3lyx8frontend9GuiBibtex14change_adaptorEv
lyx:_ZN3lyx8frontend9GuiBibtex14clearSelectionEv
lyx:_ZN3lyx8frontend9GuiBibtex14dispatchParamsEv
lyx:_ZN3lyx8frontend9GuiBibtex14inheritPressedEv
lyx:_ZN3lyx8frontend9GuiBibtex14updateContentsEv
lyx:_ZN3lyx8frontend9GuiBibtex15databaseChangedEv
lyx:_ZN3lyx8frontend9GuiBibtex15setSelectedBibsERK5QListI7QStringE
lyx:_ZN3lyx8frontend9GuiBibtex16browseBibPressedEv
lyx:_ZN3lyx8frontend9GuiBibtex16browseBstPressedEv
lyx:_ZN3lyx8frontend9GuiBibtex16getFileEncodingsB5cxx11Ev
lyx:_ZN3lyx8frontend9GuiBibtex16initialiseParamsERKNSt7__cxx1112basic_stringIcSt11char_traitsIcESaIcEEE
lyx:_ZN3lyx8frontend9GuiBibtex16setFileEncodingsERKSt6vectorINSt7__cxx1112basic_stringIwSt11char_traitsIwESaIwEEESaIS8_EE
lyx:_ZN3lyx8frontend9GuiBibtex16staticMetaObjectE
lyx:_ZN3lyx8frontend9GuiBibtex17localPathSelectedEv
lyx:_ZN3lyx8frontend9GuiBibtex17on_editPB_clickedEv
lyx:_ZN3lyx8frontend9GuiBibtex19updateFileEncodingsEv
lyx:_ZN3lyx8frontend9GuiBibtex21on_buttonBox_acceptedEv
lyx:_ZN3lyx8frontend9GuiBibtex4initEv
lyx:_ZN3lyx8frontend9GuiBibtex8findTextERK7QString
lyx:_ZN3lyx8frontend9GuiBibtex9applyViewEv
lyx:_ZN3lyx8frontend9GuiBibtex9browseBibERK7QString
lyx:_ZN3lyx8frontend9GuiBibtex9browseBstERK7QString
lyx:_ZN3lyx8frontend9GuiBibtexC1ERNS0_7GuiViewE
lyx:_ZN3lyx8frontend9GuiBibtexC2ERNS0_7GuiViewE
lyx:_ZN3lyx8frontend9GuiBranch11qt_metacallEN11QMetaObject4CallEiPPv
lyx:_ZN3lyx8frontend9GuiBranch11qt_metacastEPKc
lyx:_ZN3lyx8frontend9GuiBranch14paramsToDialogEPKNS_5InsetE
lyx:_ZN3lyx8frontend9GuiBranch16staticMetaObjectE
lyx:_ZN3lyx8frontend9GuiBranchC1EP7QWidget
lyx:_ZN3lyx8frontend9GuiBranchC2EP7QWidget
lyx:_ZN3lyx8frontend9GuiDialog10browseFileERK7QStringS4_RK5QListIS2_EbS4_S4_S4_S4_S4_
lyx:_ZN3lyx8frontend9GuiDialog10closeEventEP11QCloseEvent
lyx:_ZN3lyx8frontend9GuiDialog10enableViewEb
lyx:_ZN3lyx8frontend9GuiDialog10updateViewEv
lyx:_ZN3lyx8frontend9GuiDialog11qt_metacallEN11QMetaObject4CallEiPPv
lyx:_ZN3lyx8frontend9GuiDialog11qt_metacastEPKc
lyx:_ZN3lyx8frontend9GuiDialog11slotRestoreEv
lyx:_ZN3lyx8frontend9GuiDialog13slotAutoApplyEv
lyx:_ZN3lyx8frontend9GuiDialog13slotButtonBoxEP15QAbstractButton
lyx:_ZN3lyx8frontend9GuiDialog14browseRelToSubERK7QStringS4_S4_RK5QListIS2_EbS4_S4_S4_S4_
lyx:_ZN3lyx8frontend9GuiDialog15setButtonsValidEb
lyx:_ZN3lyx8frontend9GuiDialog16staticMetaObjectE
lyx:_ZN3lyx8frontend9GuiDialog17browseRelToParentERK7QStringS4_S4_RK5QListIS2_EbS4_S4_S4_S4_
lyx:_ZN3lyx8frontend9GuiDialog6slotOKEv
lyx:_ZN3lyx8frontend9GuiDialog7changedEv
lyx:_ZN3lyx8frontend9GuiDialog8getColorERK6QColor
lyx:_ZN3lyx8frontend9GuiDialog8getColorERK6QColorP7QWidget
lyx:_ZN3lyx8frontend9GuiDialog9browseDirERK7QStringS4_S4_S4_S4_S4_
lyx:_ZN3lyx8frontend9GuiDialog9slotApplyEv
lyx:_ZN3lyx8frontend9GuiDialog9slotCloseEv
lyx:_ZN3lyx8frontend9GuiDialogC2ERNS0_7GuiViewERK7QStringS6_
lyx:_ZN3lyx8frontend9GuiHSpace11changedSlotEv
lyx:_ZN3lyx8frontend9GuiHSpace11qt_metacallEN11QMetaObject4CallEiPPv
lyx:_ZN3lyx8frontend9GuiHSpace11qt_metacastEPKc
lyx:_ZN3lyx8frontend9GuiHSpace14paramsToDialogEPKNS_5InsetE
lyx:_ZN3lyx8frontend9GuiHSpace16staticMetaObjectE
lyx:_ZN3lyx8frontend9GuiHSpaceC1EbP7QWidget
lyx:_ZN3lyx8frontend9GuiHSpaceC2EbP7QWidget
lyx:_ZN3lyx8frontend9GuiSearch10updateSizeEv
lyx:_ZN3lyx8frontend9GuiSearch10updateViewEv
lyx:_ZN3lyx8frontend9GuiSearch11qt_metacallEN11QMetaObject4CallEiPPv
lyx:_ZN3lyx8frontend9GuiSearch11qt_metacastEPKc
lyx:_ZN3lyx8frontend9GuiSearch11updateTitleEv
lyx:_ZN3lyx8frontend9GuiSearch14mouseMoveEventEP11QMouseEvent
lyx:_ZN3lyx8frontend9GuiSearch14restoreSessionEv
lyx:_ZN3lyx8frontend9GuiSearch15mousePressEventEP11QMouseEvent
lyx:_ZN3lyx8frontend9GuiSearch16staticMetaObjectE
lyx:_ZN3lyx8frontend9GuiSearch19onBufferViewChangedEv
lyx:_ZN3lyx8frontend9GuiSearch21mouseDoubleClickEventEP11QMouseEvent
lyx:_ZN3lyx8frontend9GuiSearchC1ERNS0_7GuiViewEN2Qt14DockWidgetAreaE6QFlagsINS4_10WindowTypeEE
lyx:_ZN3lyx8frontend9GuiSearchC2ERNS0_7GuiViewEN2Qt14DockWidgetAreaE6QFlagsINS4_10WindowTypeEE
lyx:_ZN3lyx8frontend9GuiSendTo11qt_metacallEN11QMetaObject4CallEiPPv
lyx:_ZN3lyx8frontend9GuiSendTo11qt_metacastEPKc
lyx:_ZN3lyx8frontend9GuiSendTo14dispatchParamsEv
lyx:_ZN3lyx8frontend9GuiSendTo14paramsToDialogEPKNS_6FormatERK7QString
lyx:_ZN3lyx8frontend9GuiSendTo14updateContentsEv
lyx:_ZN3lyx8frontend9GuiSendTo15changed_adaptorEv
lyx:_ZN3lyx8frontend9GuiSendTo16initialiseParamsERKNSt7__cxx1112basic_stringIcSt11char_traitsIcESaIcEEE
lyx:_ZN3lyx8frontend9GuiSendTo16staticMetaObjectE
lyx:_ZN3lyx8frontend9GuiSendTo7isValidEv
lyx:_ZN3lyx8frontend9GuiSendTo9applyViewEv
lyx:_ZN3lyx8frontend9GuiSendToC1ERNS0_7GuiViewE
lyx:_ZN3lyx8frontend9GuiSendToC2ERNS0_7GuiViewE
lyx:_ZN3lyx8frontend9GuiVSpace11qt_metacallEN11QMetaObject4CallEiPPv
lyx:_ZN3lyx8frontend9GuiVSpace11qt_metacastEPKc
lyx:_ZN3lyx8frontend9GuiVSpace12enableCustomEi
lyx:_ZN3lyx8frontend9GuiVSpace14paramsToDialogEPKNS_5InsetE
lyx:_ZN3lyx8frontend9GuiVSpace16staticMetaObjectE
lyx:_ZN3lyx8frontend9GuiVSpaceC1EP7QWidget
lyx:_ZN3lyx8frontend9GuiVSpaceC2EP7QWidget
lyx:_ZN3lyx8frontend9LayoutBox11addItemSortERKNSt7__cxx1112basic_stringIwSt11char_traitsIwESaIwEEES9_bbb
lyx:_ZN3lyx8frontend9LayoutBox11eventFilterEP7QObjectP6QEvent
lyx:_ZN3lyx8frontend9LayoutBox11qt_metacallEN11QMetaObject4CallEiPPv
lyx:_ZN3lyx8frontend9LayoutBox11qt_metacastEPKc
lyx:_ZN3lyx8frontend9LayoutBox11setIconSizeE5QSize
lyx:_ZN3lyx8frontend9LayoutBox14updateContentsEb
lyx:_ZN3lyx8frontend9LayoutBox16staticMetaObjectE
lyx:_ZN3lyx8frontend9LayoutBox3setERKNSt7__cxx1112basic_stringIwSt11char_traitsIwESaIwEEE
lyx:_ZN3lyx8frontend9LayoutBox7Private15countCategoriesEv
lyx:_ZN3lyx8frontend9LayoutBox7Private9setFilterERK7QString
lyx:_ZN3lyx8frontend9LayoutBox8selectedEi
lyx:_ZN3lyx8frontend9LayoutBox9showPopupEv
lyx:_ZN3lyx8frontend9LayoutBoxC1ERNS0_7GuiViewE
lyx:_ZN3lyx8frontend9LayoutBoxC2ERNS0_7GuiViewE
lyx:_ZN3lyx8frontend9LayoutBoxD0Ev
lyx:_ZN3lyx8frontend9LayoutBoxD1Ev
lyx:_ZN3lyx8frontend9LayoutBoxD2Ev
lyx:_ZN3lyx8frontend9PrefInput10testKeymapERK7QString
lyx:_ZN3lyx8frontend9PrefInput11qt_metacallEN11QMetaObject4CallEiPPv
lyx:_ZN3lyx8frontend9PrefInput11qt_metacastEPKc
lyx:_ZN3lyx8frontend9PrefInput16staticMetaObjectE
lyx:_ZN3lyx8frontend9PrefInput19on_keymapCB_toggledEb
lyx:_ZN3lyx8frontend9PrefInput24on_firstKeymapPB_clickedEb
lyx:_ZN3lyx8frontend9PrefInput25on_secondKeymapPB_clickedEb
lyx:_ZN3lyx8frontend9PrefInput29on_scrollzoomEnableCB_toggledEb
lyx:_ZN3lyx8frontend9PrefInput8updateRCERKNS_5LyXRCE
lyx:_ZN3lyx8frontend9PrefInputC1EPNS0_14GuiPreferencesE
lyx:_ZN3lyx8frontend9PrefInputC2EPNS0_14GuiPreferencesE
lyx:_ZN3lyx8frontend9PrefLatex11qt_metacallEN11QMetaObject4CallEiPPv
lyx:_ZN3lyx8frontend9PrefLatex11qt_metacastEPKc
lyx:_ZN3lyx8frontend9PrefLatex16staticMetaObjectE
lyx:_ZN3lyx8frontend9PrefLatex25on_latexIndexCO_activatedEi
lyx:_ZN3lyx8frontend9PrefLatex26on_latexBibtexCO_activatedEi
lyx:_ZN3lyx8frontend9PrefLatex27on_latexJBibtexCO_activatedEi
lyx:_ZN3lyx8frontend9PrefLatex8updateRCERKNS_5LyXRCE
lyx:_ZN3lyx8frontend9PrefLatexC1EPNS0_14GuiPreferencesE
lyx:_ZN3lyx8frontend9PrefLatexC2EPNS0_14GuiPreferencesE
lyx:_ZN3lyx8frontend9PrefPaths11qt_metacallEN11QMetaObject4CallEiPPv
lyx:_ZN3lyx8frontend9PrefPaths11qt_metacastEPKc
lyx:_ZN3lyx8frontend9PrefPaths13selectLyxPipeEv
lyx:_ZN3lyx8frontend9PrefPaths13selectTempdirEv
lyx:_ZN3lyx8frontend9PrefPaths15selectBackupdirEv
lyx:_ZN3lyx8frontend9PrefPaths16selectExampledirEv
lyx:_ZN3lyx8frontend9PrefPaths16selectWorkingdirEv
lyx:_ZN3lyx8frontend9PrefPaths16staticMetaObjectE
lyx:_ZN3lyx8frontend9PrefPaths17selectHunspelldirEv
lyx:_ZN3lyx8frontend9PrefPaths17selectTemplatedirEv
lyx:_ZN3lyx8frontend9PrefPaths18selectThesaurusdirEv
lyx:_ZN3lyx8frontend9PrefPaths8updateRCERKNS_5LyXRCE
lyx:_ZN3lyx8frontend9PrefPathsC1EPNS0_14GuiPreferencesE
lyx:_ZN3lyx8frontend9PrefPathsC2EPNS0_14GuiPreferencesE
lyx:_ZN3lyx8frontend9TocModels10updateItemERK7QStringRKNS_11DocIteratorE
lyx:_ZN3lyx8frontend9TocModels11qt_metacallEN11QMetaObject4CallEiPPv
lyx:_ZN3lyx8frontend9TocModels11qt_metacastEPKc
lyx:_ZN3lyx8frontend9TocModels16staticMetaObjectE
lyx:_ZN3lyx8frontend9TocModels4sortERK7QStringb
lyx:_ZN3lyx8frontend9TocModels5clearEv
lyx:_ZN3lyx8frontend9TocModels5depthERK7QString
lyx:_ZN3lyx8frontend9TocModels5modelERK7QString
lyx:_ZN3lyx8frontend9TocModels5resetEPKNS_10BufferViewE
lyx:_ZN3lyx8frontend9TocModels9nameModelEv
lyx:_ZN3lyx8frontend9TocModelsC1Ev
lyx:_ZN3lyx8frontend9TocModelsC2Ev
lyx:_ZN3lyx8frontend9TocModelsD0Ev
lyx:_ZN3lyx8frontend9TocModelsD1Ev
lyx:_ZN3lyx8frontend9TocModelsD2Ev
lyx:_ZN3lyx8frontend9TocWidget10doDispatchERNS_6CursorERKNS_11FuncRequestERNS_14DispatchResultE
lyx:_ZN3lyx8frontend9TocWidget10getIndicesEv
lyx:_ZN3lyx8frontend9TocWidget10updateViewEv
lyx:_ZN3lyx8frontend9TocWidget11qt_metacallEN11QMetaObject4CallEiPPv
lyx:_ZN3lyx8frontend9TocWidget11qt_metacastEPKc
lyx:_ZN3lyx8frontend9TocWidget12getItemDepthERK11QModelIndex
lyx:_ZN3lyx8frontend9TocWidget12sendDispatchENS_11FuncRequestE
lyx:_ZN3lyx8frontend9TocWidget12setTreeDepthEib
lyx:_ZN3lyx8frontend9TocWidget13updateViewNowEv
lyx:_ZN3lyx8frontend9TocWidget14enableControlsEb
lyx:_ZN3lyx8frontend9TocWidget14filterContentsEv
lyx:_ZN3lyx8frontend9TocWidget15showContextMenuERK6QPoint
lyx:_ZN3lyx8frontend9TocWidget16finishUpdateViewEv
lyx:_ZN3lyx8frontend9TocWidget16on_tocTV_pressedERK11QModelIndex
lyx:_ZN3lyx8frontend9TocWidget16staticMetaObjectE
lyx:_ZN3lyx8frontend9TocWidget17collapseAllOthersEi
lyx:_ZN3lyx8frontend9TocWidget18on_tocTV_activatedERK11QModelIndex
lyx:_ZN3lyx8frontend9TocWidget19on_moveInTB_clickedEv
lyx:_ZN3lyx8frontend9TocWidget19on_moveUpTB_clickedEv
lyx:_ZN3lyx8frontend9TocWidget19on_typeCO_activatedEi
lyx:_ZN3lyx8frontend9TocWidget19on_updateTB_clickedEv
lyx:_ZN3lyx8frontend9TocWidget20on_moveOutTB_clickedEv
lyx:_ZN3lyx8frontend9TocWidget21on_moveDownTB_clickedEv
lyx:_ZN3lyx8frontend9TocWidget22on_sortCB_stateChangedEi
lyx:_ZN3lyx8frontend9TocWidget22on_tocTV_doubleClickedERK11QModelIndex
lyx:_ZN3lyx8frontend9TocWidget23on_depthSL_valueChangedEi
lyx:_ZN3lyx8frontend9TocWidget28on_persistentCB_stateChangedEi
lyx:_ZN3lyx8frontend9TocWidget4goToERK11QModelIndex
lyx:_ZN3lyx8frontend9TocWidget4initERK7QString
lyx:_ZN3lyx8frontend9TocWidget6selectERK11QModelIndex
lyx:_ZN3lyx8frontend9TocWidget7outlineENS_8FuncCodeE
lyx:_ZN3lyx8frontend9TocWidgetC1ERNS0_7GuiViewEP7QWidget
lyx:_ZN3lyx8frontend9TocWidgetC2ERNS0_7GuiViewEP7QWidget
lyx:_ZN3lyx8frontend9exprErrorE
lyx:_ZN3lyx8frontend9getPixmapERK7QStringS3_S3_
lyx:_ZN3lyx8frontend9theGuiAppEv
lyx:_ZN3lyx8frontendeqERKNS0_11DisplayPathES3_
lyx:_ZN3lyx8frontendlsERSoNS0_12ButtonPolicy5StateE
lyx:_ZN3lyx8frontendlsERSoNS0_12ButtonPolicy7SMInputE
lyx:_ZN3lyx8frontendltERKNS0_11DisplayPathES3_
lyx:_ZN3lyx8getMoverERKNSt7__cxx1112basic_stringIcSt11char_traitsIcESaIcEEE
lyx:_ZN3lyx8graphics11BoundingBoxC1ERKNSt7__cxx1112basic_stringIcSt11char_traitsIcESaIcEEE
lyx:_ZN3lyx8graphics11BoundingBoxC1Ev
lyx:_ZN3lyx8graphics11BoundingBoxC2ERKNSt7__cxx1112basic_stringIcSt11char_traitsIcESaIcEEE
lyx:_ZN3lyx8graphics11BoundingBoxC2Ev
lyx:_ZN3lyx8graphics11LoaderQueue10stopLoaderEv
lyx:_ZN3lyx8graphics11LoaderQueue11startLoaderEv
lyx:_ZN3lyx8graphics11LoaderQueue3getEv
lyx:_ZN3lyx8graphics11LoaderQueue5touchERKSt10shared_ptrINS0_9CacheItemEE
lyx:_ZN3lyx8graphics11LoaderQueue8loadNextEv
lyx:_ZN3lyx8graphics11LoaderQueueC1Ev
lyx:_ZN3lyx8graphics11LoaderQueueC2Ev
lyx:_ZN3lyx8graphics12PreviewImage4Impl13statusChangedEv
lyx:_ZN3lyx8graphics12PreviewImage4ImplC1ERS1_RNS0_13PreviewLoaderERKNSt7__cxx1112basic_stringIwSt11char_traitsIwESaIwEEERKNS_7support8FileNameEd
lyx:_ZN3lyx8graphics12PreviewImage4ImplC2ERS1_RNS0_13PreviewLoaderERKNSt7__cxx1112basic_stringIwSt11char_traitsIwESaIwEEERKNS_7support8FileNameEd
lyx:_ZN3lyx8graphics12PreviewImage4ImplD1Ev
lyx:_ZN3lyx8graphics12PreviewImage4ImplD2Ev
lyx:_ZN3lyx8graphics12PreviewImageC1ERNS0_13PreviewLoaderERKNSt7__cxx1112basic_stringIwSt11char_traitsIwESaIwEEERKNS_7support8FileNameEd
lyx:_ZN3lyx8graphics12PreviewImageC2ERNS0_13PreviewLoaderERKNSt7__cxx1112basic_stringIwSt11char_traitsIwESaIwEEERKNS_7support8FileNameEd
lyx:_ZN3lyx8graphics12PreviewImageD1Ev
lyx:_ZN3lyx8graphics12PreviewImageD2Ev
lyx:_ZN3lyx8graphics13PreviewLoader11qt_metacallEN11QMetaObject4CallEiPPv
lyx:_ZN3lyx8graphics13PreviewLoader11qt_metacastEPKc
lyx:_ZN3lyx8graphics13PreviewLoader15refreshPreviewsEv
lyx:_ZN3lyx8graphics13PreviewLoader16staticMetaObjectE
lyx:_ZN3lyx8graphics13PreviewLoader4Impl11pconverter_E
lyx:_ZN3lyx8graphics13PreviewLoader4Impl12setConverterERKNSt7__cxx1112basic_stringIcSt11char_traitsIcESaIcEEE
lyx:_ZN3lyx8graphics13PreviewLoader4Impl12startLoadingEb
lyx:_ZN3lyx8graphics13PreviewLoader4Impl15refreshPreviewsEv
lyx:_ZN3lyx8graphics13PreviewLoader4Impl18finishedGeneratingEii
lyx:_ZN3lyx8graphics13PreviewLoader4Impl3addERKNSt7__cxx1112basic_stringIwSt11char_traitsIwESaIwEEE
lyx:_ZN3lyx8graphics13PreviewLoader4Impl6removeERKNSt7__cxx1112basic_stringIwSt11char_traitsIwESaIwEEE
lyx:_ZN3lyx8graphics13PreviewLoader4ImplC1ERS1_RKNS_6BufferE
lyx:_ZN3lyx8graphics13PreviewLoader4ImplC2ERS1_RKNS_6BufferE
lyx:_ZN3lyx8graphics13PreviewLoader4ImplD1Ev
lyx:_ZN3lyx8graphics13PreviewLoader4ImplD2Ev
lyx:_ZN3lyx8graphics13PreviewLoaderC1ERKNS_6BufferE
lyx:_ZN3lyx8graphics13PreviewLoaderC2ERKNS_6BufferE
lyx:_ZN3lyx8graphics14getGroupParamsERKNS_6BufferERKNSt7__cxx1112basic_stringIcSt11char_traitsIcESaIcEEE
lyx:_ZN3lyx8graphics17countGroupMembersERKNS_6BufferERKNSt7__cxx1112basic_stringIcSt11char_traitsIcESaIcEEE
lyx:_ZN3lyx8graphics17getGraphicsGroupsERKNS_6BufferERSt3setINSt7__cxx1112basic_stringIcSt11char_traitsIcESaIcEEESt4lessISA_ESaISA_EE
lyx:_ZN3lyx8graphics18readBB_from_PSFileB5cxx11ERKNS_7support8FileNameE
lyx:_ZN3lyx8graphics19unifyGraphicsGroupsERNS_6BufferERKNSt7__cxx1112basic_stringIcSt11char_traitsIcESaIcEEE
lyx:_ZN3lyx8graphics23getCurrentGraphicsInsetERKNS_6CursorE
lyx:_ZN3lyx8graphics5Cache3getEv
lyx:_ZN3lyx8graphics5CacheC1Ev
lyx:_ZN3lyx8graphics5CacheC2Ev
lyx:_ZN3lyx8graphics5CacheD1Ev
lyx:_ZN3lyx8graphics5CacheD2Ev
lyx:_ZN3lyx8graphics6Loader20setDisplayPixelRatioEd
lyx:_ZN3lyx8graphics6Loader4Impl11resetParamsERKNS0_6ParamsE
lyx:_ZN3lyx8graphics6Loader4Impl12createPixmapEv
lyx:_ZN3lyx8graphics6Loader4Impl12startLoadingEv
lyx:_ZN3lyx8graphics6Loader4Impl13statusChangedEv
lyx:_ZN3lyx8graphics6Loader4Impl9resetFileERKNS_7support8FileNameE
lyx:_ZN3lyx8graphics6Loader4ImplC1ERKNS_7support8FileNameE
lyx:_ZN3lyx8graphics6Loader4ImplC2ERKNS_7support8FileNameE
lyx:_ZN3lyx8graphics6Loader4ImplD1Ev
lyx:_ZN3lyx8graphics6Loader4ImplD2Ev
lyx:_ZN3lyx8graphics6LoaderC1ERKNS_7support8FileNameE
lyx:_ZN3lyx8graphics6LoaderC1ERKNS_7support8FileNameERKS1_
lyx:_ZN3lyx8graphics6LoaderC1ERKNS_7support8FileNameES5_RKNS0_6ParamsE
lyx:_ZN3lyx8graphics6LoaderC1ERKNS_7support8FileNameES5_b
lyx:_ZN3lyx8graphics6LoaderC1ERKS1_
lyx:_ZN3lyx8graphics6LoaderC2ERKNS_7support8FileNameE
lyx:_ZN3lyx8graphics6LoaderC2ERKNS_7support8FileNameERKS1_
lyx:_ZN3lyx8graphics6LoaderC2ERKNS_7support8FileNameES5_RKNS0_6ParamsE
lyx:_ZN3lyx8graphics6LoaderC2ERKNS_7support8FileNameES5_b
lyx:_ZN3lyx8graphics6LoaderC2ERKS1_
lyx:_ZN3lyx8graphics6LoaderD1Ev
lyx:_ZN3lyx8graphics6LoaderD2Ev
lyx:_ZN3lyx8graphics6LoaderaSERKS1_
lyx:_ZN3lyx8graphics6ParamsC1Ev
lyx:_ZN3lyx8graphics6ParamsC2Ev
lyx:_ZN3lyx8graphics8GuiImage4clipERKNS0_6ParamsE
lyx:_ZN3lyx8graphics8GuiImage4loadERKNS_7support8FileNameE
lyx:_ZN3lyx8graphics8GuiImage4loadEv
lyx:_ZN3lyx8graphics8GuiImage5scaleERKNS0_6ParamsE
lyx:_ZN3lyx8graphics8GuiImage6rotateERKNS0_6ParamsE
lyx:_ZN3lyx8graphics8GuiImage9setPixmapERKNS0_6ParamsE
lyx:_ZN3lyx8graphics8GuiImageC1ERKS1_
lyx:_ZN3lyx8graphics8GuiImageC1Ev
lyx:_ZN3lyx8graphics8GuiImageC2ERKS1_
lyx:_ZN3lyx8graphics8GuiImageC2Ev
lyx:_ZN3lyx8graphics8newImageEv
lyx:_ZN3lyx8graphics9CacheItem4Impl12startLoadingEv
lyx:_ZN3lyx8graphics9CacheItem4Impl12startMonitorEv
lyx:_ZN3lyx8graphics9CacheItem4Impl14imageConvertedEb
lyx:_ZN3lyx8graphics9CacheItem4Impl16tryDisplayFormatERNS_7support8FileNameERNSt7__cxx1112basic_stringIcSt11char_traitsIcESaIcEEE
lyx:_ZN3lyx8graphics9CacheItem4Impl22convertToDisplayFormatEv
lyx:_ZN3lyx8graphics9CacheItem4Impl5resetEv
lyx:_ZN3lyx8graphics9CacheItem4Impl9loadImageEv
lyx:_ZN3lyx8graphics9CacheItem4Impl9setStatusENS0_11ImageStatusE
lyx:_ZN3lyx8graphics9CacheItem4ImplC1ERKNS_7support8FileNameES6_
lyx:_ZN3lyx8graphics9CacheItem4ImplC2ERKNS_7support8FileNameES6_
lyx:_ZN3lyx8graphics9CacheItemC1ERKNS_7support8FileNameES5_
lyx:_ZN3lyx8graphics9CacheItemC2ERKNS_7support8FileNameES5_
lyx:_ZN3lyx8graphics9CacheItemD1Ev
lyx:_ZN3lyx8graphics9CacheItemD2Ev
lyx:_ZN3lyx8graphics9Converter11isReachableERKNSt7__cxx1112basic_stringIcSt11char_traitsIcESaIcEEES9_
lyx:_ZN3lyx8graphics9Converter4Impl15startConversionEv
lyx:_ZN3lyx8graphics9Converter4Impl9convertedEii
lyx:_ZN3lyx8graphics9Converter4ImplC1ERKS1_RKNS_7support8FileNameES8_RKNSt7__cxx1112basic_stringIcSt11char_traitsIcESaIcEEESG_SG_
lyx:_ZN3lyx8graphics9Converter4ImplC2ERKS1_RKNS_7support8FileNameES8_RKNSt7__cxx1112basic_stringIcSt11char_traitsIcESaIcEEESG_SG_
lyx:_ZN3lyx8graphics9ConverterC1ERKNS_7support8FileNameES5_RKNSt7__cxx1112basic_stringIcSt11char_traitsIcESaIcEEESD_SD_
lyx:_ZN3lyx8graphics9ConverterC2ERKNS_7support8FileNameES5_RKNSt7__cxx1112basic_stringIcSt11char_traitsIcESaIcEEESD_SD_
lyx:_ZN3lyx8graphicseqERKNS0_11BoundingBoxES3_
lyx:_ZN3lyx8graphicseqERKNS0_6ParamsES3_
lyx:_ZN3lyx8graphicslsERSoRKNS0_11BoundingBoxE
lyx:_ZN3lyx8graphicsneERKNS0_11BoundingBoxES3_
lyx:_ZN3lyx8graphicsneERKNS0_6ParamsES3_
lyx:_ZN3lyx8hullNameB5cxx11ENS_8HullTypeE
lyx:_ZN3lyx8hullTypeERKNSt7__cxx1112basic_stringIwSt11char_traitsIwESaIwEEE
lyx:_ZN3lyx8initMathEv
lyx:_ZN3lyx8isNumberEw
lyx:_ZN3lyx8lyxWriteERSoRKNS_8FontInfoERKNSt7__cxx1112basic_stringIcSt11char_traitsIcESaIcEEEi
lyx:_ZN3lyx8lyx_exitEi
lyx:_ZN3lyx8onlyPathERK7QString
lyx:_ZN3lyx8pair_spcE
lyx:_ZN3lyx8run_modeE
lyx:_ZN3lyx8setMoverERKNSt7__cxx1112basic_stringIcSt11char_traitsIcESaIcEEES7_
lyx:_ZN3lyx8to_asciiERKNSt7__cxx1112basic_stringIwSt11char_traitsIwESaIwEEE
lyx:_ZN3lyx9Converter10setCommandERKNSt7__cxx1112basic_stringIcSt11char_traitsIcESaIcEEE
lyx:_ZN3lyx9Converter9readFlagsEv
lyx:_ZN3lyx9ConverterC1ERKNSt7__cxx1112basic_stringIcSt11char_traitsIcESaIcEEES8_S8_S8_
lyx:_ZN3lyx9ConverterC2ERKNSt7__cxx1112basic_stringIcSt11char_traitsIcESaIcEEES8_S8_S8_
lyx:_ZN3lyx9DimensionpLERKS0_
lyx:_ZN3lyx9Encodings11isMathAlphaEw
lyx:_ZN3lyx9Encodings12TIPAShortcutB5cxx11Ew
lyx:_ZN3lyx9Encodings13latexMathCharEwbPKNS_8EncodingERNSt7__cxx1112basic_stringIwSt11char_traitsIwESaIwEEERb
lyx:_ZN3lyx9Encodings15isCombiningCharEw
lyx:_ZN3lyx9Encodings15unicodeCharInfoEw
lyx:_ZN3lyx9Encodings16fromLaTeXCommandERKNSt7__cxx1112basic_stringIwSt11char_traitsIwESaIwEEEiRbRS6_PSt3setINS2_IcS3_IcESaIcEEESt4lessISE_ESaISE_EE
lyx:_ZN3lyx9Encodings16fromLaTeXCommandERKNSt7__cxx1112basic_stringIwSt11char_traitsIwESaIwEEEiRbS9_PSt3setINS2_IcS3_IcESaIcEEESt4lessISD_ESaISD_EE
lyx:_ZN3lyx9Encodings17isKnownScriptCharB5cxx11Ew
lyx:_ZN3lyx9Encodings17isUnicodeTextOnlyEw
lyx:_ZN3lyx9Encodings21fontencSupportsScriptERKNSt7__cxx1112basic_stringIcSt11char_traitsIcESaIcEEES8_
lyx:_ZN3lyx9Encodings4readERKNS_7support8FileNameES4_
lyx:_ZN3lyx9Encodings7mathcmdE
lyx:_ZN3lyx9Encodings7mathsymE
lyx:_ZN3lyx9Encodings7textcmdE
lyx:_ZN3lyx9EncodingsC1Ev
lyx:_ZN3lyx9EncodingsC2Ev
lyx:_ZN3lyx9ErrorItemC1ERKNSt7__cxx1112basic_stringIwSt11char_traitsIwESaIwEEES8_NS_6TexRow9TextEntryESA_PKNS_6BufferE
lyx:_ZN3lyx9ErrorItemC1ERKNSt7__cxx1112basic_stringIwSt11char_traitsIwESaIwEEES8_PKNS_6BufferE
lyx:_ZN3lyx9ErrorItemC1Ev
lyx:_ZN3lyx9ErrorItemC2ERKNSt7__cxx1112basic_stringIwSt11char_traitsIwESaIwEEES8_NS_6TexRow9TextEntryESA_PKNS_6BufferE
lyx:_ZN3lyx9ErrorItemC2ERKNSt7__cxx1112basic_stringIwSt11char_traitsIwESaIwEEES8_PKNS_6BufferE
lyx:_ZN3lyx9ErrorItemC2Ev
lyx:_ZN3lyx9FloatList5eraseERKNSt7__cxx1112basic_stringIcSt11char_traitsIcESaIcEEE
lyx:_ZN3lyx9FloatList8newFloatERKNS_8FloatingE
lyx:_ZN3lyx9FloatListC1Ev
lyx:_ZN3lyx9FloatListC2Ev
lyx:_ZN3lyx9InsetFlex10doDispatchERNS_6CursorERNS_11FuncRequestE
lyx:_ZN3lyx9InsetFlex12updateBufferERKNS_11ParIteratorENS_10UpdateTypeEb
lyx:_ZN3lyx9InsetFlexC1EPNS_6BufferERKNSt7__cxx1112basic_stringIcSt11char_traitsIcESaIcEEE
lyx:_ZN3lyx9InsetFlexC1ERKS0_
lyx:_ZN3lyx9InsetFlexC2EPNS_6BufferERKNSt7__cxx1112basic_stringIcSt11char_traitsIcESaIcEEE
lyx:_ZN3lyx9InsetFlexC2ERKS0_
lyx:_ZN3lyx9InsetFoot12updateBufferERKNS_11ParIteratorENS_10UpdateTypeEb
lyx:_ZN3lyx9InsetFootC1EPNS_6BufferE
lyx:_ZN3lyx9InsetFootC2EPNS_6BufferE
lyx:_ZN3lyx9InsetInfo10doDispatchERNS_6CursorERNS_11FuncRequestE
lyx:_ZN3lyx9InsetInfo12updateBufferERKNS_11ParIteratorENS_10UpdateTypeEb
lyx:_ZN3lyx9InsetInfo4infoERKNSt7__cxx1112basic_stringIwSt11char_traitsIwESaIwEEEPKNS_8LanguageE
lyx:_ZN3lyx9InsetInfo4readERNS_5LexerE
lyx:_ZN3lyx9InsetInfo5buildEv
lyx:_ZN3lyx9InsetInfo5errorERKNSt7__cxx1112basic_stringIwSt11char_traitsIwESaIwEEEPKNS_8LanguageE
lyx:_ZN3lyx9InsetInfo6editXYERNS_6CursorEii
lyx:_ZN3lyx9InsetInfo7setInfoERKNSt7__cxx1112basic_stringIcSt11char_traitsIcESaIcEEE
lyx:_ZN3lyx9InsetInfo7setTextERKNSt7__cxx1112basic_stringIwSt11char_traitsIwESaIwEEEPKNS_8LanguageE
lyx:_ZN3lyx9InsetInfoC1EPNS_6BufferERKNSt7__cxx1112basic_stringIcSt11char_traitsIcESaIcEEE
lyx:_ZN3lyx9InsetInfoC2EPNS_6BufferERKNSt7__cxx1112basic_stringIcSt11char_traitsIcESaIcEEE
lyx:_ZN3lyx9InsetLine10doDispatchERNS_6CursorERNS_11FuncRequestE
lyx:_ZN3lyx9InsetLine8findInfoERKNSt7__cxx1112basic_stringIcSt11char_traitsIcESaIcEEE
lyx:_ZN3lyx9InsetLineC1EPNS_6BufferERKNS_18InsetCommandParamsE
lyx:_ZN3lyx9InsetLineC2EPNS_6BufferERKNS_18InsetCommandParamsE
lyx:_ZN3lyx9InsetList11resetBufferEv
lyx:_ZN3lyx9InsetList13insetIteratorEl
lyx:_ZN3lyx9InsetList19decreasePosAfterPosEl
lyx:_ZN3lyx9InsetList19increasePosAfterPosEl
lyx:_ZN3lyx9InsetList5eraseEl
lyx:_ZN3lyx9InsetList6insertEPNS_5InsetEl
lyx:_ZN3lyx9InsetList7releaseEl
lyx:_ZN3lyx9InsetList9setBufferERNS_6BufferE
lyx:_ZN3lyx9InsetListC1ERKS0_
lyx:_ZN3lyx9InsetListC1ERKS0_ll
lyx:_ZN3lyx9InsetListC2ERKS0_
lyx:_ZN3lyx9InsetListC2ERKS0_ll
lyx:_ZN3lyx9InsetListD1Ev
lyx:_ZN3lyx9InsetListD2Ev
lyx:_ZN3lyx9InsetMath4cellEm
lyx:_ZN3lyx9InsetNote10doDispatchERNS_6CursorERNS_11FuncRequestE
lyx:_ZN3lyx9InsetNote13params2stringB5cxx11ERKNS_15InsetNoteParamsE
lyx:_ZN3lyx9InsetNote13string2paramsERKNSt7__cxx1112basic_stringIcSt11char_traitsIcESaIcEEERNS_15InsetNoteParamsE
lyx:_ZN3lyx9InsetNote4readERNS_5LexerE
lyx:_ZN3lyx9InsetNoteC1EPNS_6BufferERKNSt7__cxx1112basic_stringIcSt11char_traitsIcESaIcEEE
lyx:_ZN3lyx9InsetNoteC2EPNS_6BufferERKNSt7__cxx1112basic_stringIcSt11char_traitsIcESaIcEEE
lyx:_ZN3lyx9InsetNoteD0Ev
lyx:_ZN3lyx9InsetNoteD1Ev
lyx:_ZN3lyx9InsetNoteD2Ev
lyx:_ZN3lyx9InsetText10doDispatchERNS_6CursorERNS_11FuncRequestE
lyx:_ZN3lyx9InsetText10paragraphsEv
lyx:_ZN3lyx9InsetText12setDrawFrameEb
lyx:_ZN3lyx9InsetText12updateBufferERKNS_11ParIteratorENS_10UpdateTypeEb
lyx:_ZN3lyx9InsetText13acceptChangesEv
lyx:_ZN3lyx9InsetText13rejectChangesEv
lyx:_ZN3lyx9InsetText13setFrameColorENS_9ColorCodeE
lyx:_ZN3lyx9InsetText16appendParagraphsERNS_13ParagraphListE
lyx:_ZN3lyx9InsetText16insertCompletionERNS_6CursorERKNSt7__cxx1112basic_stringIwSt11char_traitsIwESaIwEEEb
lyx:_ZN3lyx9InsetText17fixParagraphsFontEv
lyx:_ZN3lyx9InsetText18notifyCursorLeavesERKNS_6CursorERS1_
lyx:_ZN3lyx9InsetText19checkIntitleContextERKNS_11ParIteratorE
lyx:_ZN3lyx9InsetText32setMacrocontextPositionRecursiveERKNS_11DocIteratorE
lyx:_ZN3lyx9InsetText4editERNS_6CursorEbNS_5Inset14EntryDirectionE
lyx:_ZN3lyx9InsetText4readERNS_5LexerE
lyx:_ZN3lyx9InsetText5clearEv
lyx:_ZN3lyx9InsetText6editXYERNS_6CursorEii
lyx:_ZN3lyx9InsetText7setTextERKNSt7__cxx1112basic_stringIwSt11char_traitsIwESaIwEEERKNS_4FontEb
lyx:_ZN3lyx9InsetText9setBufferERNS_6BufferE
lyx:_ZN3lyx9InsetText9setChangeERKNS_6ChangeE
lyx:_ZN3lyx9InsetTextC1EPNS_6BufferENS0_8UsePlainE
lyx:_ZN3lyx9InsetTextC1ERKS0_
lyx:_ZN3lyx9InsetTextC2EPNS_6BufferENS0_8UsePlainE
lyx:_ZN3lyx9InsetTextC2ERKS0_
lyx:_ZN3lyx9InsetWrap10doDispatchERNS_6CursorERNS_11FuncRequestE
lyx:_ZN3lyx9InsetWrap12updateBufferERKNS_11ParIteratorENS_10UpdateTypeEb
lyx:_ZN3lyx9InsetWrap13params2stringB5cxx11ERKNS_15InsetWrapParamsE
lyx:_ZN3lyx9InsetWrap13string2paramsERKNSt7__cxx1112basic_stringIcSt11char_traitsIcESaIcEEERNS_15InsetWrapParamsE
lyx:_ZN3lyx9InsetWrap14setCaptionTypeERKNSt7__cxx1112basic_stringIcSt11char_traitsIcESaIcEEE
lyx:_ZN3lyx9InsetWrap4readERNS_5LexerE
lyx:_ZN3lyx9InsetWrapC1EPNS_6BufferERKNSt7__cxx1112basic_stringIcSt11char_traitsIcESaIcEEE
lyx:_ZN3lyx9InsetWrapC2EPNS_6BufferERKNSt7__cxx1112basic_stringIcSt11char_traitsIcESaIcEEE
lyx:_ZN3lyx9InsetWrapD0Ev
lyx:_ZN3lyx9InsetWrapD1Ev
lyx:_ZN3lyx9InsetWrapD2Ev
lyx:_ZN3lyx9KeySymbol4initERKNSt7__cxx1112basic_stringIcSt11char_traitsIcESaIcEEE
lyx:_ZN3lyx9KeySymbol4initEi
lyx:_ZN3lyx9LaTeXFont4readERNS_5LexerE
lyx:_ZN3lyx9LaTeXFont8readFontERNS_5LexerE
lyx:_ZN3lyx9Languages22readLayoutTranslationsERKNS_7support8FileNameE
lyx:_ZN3lyx9Languages4readERKNS_7support8FileNameE
lyx:_ZN3lyx9LyXAction4initEv
lyx:_ZN3lyx9LyXAction7newFuncENS_8FuncCodeERKNSt7__cxx1112basic_stringIcSt11char_traitsIcESaIcEEEjNS0_8FuncTypeE
lyx:_ZN3lyx9LyXActionC1Ev
lyx:_ZN3lyx9LyXActionC2Ev
lyx:_ZN3lyx9LyXModule13areCompatibleERKNSt7__cxx1112basic_stringIcSt11char_traitsIcESaIcEEES8_
lyx:_ZN3lyx9LyXModuleC1ERKNSt7__cxx1112basic_stringIcSt11char_traitsIcESaIcEEES8_S8_RKSt6vectorIS6_SaIS6_EESD_SD_S8_b
lyx:_ZN3lyx9LyXModuleC2ERKNSt7__cxx1112basic_stringIcSt11char_traitsIcESaIcEEES8_S8_RKSt6vectorIS6_SaIS6_EESD_SD_S8_b
lyx:_ZN3lyx9MacroDataC1EPKNS_6BufferE
lyx:_ZN3lyx9MacroDataC1EPKNS_6BufferERKNS_11DocIteratorE
lyx:_ZN3lyx9MacroDataC1EPKNS_6BufferERKNS_22InsetMathMacroTemplateE
lyx:_ZN3lyx9MacroDataC2EPKNS_6BufferE
lyx:_ZN3lyx9MacroDataC2EPKNS_6BufferERKNS_11DocIteratorE
lyx:_ZN3lyx9MacroDataC2EPKNS_6BufferERKNS_22InsetMathMacroTemplateE
lyx:_ZN3lyx9Paragraph10appendCharEwRKNS_4FontERKNS_6ChangeE
lyx:_ZN3lyx9Paragraph10changeCaseERKNS_12BufferParamsElRlNS_8TextCaseE
lyx:_ZN3lyx9Paragraph10eraseCharsEllb
lyx:_ZN3lyx9Paragraph10insertCharElwRKNS_4FontERKNS_6ChangeE
lyx:_ZN3lyx9Paragraph10insertCharElwRKNS_4FontEb
lyx:_ZN3lyx9Paragraph10insertCharElwb
lyx:_ZN3lyx9Paragraph10resetFontsERKNS_4FontE
lyx:_ZN3lyx9Paragraph11applyLayoutERKNS_6LayoutE
lyx:_ZN3lyx9Paragraph11insertInsetElPNS_5InsetERKNS_4FontERKNS_6ChangeE
lyx:_ZN3lyx9Paragraph11resetBufferEv
lyx:_ZN3lyx9Paragraph11updateWordsEv
lyx:_ZN3lyx9Paragraph12appendStringERKNSt7__cxx1112basic_stringIwSt11char_traitsIwESaIwEEERKNS_4FontERKNS_6ChangeE
lyx:_ZN3lyx9Paragraph12checkAuthorsERKNS_10AuthorListE
lyx:_ZN3lyx9Paragraph12collectWordsEv
lyx:_ZN3lyx9Paragraph12releaseInsetEl
lyx:_ZN3lyx9Paragraph13acceptChangesEll
lyx:_ZN3lyx9Paragraph13registerWordsEv
lyx:_ZN3lyx9Paragraph13rejectChangesEll
lyx:_ZN3lyx9Paragraph13setInsetOwnerEPKNS_5InsetE
lyx:_ZN3lyx9Paragraph14changeLanguageERKNS_12BufferParamsEPKNS_8LanguageES6_
lyx:_ZN3lyx9Paragraph14makeSameLayoutERKS0_
lyx:_ZN3lyx9Paragraph14setBeginOfBodyEv
lyx:_ZN3lyx9Paragraph14setPlainLayoutERKNS_13DocumentClassE
lyx:_ZN3lyx9Paragraph15deregisterWordsEv
lyx:_ZN3lyx9Paragraph15setInsetBuffersERNS_6BufferE
lyx:_ZN3lyx9Paragraph16setDefaultLayoutERKNS_13DocumentClassE
lyx:_ZN3lyx9Paragraph17requestSpellCheckEl
lyx:_ZN3lyx9Paragraph18stripLeadingSpacesEb
lyx:_ZN3lyx9Paragraph19setLabelWidthStringERKNSt7__cxx1112basic_stringIwSt11char_traitsIwESaIwEEE
lyx:_ZN3lyx9Paragraph23setPlainOrDefaultLayoutERKNS_13DocumentClassE
lyx:_ZN3lyx9Paragraph5setIdEi
lyx:_ZN3lyx9Paragraph6insertElRKNSt7__cxx1112basic_stringIwSt11char_traitsIwESaIwEEERKNS_4FontERKNS_6ChangeE
lyx:_ZN3lyx9Paragraph6paramsEv
lyx:_ZN3lyx9Paragraph7Private10insertCharElwRKNS_6ChangeE
lyx:_ZN3lyx9Paragraph7Private19markMisspelledWordsEPKNS_8LanguageERKlS6_NS_12SpellChecker6ResultERKNSt7__cxx1112basic_stringIwSt11char_traitsIwESaIwEEERKSt6vectorINS_8FontSpanESaISI_EE
lyx:_ZN3lyx9Paragraph7Private7make_idEv
lyx:_ZN3lyx9Paragraph7PrivateC1EPS0_RKNS_6LayoutE
lyx:_ZN3lyx9Paragraph7PrivateC1ERKS1_PS0_
lyx:_ZN3lyx9Paragraph7PrivateC1ERKS1_PS0_ll
lyx:_ZN3lyx9Paragraph7PrivateC2EPS0_RKNS_6LayoutE
lyx:_ZN3lyx9Paragraph7PrivateC2ERKS1_PS0_
lyx:_ZN3lyx9Paragraph7PrivateC2ERKS1_PS0_ll
lyx:_ZN3lyx9Paragraph7setFontElRKNS_4FontE
lyx:_ZN3lyx9Paragraph8getInsetEl
lyx:_ZN3lyx9Paragraph9anonymizeEv
lyx:_ZN3lyx9Paragraph9eraseCharElb
lyx:_ZN3lyx9Paragraph9fixBiblioERKNS_6BufferE
lyx:_ZN3lyx9Paragraph9setChangeERKNS_6ChangeE
lyx:_ZN3lyx9Paragraph9setChangeElRKNS_6ChangeE
lyx:_ZN3lyx9Paragraph9setLayoutERKNS_6LayoutE
lyx:_ZN3lyx9ParagraphC1ERKS0_
lyx:_ZN3lyx9ParagraphC1ERKS0_ll
lyx:_ZN3lyx9ParagraphC1Ev
lyx:_ZN3lyx9ParagraphC2ERKS0_
lyx:_ZN3lyx9ParagraphC2ERKS0_ll
lyx:_ZN3lyx9ParagraphC2Ev
lyx:_ZN3lyx9ParagraphD1Ev
lyx:_ZN3lyx9ParagraphD2Ev
lyx:_ZN3lyx9ParagraphaSERKS0_
lyx:_ZN3lyx9ParamInfo3addERKNSt7__cxx1112basic_stringIcSt11char_traitsIcESaIcEEENS0_9ParamTypeENS0_13ParamHandlingEbNS2_IwS3_IwESaIwEEE
lyx:_ZN3lyx9ParamInfo9ParamDataC1ERKNSt7__cxx1112basic_stringIcSt11char_traitsIcESaIcEEENS0_9ParamTypeENS0_13ParamHandlingEbNS3_IwS4_IwESaIwEEE
lyx:_ZN3lyx9ParamInfo9ParamDataC2ERKNSt7__cxx1112basic_stringIcSt11char_traitsIcESaIcEEENS0_9ParamTypeENS0_13ParamHandlingEbNS3_IwS4_IwESaIwEEE
lyx:_ZN3lyx9TeXErrors11insertErrorEiRKNSt7__cxx1112basic_stringIwSt11char_traitsIwESaIwEEES8_RKNS2_IcS3_IcESaIcEEE
lyx:_ZN3lyx9TeXErrors9insertRefEiRKNSt7__cxx1112basic_stringIwSt11char_traitsIwESaIwEEES8_RKNS2_IcS3_IcESaIcEEE
lyx:_ZN3lyx9TeXOneParERKNS_6BufferERKNS_4TextElRNS_10otexstreamERKNS_12OutputParamsERKNSt7__cxx1112basic_stringIcSt11char_traitsIcESaIcEEEiib
lyx:_ZN3lyx9TexString8validateEv
lyx:_ZN3lyx9TexStringC1ENSt7__cxx1112basic_stringIwSt11char_traitsIwESaIwEEE
lyx:_ZN3lyx9TexStringC1ENSt7__cxx1112basic_stringIwSt11char_traitsIwESaIwEEENS_6TexRowE
lyx:_ZN3lyx9TexStringC2ENSt7__cxx1112basic_stringIwSt11char_traitsIwESaIwEEE
lyx:_ZN3lyx9TexStringC2ENSt7__cxx1112basic_stringIwSt11char_traitsIwESaIwEEENS_6TexRowE
lyx:_ZN3lyx9TextClass12deleteLayoutERKNSt7__cxx1112basic_stringIwSt11char_traitsIwESaIwEEE
lyx:_ZN3lyx9TextClass13plain_layout_B5cxx11E
lyx:_ZN3lyx9TextClass13readTitleTypeERNS_5LexerE
lyx:_ZN3lyx9TextClass14readCiteEngineERNS_5LexerENS0_8ReadTypeEb
lyx:_ZN3lyx9TextClass14readCiteFormatERNS_5LexerENS0_8ReadTypeE
lyx:_ZN3lyx9TextClass14readOutputTypeERNS_5LexerE
lyx:_ZN3lyx9TextClass15readWithoutConvERKNS_7support8FileNameENS0_8ReadTypeE
lyx:_ZN3lyx9TextClass16readClassOptionsERNS_5LexerE
lyx:_ZN3lyx9TextClass16readOutlinerNameERNS_5LexerE
lyx:_ZN3lyx9TextClass17deleteInsetLayoutERKNSt7__cxx1112basic_stringIwSt11char_traitsIwESaIwEEE
lyx:_ZN3lyx9TextClass19convertLayoutFormatERKNS_7support8FileNameENS0_8ReadTypeE
lyx:_ZN3lyx9TextClass4readERKNS_7support8FileNameENS0_8ReadTypeE
lyx:_ZN3lyx9TextClass4readERKNSt7__cxx1112basic_stringIcSt11char_traitsIcESaIcEEENS0_8ReadTypeE
lyx:_ZN3lyx9TextClass4readERNS_5LexerENS0_8ReadTypeE
lyx:_ZN3lyx9TextClass7convertERKNSt7__cxx1112basic_stringIcSt11char_traitsIcESaIcEEE
lyx:_ZN3lyx9TextClass8validateERKNSt7__cxx1112basic_stringIcSt11char_traitsIcESaIcEEE
lyx:_ZN3lyx9TextClass9getLayoutERKNSt7__cxx1112basic_stringIwSt11char_traitsIwESaIwEEE
lyx:_ZN3lyx9TextClass9readFloatERNS_5LexerE
lyx:_ZN3lyx9TextClassC1Ev
lyx:_ZN3lyx9TextClassC2Ev
lyx:_ZN3lyx9TextClassixERKNSt7__cxx1112basic_stringIwSt11char_traitsIwESaIwEEE
lyx:_ZN3lyx9Thesaurus6lookupB5cxx11ERKNS_13WordLangTupleE
lyx:_ZN3lyx9Thesaurus7Private12addThesaurusERKNSt7__cxx1112basic_stringIwSt11char_traitsIwESaIwEEE
lyx:_ZN3lyx9Thesaurus7Private12getThesaurusERKNSt7__cxx1112basic_stringIcSt11char_traitsIcESaIcEEERKNS3_IwS4_IwESaIwEEE
lyx:_ZN3lyx9Thesaurus7Private12getThesaurusERKNSt7__cxx1112basic_stringIwSt11char_traitsIwESaIwEEE
lyx:_ZN3lyx9ThesaurusC1Ev
lyx:_ZN3lyx9ThesaurusC2Ev
lyx:_ZN3lyx9ThesaurusD1Ev
lyx:_ZN3lyx9ThesaurusD2Ev
lyx:_ZN3lyx9XMLStream10writeErrorERKNSt7__cxx1112basic_stringIcSt11char_traitsIcESaIcEEE
lyx:_ZN3lyx9XMLStream10writeErrorERKNSt7__cxx1112basic_stringIwSt11char_traitsIwESaIwEEE
lyx:_ZN3lyx9XMLStream11endDivisionEv
lyx:_ZN3lyx9XMLStream13clearTagDequeEv
lyx:_ZN3lyx9XMLStream13closeFontTagsEv
lyx:_ZN3lyx9XMLStream13startDivisionEb
lyx:_ZN3lyx9XMLStream15getLastStackTagEv
lyx:_ZN3lyx9XMLStreamlsENS0_14EscapeSettingsE
lyx:_ZN3lyx9XMLStreamlsEPKc
lyx:_ZN3lyx9XMLStreamlsERKNS_3xml2CRE
lyx:_ZN3lyx9XMLStreamlsERKNS_3xml6EndTagE
lyx:_ZN3lyx9XMLStreamlsERKNS_3xml6ParTagE
lyx:_ZN3lyx9XMLStreamlsERKNS_3xml7CompTagE
lyx:_ZN3lyx9XMLStreamlsERKNS_3xml7FontTagE
lyx:_ZN3lyx9XMLStreamlsERKNS_3xml7NullTagE
lyx:_ZN3lyx9XMLStreamlsERKNS_3xml8StartTagE
lyx:_ZN3lyx9XMLStreamlsERKNSt7__cxx1112basic_stringIwSt11char_traitsIwESaIwEEE
lyx:_ZN3lyx9XMLStreamlsEc
lyx:_ZN3lyx9XMLStreamlsEi
lyx:_ZN3lyx9XMLStreamlsEw
lyx:_ZN3lyx9alignTagsE
lyx:_ZN3lyx9encodingsE
lyx:_ZN3lyx9fontinfosE
lyx:_ZN3lyx9from_utf8ERKNSt7__cxx1112basic_stringIcSt11char_traitsIcESaIcEEE
lyx:_ZN3lyx9getStatusERKNS_11FuncRequestE
lyx:_ZN3lyx9getkeymodERKNSt7__cxx1112basic_stringIcSt11char_traitsIcESaIcEEE
lyx:_ZN3lyx9insetCodeERKNSt7__cxx1112basic_stringIcSt11char_traitsIcESaIcEEE
lyx:_ZN3lyx9insetNameB5cxx11ENS_9InsetCodeE
lyx:_ZN3lyx9languagesE
lyx:_ZN3lyx9lyxactionE
lyx:_ZN3lyx9mathed_muERKNS_8FontInfoEd
lyx:_ZN3lyx9mathmlizeERKNS_8MathDataERNS_12MathMLStreamE
lyx:_ZN3lyx9normalizeERKNS_8MathDataERNS_12NormalStreamE
lyx:_ZN3lyx9num_unitsE
lyx:_ZN3lyx9readInsetERNS_5LexerEPNS_6BufferE
lyx:_ZN3lyx9sane_fontE
lyx:_ZN3lyx9setLocaleEv
lyx:_ZN3lyx9splitCellERNS_14InsetTableCellERKNSt7__cxx1112basic_stringIwSt11char_traitsIwESaIwEEERb
lyx:_ZN3lyx9theMoversEv
lyx:_ZN3lyx9theServerEv
lyx:_ZN3lyx9thesaurusE
lyx:_ZN3lyx9unit_nameE
lyx:_ZN3lyxeqENS_6TexRow8RowEntryES1_
lyx:_ZN3lyxeqERKNS_10GlueLengthES2_
lyx:_ZN3lyxeqERKNS_11CursorSliceES2_
lyx:_ZN3lyxeqERKNS_11FuncRequestES2_
lyx:_ZN3lyxeqERKNS_12ExportedFileES2_
lyx:_ZN3lyxeqERKNS_17StableDocIteratorES2_
lyx:_ZN3lyxeqERKNS_18InsetCommandParamsES2_
lyx:_ZN3lyxeqERKNS_19InsetGraphicsParamsES2_
lyx:_ZN3lyxeqERKNS_3xml6EndTagERKNS0_8StartTagE
lyx:_ZN3lyxeqERKNS_3xml8StartTagES3_
lyx:_ZN3lyxeqERKNS_6AuthorES2_
lyx:_ZN3lyxeqERKNS_6BulletES2_
lyx:_ZN3lyxeqERKNS_6ChangeES2_
lyx:_ZN3lyxeqERKNS_7AuxInfoES2_
lyx:_ZN3lyxeqERKNS_7Changes5RangeES3_
lyx:_ZN3lyxeqERKNSt7__cxx1112basic_stringIwSt11char_traitsIwESaIwEEEPKc
lyx:_ZN3lyxgtERKNS_11CursorSliceES2_
lyx:_ZN3lyxleERKNS_11CursorSliceES2_
lyx:_ZN3lyxlsERNS_10HtmlStreamEPKc
lyx:_ZN3lyxlsERNS_10HtmlStreamERKNS_4ETagE
lyx:_ZN3lyxlsERNS_10HtmlStreamERKNS_4MTagE
lyx:_ZN3lyxlsERNS_10HtmlStreamERKNS_8MathAtomE
lyx:_ZN3lyxlsERNS_10HtmlStreamERKNS_8MathDataE
lyx:_ZN3lyxlsERNS_10HtmlStreamERKNSt7__cxx1112basic_stringIwSt11char_traitsIwESaIwEEE
lyx:_ZN3lyxlsERNS_10HtmlStreamEc
lyx:_ZN3lyxlsERNS_10HtmlStreamEw
lyx:_ZN3lyxlsERNS_10otexstreamENS_13SafeBreakLineE
lyx:_ZN3lyxlsERNS_10otexstreamENS_16TerminateCommandE
lyx:_ZN3lyxlsERNS_10otexstreamENS_9BreakLineE
lyx:_ZN3lyxlsERNS_10otexstreamENS_9TexStringE
lyx:_ZN3lyxlsERNS_10otexstreamEPFRSt13basic_ostreamIwSt11char_traitsIwEES6_E
lyx:_ZN3lyxlsERNS_10otexstreamEPKc
lyx:_ZN3lyxlsERNS_10otexstreamERKNSt7__cxx1112basic_stringIcSt11char_traitsIcESaIcEEE
lyx:_ZN3lyxlsERNS_10otexstreamERKNSt7__cxx1112basic_stringIwSt11char_traitsIwESaIwEEE
lyx:_ZN3lyxlsERNS_10otexstreamEc
lyx:_ZN3lyxlsERNS_11MapleStreamEPKc
lyx:_ZN3lyxlsERNS_11MapleStreamERKNS_8MathAtomE
lyx:_ZN3lyxlsERNS_11MapleStreamERKNS_8MathDataE
lyx:_ZN3lyxlsERNS_11MapleStreamERKNSt7__cxx1112basic_stringIwSt11char_traitsIwESaIwEEE
lyx:_ZN3lyxlsERNS_11MapleStreamEc
lyx:_ZN3lyxlsERNS_11MapleStreamEi
lyx:_ZN3lyxlsERNS_11MapleStreamEw
lyx:_ZN3lyxlsERNS_12MathMLStreamEPKc
lyx:_ZN3lyxlsERNS_12MathMLStreamERKNS_10ETagInlineE
lyx:_ZN3lyxlsERNS_12MathMLStreamERKNS_10MTagInlineE
lyx:_ZN3lyxlsERNS_12MathMLStreamERKNS_4CTagE
lyx:_ZN3lyxlsERNS_12MathMLStreamERKNS_4ETagE
lyx:_ZN3lyxlsERNS_12MathMLStreamERKNS_4MTagE
lyx:_ZN3lyxlsERNS_12MathMLStreamERKNS_8MathAtomE
lyx:_ZN3lyxlsERNS_12MathMLStreamERKNS_8MathDataE
lyx:_ZN3lyxlsERNS_12MathMLStreamERKNSt7__cxx1112basic_stringIwSt11char_traitsIwESaIwEEE
lyx:_ZN3lyxlsERNS_12MathMLStreamEc
lyx:_ZN3lyxlsERNS_12MathMLStreamEw
lyx:_ZN3lyxlsERNS_12MaximaStreamEPKc
lyx:_ZN3lyxlsERNS_12MaximaStreamERKNS_8MathAtomE
lyx:_ZN3lyxlsERNS_12MaximaStreamERKNS_8MathDataE
lyx:_ZN3lyxlsERNS_12MaximaStreamERKNSt7__cxx1112basic_stringIwSt11char_traitsIwESaIwEEE
lyx:_ZN3lyxlsERNS_12MaximaStreamEc
lyx:_ZN3lyxlsERNS_12MaximaStreamEi
lyx:_ZN3lyxlsERNS_12MaximaStreamEw
lyx:_ZN3lyxlsERNS_12NormalStreamEPKc
lyx:_ZN3lyxlsERNS_12NormalStreamERKNS_8MathAtomE
lyx:_ZN3lyxlsERNS_12NormalStreamERKNS_8MathDataE
lyx:_ZN3lyxlsERNS_12NormalStreamERKNSt7__cxx1112basic_stringIcSt11char_traitsIcESaIcEEE
lyx:_ZN3lyxlsERNS_12NormalStreamERKNSt7__cxx1112basic_stringIwSt11char_traitsIwESaIwEEE
lyx:_ZN3lyxlsERNS_12NormalStreamEc
lyx:_ZN3lyxlsERNS_12NormalStreamEi
lyx:_ZN3lyxlsERNS_12OctaveStreamEPKc
lyx:_ZN3lyxlsERNS_12OctaveStreamERKNS_8MathAtomE
lyx:_ZN3lyxlsERNS_12OctaveStreamERKNS_8MathDataE
lyx:_ZN3lyxlsERNS_12OctaveStreamERKNSt7__cxx1112basic_stringIcSt11char_traitsIcESaIcEEE
lyx:_ZN3lyxlsERNS_12OctaveStreamERKNSt7__cxx1112basic_stringIwSt11char_traitsIwESaIwEEE
lyx:_ZN3lyxlsERNS_12OctaveStreamEc
lyx:_ZN3lyxlsERNS_12OctaveStreamEi
lyx:_ZN3lyxlsERNS_12OctaveStreamEw
lyx:_ZN3lyxlsERNS_13TeXMathStreamEPKc
lyx:_ZN3lyxlsERNS_13TeXMathStreamERKNS_8MathAtomE
lyx:_ZN3lyxlsERNS_13TeXMathStreamERKNS_8MathDataE
lyx:_ZN3lyxlsERNS_13TeXMathStreamERKNSt7__cxx1112basic_stringIwSt11char_traitsIwESaIwEEE
lyx:_ZN3lyxlsERNS_13TeXMathStreamEc
lyx:_ZN3lyxlsERNS_13TeXMathStreamEi
lyx:_ZN3lyxlsERNS_13TeXMathStreamEj
lyx:_ZN3lyxlsERNS_13otexrowstreamENS_9TexStringE
lyx:_ZN3lyxlsERNS_13otexrowstreamEPFRSt13basic_ostreamIwSt11char_traitsIwEES6_E
lyx:_ZN3lyxlsERNS_13otexrowstreamEPKc
lyx:_ZN3lyxlsERNS_13otexrowstreamERKNSt7__cxx1112basic_stringIcSt11char_traitsIcESaIcEEE
lyx:_ZN3lyxlsERNS_13otexrowstreamERKNSt7__cxx1112basic_stringIwSt11char_traitsIwESaIwEEE
lyx:_ZN3lyxlsERNS_13otexrowstreamEc
lyx:_ZN3lyxlsERNS_17MathematicaStreamEPKc
lyx:_ZN3lyxlsERNS_17MathematicaStreamERKNS_8MathAtomE
lyx:_ZN3lyxlsERNS_17MathematicaStreamERKNS_8MathDataE
lyx:_ZN3lyxlsERNS_17MathematicaStreamERKNSt7__cxx1112basic_stringIwSt11char_traitsIwESaIwEEE
lyx:_ZN3lyxlsERNS_17MathematicaStreamEc
lyx:_ZN3lyxlsERNS_17MathematicaStreamEi
lyx:_ZN3lyxlsERNS_17MathematicaStreamEw
lyx:_ZN3lyxlsERNS_6LyXErrENS_8FuncCodeE
lyx:_ZN3lyxlsERNS_6LyXErrEPFRSoS2_E
lyx:_ZN3lyxlsERNS_6LyXErrEPFRSt8ios_baseS3_E
lyx:_ZN3lyxlsERNS_6LyXErrEPKc
lyx:_ZN3lyxlsERNS_6LyXErrEPKv
lyx:_ZN3lyxlsERNS_6LyXErrERK7QString
lyx:_ZN3lyxlsERNS_6LyXErrERKNS_10CursorDataE
lyx:_ZN3lyxlsERNS_6LyXErrERKNS_11DocIteratorE
lyx:_ZN3lyxlsERNS_6LyXErrERKNS_11FuncRequestE
lyx:_ZN3lyxlsERNS_6LyXErrERKNS_19ParagraphParametersE
lyx:_ZN3lyxlsERNS_6LyXErrERKNS_7support8FileNameE
lyx:_ZN3lyxlsERNS_6LyXErrERKNSt7__cxx1112basic_stringIcSt11char_traitsIcESaIcEEE
lyx:_ZN3lyxlsERNS_6LyXErrERKNSt7__cxx1112basic_stringIwSt11char_traitsIwESaIwEEE
lyx:_ZN3lyxlsERNS_6LyXErrEc
lyx:_ZN3lyxlsERNS_6LyXErrEd
lyx:_ZN3lyxlsERNS_6LyXErrEi
lyx:_ZN3lyxlsERNS_6LyXErrEj
lyx:_ZN3lyxlsERNS_6LyXErrEl
lyx:_ZN3lyxlsERNS_6LyXErrEm
lyx:_ZN3lyxlsERNS_6LyXErrEx
lyx:_ZN3lyxlsERNS_6LyXErrEy
lyx:_ZN3lyxlsERNSt7__cxx1119basic_ostringstreamIcSt11char_traitsIcESaIcEEERKNS_21FindAndReplaceOptionsE
lyx:_ZN3lyxlsERSoNS_5ColorE
lyx:_ZN3lyxlsERSoNS_9FontStateE
lyx:_ZN3lyxlsERSoNS_9PageSidesE
lyx:_ZN3lyxlsERSoRKNS_10AuthorListE
lyx:_ZN3lyxlsERSoRKNS_10CursorDataE
lyx:_ZN3lyxlsERSoRKNS_11CursorSliceE
lyx:_ZN3lyxlsERSoRKNS_11DocIteratorE
lyx:_ZN3lyxlsERSoRKNS_11FuncRequestE
lyx:_ZN3lyxlsERSoRKNS_17StableDocIteratorE
lyx:_ZN3lyxlsERSoRKNS_3BoxE
lyx:_ZN3lyxlsERSoRKNS_3Row7ElementE
lyx:_ZN3lyxlsERSoRKNS_3RowE
lyx:_ZN3lyxlsERSoRKNS_4FontE
lyx:_ZN3lyxlsERSoRKNS_6AuthorE
lyx:_ZN3lyxlsERSoRKNS_7MathRow7ElementE
lyx:_ZN3lyxlsERSoRKNS_7MathRowE
lyx:_ZN3lyxlsERSoRKNS_8FontInfoE
lyx:_ZN3lyxlsERSoRKNS_8MathAtomE
lyx:_ZN3lyxlsERSoRKNS_8MathDataE
lyx:_ZN3lyxlsERSoRKSt6vectorINS_3Row7ElementESaIS3_EE
lyx:_ZN3lyxlsERSt13basic_istreamIwSt11char_traitsIwEERKNS_6SetEncE
lyx:_ZN3lyxlsERSt13basic_ostreamIwSt11char_traitsIwEERKNS_6SetEncE
lyx:_ZN3lyxlsERSt13basic_ostreamIwSt11char_traitsIwEERKNS_8MathAtomE
lyx:_ZN3lyxlsERSt13basic_ostreamIwSt11char_traitsIwEERKNS_8MathDataE
lyx:_ZN3lyxltERKNS_10IndexEntryES2_
lyx:_ZN3lyxltERKNS_11CursorSliceES2_
lyx:_ZN3lyxltERKNS_6FormatES2_
lyx:_ZN3lyxneERKNS_11CursorSliceES2_
lyx:_ZN3lyxneERKNS_11FuncRequestES2_
lyx:_ZN3lyxneERKNS_18InsetCommandParamsES2_
lyx:_ZN3lyxneERKNS_19InsetGraphicsParamsES2_
lyx:_ZN3lyxneERKNS_3xml6EndTagERKNS0_8StartTagE
lyx:_ZN3lyxneERKNS_3xml8StartTagES3_
lyx:_ZN3lyxneERKNS_6ChangeES2_
lyx:_ZN3lyxneERKNS_7AuxInfoES2_
lyx:_ZN3lyxneERKNS_7Changes5RangeES3_
lyx:_ZN3lyxorENS_9InsetText12XHTMLOptionsES1_
lyx:_ZN3lyxpLERNSt7__cxx1112basic_stringIwSt11char_traitsIwESaIwEEEPKc
lyx:_ZN3lyxpLERNSt7__cxx1112basic_stringIwSt11char_traitsIwESaIwEEEc
lyx:_ZN3lyxplEPKcRKNSt7__cxx1112basic_stringIwSt11char_traitsIwESaIwEEE
lyx:_ZN3lyxplERKNSt7__cxx1112basic_stringIwSt11char_traitsIwESaIwEEEPKc
lyx:_ZN3lyxplERKNSt7__cxx1112basic_stringIwSt11char_traitsIwESaIwEEEc
lyx:_ZN3lyxplEcRKNSt7__cxx1112basic_stringIwSt11char_traitsIwESaIwEEE
lyx:_ZN3lyxrsERNSt7__cxx1119basic_istringstreamIcSt11char_traitsIcESaIcEEERNS_21FindAndReplaceOptionsE
lyx:_ZN3lyxrsERSiRNS_6AuthorE
lyx:_ZN7enchant6Broker10m_instanceE
lyx:_ZNK10EmptyTable10metaObjectEv
lyx:_ZNK10EmptyTable8sizeHintEv
lyx:_ZNK12GuiSetBorder10metaObjectEv
lyx:_ZNK14GuiFontExample8minWidthEv
lyx:_ZNK14GuiFontExample8sizeHintEv
lyx:_ZNK3lyx10AuthorList3endEv
lyx:_ZNK3lyx10AuthorList3getEi
lyx:_ZNK3lyx10AuthorList5beginEv
lyx:_ZNK3lyx10BibTeXInfo11getLocatorsERNSt7__cxx1112basic_stringIwSt11char_traitsIwESaIwEEES7_S7_
lyx:_ZNK3lyx10BibTeXInfo12expandFormatERKNSt7__cxx1112basic_stringIwSt11char_traitsIwESaIwEEERKSt6vectorIPKS0_SaISB_EERiRKNS_6BufferERKNS_8CiteItemEbb
lyx:_ZNK3lyx10BibTeXInfo13getAuthorListEPKNS_6BufferERKNSt7__cxx1112basic_stringIwSt11char_traitsIwESaIwEEEmbbbb
lyx:_ZNK3lyx10BibTeXInfo14getValueForKeyERKNSt7__cxx1112basic_stringIcSt11char_traitsIcESaIcEEERKNS_6BufferERKNS_8CiteItemERKSt6vectorIPKS0_SaISH_EEm
lyx:_ZNK3lyx10BibTeXInfo21getAuthorOrEditorListB5cxx11EPKNS_6BufferEmbb
lyx:_ZNK3lyx10BibTeXInfo7getInfoERKSt6vectorIPKS0_SaIS3_EERKNS_6BufferERKNS_8CiteItemERKNSt7__cxx1112basic_stringIwSt11char_traitsIwESaIwEEE
lyx:_ZNK3lyx10BibTeXInfo7getYearB5cxx11Ev
lyx:_ZNK3lyx10BibTeXInfo8getLabelERKSt6vectorIPKS0_SaIS3_EERKNS_6BufferERKNSt7__cxx1112basic_stringIwSt11char_traitsIwESaIwEEERKNS_8CiteItemEbb
lyx:_ZNK3lyx10BibTeXInfoixERKNSt7__cxx1112basic_stringIcSt11char_traitsIcESaIcEEE
lyx:_ZNK3lyx10BibTeXInfoixERKNSt7__cxx1112basic_stringIwSt11char_traitsIwESaIwEEE
lyx:_ZNK3lyx10BiblioInfo10getEntriesB5cxx11Ev
lyx:_ZNK3lyx10BiblioInfo11getLocatorsERKNSt7__cxx1112basic_stringIwSt11char_traitsIwESaIwEEERS6_S9_S9_
lyx:_ZNK3lyx10BiblioInfo13getCiteNumberERKNSt7__cxx1112basic_stringIwSt11char_traitsIwESaIwEEE
lyx:_ZNK3lyx10BiblioInfo14getCiteStringsERKSt6vectorINSt7__cxx1112basic_stringIwSt11char_traitsIwESaIwEEESaIS7_EERKS1_INS_13CitationStyleESaISC_EERKNS_6BufferERKNS_8CiteItemE
lyx:_ZNK3lyx10BiblioInfo21getAuthorOrEditorListERKNSt7__cxx1112basic_stringIwSt11char_traitsIwESaIwEEERKNS_6BufferEm
lyx:_ZNK3lyx10BiblioInfo7getInfoERKNSt7__cxx1112basic_stringIwSt11char_traitsIwESaIwEEERKNS_6BufferERKNS_8CiteItemES8_
lyx:_ZNK3lyx10BiblioInfo7getKeysB5cxx11Ev
lyx:_ZNK3lyx10BiblioInfo7getYearERKNSt7__cxx1112basic_stringIwSt11char_traitsIwESaIwEEERKNS_6BufferEb
lyx:_ZNK3lyx10BiblioInfo7getYearERKNSt7__cxx1112basic_stringIwSt11char_traitsIwESaIwEEEb
lyx:_ZNK3lyx10BiblioInfo8getLabelESt6vectorINSt7__cxx1112basic_stringIwSt11char_traitsIwESaIwEEESaIS7_EERKNS_6BufferERKNS3_IcS4_IcESaIcEEERKNS_8CiteItemE
lyx:_ZNK3lyx10BiblioInfo8getXRefsB5cxx11ERKNS_10BibTeXInfoEb
lyx:_ZNK3lyx10BiblioInfo8isBibtexERKNSt7__cxx1112basic_stringIwSt11char_traitsIwESaIwEEE
lyx:_ZNK3lyx10BiblioInfo9getFieldsB5cxx11Ev
lyx:_ZNK3lyx10BranchList17getFileNameSuffixB5cxx11Ev
lyx:_ZNK3lyx10BranchList4findERKNSt7__cxx1112basic_stringIwSt11char_traitsIwESaIwEEE
lyx:_ZNK3lyx10BufferList10isInternalEPKNS_6BufferE
lyx:_ZNK3lyx10BufferList13isOthersChildEPNS_6BufferES2_
lyx:_ZNK3lyx10BufferList24invalidateConverterCacheEv
lyx:_ZNK3lyx10BufferList3endEv
lyx:_ZNK3lyx10BufferList4nextEPKNS_6BufferE
lyx:_ZNK3lyx10BufferList5beginEv
lyx:_ZNK3lyx10BufferList5emptyEv
lyx:_ZNK3lyx10BufferList6existsERKNS_7support8FileNameE
lyx:_ZNK3lyx10BufferList7changedEb
lyx:_ZNK3lyx10BufferList8isLoadedEPKNS_6BufferE
lyx:_ZNK3lyx10BufferList8previousEPKNS_6BufferE
lyx:_ZNK3lyx10BufferList9bufferNumERKNS_7support8FileNameE
lyx:_ZNK3lyx10BufferList9fileNamesEv
lyx:_ZNK3lyx10BufferList9getBufferERKNS_7support8FileNameEb
lyx:_ZNK3lyx10BufferView10coordCacheEv
lyx:_ZNK3lyx10BufferView10hasMathRowEPKNS_8MathDataE
lyx:_ZNK3lyx10BufferView10leftMarginEv
lyx:_ZNK3lyx10BufferView10parMetricsEPKNS_4TextEl
lyx:_ZNK3lyx10BufferView10workHeightEv
lyx:_ZNK3lyx10BufferView11caretInViewEv
lyx:_ZNK3lyx10BufferView11contextMenuB5cxx11Eii
lyx:_ZNK3lyx10BufferView11coordOffsetERKNS_11DocIteratorE
lyx:_ZNK3lyx10BufferView11editedInsetERKNSt7__cxx1112basic_stringIcSt11char_traitsIcESaIcEEE
lyx:_ZNK3lyx10BufferView11hasPositionERKNS_11DocIteratorE
lyx:_ZNK3lyx10BufferView11isTopScreenEv
lyx:_ZNK3lyx10BufferView11rightMarginEv
lyx:_ZNK3lyx10BufferView11textMetricsEPKNS_4TextE
lyx:_ZNK3lyx10BufferView12bottomMarginEv
lyx:_ZNK3lyx10BufferView12cursorStatusERKNS_11DocIteratorE
lyx:_ZNK3lyx10BufferView12zoomedPixelsEi
lyx:_ZNK3lyx10BufferView13caretGeometryEv
lyx:_ZNK3lyx10BufferView13defaultMarginEv
lyx:_ZNK3lyx10BufferView14caretPosAndDimERNS_5PointERNS_9DimensionE
lyx:_ZNK3lyx10BufferView14clearLastInsetEPNS_5InsetE
lyx:_ZNK3lyx10BufferView14clickableInsetEv
lyx:_ZNK3lyx10BufferView14isBottomScreenEv
lyx:_ZNK3lyx10BufferView14mouseSelectingEv
lyx:_ZNK3lyx10BufferView14needsFitCursorEv
lyx:_ZNK3lyx10BufferView15mathContextMenuEPKNS_13InsetMathNestERKNS_14CoordCacheBaseINS_5InsetEEEii
lyx:_ZNK3lyx10BufferView16getCoveringInsetERKNS_4TextEii
lyx:_ZNK3lyx10BufferView16getCurrentChangeEv
lyx:_ZNK3lyx10BufferView16inlineCompletionB5cxx11Ev
lyx:_ZNK3lyx10BufferView17horizScrollOffsetEPKNS_4TextEll
lyx:_ZNK3lyx10BufferView17horizScrollOffsetEv
lyx:_ZNK3lyx10BufferView17stats_ref_value_cEv
lyx:_ZNK3lyx10BufferView17stats_ref_value_wEv
lyx:_ZNK3lyx10BufferView18clickableMathInsetEPKNS_13InsetMathNestERKNS_14CoordCacheBaseINS_5InsetEEEii
lyx:_ZNK3lyx10BufferView18searchRequestCacheB5cxx11Ev
lyx:_ZNK3lyx10BufferView18stats_ref_value_nbEv
lyx:_ZNK3lyx10BufferView18updateHoveredInsetEv
lyx:_ZNK3lyx10BufferView19inlineCompletionPosEv
lyx:_ZNK3lyx10BufferView19scrollbarParametersEv
lyx:_ZNK3lyx10BufferView27inlineCompletionUniqueCharsEv
lyx:_ZNK3lyx10BufferView4busyEv
lyx:_ZNK3lyx10BufferView6bufferEv
lyx:_ZNK3lyx10BufferView6cursorEv
lyx:_ZNK3lyx10BufferView6getPosERKNS_11DocIteratorE
lyx:_ZNK3lyx10BufferView7getIntlEv
lyx:_ZNK3lyx10BufferView7mathRowEPKNS_8MathDataE
lyx:_ZNK3lyx10BufferView7toolTipB5cxx11Eii
lyx:_ZNK3lyx10BufferView8inPixelsERKNS_6LengthE
lyx:_ZNK3lyx10BufferView9topMarginEv
lyx:_ZNK3lyx10BufferView9workWidthEv
lyx:_ZNK3lyx10ColorCache10isDarkModeEv
lyx:_ZNK3lyx10ColorCache3getERKNS_5ColorE
lyx:_ZNK3lyx10ColorCache3getERKNS_5ColorEb
lyx:_ZNK3lyx10ColorCache8isSystemENS_9ColorCodeE
lyx:_ZNK3lyx10Converters12formatIsUsedERKNSt7__cxx1112basic_stringIcSt11char_traitsIcESaIcEEE
lyx:_ZNK3lyx10Converters12getConverterERKNSt7__cxx1112basic_stringIcSt11char_traitsIcESaIcEEES8_
lyx:_ZNK3lyx10Converters17getHyperrefDriverB5cxx11ERKSt6vectorIiSaIiEE
lyx:_ZNK3lyx10Converters6saversB5cxx11Ev
lyx:_ZNK3lyx10Converters7loadersB5cxx11Ev
lyx:_ZNK3lyx10Converters9getFlavorERKSt6vectorIiSaIiEEPKNS_6BufferE
lyx:_ZNK3lyx10Converters9getNumberERKNSt7__cxx1112basic_stringIcSt11char_traitsIcESaIcEEES8_
lyx:_ZNK3lyx10CoordCache4dumpEv
lyx:_ZNK3lyx10CursorData10finishUndoEv
lyx:_ZNK3lyx10CursorData10recordUndoENS_8UndoKindE
lyx:_ZNK3lyx10CursorData10recordUndoEl
lyx:_ZNK3lyx10CursorData10recordUndoEll
lyx:_ZNK3lyx10CursorData11currentModeEv
lyx:_ZNK3lyx10CursorData12currentStateB5cxx11Eb
lyx:_ZNK3lyx10CursorData12endUndoGroupEv
lyx:_ZNK3lyx10CursorData12normalAnchorEv
lyx:_ZNK3lyx10CursorData12selectionEndEv
lyx:_ZNK3lyx10CursorData14beginUndoGroupEv
lyx:_ZNK3lyx10CursorData14selectionBeginEv
lyx:_ZNK3lyx10CursorData14splitUndoGroupEv
lyx:_ZNK3lyx10CursorData15confirmDeletionEb
lyx:_ZNK3lyx10CursorData15recordUndoInsetEPKNS_5InsetE
lyx:_ZNK3lyx10CursorData16insetInSelectionERKNS_9InsetCodeE
lyx:_ZNK3lyx10CursorData17selectionAsStringB5cxx11Ebb
lyx:_ZNK3lyx10CursorData19recordUndoSelectionEv
lyx:_ZNK3lyx10CursorData20recordUndoFullBufferEv
lyx:_ZNK3lyx10CursorData22countInsetsInSelectionERKNS_9InsetCodeE
lyx:_ZNK3lyx10CursorData22recordUndoBufferParamsEv
lyx:_ZNK3lyx10CursorData4infoERSt13basic_ostreamIwSt11char_traitsIwEEb
lyx:_ZNK3lyx10CursorData6selEndEv
lyx:_ZNK3lyx10CursorData8selBeginEv
lyx:_ZNK3lyx10ExportData13externalFilesERKNSt7__cxx1112basic_stringIcSt11char_traitsIcESaIcEEE
lyx:_ZNK3lyx10FuncStatus5onOffEb
lyx:_ZNK3lyx10FuncStatus7enabledEv
lyx:_ZNK3lyx10FuncStatus7messageB5cxx11Ev
lyx:_ZNK3lyx10FuncStatus7unknownEv
lyx:_ZNK3lyx10GlueLength13asLatexStringB5cxx11Ev
lyx:_ZNK3lyx10GlueLength8asStringB5cxx11Ev
lyx:_ZNK3lyx10HtmlStream8deferredB5cxx11Ev
lyx:_ZNK3lyx10InsetFloat10getCaptionERKNS_12OutputParamsE
lyx:_ZNK3lyx10InsetFloat10layoutNameB5cxx11Ev
lyx:_ZNK3lyx10InsetFloat11getCtObjectERKNS_12OutputParamsE
lyx:_ZNK3lyx10InsetFloat12getAlignmentB5cxx11Ev
lyx:_ZNK3lyx10InsetFloat12insetAllowedENS_9InsetCodeE
lyx:_ZNK3lyx10InsetFloat14hasSubCaptionsERKNS_11ParIteratorE
lyx:_ZNK3lyx10InsetFloat16contentAlignmentEv
lyx:_ZNK3lyx10InsetFloat22allowsCaptionVariationERKNSt7__cxx1112basic_stringIcSt11char_traitsIcESaIcEEE
lyx:_ZNK3lyx10InsetFloat5latexERNS_10otexstreamERKNS_12OutputParamsE
lyx:_ZNK3lyx10InsetFloat5writeERSo
lyx:_ZNK3lyx10InsetFloat5xhtmlB5cxx11ERNS_9XMLStreamERKNS_12OutputParamsE
lyx:_ZNK3lyx10InsetFloat7docbookERNS_9XMLStreamERKNS_12OutputParamsE
lyx:_ZNK3lyx10InsetFloat7toolTipB5cxx11ERKNS_10BufferViewEii
lyx:_ZNK3lyx10InsetFloat8validateERNS_13LaTeXFeaturesE
lyx:_ZNK3lyx10InsetFloat9getStatusERNS_6CursorERKNS_11FuncRequestERNS_10FuncStatusE
lyx:_ZNK3lyx10InsetFloat9plaintextERNSt7__cxx1119basic_ostringstreamIwSt11char_traitsIwESaIwEEERKNS_12OutputParamsEm
lyx:_ZNK3lyx10InsetIndex10getSeeRefsERNS_10otexstreamERKNS_12OutputParamsE
lyx:_ZNK3lyx10InsetIndex10getSortkeyERNS_10otexstreamERKNS_12OutputParamsE
lyx:_ZNK3lyx10InsetIndex10hasSortKeyEv
lyx:_ZNK3lyx10InsetIndex10labelColorEv
lyx:_ZNK3lyx10InsetIndex11buttonLabelB5cxx11ERKNS_10BufferViewE
lyx:_ZNK3lyx10InsetIndex11contextMenuB5cxx11ERKNS_10BufferViewEii
lyx:_ZNK3lyx10InsetIndex11hasSettingsEv
lyx:_ZNK3lyx10InsetIndex12getSeeAsTextB5cxx11ERKNS_12OutputParamsEb
lyx:_ZNK3lyx10InsetIndex12insetAllowedENS_9InsetCodeE
lyx:_ZNK3lyx10InsetIndex13getSubentriesERNS_10otexstreamERKNS_12OutputParamsERKNSt7__cxx1112basic_stringIwSt11char_traitsIwESaIwEEE
lyx:_ZNK3lyx10InsetIndex13hasSubentriesEv
lyx:_ZNK3lyx10InsetIndex14macrosPossibleENSt7__cxx1112basic_stringIcSt11char_traitsIcESaIcEEE
lyx:_ZNK3lyx10InsetIndex15contextMenuNameB5cxx11Ev
lyx:_ZNK3lyx10InsetIndex15showInsetDialogEPNS_10BufferViewE
lyx:_ZNK3lyx10InsetIndex16getSortkeyAsTextB5cxx11ERKNS_12OutputParamsE
lyx:_ZNK3lyx10InsetIndex18getSeeAlsoesAsTextB5cxx11ERKNS_12OutputParamsEb
lyx:_ZNK3lyx10InsetIndex19getSubentriesAsTextB5cxx11ERKNS_12OutputParamsEb
lyx:_ZNK3lyx10InsetIndex19processLatexSortingERNS_10otexstreamERKNS_12OutputParamsERKNSt7__cxx1112basic_stringIwSt11char_traitsIwESaIwEEESD_
lyx:_ZNK3lyx10InsetIndex21getMainSubentryAsTextB5cxx11ERKNS_12OutputParamsE
lyx:_ZNK3lyx10InsetIndex22emptySubentriesWarningERKNSt7__cxx1112basic_stringIwSt11char_traitsIwESaIwEEE
lyx:_ZNK3lyx10InsetIndex5latexERNS_10otexstreamERKNS_12OutputParamsE
lyx:_ZNK3lyx10InsetIndex5writeERSo
lyx:_ZNK3lyx10InsetIndex5xhtmlB5cxx11ERNS_9XMLStreamERKNS_12OutputParamsE
lyx:_ZNK3lyx10InsetIndex7docbookERNS_9XMLStreamERKNS_12OutputParamsE
lyx:_ZNK3lyx10InsetIndex7toolTipB5cxx11ERKNS_10BufferViewEii
lyx:_ZNK3lyx10InsetIndex8addToTocERKNS_11DocIteratorEbNS_10UpdateTypeERNS_10TocBackendE
lyx:_ZNK3lyx10InsetIndex8validateERNS_13LaTeXFeaturesE
lyx:_ZNK3lyx10InsetIndex9getStatusERNS_6CursorERKNS_11FuncRequestERNS_10FuncStatusE
lyx:_ZNK3lyx10InsetIndex9hasSeeRefEv
lyx:_ZNK3lyx10InsetLabel11screenLabelB5cxx11Ev
lyx:_ZNK3lyx10InsetLabel11uniqueLabelERNSt7__cxx1112basic_stringIwSt11char_traitsIwESaIwEEE
lyx:_ZNK3lyx10InsetLabel5latexERNS_10otexstreamERKNS_12OutputParamsE
lyx:_ZNK3lyx10InsetLabel5xhtmlB5cxx11ERNS_9XMLStreamERKNS_12OutputParamsE
lyx:_ZNK3lyx10InsetLabel7docbookERNS_9XMLStreamERKNS_12OutputParamsE
lyx:_ZNK3lyx10InsetLabel8addToTocERKNS_11DocIteratorEbNS_10UpdateTypeERNS_10TocBackendE
lyx:_ZNK3lyx10InsetLabel9getStatusERNS_6CursorERKNS_11FuncRequestERNS_10FuncStatusE
lyx:_ZNK3lyx10InsetLabel9plaintextERNSt7__cxx1119basic_ostringstreamIwSt11char_traitsIwESaIwEEERKNS_12OutputParamsEm
lyx:_ZNK3lyx10InsetSpace11forOutlinerERNSt7__cxx1112basic_stringIwSt11char_traitsIwESaIwEEEmb
lyx:_ZNK3lyx10InsetSpace15contextMenuNameB5cxx11Ev
lyx:_ZNK3lyx10InsetSpace4drawERNS_11PainterInfoEii
lyx:_ZNK3lyx10InsetSpace4kindEv
lyx:_ZNK3lyx10InsetSpace5latexERNS_10otexstreamERKNS_12OutputParamsE
lyx:_ZNK3lyx10InsetSpace5writeERSo
lyx:_ZNK3lyx10InsetSpace5xhtmlB5cxx11ERNS_9XMLStreamERKNS_12OutputParamsE
lyx:_ZNK3lyx10InsetSpace6lengthEv
lyx:_ZNK3lyx10InsetSpace7docbookERNS_9XMLStreamERKNS_12OutputParamsE
lyx:_ZNK3lyx10InsetSpace7isHfillEv
lyx:_ZNK3lyx10InsetSpace7metricsERNS_11MetricsInfoERNS_9DimensionE
lyx:_ZNK3lyx10InsetSpace7toolTipB5cxx11ERKNS_10BufferViewEii
lyx:_ZNK3lyx10InsetSpace8rowFlagsEv
lyx:_ZNK3lyx10InsetSpace8toStringERSt13basic_ostreamIwSt11char_traitsIwEE
lyx:_ZNK3lyx10InsetSpace8validateERNS_13LaTeXFeaturesE
lyx:_ZNK3lyx10InsetSpace9getStatusERNS_6CursorERKNS_11FuncRequestERNS_10FuncStatusE
lyx:_ZNK3lyx10InsetSpace9plaintextERNSt7__cxx1119basic_ostringstreamIwSt11char_traitsIwESaIwEEERKNS_12OutputParamsEm
lyx:_ZNK3lyx10MacroTable13getMacroNamesERSt3setINSt7__cxx1112basic_stringIwSt11char_traitsIwESaIwEEESt4lessIS7_ESaIS7_EEb
lyx:_ZNK3lyx10MacroTable3getERKNSt7__cxx1112basic_stringIwSt11char_traitsIwESaIwEEE
lyx:_ZNK3lyx10ModuleList3endEv
lyx:_ZNK3lyx10ModuleList5beginEv
lyx:_ZNK3lyx10ModuleListixERKNSt7__cxx1112basic_stringIcSt11char_traitsIcESaIcEEE
lyx:_ZNK3lyx10PDFOptions10writeLaTeXERNS_12OutputParamsERNS_10otexstreamEb
lyx:_ZNK3lyx10PDFOptions20quoted_options_checkERKNSt7__cxx1112basic_stringIcSt11char_traitsIcESaIcEEE
lyx:_ZNK3lyx10PDFOptions5emptyEv
lyx:_ZNK3lyx10PDFOptions9writeFileERSo
lyx:_ZNK3lyx10RowPainter10paintFirstEv
lyx:_ZNK3lyx10RowPainter10paintInsetERKNS_3Row7ElementE
lyx:_ZNK3lyx10RowPainter10paintLabelEv
lyx:_ZNK3lyx10RowPainter11paintChangeERKNS_3Row7ElementE
lyx:_ZNK3lyx10RowPainter13paintAppendixEv
lyx:_ZNK3lyx10RowPainter13paintBookmarkEi
lyx:_ZNK3lyx10RowPainter13paintDepthBarEv
lyx:_ZNK3lyx10RowPainter14paintChangeBarEv
lyx:_ZNK3lyx10RowPainter14paintSelectionEv
lyx:_ZNK3lyx10RowPainter16paintForeignMarkERKNS_3Row7ElementE
lyx:_ZNK3lyx10RowPainter17paintStringAndSelERKNS_3Row7ElementE
lyx:_ZNK3lyx10RowPainter18paintAppendixStartEi
lyx:_ZNK3lyx10RowPainter18paintTooLargeMarksEbb
lyx:_ZNK3lyx10RowPainter18paintTopLevelLabelEv
lyx:_ZNK3lyx10RowPainter19paintMisspelledMarkERKNS_3Row7ElementE
lyx:_ZNK3lyx10RowPainter19paintNoSpellingMarkERKNS_3Row7ElementE
lyx:_ZNK3lyx10RowPainter19paintTextDecorationERKNS_3Row7ElementE
lyx:_ZNK3lyx10RowPainter21paintLanguageMarkingsERKNS_3Row7ElementE
lyx:_ZNK3lyx10RowPainter9labelFontEb
lyx:_ZNK3lyx10RowPainter9paintLastEv
lyx:_ZNK3lyx10TocBackend10updateItemERKNS_11DocIteratorE
lyx:_ZNK3lyx10TocBackend12outlinerNameERKNSt7__cxx1112basic_stringIcSt11char_traitsIcESaIcEEE
lyx:_ZNK3lyx10TocBackend21writePlaintextTocListERKNSt7__cxx1112basic_stringIcSt11char_traitsIcESaIcEEERNS1_19basic_ostringstreamIwS3_IwESaIwEEEm
lyx:_ZNK3lyx10TocBackend3tocERKNSt7__cxx1112basic_stringIcSt11char_traitsIcESaIcEEE
lyx:_ZNK3lyx10TocBackend4itemERKNSt7__cxx1112basic_stringIcSt11char_traitsIcESaIcEEERKNS_11DocIteratorE
lyx:_ZNK3lyx11CursorSlice11at_cell_endEv
lyx:_ZNK3lyx11CursorSlice13at_cell_beginEv
lyx:_ZNK3lyx11CursorSlice3colEv
lyx:_ZNK3lyx11CursorSlice3rowEv
lyx:_ZNK3lyx11CursorSlice4cellEv
lyx:_ZNK3lyx11CursorSlice6at_endEv
lyx:_ZNK3lyx11CursorSlice7lastpitEv
lyx:_ZNK3lyx11CursorSlice7lastposEv
lyx:_ZNK3lyx11CursorSlice8at_beginEv
lyx:_ZNK3lyx11CursorSlice9paragraphEv
lyx:_ZNK3lyx11DocIterator10inRegexpedEv
lyx:_ZNK3lyx11DocIterator10locateWordENS_13word_locationE
lyx:_ZNK3lyx11DocIterator11getEncodingEv
lyx:_ZNK3lyx11DocIterator12getInnerTextEv
lyx:_ZNK3lyx11DocIterator14innerParagraphEv
lyx:_ZNK3lyx11DocIterator14innerTextSliceEv
lyx:_ZNK3lyx11DocIterator15allowSpellCheckEv
lyx:_ZNK3lyx11DocIterator16getPossibleLabelB5cxx11Ev
lyx:_ZNK3lyx11DocIterator16innerInsetOfTypeEi
lyx:_ZNK3lyx11DocIterator21paragraphGotoArgumentB5cxx11Eb
lyx:_ZNK3lyx11DocIterator3colEv
lyx:_ZNK3lyx11DocIterator3rowEv
lyx:_ZNK3lyx11DocIterator4cellEv
lyx:_ZNK3lyx11DocIterator4findEPKNS_5InsetE
lyx:_ZNK3lyx11DocIterator4findERKNS_8MathDataE
lyx:_ZNK3lyx11DocIterator4textEv
lyx:_ZNK3lyx11DocIterator5cloneEPNS_6BufferE
lyx:_ZNK3lyx11DocIterator5nargsEv
lyx:_ZNK3lyx11DocIterator5ncolsEv
lyx:_ZNK3lyx11DocIterator5nrowsEv
lyx:_ZNK3lyx11DocIterator7hasPartERKS0_
lyx:_ZNK3lyx11DocIterator7lastidxEv
lyx:_ZNK3lyx11DocIterator7lastpitEv
lyx:_ZNK3lyx11DocIterator7lastposEv
lyx:_ZNK3lyx11DocIterator8isInsideEPKNS_5InsetE
lyx:_ZNK3lyx11DocIterator8nextAtomEv
lyx:_ZNK3lyx11DocIterator8prevAtomEv
lyx:_ZNK3lyx11DocIterator9innerTextEv
lyx:_ZNK3lyx11DocIterator9nextInsetEv
lyx:_ZNK3lyx11DocIterator9paragraphEv
lyx:_ZNK3lyx11DocIterator9prevInsetEv
lyx:_ZNK3lyx11DocIterator9realInsetEv
lyx:_ZNK3lyx11FuncRequest10getLongArgB5cxx11Ej
lyx:_ZNK3lyx11FuncRequest6getArgB5cxx11Ej
lyx:_ZNK3lyx11IndicesList12findShortcutERKNSt7__cxx1112basic_stringIwSt11char_traitsIwESaIwEEE
lyx:_ZNK3lyx11IndicesList4findERKNSt7__cxx1112basic_stringIwSt11char_traitsIwESaIwEEE
lyx:_ZNK3lyx11InsetBibtex11getBibFilesEv
lyx:_ZNK3lyx11InsetBibtex11getRefLabelB5cxx11Ev
lyx:_ZNK3lyx11InsetBibtex11screenLabelB5cxx11Ev
lyx:_ZNK3lyx11InsetBibtex13editDatabasesERKNSt7__cxx1112basic_stringIwSt11char_traitsIwESaIwEEE
lyx:_ZNK3lyx11InsetBibtex13usingBiblatexEv
lyx:_ZNK3lyx11InsetBibtex14collectBibKeysERKNS_13InsetIteratorERNS_7support12FileNameListE
lyx:_ZNK3lyx11InsetBibtex15contextMenuNameB5cxx11Ev
lyx:_ZNK3lyx11InsetBibtex16getFileEncodingsB5cxx11Ev
lyx:_ZNK3lyx11InsetBibtex16parseBibTeXFilesERNS_7support12FileNameListE
lyx:_ZNK3lyx11InsetBibtex5latexERNS_10otexstreamERKNS_12OutputParamsE
lyx:_ZNK3lyx11InsetBibtex5writeERSo
lyx:_ZNK3lyx11InsetBibtex5xhtmlB5cxx11ERNS_9XMLStreamERKNS_12OutputParamsE
lyx:_ZNK3lyx11InsetBibtex7docbookERNS_9XMLStreamERKNS_12OutputParamsE
lyx:_ZNK3lyx11InsetBibtex7toolTipB5cxx11ERKNS_10BufferViewEii
lyx:_ZNK3lyx11InsetBibtex8addToTocERKNS_11DocIteratorEbNS_10UpdateTypeERNS_10TocBackendE
lyx:_ZNK3lyx11InsetBibtex8validateERNS_13LaTeXFeaturesE
lyx:_ZNK3lyx11InsetBibtex9getStatusERNS_6CursorERKNS_11FuncRequestERNS_10FuncStatusE
lyx:_ZNK3lyx11InsetBibtex9plaintextERNSt7__cxx1119basic_ostringstreamIwSt11char_traitsIwESaIwEEERKNS_12OutputParamsEm
lyx:_ZNK3lyx11InsetBranch10layoutNameB5cxx11Ev
lyx:_ZNK3lyx11InsetBranch11buttonLabelB5cxx11ERKNS_10BufferViewE
lyx:_ZNK3lyx11InsetBranch11forOutlinerERNSt7__cxx1112basic_stringIwSt11char_traitsIwESaIwEEEmb
lyx:_ZNK3lyx11InsetBranch12isMacroScopeEv
lyx:_ZNK3lyx11InsetBranch14producesOutputEv
lyx:_ZNK3lyx11InsetBranch15backgroundColorERKNS_11PainterInfoE
lyx:_ZNK3lyx11InsetBranch15contextMenuNameB5cxx11Ev
lyx:_ZNK3lyx11InsetBranch16isBranchSelectedEb
lyx:_ZNK3lyx11InsetBranch5latexERNS_10otexstreamERKNS_12OutputParamsE
lyx:_ZNK3lyx11InsetBranch5writeERSo
lyx:_ZNK3lyx11InsetBranch5xhtmlB5cxx11ERNS_9XMLStreamERKNS_12OutputParamsE
lyx:_ZNK3lyx11InsetBranch7docbookERNS_9XMLStreamERKNS_12OutputParamsE
lyx:_ZNK3lyx11InsetBranch7toolTipB5cxx11ERKNS_10BufferViewEii
lyx:_ZNK3lyx11InsetBranch8toStringERSt13basic_ostreamIwSt11char_traitsIwEE
lyx:_ZNK3lyx11InsetBranch8validateERNS_13LaTeXFeaturesE
lyx:_ZNK3lyx11InsetBranch9getStatusERNS_6CursorERKNS_11FuncRequestERNS_10FuncStatusE
lyx:_ZNK3lyx11InsetBranch9plaintextERNSt7__cxx1119basic_ostringstreamIwSt11char_traitsIwESaIwEEERKNS_12OutputParamsEm
lyx:_ZNK3lyx11InsetLayout12requiredArgsEv
lyx:_ZNK3lyx11InsetLayout13docbookininfoB5cxx11Ev
lyx:_ZNK3lyx11InsetLayout13htmlinnerattrB5cxx11Ev
lyx:_ZNK3lyx11InsetLayout14docbooktagtypeB5cxx11Ev
lyx:_ZNK3lyx11InsetLayout14makeDefaultCSSEv
lyx:_ZNK3lyx11InsetLayout15defaultCSSClassB5cxx11Ev
lyx:_ZNK3lyx11InsetLayout17htmlGetAttrStringB5cxx11Ev
lyx:_ZNK3lyx11InsetLayout18docbookitemtagtypeB5cxx11Ev
lyx:_ZNK3lyx11InsetLayout19docbookinnertagtypeB5cxx11Ev
lyx:_ZNK3lyx11InsetLayout21docbookwrappertagtypeB5cxx11Ev
lyx:_ZNK3lyx11InsetLayout25docbookitemwrappertagtypeB5cxx11Ev
lyx:_ZNK3lyx11InsetLayout4argsB5cxx11Ev
lyx:_ZNK3lyx11InsetLayout7htmltagB5cxx11Ev
lyx:_ZNK3lyx11InsetLayout7optArgsEv
lyx:_ZNK3lyx11InsetLayout9htmlclassB5cxx11Ev
lyx:_ZNK3lyx11InsetLayout9htmlstyleB5cxx11Ev
lyx:_ZNK3lyx11InsetQuotes10layoutNameB5cxx11Ev
lyx:_ZNK3lyx11InsetQuotes11forOutlinerERNSt7__cxx1112basic_stringIwSt11char_traitsIwESaIwEEEmb
lyx:_ZNK3lyx11InsetQuotes13displayStringB5cxx11Ev
lyx:_ZNK3lyx11InsetQuotes15contextMenuNameB5cxx11Ev
lyx:_ZNK3lyx11InsetQuotes17getQuoteXMLEntityB5cxx11Ev
lyx:_ZNK3lyx11InsetQuotes4drawERNS_11PainterInfoEii
lyx:_ZNK3lyx11InsetQuotes5latexERNS_10otexstreamERKNS_12OutputParamsE
lyx:_ZNK3lyx11InsetQuotes5writeERSo
lyx:_ZNK3lyx11InsetQuotes5xhtmlB5cxx11ERNS_9XMLStreamERKNS_12OutputParamsE
lyx:_ZNK3lyx11InsetQuotes7docbookERNS_9XMLStreamERKNS_12OutputParamsE
lyx:_ZNK3lyx11InsetQuotes7getTypeB5cxx11Ev
lyx:_ZNK3lyx11InsetQuotes7isWordsEv
lyx:_ZNK3lyx11InsetQuotes7metricsERNS_11MetricsInfoERNS_9DimensionE
lyx:_ZNK3lyx11InsetQuotes8toStringERSt13basic_ostreamIwSt11char_traitsIwEE
lyx:_ZNK3lyx11InsetQuotes8validateERNS_13LaTeXFeaturesE
lyx:_ZNK3lyx11InsetQuotes9getStatusERNS_6CursorERKNS_11FuncRequestERNS_10FuncStatusE
lyx:_ZNK3lyx11InsetQuotes9plaintextERNSt7__cxx1119basic_ostringstreamIwSt11char_traitsIwESaIwEEERKNS_12OutputParamsEm
lyx:_ZNK3lyx11InsetScript10layoutNameB5cxx11Ev
lyx:_ZNK3lyx11InsetScript12insetAllowedENS_9InsetCodeE
lyx:_ZNK3lyx11InsetScript15contextMenuNameB5cxx11Ev
lyx:_ZNK3lyx11InsetScript4drawERNS_11PainterInfoEii
lyx:_ZNK3lyx11InsetScript5writeERSo
lyx:_ZNK3lyx11InsetScript7docbookERNS_9XMLStreamERKNS_12OutputParamsE
lyx:_ZNK3lyx11InsetScript7metricsERNS_11MetricsInfoERNS_9DimensionE
lyx:_ZNK3lyx11InsetScript7toolTipB5cxx11ERKNS_10BufferViewEii
lyx:_ZNK3lyx11InsetScript9cursorPosERKNS_10BufferViewERKNS_11CursorSliceEbRiS7_
lyx:_ZNK3lyx11InsetScript9getStatusERNS_6CursorERKNS_11FuncRequestERNS_10FuncStatusE
lyx:_ZNK3lyx11InsetScript9plaintextERNSt7__cxx1119basic_ostringstreamIwSt11char_traitsIwESaIwEEERKNS_12OutputParamsEm
lyx:_ZNK3lyx11InsetVSpace15contextMenuNameB5cxx11Ev
lyx:_ZNK3lyx11InsetVSpace4drawERNS_11PainterInfoEii
lyx:_ZNK3lyx11InsetVSpace5labelB5cxx11Ev
lyx:_ZNK3lyx11InsetVSpace5latexERNS_10otexstreamERKNS_12OutputParamsE
lyx:_ZNK3lyx11InsetVSpace5writeERSo
lyx:_ZNK3lyx11InsetVSpace5xhtmlB5cxx11ERNS_9XMLStreamERKNS_12OutputParamsE
lyx:_ZNK3lyx11InsetVSpace7docbookERNS_9XMLStreamERKNS_12OutputParamsE
lyx:_ZNK3lyx11InsetVSpace7metricsERNS_11MetricsInfoERNS_9DimensionE
lyx:_ZNK3lyx11InsetVSpace9getStatusERNS_6CursorERKNS_11FuncRequestERNS_10FuncStatusE
lyx:_ZNK3lyx11InsetVSpace9plaintextERNSt7__cxx1119basic_ostringstreamIwSt11char_traitsIwESaIwEEERKNS_12OutputParamsEm
lyx:_ZNK3lyx11KeySequence12printOptionsB5cxx11Eb
lyx:_ZNK3lyx11KeySequence5printB5cxx11ENS0_12outputFormatEb
lyx:_ZNK3lyx11MetricsBase8inPixelsERKNS_6LengthE
lyx:_ZNK3lyx11PainterInfo15backgroundColorEPKNS_5InsetEb
lyx:_ZNK3lyx11PainterInfo9textColorERKNS_5ColorE
lyx:_ZNK3lyx11ParIterator3pitEv
lyx:_ZNK3lyx11ParIterator5plistEv
lyx:_ZNK3lyx11ParIterator8outerParEv
lyx:_ZNK3lyx11ParIteratordeEv
lyx:_ZNK3lyx11ParIteratorptEv
lyx:_ZNK3lyx11TextMetrics10isFirstRowERKNS_3RowE
lyx:_ZNK3lyx11TextMetrics10leftMarginEl
lyx:_ZNK3lyx11TextMetrics10leftMarginEll
lyx:_ZNK3lyx11TextMetrics10parMetricsEl
lyx:_ZNK3lyx11TextMetrics11displayFontEll
lyx:_ZNK3lyx11TextMetrics11getPosNearXERKNS_3RowERiRb
lyx:_ZNK3lyx11TextMetrics11rightMarginERKNS_16ParagraphMetricsE
lyx:_ZNK3lyx11TextMetrics11rightMarginEl
lyx:_ZNK3lyx11TextMetrics12setRowHeightERNS_3RowE
lyx:_ZNK3lyx11TextMetrics13drawParagraphERNS_11PainterInfoElii
lyx:_ZNK3lyx11TextMetrics13isRTLBoundaryEll
lyx:_ZNK3lyx11TextMetrics13isRTLBoundaryEllRKNS_4FontE
lyx:_ZNK3lyx11TextMetrics13parTopSpacingEl
lyx:_ZNK3lyx11TextMetrics14applyOuterFontERNS_4FontE
lyx:_ZNK3lyx11TextMetrics14breakParagraphERKNS_3RowE
lyx:_ZNK3lyx11TextMetrics14updatePosCacheEl
lyx:_ZNK3lyx11TextMetrics15setRowAlignmentERNS_3RowEi
lyx:_ZNK3lyx11TextMetrics16labelDisplayFontEl
lyx:_ZNK3lyx11TextMetrics16parBottomSpacingEl
lyx:_ZNK3lyx11TextMetrics17tokenizeParagraphEl
lyx:_ZNK3lyx11TextMetrics19completionPosAndDimERKNS_6CursorERiS4_RNS_9DimensionE
lyx:_ZNK3lyx11TextMetrics4drawERNS_11PainterInfoEii
lyx:_ZNK3lyx11TextMetrics4lastEv
lyx:_ZNK3lyx11TextMetrics5firstEv
lyx:_ZNK3lyx11TextMetrics5isRTLERKNS_11CursorSliceEb
lyx:_ZNK3lyx11TextMetrics5x2posElii
lyx:_ZNK3lyx11TextMetrics7cursorXERKNS_11CursorSliceEb
lyx:_ZNK3lyx11TextMetrics7cursorYERKNS_11CursorSliceEb
lyx:_ZNK3lyx11TextMetrics8containsEl
lyx:_ZNK3lyx11TextMetrics8getAlignERKNS_9ParagraphERKNS_3RowE
lyx:_ZNK3lyx11TextMetrics9isLastRowERKNS_3RowE
lyx:_ZNK3lyx11TextMetrics9labelFillERKNS_3RowE
lyx:_ZNK3lyx11TextPainter2atEii
lyx:_ZNK3lyx11TextPainter4showERSt13basic_ostreamIwSt11char_traitsIwEEi
lyx:_ZNK3lyx12BufferParams10branchlistEv
lyx:_ZNK3lyx12BufferParams10citeStylesEv
lyx:_ZNK3lyx12BufferParams10getDefSkipEv
lyx:_ZNK3lyx12BufferParams10isLiterateEv
lyx:_ZNK3lyx12BufferParams10pdfoptionsEv
lyx:_ZNK3lyx12BufferParams10writeLaTeXERNS_10otexstreamERNS_13LaTeXFeaturesERKNS_7support8FileNameE
lyx:_ZNK3lyx12BufferParams11baseClassIDEv
lyx:_ZNK3lyx12BufferParams11indiceslistEv
lyx:_ZNK3lyx12BufferParams11spellignoreEv
lyx:_ZNK3lyx12BufferParams11temp_bulletEm
lyx:_ZNK3lyx12BufferParams11useBiblatexEv
lyx:_ZNK3lyx12BufferParams11useBibtopicEv
lyx:_ZNK3lyx12BufferParams11use_packageERKNSt7__cxx1112basic_stringIcSt11char_traitsIcESaIcEEE
lyx:_ZNK3lyx12BufferParams12bufferFormatB5cxx11Ev
lyx:_ZNK3lyx12BufferParams12citeCommandsB5cxx11Ev
lyx:_ZNK3lyx12BufferParams12getCiteAliasERKNSt7__cxx1112basic_stringIcSt11char_traitsIcESaIcEEE
lyx:_ZNK3lyx12BufferParams12getParIndentEv
lyx:_ZNK3lyx12BufferParams12isExportableERKNSt7__cxx1112basic_stringIcSt11char_traitsIcESaIcEEEb
lyx:_ZNK3lyx12BufferParams12spellignoredERKNS_13WordLangTupleE
lyx:_ZNK3lyx12BufferParams13bibtexCommandB5cxx11Eb
lyx:_ZNK3lyx12BufferParams13documentClassEv
lyx:_ZNK3lyx12BufferParams13dvips_optionsB5cxx11Ev
lyx:_ZNK3lyx12BufferParams13getMathIndentEv
lyx:_ZNK3lyx12BufferParams13getMathNumberEv
lyx:_ZNK3lyx12BufferParams13getQuoteStyleERKNSt7__cxx1112basic_stringIcSt11char_traitsIcESaIcEEE
lyx:_ZNK3lyx12BufferParams13paperSizeNameENS0_16PapersizePurposeERKNSt7__cxx1112basic_stringIcSt11char_traitsIcESaIcEEE
lyx:_ZNK3lyx12BufferParams13parseFontNameERKNSt7__cxx1112basic_stringIcSt11char_traitsIcESaIcEEE
lyx:_ZNK3lyx12BufferParams14font_encodingsB5cxx11Ev
lyx:_ZNK3lyx12BufferParams14fullAuthorListEv
lyx:_ZNK3lyx12BufferParams14getLocalLayoutB5cxx11Eb
lyx:_ZNK3lyx12BufferParams14useBidiPackageERKNS_12OutputParamsE
lyx:_ZNK3lyx12BufferParams15bibFileEncodingERKNSt7__cxx1112basic_stringIcSt11char_traitsIcESaIcEEE
lyx:_ZNK3lyx12BufferParams15getOutputFlavorERKNSt7__cxx1112basic_stringIcSt11char_traitsIcESaIcEEE
lyx:_ZNK3lyx12BufferParams16documentClassPtrEv
lyx:_ZNK3lyx12BufferParams16getBibtexCommandENSt7__cxx1112basic_stringIcSt11char_traitsIcESaIcEEEb
lyx:_ZNK3lyx12BufferParams16hasClassDefaultsEv
lyx:_ZNK3lyx12BufferParams16hasPackageOptionENSt7__cxx1112basic_stringIcSt11char_traitsIcESaIcEEES6_
lyx:_ZNK3lyx12BufferParams17exportableFormatsEb
lyx:_ZNK3lyx12BufferParams17getGraphicsDriverERKNSt7__cxx1112basic_stringIcSt11char_traitsIcESaIcEEE
lyx:_ZNK3lyx12BufferParams17getPackageOptionsENSt7__cxx1112basic_stringIcSt11char_traitsIcESaIcEEE
lyx:_ZNK3lyx12BufferParams18defaultBiblioStyleB5cxx11Ev
lyx:_ZNK3lyx12BufferParams18main_font_encodingB5cxx11Ev
lyx:_ZNK3lyx12BufferParams19user_defined_bulletEm
lyx:_ZNK3lyx12BufferParams21writeEncodingPreambleERNS_10otexstreamERNS_13LaTeXFeaturesE
lyx:_ZNK3lyx12BufferParams22getDefaultOutputFormatB5cxx11Ev
lyx:_ZNK3lyx12BufferParams22layoutModuleCanBeAddedERKNSt7__cxx1112basic_stringIcSt11char_traitsIcESaIcEEE
lyx:_ZNK3lyx12BufferParams24invalidateConverterCacheEv
lyx:_ZNK3lyx12BufferParams2B_ERKNSt7__cxx1112basic_stringIcSt11char_traitsIcESaIcEEE
lyx:_ZNK3lyx12BufferParams7authorsEv
lyx:_ZNK3lyx12BufferParams7getFontEv
lyx:_ZNK3lyx12BufferParams7isLatexEv
lyx:_ZNK3lyx12BufferParams7spacingEv
lyx:_ZNK3lyx12BufferParams8backendsB5cxx11Ev
lyx:_ZNK3lyx12BufferParams8encodingEv
lyx:_ZNK3lyx12BufferParams8validateERNS_13LaTeXFeaturesE
lyx:_ZNK3lyx12BufferParams9babelCallERKNSt7__cxx1112basic_stringIcSt11char_traitsIcESaIcEEEb
lyx:_ZNK3lyx12BufferParams9baseClassEv
lyx:_ZNK3lyx12BufferParams9loadFontsB5cxx11ERNS_13LaTeXFeaturesE
lyx:_ZNK3lyx12BufferParams9writeFileERSoPKNS_6BufferE
lyx:_ZNK3lyx12InsetBibitem11screenLabelB5cxx11Ev
lyx:_ZNK3lyx12InsetBibitem14collectBibKeysERKNS_13InsetIteratorERNS_7support12FileNameListE
lyx:_ZNK3lyx12InsetBibitem5xhtmlB5cxx11ERNS_9XMLStreamERKNS_12OutputParamsE
lyx:_ZNK3lyx12InsetBibitem7docbookERNS_9XMLStreamERKNS_12OutputParamsE
lyx:_ZNK3lyx12InsetBibitem8bibLabelB5cxx11Ev
lyx:_ZNK3lyx12InsetBibitem9plaintextERNSt7__cxx1119basic_ostringstreamIwSt11char_traitsIwESaIwEEERKNS_12OutputParamsEm
lyx:_ZNK3lyx12InsetCaption10layoutNameB5cxx11Ev
lyx:_ZNK3lyx12InsetCaption11getArgumentERNS_10otexstreamERKNS_12OutputParamsE
lyx:_ZNK3lyx12InsetCaption12insetAllowedENS_9InsetCodeE
lyx:_ZNK3lyx12InsetCaption14drawBackgroundERNS_11PainterInfoEii
lyx:_ZNK3lyx12InsetCaption15contextMenuNameB5cxx11Ev
lyx:_ZNK3lyx12InsetCaption16getCaptionAsHTMLB5cxx11ERNS_9XMLStreamERKNS_12OutputParamsE
lyx:_ZNK3lyx12InsetCaption19getCaptionAsDocBookERNS_9XMLStreamERKNS_12OutputParamsE
lyx:_ZNK3lyx12InsetCaption21getCaptionAsPlaintextERSt13basic_ostreamIwSt11char_traitsIwEERKNS_12OutputParamsE
lyx:_ZNK3lyx12InsetCaption4drawERNS_11PainterInfoEii
lyx:_ZNK3lyx12InsetCaption5latexERNS_10otexstreamERKNS_12OutputParamsE
lyx:_ZNK3lyx12InsetCaption5writeERSo
lyx:_ZNK3lyx12InsetCaption5xhtmlB5cxx11ERNS_9XMLStreamERKNS_12OutputParamsE
lyx:_ZNK3lyx12InsetCaption7docbookERNS_9XMLStreamERKNS_12OutputParamsE
lyx:_ZNK3lyx12InsetCaption7metricsERNS_11MetricsInfoERNS_9DimensionE
lyx:_ZNK3lyx12InsetCaption7toolTipB5cxx11ERKNS_10BufferViewEii
lyx:_ZNK3lyx12InsetCaption8addToTocERKNS_11DocIteratorEbNS_10UpdateTypeERNS_10TocBackendE
lyx:_ZNK3lyx12InsetCaption9cursorPosERKNS_10BufferViewERKNS_11CursorSliceEbRiS7_
lyx:_ZNK3lyx12InsetCaption9getStatusERNS_6CursorERKNS_11FuncRequestERNS_10FuncStatusE
lyx:_ZNK3lyx12InsetCaption9plaintextERNSt7__cxx1119basic_ostringstreamIwSt11char_traitsIwESaIwEEERKNS_12OutputParamsEm
lyx:_ZNK3lyx12InsetCommand13setMouseHoverEPKNS_10BufferViewEb
lyx:_ZNK3lyx12InsetCommand15contextMenuNameB5cxx11Ev
lyx:_ZNK3lyx12InsetCommand15showInsetDialogEPNS_10BufferViewE
lyx:_ZNK3lyx12InsetCommand24isChangedByCurrentAuthorEv
lyx:_ZNK3lyx12InsetCommand4drawERNS_11PainterInfoEii
lyx:_ZNK3lyx12InsetCommand5latexERNS_10otexstreamERKNS_12OutputParamsE
lyx:_ZNK3lyx12InsetCommand7docbookERNS_9XMLStreamERKNS_12OutputParamsE
lyx:_ZNK3lyx12InsetCommand7metricsERNS_11MetricsInfoERNS_9DimensionE
lyx:_ZNK3lyx12InsetCommand8getParamERKNSt7__cxx1112basic_stringIcSt11char_traitsIcESaIcEEE
lyx:_ZNK3lyx12InsetCommand8validateERNS_13LaTeXFeaturesE
lyx:_ZNK3lyx12InsetCommand9getStatusERNS_6CursorERKNS_11FuncRequestERNS_10FuncStatusE
lyx:_ZNK3lyx12InsetCommand9plaintextERNSt7__cxx1119basic_ostringstreamIwSt11char_traitsIwESaIwEEERKNS_12OutputParamsEm
lyx:_ZNK3lyx12InsetCounter13trackCountersERKNSt7__cxx1112basic_stringIcSt11char_traitsIcESaIcEEE
lyx:_ZNK3lyx12InsetCounter14lyxSaveCounterB5cxx11Ev
lyx:_ZNK3lyx12InsetCounter15contextMenuNameB5cxx11Ev
lyx:_ZNK3lyx12InsetCounter5latexERNS_10otexstreamERKNS_12OutputParamsE
lyx:_ZNK3lyx12InsetCounter5xhtmlB5cxx11ERNS_9XMLStreamERKNS_12OutputParamsE
lyx:_ZNK3lyx12InsetCounter7docbookERNS_9XMLStreamERKNS_12OutputParamsE
lyx:_ZNK3lyx12InsetCounter8toStringERSt13basic_ostreamIwSt11char_traitsIwEE
lyx:_ZNK3lyx12InsetCounter8validateERNS_13LaTeXFeaturesE
lyx:_ZNK3lyx12InsetCounter9plaintextERNSt7__cxx1119basic_ostringstreamIwSt11char_traitsIwESaIwEEERKNS_12OutputParamsEm
lyx:_ZNK3lyx12InsetIPAChar11forOutlinerERNSt7__cxx1112basic_stringIwSt11char_traitsIwESaIwEEEmb
lyx:_ZNK3lyx12InsetIPAChar4drawERNS_11PainterInfoEii
lyx:_ZNK3lyx12InsetIPAChar4kindEv
lyx:_ZNK3lyx12InsetIPAChar5latexERNS_10otexstreamERKNS_12OutputParamsE
lyx:_ZNK3lyx12InsetIPAChar5writeERSo
lyx:_ZNK3lyx12InsetIPAChar5xhtmlB5cxx11ERNS_9XMLStreamERKNS_12OutputParamsE
lyx:_ZNK3lyx12InsetIPAChar7docbookERNS_9XMLStreamERKNS_12OutputParamsE
lyx:_ZNK3lyx12InsetIPAChar7metricsERNS_11MetricsInfoERNS_9DimensionE
lyx:_ZNK3lyx12InsetIPAChar8toStringERSt13basic_ostreamIwSt11char_traitsIwEE
lyx:_ZNK3lyx12InsetIPAChar8validateERNS_13LaTeXFeaturesE
lyx:_ZNK3lyx12InsetIPAChar9plaintextERNSt7__cxx1119basic_ostringstreamIwSt11char_traitsIwESaIwEEERKNS_12OutputParamsEm
lyx:_ZNK3lyx12InsetIPADeco10layoutNameB5cxx11Ev
lyx:_ZNK3lyx12InsetIPADeco12insetAllowedENS_9InsetCodeE
lyx:_ZNK3lyx12InsetIPADeco4drawERNS_11PainterInfoEii
lyx:_ZNK3lyx12InsetIPADeco5latexERNS_10otexstreamERKNS_12OutputParamsE
lyx:_ZNK3lyx12InsetIPADeco5writeERSo
lyx:_ZNK3lyx12InsetIPADeco5xhtmlB5cxx11ERNS_9XMLStreamERKNS_12OutputParamsE
lyx:_ZNK3lyx12InsetIPADeco7docbookERNS_9XMLStreamERKNS_12OutputParamsE
lyx:_ZNK3lyx12InsetIPADeco7metricsERNS_11MetricsInfoERNS_9DimensionE
lyx:_ZNK3lyx12InsetIPADeco7toolTipB5cxx11ERKNS_10BufferViewEii
lyx:_ZNK3lyx12InsetIPADeco8validateERNS_13LaTeXFeaturesE
lyx:_ZNK3lyx12InsetIPADeco9getStatusERNS_6CursorERKNS_11FuncRequestERNS_10FuncStatusE
lyx:_ZNK3lyx12InsetIPADeco9plaintextERNSt7__cxx1119basic_ostringstreamIwSt11char_traitsIwESaIwEEERKNS_12OutputParamsEm
lyx:_ZNK3lyx12InsetInclude10addPreviewERKNS_11DocIteratorERNS_8graphics13PreviewLoaderE
lyx:_ZNK3lyx12InsetInclude10layoutNameB5cxx11Ev
lyx:_ZNK3lyx12InsetInclude11fileChangedEv
lyx:_ZNK3lyx12InsetInclude11inheritFontEv
lyx:_ZNK3lyx12InsetInclude11screenLabelB5cxx11Ev
lyx:_ZNK3lyx12InsetInclude12loadIfNeededEv
lyx:_ZNK3lyx12InsetInclude14collectBibKeysERKNS_13InsetIteratorERNS_7support12FileNameListE
lyx:_ZNK3lyx12InsetInclude15contextMenuNameB5cxx11Ev
lyx:_ZNK3lyx12InsetInclude15isChildIncludedEv
lyx:_ZNK3lyx12InsetInclude16needsCProtectionEbb
lyx:_ZNK3lyx12InsetInclude17includedFileExistEv
lyx:_ZNK3lyx12InsetInclude24checkForRecursiveIncludeEPKNS_6BufferEb
lyx:_ZNK3lyx12InsetInclude4drawERNS_11PainterInfoEii
lyx:_ZNK3lyx12InsetInclude5latexERNS_10otexstreamERKNS_12OutputParamsE
lyx:_ZNK3lyx12InsetInclude5writeERSo
lyx:_ZNK3lyx12InsetInclude5xhtmlB5cxx11ERNS_9XMLStreamERKNS_12OutputParamsE
lyx:_ZNK3lyx12InsetInclude7docbookERNS_9XMLStreamERKNS_12OutputParamsE
lyx:_ZNK3lyx12InsetInclude7metricsERNS_11MetricsInfoERNS_9DimensionE
lyx:_ZNK3lyx12InsetInclude8addToTocERKNS_11DocIteratorEbNS_10UpdateTypeERNS_10TocBackendE
lyx:_ZNK3lyx12InsetInclude8rowFlagsEv
lyx:_ZNK3lyx12InsetInclude8validateERNS_13LaTeXFeaturesE
lyx:_ZNK3lyx12InsetInclude9getStatusERNS_6CursorERKNS_11FuncRequestERNS_10FuncStatusE
lyx:_ZNK3lyx12InsetInclude9plaintextERNSt7__cxx1119basic_ostringstreamIwSt11char_traitsIwESaIwEEERKNS_12OutputParamsEm
lyx:_ZNK3lyx12InsetMathBig4drawERNS_11PainterInfoEii
lyx:_ZNK3lyx12InsetMathBig4nameB5cxx11Ev
lyx:_ZNK3lyx12InsetMathBig4sizeEv
lyx:_ZNK3lyx12InsetMathBig4wordB5cxx11Ev
lyx:_ZNK3lyx12InsetMathBig5cloneEv
lyx:_ZNK3lyx12InsetMathBig5writeERNS_13TeXMathStreamE
lyx:_ZNK3lyx12InsetMathBig7htmlizeERNS_10HtmlStreamE
lyx:_ZNK3lyx12InsetMathBig7metricsERNS_11MetricsInfoERNS_9DimensionE
lyx:_ZNK3lyx12InsetMathBig8increaseEv
lyx:_ZNK3lyx12InsetMathBig8infoize2ERSt13basic_ostreamIwSt11char_traitsIwEE
lyx:_ZNK3lyx12InsetMathBig8validateERNS_13LaTeXFeaturesE
lyx:_ZNK3lyx12InsetMathBig9mathClassEv
lyx:_ZNK3lyx12InsetMathBig9mathmlizeERNS_12MathMLStreamE
lyx:_ZNK3lyx12InsetMathBig9normalizeERNS_12NormalStreamE
lyx:_ZNK3lyx12InsetMathBox4drawERNS_11PainterInfoEii
lyx:_ZNK3lyx12InsetMathBox5writeERNS_13TeXMathStreamE
lyx:_ZNK3lyx12InsetMathBox7htmlizeERNS_10HtmlStreamE
lyx:_ZNK3lyx12InsetMathBox7infoizeERSt13basic_ostreamIwSt11char_traitsIwEE
lyx:_ZNK3lyx12InsetMathBox7metricsERNS_11MetricsInfoERNS_9DimensionE
lyx:_ZNK3lyx12InsetMathBox8validateERNS_13LaTeXFeaturesE
lyx:_ZNK3lyx12InsetMathBox9mathmlizeERNS_12MathMLStreamE
lyx:_ZNK3lyx12InsetMathBox9normalizeERNS_12NormalStreamE
lyx:_ZNK3lyx12InsetMathEnv4drawERNS_11PainterInfoEii
lyx:_ZNK3lyx12InsetMathEnv5cloneEv
lyx:_ZNK3lyx12InsetMathEnv5writeERNS_13TeXMathStreamE
lyx:_ZNK3lyx12InsetMathEnv7infoizeERSt13basic_ostreamIwSt11char_traitsIwEE
lyx:_ZNK3lyx12InsetMathEnv7metricsERNS_11MetricsInfoERNS_9DimensionE
lyx:_ZNK3lyx12InsetMathEnv9normalizeERNS_12NormalStreamE
lyx:_ZNK3lyx12InsetMathLim11mathematicaERNS_17MathematicaStreamE
lyx:_ZNK3lyx12InsetMathLim4drawERNS_11PainterInfoEii
lyx:_ZNK3lyx12InsetMathLim5cloneEv
lyx:_ZNK3lyx12InsetMathLim5mapleERNS_11MapleStreamE
lyx:_ZNK3lyx12InsetMathLim5writeERNS_13TeXMathStreamE
lyx:_ZNK3lyx12InsetMathLim6maximaERNS_12MaximaStreamE
lyx:_ZNK3lyx12InsetMathLim7metricsERNS_11MetricsInfoERNS_9DimensionE
lyx:_ZNK3lyx12InsetMathLim9normalizeERNS_12NormalStreamE
lyx:_ZNK3lyx12InsetMathPar4drawERNS_11PainterInfoEii
lyx:_ZNK3lyx12InsetMathPar5cloneEv
lyx:_ZNK3lyx12InsetMathPar5writeERNS_13TeXMathStreamE
lyx:_ZNK3lyx12InsetMathPar7infoizeERSt13basic_ostreamIwSt11char_traitsIwEE
lyx:_ZNK3lyx12InsetMathPar7metricsERNS_11MetricsInfoERNS_9DimensionE
lyx:_ZNK3lyx12InsetMathRef11screenLabelB5cxx11Ev
lyx:_ZNK3lyx12InsetMathRef15createDialogStrERKNSt7__cxx1112basic_stringIcSt11char_traitsIcESaIcEEE
lyx:_ZNK3lyx12InsetMathRef5cloneEv
lyx:_ZNK3lyx12InsetMathRef5writeERNS_13TeXMathStreamE
lyx:_ZNK3lyx12InsetMathRef7docbookERNS_9XMLStreamERKNS_12OutputParamsE
lyx:_ZNK3lyx12InsetMathRef7infoizeERSt13basic_ostreamIwSt11char_traitsIwEE
lyx:_ZNK3lyx12InsetMathRef8validateERNS_13LaTeXFeaturesE
lyx:_ZNK3lyx12InsetMathRef9getStatusERNS_6CursorERKNS_11FuncRequestERNS_10FuncStatusE
lyx:_ZNK3lyx12InsetMathRef9getTargetB5cxx11Ev
lyx:_ZNK3lyx12InsetNewline15contextMenuNameB5cxx11Ev
lyx:_ZNK3lyx12InsetNewline4drawERNS_11PainterInfoEii
lyx:_ZNK3lyx12InsetNewline5latexERNS_10otexstreamERKNS_12OutputParamsE
lyx:_ZNK3lyx12InsetNewline5writeERSo
lyx:_ZNK3lyx12InsetNewline5xhtmlB5cxx11ERNS_9XMLStreamERKNS_12OutputParamsE
lyx:_ZNK3lyx12InsetNewline7docbookERNS_9XMLStreamERKNS_12OutputParamsE
lyx:_ZNK3lyx12InsetNewline7metricsERNS_11MetricsInfoERNS_9DimensionE
lyx:_ZNK3lyx12InsetNewline8rowFlagsEv
lyx:_ZNK3lyx12InsetNewline9ColorNameEv
lyx:_ZNK3lyx12InsetNewline9getStatusERNS_6CursorERKNS_11FuncRequestERNS_10FuncStatusE
lyx:_ZNK3lyx12InsetNewline9plaintextERNSt7__cxx1119basic_ostringstreamIwSt11char_traitsIwESaIwEEERKNS_12OutputParamsEm
lyx:_ZNK3lyx12InsetNewpage10insetLabelB5cxx11Ev
lyx:_ZNK3lyx12InsetNewpage15contextMenuNameB5cxx11Ev
lyx:_ZNK3lyx12InsetNewpage4drawERNS_11PainterInfoEii
lyx:_ZNK3lyx12InsetNewpage5latexERNS_10otexstreamERKNS_12OutputParamsE
lyx:_ZNK3lyx12InsetNewpage5writeERSo
lyx:_ZNK3lyx12InsetNewpage5xhtmlB5cxx11ERNS_9XMLStreamERKNS_12OutputParamsE
lyx:_ZNK3lyx12InsetNewpage7docbookERNS_9XMLStreamERKNS_12OutputParamsE
lyx:_ZNK3lyx12InsetNewpage7metricsERNS_11MetricsInfoERNS_9DimensionE
lyx:_ZNK3lyx12InsetNewpage9ColorNameEv
lyx:_ZNK3lyx12InsetNewpage9getStatusERNS_6CursorERKNS_11FuncRequestERNS_10FuncStatusE
lyx:_ZNK3lyx12InsetNewpage9plaintextERNSt7__cxx1119basic_ostringstreamIwSt11char_traitsIwESaIwEEERKNS_12OutputParamsEm
lyx:_ZNK3lyx12InsetNomencl11screenLabelB5cxx11Ev
lyx:_ZNK3lyx12InsetNomencl5xhtmlB5cxx11ERNS_9XMLStreamERKNS_12OutputParamsE
lyx:_ZNK3lyx12InsetNomencl7docbookERNS_9XMLStreamERKNS_12OutputParamsE
lyx:_ZNK3lyx12InsetNomencl7toolTipB5cxx11ERKNS_10BufferViewEii
lyx:_ZNK3lyx12InsetNomencl8addToTocERKNS_11DocIteratorEbNS_10UpdateTypeERNS_10TocBackendE
lyx:_ZNK3lyx12InsetNomencl8validateERNS_13LaTeXFeaturesE
lyx:_ZNK3lyx12InsetNomencl9plaintextERNSt7__cxx1119basic_ostringstreamIwSt11char_traitsIwESaIwEEERKNS_12OutputParamsEm
lyx:_ZNK3lyx12InsetPhantom10layoutNameB5cxx11Ev
lyx:_ZNK3lyx12InsetPhantom15contextMenuNameB5cxx11Ev
lyx:_ZNK3lyx12InsetPhantom15showInsetDialogEPNS_10BufferViewE
lyx:_ZNK3lyx12InsetPhantom4drawERNS_11PainterInfoEii
lyx:_ZNK3lyx12InsetPhantom5latexERNS_10otexstreamERKNS_12OutputParamsE
lyx:_ZNK3lyx12InsetPhantom5writeERSo
lyx:_ZNK3lyx12InsetPhantom5xhtmlB5cxx11ERNS_9XMLStreamERKNS_12OutputParamsE
lyx:_ZNK3lyx12InsetPhantom7docbookERNS_9XMLStreamERKNS_12OutputParamsE
lyx:_ZNK3lyx12InsetPhantom7toolTipB5cxx11ERKNS_10BufferViewEii
lyx:_ZNK3lyx12InsetPhantom9getStatusERNS_6CursorERKNS_11FuncRequestERNS_10FuncStatusE
lyx:_ZNK3lyx12InsetPhantom9plaintextERNSt7__cxx1119basic_ostringstreamIwSt11char_traitsIwESaIwEEERKNS_12OutputParamsEm
lyx:_ZNK3lyx12InsetPreview10addPreviewERKNS_11DocIteratorERNS_8graphics13PreviewLoaderE
lyx:_ZNK3lyx12InsetPreview12previewStateEPNS_10BufferViewE
lyx:_ZNK3lyx12InsetPreview13reloadPreviewERKNS_11DocIteratorE
lyx:_ZNK3lyx12InsetPreview14preparePreviewERKNS_11DocIteratorE
lyx:_ZNK3lyx12InsetPreview4drawERNS_11PainterInfoEii
lyx:_ZNK3lyx12InsetPreview5writeERSo
lyx:_ZNK3lyx12InsetPreview7metricsERNS_11MetricsInfoERNS_9DimensionE
lyx:_ZNK3lyx12InsetTabular10addPreviewERKNS_11DocIteratorERNS_8graphics13PreviewLoaderE
lyx:_ZNK3lyx12InsetTabular11columnFromXERNS_6CursorEi
lyx:_ZNK3lyx12InsetTabular11contextMenuB5cxx11ERKNS_10BufferViewEii
lyx:_ZNK3lyx12InsetTabular12getSelectionERNS_6CursorERmS3_S3_S3_
lyx:_ZNK3lyx12InsetTabular12hitSelectRowERKNS_10BufferViewEi
lyx:_ZNK3lyx12InsetTabular12insetAllowedENS_9InsetCodeE
lyx:_ZNK3lyx12InsetTabular13allowMultiParEv
lyx:_ZNK3lyx12InsetTabular13drawCellLinesERNS_11PainterInfoEiimm
lyx:_ZNK3lyx12InsetTabular13drawSelectionERNS_11PainterInfoEii
lyx:_ZNK3lyx12InsetTabular13isRightToLeftERNS_6CursorE
lyx:_ZNK3lyx12InsetTabular14drawBackgroundERNS_11PainterInfoEii
lyx:_ZNK3lyx12InsetTabular14getNearestCellERNS_10BufferViewEii
lyx:_ZNK3lyx12InsetTabular14isCellSelectedERNS_6CursorEmm
lyx:_ZNK3lyx12InsetTabular15contextMenuNameB5cxx11Ev
lyx:_ZNK3lyx12InsetTabular15hitSelectColumnERKNS_10BufferViewEi
lyx:_ZNK3lyx12InsetTabular16completionPrefixB5cxx11ERKNS_6CursorE
lyx:_ZNK3lyx12InsetTabular16getFeatureStatusERNS_6CursorERKNSt7__cxx1112basic_stringIcSt11char_traitsIcESaIcEEESA_RNS_10FuncStatusE
lyx:_ZNK3lyx12InsetTabular19completionPosAndDimERKNS_6CursorERiS4_RNS_9DimensionE
lyx:_ZNK3lyx12InsetTabular19completionSupportedERKNS_6CursorE
lyx:_ZNK3lyx12InsetTabular20createCompletionListERKNS_6CursorE
lyx:_ZNK3lyx12InsetTabular20showCompletionCursorEv
lyx:_ZNK3lyx12InsetTabular22allowsCaptionVariationERKNSt7__cxx1112basic_stringIcSt11char_traitsIcESaIcEEE
lyx:_ZNK3lyx12InsetTabular23oneCellHasRotationStateEbmmmm
lyx:_ZNK3lyx12InsetTabular24automaticPopupCompletionEv
lyx:_ZNK3lyx12InsetTabular24setCursorFromCoordinatesERNS_6CursorEii
lyx:_ZNK3lyx12InsetTabular25automaticInlineCompletionEv
lyx:_ZNK3lyx12InsetTabular25inlineCompletionSupportedERKNS_6CursorE
lyx:_ZNK3lyx12InsetTabular27allowParagraphCustomizationEm
lyx:_ZNK3lyx12InsetTabular4cellEm
lyx:_ZNK3lyx12InsetTabular4distERNS_10BufferViewEmii
lyx:_ZNK3lyx12InsetTabular4drawERNS_11PainterInfoEii
lyx:_ZNK3lyx12InsetTabular5latexERNS_10otexstreamERKNS_12OutputParamsE
lyx:_ZNK3lyx12InsetTabular5writeERSo
lyx:_ZNK3lyx12InsetTabular5xhtmlB5cxx11ERNS_9XMLStreamERKNS_12OutputParamsE
lyx:_ZNK3lyx12InsetTabular7docbookERNS_9XMLStreamERKNS_12OutputParamsE
lyx:_ZNK3lyx12InsetTabular7getTextEi
lyx:_ZNK3lyx12InsetTabular7metricsERNS_11MetricsInfoERNS_9DimensionE
lyx:_ZNK3lyx12InsetTabular8addToTocERKNS_11DocIteratorEbNS_10UpdateTypeERNS_10TocBackendE
lyx:_ZNK3lyx12InsetTabular8cellXPosEm
lyx:_ZNK3lyx12InsetTabular8cellYPosEm
lyx:_ZNK3lyx12InsetTabular8rowFlagsEv
lyx:_ZNK3lyx12InsetTabular8rowFromYERNS_6CursorEi
lyx:_ZNK3lyx12InsetTabular8validateERNS_13LaTeXFeaturesE
lyx:_ZNK3lyx12InsetTabular9clickableERKNS_10BufferViewEii
lyx:_ZNK3lyx12InsetTabular9cursorPosERKNS_10BufferViewERKNS_11CursorSliceEbRiS7_
lyx:_ZNK3lyx12InsetTabular9getStatusERNS_6CursorERKNS_11FuncRequestERNS_10FuncStatusE
lyx:_ZNK3lyx12InsetTabular9isChangedEv
lyx:_ZNK3lyx12InsetTabular9plaintextERNSt7__cxx1119basic_ostringstreamIwSt11char_traitsIwESaIwEEERKNS_12OutputParamsEm
lyx:_ZNK3lyx12MacroContext3getERKNSt7__cxx1112basic_stringIwSt11char_traitsIwESaIwEEE
lyx:_ZNK3lyx12MathMLStream8deferredB5cxx11Ev
lyx:_ZNK3lyx12OutputParams13isFullUnicodeEv
lyx:_ZNK3lyx12OutputParams7isLaTeXEv
lyx:_ZNK3lyx12RenderButton4drawERNS_11PainterInfoEiib
lyx:_ZNK3lyx12RenderButton5cloneEPKNS_5InsetE
lyx:_ZNK3lyx12RenderButton7metricsERNS_11MetricsInfoERNS_9DimensionE
lyx:_ZNK3lyx12ServerSocket7addressB5cxx11Ev
lyx:_ZNK3lyx13DocumentClass10citeStylesERKNS_14CiteEngineTypeE
lyx:_ZNK3lyx13DocumentClass11insetLayoutERKNSt7__cxx1112basic_stringIwSt11char_traitsIwESaIwEEE
lyx:_ZNK3lyx13DocumentClass12citeCommandsB5cxx11ERKNS_14CiteEngineTypeE
lyx:_ZNK3lyx13DocumentClass12getCiteMacroERKNS_14CiteEngineTypeERKNSt7__cxx1112basic_stringIcSt11char_traitsIcESaIcEEE
lyx:_ZNK3lyx13DocumentClass12getTOCLayoutEv
lyx:_ZNK3lyx13DocumentClass12hasTocLevelsEv
lyx:_ZNK3lyx13DocumentClass13forcedLayoutsB5cxx11Ev
lyx:_ZNK3lyx13DocumentClass13getCiteFormatERKNS_14CiteEngineTypeERKNSt7__cxx1112basic_stringIcSt11char_traitsIcESaIcEEEbSB_
lyx:_ZNK3lyx13DocumentClass13htmlTOCLayoutEv
lyx:_ZNK3lyx13DocumentClass14hasLaTeXLayoutERKNSt7__cxx1112basic_stringIcSt11char_traitsIcESaIcEEE
lyx:_ZNK3lyx13DocumentClass17addLayoutIfNeededERKNSt7__cxx1112basic_stringIwSt11char_traitsIwESaIwEEE
lyx:_ZNK3lyx13DocumentClass8providesERKNSt7__cxx1112basic_stringIcSt11char_traitsIcESaIcEEE
lyx:_ZNK3lyx13InsetArgument10decorationEv
lyx:_ZNK3lyx13InsetArgument10labelColorEv
lyx:_ZNK3lyx13InsetArgument12getLabelfontEv
lyx:_ZNK3lyx13InsetArgument13latexArgumentERNS_10otexstreamERKNS_12OutputParamsERKNSt7__cxx1112basic_stringIwSt11char_traitsIwESaIwEEESD_SD_
lyx:_ZNK3lyx13InsetArgument15contextMenuNameB5cxx11Ev
lyx:_ZNK3lyx13InsetArgument5writeERSo
lyx:_ZNK3lyx13InsetArgument7docbookERNS_9XMLStreamERKNS_12OutputParamsE
lyx:_ZNK3lyx13InsetArgument7getFontEv
lyx:_ZNK3lyx13InsetArgument7toolTipB5cxx11ERKNS_10BufferViewEii
lyx:_ZNK3lyx13InsetArgument8addToTocERKNS_11DocIteratorEbNS_10UpdateTypeERNS_10TocBackendE
lyx:_ZNK3lyx13InsetArgument9getStatusERNS_6CursorERKNS_11FuncRequestERNS_10FuncStatusE
lyx:_ZNK3lyx13InsetCitation10basicLabelB5cxx11Eb
lyx:_ZNK3lyx13InsetCitation11forOutlinerERNSt7__cxx1112basic_stringIwSt11char_traitsIwESaIwEEEmb
lyx:_ZNK3lyx13InsetCitation11screenLabelB5cxx11Ev
lyx:_ZNK3lyx13InsetCitation12complexLabelB5cxx11Eb
lyx:_ZNK3lyx13InsetCitation13generateLabelB5cxx11Eb
lyx:_ZNK3lyx13InsetCitation15contextMenuNameB5cxx11Ev
lyx:_ZNK3lyx13InsetCitation16getCitationStyleERKNS_12BufferParamsERKNSt7__cxx1112basic_stringIcSt11char_traitsIcESaIcEEERKSt6vectorINS_13CitationStyleESaISD_EE
lyx:_ZNK3lyx13InsetCitation17getQualifiedListsERKNSt7__cxx1112basic_stringIwSt11char_traitsIwESaIwEEE
lyx:_ZNK3lyx13InsetCitation20openCitationPossibleEv
lyx:_ZNK3lyx13InsetCitation5latexERNS_10otexstreamERKNS_12OutputParamsE
lyx:_ZNK3lyx13InsetCitation5xhtmlB5cxx11ERNS_9XMLStreamERKNS_12OutputParamsE
lyx:_ZNK3lyx13InsetCitation7docbookERNS_9XMLStreamERKNS_12OutputParamsE
lyx:_ZNK3lyx13InsetCitation7isWordsEv
lyx:_ZNK3lyx13InsetCitation7toolTipB5cxx11ERKNS_10BufferViewEii
lyx:_ZNK3lyx13InsetCitation8addToTocERKNS_11DocIteratorEbNS_10UpdateTypeERNS_10TocBackendE
lyx:_ZNK3lyx13InsetCitation8forceLTRERKNS_12OutputParamsE
lyx:_ZNK3lyx13InsetCitation8toStringERSt13basic_ostreamIwSt11char_traitsIwEE
lyx:_ZNK3lyx13InsetCitation9getStatusERNS_6CursorERKNS_11FuncRequestERNS_10FuncStatusE
lyx:_ZNK3lyx13InsetCitation9plaintextERNSt7__cxx1119basic_ostringstreamIwSt11char_traitsIwESaIwEEERKNS_12OutputParamsEm
lyx:_ZNK3lyx13InsetExternal10addPreviewERKNS_11DocIteratorERNS_8graphics13PreviewLoaderE
lyx:_ZNK3lyx13InsetExternal11fileChangedEv
lyx:_ZNK3lyx13InsetExternal11generateXMLERNS_9XMLStreamERKNS_12OutputParamsERKNSt7__cxx1112basic_stringIcSt11char_traitsIcESaIcEEE
lyx:_ZNK3lyx13InsetExternal11isPreviewedEv
lyx:_ZNK3lyx13InsetExternal13setMouseHoverEPKNS_10BufferViewEb
lyx:_ZNK3lyx13InsetExternal13updatePreviewEv
lyx:_ZNK3lyx13InsetExternal15contextMenuNameB5cxx11Ev
lyx:_ZNK3lyx13InsetExternal15isRendererValidEv
lyx:_ZNK3lyx13InsetExternal15showInsetDialogEPNS_10BufferViewE
lyx:_ZNK3lyx13InsetExternal4drawERNS_11PainterInfoEii
lyx:_ZNK3lyx13InsetExternal5latexERNS_10otexstreamERKNS_12OutputParamsE
lyx:_ZNK3lyx13InsetExternal5writeERSo
lyx:_ZNK3lyx13InsetExternal5xhtmlB5cxx11ERNS_9XMLStreamERKNS_12OutputParamsE
lyx:_ZNK3lyx13InsetExternal6paramsEv
lyx:_ZNK3lyx13InsetExternal7docbookERNS_9XMLStreamERKNS_12OutputParamsE
lyx:_ZNK3lyx13InsetExternal7metricsERNS_11MetricsInfoERNS_9DimensionE
lyx:_ZNK3lyx13InsetExternal7toolTipB5cxx11ERKNS_10BufferViewEii
lyx:_ZNK3lyx13InsetExternal8addToTocERKNS_11DocIteratorEbNS_10UpdateTypeERNS_10TocBackendE
lyx:_ZNK3lyx13InsetExternal8validateERNS_13LaTeXFeaturesE
lyx:_ZNK3lyx13InsetExternal9getStatusERNS_6CursorERKNS_11FuncRequestERNS_10FuncStatusE
lyx:_ZNK3lyx13InsetExternal9plaintextERNSt7__cxx1119basic_ostringstreamIwSt11char_traitsIwESaIwEEERKNS_12OutputParamsEm
lyx:_ZNK3lyx13InsetFootlike12insetAllowedENS_9InsetCodeE
lyx:_ZNK3lyx13InsetFootlike5writeERSo
lyx:_ZNK3lyx13InsetGraphics11getCtObjectERKNS_12OutputParamsE
lyx:_ZNK3lyx13InsetGraphics11prepareFileB5cxx11ERKNS_12OutputParamsE
lyx:_ZNK3lyx13InsetGraphics12editGraphicsERKNS_19InsetGraphicsParamsE
lyx:_ZNK3lyx13InsetGraphics14outBoundingBoxERNS_8graphics11BoundingBoxE
lyx:_ZNK3lyx13InsetGraphics15contextMenuNameB5cxx11Ev
lyx:_ZNK3lyx13InsetGraphics15prepareHTMLFileB5cxx11ERKNS_12OutputParamsE
lyx:_ZNK3lyx13InsetGraphics15showInsetDialogEPNS_10BufferViewE
lyx:_ZNK3lyx13InsetGraphics15toDocbookLengthB5cxx11ERKNS_6LengthE
lyx:_ZNK3lyx13InsetGraphics18createLatexOptionsB5cxx11Eb
lyx:_ZNK3lyx13InsetGraphics23createDocBookAttributesB5cxx11Ev
lyx:_ZNK3lyx13InsetGraphics4drawERNS_11PainterInfoEii
lyx:_ZNK3lyx13InsetGraphics5cloneEv
lyx:_ZNK3lyx13InsetGraphics5latexERNS_10otexstreamERKNS_12OutputParamsE
lyx:_ZNK3lyx13InsetGraphics5writeERSo
lyx:_ZNK3lyx13InsetGraphics5xhtmlB5cxx11ERNS_9XMLStreamERKNS_12OutputParamsE
lyx:_ZNK3lyx13InsetGraphics6paramsEv
lyx:_ZNK3lyx13InsetGraphics7docbookERNS_9XMLStreamERKNS_12OutputParamsE
lyx:_ZNK3lyx13InsetGraphics7metricsERNS_11MetricsInfoERNS_9DimensionE
lyx:_ZNK3lyx13InsetGraphics7toolTipB5cxx11ERKNS_10BufferViewEii
lyx:_ZNK3lyx13InsetGraphics8addToTocERKNS_11DocIteratorEbNS_10UpdateTypeERNS_10TocBackendE
lyx:_ZNK3lyx13InsetGraphics8validateERNS_13LaTeXFeaturesE
lyx:_ZNK3lyx13InsetGraphics9getStatusERNS_6CursorERKNS_11FuncRequestERNS_10FuncStatusE
lyx:_ZNK3lyx13InsetGraphics9plaintextERNSt7__cxx1119basic_ostringstreamIwSt11char_traitsIwESaIwEEERKNS_12OutputParamsEm
lyx:_ZNK3lyx13InsetLabelBox4drawERNS_11PainterInfoEii
lyx:_ZNK3lyx13InsetLabelBox5cloneEv
lyx:_ZNK3lyx13InsetLabelBox7metricsERNS_11MetricsInfoERNS_9DimensionE
lyx:_ZNK3lyx13InsetListings10getCaptionERKNS_12OutputParamsE
lyx:_ZNK3lyx13InsetListings10layoutNameB5cxx11Ev
lyx:_ZNK3lyx13InsetListings11buttonLabelB5cxx11ERKNS_10BufferViewE
lyx:_ZNK3lyx13InsetListings14forcedEncodingEPKNS_8EncodingES3_
lyx:_ZNK3lyx13InsetListings15contextMenuNameB5cxx11Ev
lyx:_ZNK3lyx13InsetListings15showInsetDialogEPNS_10BufferViewE
lyx:_ZNK3lyx13InsetListings5latexERNS_10otexstreamERKNS_12OutputParamsE
lyx:_ZNK3lyx13InsetListings5writeERSo
lyx:_ZNK3lyx13InsetListings5xhtmlB5cxx11ERNS_9XMLStreamERKNS_12OutputParamsE
lyx:_ZNK3lyx13InsetListings7docbookERNS_9XMLStreamERKNS_12OutputParamsE
lyx:_ZNK3lyx13InsetListings8rowFlagsEv
lyx:_ZNK3lyx13InsetListings8validateERNS_13LaTeXFeaturesE
lyx:_ZNK3lyx13InsetListings9getStatusERNS_6CursorERKNS_11FuncRequestERNS_10FuncStatusE
lyx:_ZNK3lyx13InsetMarginal7docbookERNS_9XMLStreamERKNS_12OutputParamsE
lyx:_ZNK3lyx13InsetMarginal9plaintextERNSt7__cxx1119basic_ostringstreamIwSt11char_traitsIwESaIwEEERKNS_12OutputParamsEm
lyx:_ZNK3lyx13InsetMathChar4drawERNS_11PainterInfoEii
lyx:_ZNK3lyx13InsetMathChar5cloneEv
lyx:_ZNK3lyx13InsetMathChar5drawTERNS_11TextPainterEii
lyx:_ZNK3lyx13InsetMathChar5writeERNS_13TeXMathStreamE
lyx:_ZNK3lyx13InsetMathChar6octaveERNS_12OctaveStreamE
lyx:_ZNK3lyx13InsetMathChar7htmlizeERNS_10HtmlStreamE
lyx:_ZNK3lyx13InsetMathChar7metricsERNS_11MetricsInfoERNS_9DimensionE
lyx:_ZNK3lyx13InsetMathChar8metricsTERKNS_15TextMetricsInfoERNS_9DimensionE
lyx:_ZNK3lyx13InsetMathChar8validateERNS_13LaTeXFeaturesE
lyx:_ZNK3lyx13InsetMathChar9mathClassEv
lyx:_ZNK3lyx13InsetMathChar9mathmlizeERNS_12MathMLStreamE
lyx:_ZNK3lyx13InsetMathChar9normalizeERNS_12NormalStreamE
lyx:_ZNK3lyx13InsetMathDiff11mathematicaERNS_17MathematicaStreamE
lyx:_ZNK3lyx13InsetMathDiff4drawERNS_11PainterInfoEii
lyx:_ZNK3lyx13InsetMathDiff5cloneEv
lyx:_ZNK3lyx13InsetMathDiff5mapleERNS_11MapleStreamE
lyx:_ZNK3lyx13InsetMathDiff5writeERNS_13TeXMathStreamE
lyx:_ZNK3lyx13InsetMathDiff6maximaERNS_12MaximaStreamE
lyx:_ZNK3lyx13InsetMathDiff7metricsERNS_11MetricsInfoERNS_9DimensionE
lyx:_ZNK3lyx13InsetMathDiff9normalizeERNS_12NormalStreamE
lyx:_ZNK3lyx13InsetMathDots4drawERNS_11PainterInfoEii
lyx:_ZNK3lyx13InsetMathDots4nameB5cxx11Ev
lyx:_ZNK3lyx13InsetMathDots5cloneEv
lyx:_ZNK3lyx13InsetMathDots7htmlizeERNS_10HtmlStreamE
lyx:_ZNK3lyx13InsetMathDots7metricsERNS_11MetricsInfoERNS_9DimensionE
lyx:_ZNK3lyx13InsetMathDots8validateERNS_13LaTeXFeaturesE
lyx:_ZNK3lyx13InsetMathDots9mathmlizeERNS_12MathMLStreamE
lyx:_ZNK3lyx13InsetMathFBox4drawERNS_11PainterInfoEii
lyx:_ZNK3lyx13InsetMathFBox5writeERNS_13TeXMathStreamE
lyx:_ZNK3lyx13InsetMathFBox7htmlizeERNS_10HtmlStreamE
lyx:_ZNK3lyx13InsetMathFBox7infoizeERSt13basic_ostreamIwSt11char_traitsIwEE
lyx:_ZNK3lyx13InsetMathFBox7metricsERNS_11MetricsInfoERNS_9DimensionE
lyx:_ZNK3lyx13InsetMathFBox8validateERNS_13LaTeXFeaturesE
lyx:_ZNK3lyx13InsetMathFBox9mathmlizeERNS_12MathMLStreamE
lyx:_ZNK3lyx13InsetMathFBox9normalizeERNS_12NormalStreamE
lyx:_ZNK3lyx13InsetMathFont10lockedModeEv
lyx:_ZNK3lyx13InsetMathFont11currentModeEv
lyx:_ZNK3lyx13InsetMathFont4drawERNS_11PainterInfoEii
lyx:_ZNK3lyx13InsetMathFont4fontB5cxx11Ev
lyx:_ZNK3lyx13InsetMathFont4nameB5cxx11Ev
lyx:_ZNK3lyx13InsetMathFont5cloneEv
lyx:_ZNK3lyx13InsetMathFont5drawTERNS_11TextPainterEii
lyx:_ZNK3lyx13InsetMathFont5writeERNS_13TeXMathStreamE
lyx:_ZNK3lyx13InsetMathFont7htmlizeERNS_10HtmlStreamE
lyx:_ZNK3lyx13InsetMathFont7infoizeERSt13basic_ostreamIwSt11char_traitsIwEE
lyx:_ZNK3lyx13InsetMathFont7metricsERNS_11MetricsInfoERNS_9DimensionE
lyx:_ZNK3lyx13InsetMathFont8metricsTERKNS_15TextMetricsInfoERNS_9DimensionE
lyx:_ZNK3lyx13InsetMathFont8validateERNS_13LaTeXFeaturesE
lyx:_ZNK3lyx13InsetMathFont9mathmlizeERNS_12MathMLStreamE
lyx:_ZNK3lyx13InsetMathFrac10idxForwardERNS_6CursorE
lyx:_ZNK3lyx13InsetMathFrac11asFracInsetEv
lyx:_ZNK3lyx13InsetMathFrac11extraBracesEv
lyx:_ZNK3lyx13InsetMathFrac11idxBackwardERNS_6CursorE
lyx:_ZNK3lyx13InsetMathFrac11mathematicaERNS_17MathematicaStreamE
lyx:_ZNK3lyx13InsetMathFrac4drawERNS_11PainterInfoEii
lyx:_ZNK3lyx13InsetMathFrac4nameB5cxx11Ev
lyx:_ZNK3lyx13InsetMathFrac5cloneEv
lyx:_ZNK3lyx13InsetMathFrac5drawTERNS_11TextPainterEii
lyx:_ZNK3lyx13InsetMathFrac5mapleERNS_11MapleStreamE
lyx:_ZNK3lyx13InsetMathFrac5writeERNS_13TeXMathStreamE
lyx:_ZNK3lyx13InsetMathFrac6octaveERNS_12OctaveStreamE
lyx:_ZNK3lyx13InsetMathFrac7htmlizeERNS_10HtmlStreamE
lyx:_ZNK3lyx13InsetMathFrac7metricsERNS_11MetricsInfoERNS_9DimensionE
lyx:_ZNK3lyx13InsetMathFrac8metricsTERKNS_15TextMetricsInfoERNS_9DimensionE
lyx:_ZNK3lyx13InsetMathFrac8validateERNS_13LaTeXFeaturesE
lyx:_ZNK3lyx13InsetMathFrac9mathClassEv
lyx:_ZNK3lyx13InsetMathFrac9mathmlizeERNS_12MathMLStreamE
lyx:_ZNK3lyx13InsetMathGrid10idxBetweenEmmm
lyx:_ZNK3lyx13InsetMathGrid10idxForwardERNS_6CursorE
lyx:_ZNK3lyx13InsetMathGrid11cellXOffsetERKNS_10BufferViewEm
lyx:_ZNK3lyx13InsetMathGrid11cellYOffsetERKNS_10BufferViewEm
lyx:_ZNK3lyx13InsetMathGrid11idxBackwardERNS_6CursorE
lyx:_ZNK3lyx13InsetMathGrid12hLineVOffsetERKNS_10BufferViewEmj
lyx:_ZNK3lyx13InsetMathGrid12vLineHOffsetEmj
lyx:_ZNK3lyx13InsetMathGrid15displayColAlignEm
lyx:_ZNK3lyx13InsetMathGrid15displayColSpaceEm
lyx:_ZNK3lyx13InsetMathGrid17verticalAlignmentEv
lyx:_ZNK3lyx13InsetMathGrid19horizontalAlignmentEm
lyx:_ZNK3lyx13InsetMathGrid20horizontalAlignmentsB5cxx11Ev
lyx:_ZNK3lyx13InsetMathGrid3colEm
lyx:_ZNK3lyx13InsetMathGrid3eolERNS_13TeXMathStreamEmbbb
lyx:_ZNK3lyx13InsetMathGrid3rowEm
lyx:_ZNK3lyx13InsetMathGrid4drawERNS_11PainterInfoEii
lyx:_ZNK3lyx13InsetMathGrid5cloneEv
lyx:_ZNK3lyx13InsetMathGrid5drawTERNS_11TextPainterEii
lyx:_ZNK3lyx13InsetMathGrid5indexEmm
lyx:_ZNK3lyx13InsetMathGrid5ncolsEv
lyx:_ZNK3lyx13InsetMathGrid5nrowsEv
lyx:_ZNK3lyx13InsetMathGrid5writeERNS_13TeXMathStreamE
lyx:_ZNK3lyx13InsetMathGrid5writeERNS_13TeXMathStreamEmmmm
lyx:_ZNK3lyx13InsetMathGrid6borderEv
lyx:_ZNK3lyx13InsetMathGrid6colsepEv
lyx:_ZNK3lyx13InsetMathGrid6rowsepEv
lyx:_ZNK3lyx13InsetMathGrid7RowInfo10skipPixelsERKNS_11MetricsInfoE
lyx:_ZNK3lyx13InsetMathGrid7htmlizeERNS_10HtmlStreamE
lyx:_ZNK3lyx13InsetMathGrid7htmlizeERNS_10HtmlStreamERKNSt7__cxx1112basic_stringIcSt11char_traitsIcESaIcEEE
lyx:_ZNK3lyx13InsetMathGrid7lastIdxEv
lyx:_ZNK3lyx13InsetMathGrid7metricsERNS_11MetricsInfoERNS_9DimensionE
lyx:_ZNK3lyx13InsetMathGrid7rowinfoEm
lyx:_ZNK3lyx13InsetMathGrid7vcrskipEm
lyx:_ZNK3lyx13InsetMathGrid8colAlignENS_8HullTypeEm
lyx:_ZNK3lyx13InsetMathGrid8firstIdxEv
lyx:_ZNK3lyx13InsetMathGrid8hlinesepEv
lyx:_ZNK3lyx13InsetMathGrid8metricsTERKNS_15TextMetricsInfoERNS_9DimensionE
lyx:_ZNK3lyx13InsetMathGrid8validateERNS_13LaTeXFeaturesE
lyx:_ZNK3lyx13InsetMathGrid8vlinesepEv
lyx:_ZNK3lyx13InsetMathGrid9cellWidthEm
lyx:_ZNK3lyx13InsetMathGrid9eocStringB5cxx11Emm
lyx:_ZNK3lyx13InsetMathGrid9getStatusERNS_6CursorERKNS_11FuncRequestERNS_10FuncStatusE
lyx:_ZNK3lyx13InsetMathGrid9idxUpDownERNS_6CursorEb
lyx:_ZNK3lyx13InsetMathGrid9mathmlizeERNS_12MathMLStreamE
lyx:_ZNK3lyx13InsetMathGrid9ncellcolsEm
lyx:_ZNK3lyx13InsetMathGrid9normalizeERNS_12NormalStreamE
lyx:_ZNK3lyx13InsetMathHash4drawERNS_11PainterInfoEii
lyx:_ZNK3lyx13InsetMathHash5cloneEv
lyx:_ZNK3lyx13InsetMathHash5writeERNS_13TeXMathStreamE
lyx:_ZNK3lyx13InsetMathHash7metricsERNS_11MetricsInfoERNS_9DimensionE
lyx:_ZNK3lyx13InsetMathHash9normalizeERNS_12NormalStreamE
lyx:_ZNK3lyx13InsetMathHull10addPreviewERKNS_11DocIteratorERNS_8graphics13PreviewLoaderE
lyx:_ZNK3lyx13InsetMathHull10layoutNameB5cxx11Ev
lyx:_ZNK3lyx13InsetMathHull10leftMarginEv
lyx:_ZNK3lyx13InsetMathHull10usedMacrosERKNS_8MathDataERKNS_11DocIteratorERNS_12MacroNameSetES8_
lyx:_ZNK3lyx13InsetMathHull11colChangeOKEv
lyx:_ZNK3lyx13InsetMathHull11currentModeEv
lyx:_ZNK3lyx13InsetMathHull11drawMarkersERNS_11PainterInfoEii
lyx:_ZNK3lyx13InsetMathHull11forOutlinerERNSt7__cxx1112basic_stringIwSt11char_traitsIwESaIwEEEmb
lyx:_ZNK3lyx13InsetMathHull11getCtObjectERKNS_12OutputParamsE
lyx:_ZNK3lyx13InsetMathHull11haveNumbersEv
lyx:_ZNK3lyx13InsetMathHull11loadPreviewERKNS_11DocIteratorE
lyx:_ZNK3lyx13InsetMathHull11mathAsLatexB5cxx11Ev
lyx:_ZNK3lyx13InsetMathHull11rightMarginEv
lyx:_ZNK3lyx13InsetMathHull11rowChangeOKEv
lyx:_ZNK3lyx13InsetMathHull12footer_writeERNS_13TeXMathStreamE
lyx:_ZNK3lyx13InsetMathHull12header_writeERNS_13TeXMathStreamE
lyx:_ZNK3lyx13InsetMathHull12numberedTypeEv
lyx:_ZNK3lyx13InsetMathHull12outerDisplayEv
lyx:_ZNK3lyx13InsetMathHull12previewStateEPKNS_10BufferViewE
lyx:_ZNK3lyx13InsetMathHull12standardFontB5cxx11Ev
lyx:_ZNK3lyx13InsetMathHull13reloadPreviewERKNS_11DocIteratorE
lyx:_ZNK3lyx13InsetMathHull13standardColorEv
lyx:_ZNK3lyx13InsetMathHull14canPaintChangeERKNS_10BufferViewE
lyx:_ZNK3lyx13InsetMathHull14drawBackgroundERNS_11PainterInfoEii
lyx:_ZNK3lyx13InsetMathHull14preparePreviewERKNS_11DocIteratorEb
lyx:_ZNK3lyx13InsetMathHull15backgroundColorERKNS_11PainterInfoE
lyx:_ZNK3lyx13InsetMathHull15contextMenuNameB5cxx11Ev
lyx:_ZNK3lyx13InsetMathHull15displayColAlignEm
lyx:_ZNK3lyx13InsetMathHull15displayColSpaceEm
lyx:_ZNK3lyx13InsetMathHull15initUnicodeMathEv
lyx:_ZNK3lyx13InsetMathHull21allowsTabularFeaturesEv
lyx:_ZNK3lyx13InsetMathHull3amsEv
lyx:_ZNK3lyx13InsetMathHull3eolERNS_13TeXMathStreamEmbbb
lyx:_ZNK3lyx13InsetMathHull4drawERNS_11PainterInfoEii
lyx:_ZNK3lyx13InsetMathHull5checkEv
lyx:_ZNK3lyx13InsetMathHull5cloneEv
lyx:_ZNK3lyx13InsetMathHull5drawTERNS_11TextPainterEii
lyx:_ZNK3lyx13InsetMathHull5labelB5cxx11Em
lyx:_ZNK3lyx13InsetMathHull5writeERNS_13TeXMathStreamE
lyx:_ZNK3lyx13InsetMathHull5writeERSo
lyx:_ZNK3lyx13InsetMathHull5xhtmlB5cxx11ERNS_9XMLStreamERKNS_12OutputParamsE
lyx:_ZNK3lyx13InsetMathHull6borderEv
lyx:_ZNK3lyx13InsetMathHull6indentERKNS_10BufferViewE
lyx:_ZNK3lyx13InsetMathHull7docbookERNS_9XMLStreamERKNS_12OutputParamsE
lyx:_ZNK3lyx13InsetMathHull7getTypeEv
lyx:_ZNK3lyx13InsetMathHull7htmlizeERNS_10HtmlStreamE
lyx:_ZNK3lyx13InsetMathHull7infoizeERSt13basic_ostreamIwSt11char_traitsIwEE
lyx:_ZNK3lyx13InsetMathHull7metricsERNS_11MetricsInfoERNS_9DimensionE
lyx:_ZNK3lyx13InsetMathHull8addToTocERKNS_11DocIteratorEbNS_10UpdateTypeERNS_10TocBackendE
lyx:_ZNK3lyx13InsetMathHull8metricsTERKNS_15TextMetricsInfoERNS_9DimensionE
lyx:_ZNK3lyx13InsetMathHull8numberedEm
lyx:_ZNK3lyx13InsetMathHull8rowFlagsEv
lyx:_ZNK3lyx13InsetMathHull8toStringERSt13basic_ostreamIwSt11char_traitsIwEE
lyx:_ZNK3lyx13InsetMathHull8validateERNS_13LaTeXFeaturesE
lyx:_ZNK3lyx13InsetMathHull9getStatusERNS_6CursorERKNS_11FuncRequestERNS_10FuncStatusE
lyx:_ZNK3lyx13InsetMathHull9mathmlizeERNS_12MathMLStreamE
lyx:_ZNK3lyx13InsetMathHull9nicelabelB5cxx11Em
lyx:_ZNK3lyx13InsetMathHull9normalizeERNS_12NormalStreamE
lyx:_ZNK3lyx13InsetMathHull9plaintextERNSt7__cxx1119basic_ostringstreamIwSt11char_traitsIwESaIwEEERKNS_12OutputParamsEm
lyx:_ZNK3lyx13InsetMathKern4drawERNS_11PainterInfoEii
lyx:_ZNK3lyx13InsetMathKern5cloneEv
lyx:_ZNK3lyx13InsetMathKern5writeERNS_13TeXMathStreamE
lyx:_ZNK3lyx13InsetMathKern7metricsERNS_11MetricsInfoERNS_9DimensionE
lyx:_ZNK3lyx13InsetMathKern8infoize2ERSt13basic_ostreamIwSt11char_traitsIwEE
lyx:_ZNK3lyx13InsetMathKern9normalizeERNS_12NormalStreamE
lyx:_ZNK3lyx13InsetMathNest10idxForwardERNS_6CursorE
lyx:_ZNK3lyx13InsetMathNest11idxBackwardERNS_6CursorE
lyx:_ZNK3lyx13InsetMathNest12cellsMetricsERKNS_11MetricsInfoE
lyx:_ZNK3lyx13InsetMathNest13setMouseHoverEPKNS_10BufferViewEb
lyx:_ZNK3lyx13InsetMathNest16completionPrefixB5cxx11ERKNS_6CursorE
lyx:_ZNK3lyx13InsetMathNest19completionPosAndDimERKNS_6CursorERiS4_RNS_9DimensionE
lyx:_ZNK3lyx13InsetMathNest19completionSupportedERKNS_6CursorE
lyx:_ZNK3lyx13InsetMathNest20createCompletionListERKNS_6CursorE
lyx:_ZNK3lyx13InsetMathNest21findMacroToFoldUnfoldERNS_6CursorEb
lyx:_ZNK3lyx13InsetMathNest24automaticPopupCompletionEv
lyx:_ZNK3lyx13InsetMathNest25automaticInlineCompletionEv
lyx:_ZNK3lyx13InsetMathNest25inlineCompletionSupportedERKNS_6CursorE
lyx:_ZNK3lyx13InsetMathNest4drawERNS_11PainterInfoEii
lyx:_ZNK3lyx13InsetMathNest4dumpEv
lyx:_ZNK3lyx13InsetMathNest4glueEv
lyx:_ZNK3lyx13InsetMathNest4lockEv
lyx:_ZNK3lyx13InsetMathNest5latexERNS_10otexstreamERKNS_12OutputParamsE
lyx:_ZNK3lyx13InsetMathNest5nargsEv
lyx:_ZNK3lyx13InsetMathNest5writeERNS_13TeXMathStreamE
lyx:_ZNK3lyx13InsetMathNest7idxLastERNS_6CursorE
lyx:_ZNK3lyx13InsetMathNest7idxNextERNS_6CursorE
lyx:_ZNK3lyx13InsetMathNest7idxPrevERNS_6CursorE
lyx:_ZNK3lyx13InsetMathNest8containsERKNS_8MathDataE
lyx:_ZNK3lyx13InsetMathNest8idxFirstERNS_6CursorE
lyx:_ZNK3lyx13InsetMathNest8isActiveEv
lyx:_ZNK3lyx13InsetMathNest8validateERNS_13LaTeXFeaturesE
lyx:_ZNK3lyx13InsetMathNest9cursorPosERKNS_10BufferViewERKNS_11CursorSliceEbRiS7_
lyx:_ZNK3lyx13InsetMathNest9getStatusERNS_6CursorERKNS_11FuncRequestERNS_10FuncStatusE
lyx:_ZNK3lyx13InsetMathNest9normalizeERNS_12NormalStreamE
lyx:_ZNK3lyx13InsetMathRoot10idxForwardERNS_6CursorE
lyx:_ZNK3lyx13InsetMathRoot11idxBackwardERNS_6CursorE
lyx:_ZNK3lyx13InsetMathRoot11mathematicaERNS_17MathematicaStreamE
lyx:_ZNK3lyx13InsetMathRoot4drawERNS_11PainterInfoEii
lyx:_ZNK3lyx13InsetMathRoot5cloneEv
lyx:_ZNK3lyx13InsetMathRoot5mapleERNS_11MapleStreamE
lyx:_ZNK3lyx13InsetMathRoot5writeERNS_13TeXMathStreamE
lyx:_ZNK3lyx13InsetMathRoot6octaveERNS_12OctaveStreamE
lyx:_ZNK3lyx13InsetMathRoot7htmlizeERNS_10HtmlStreamE
lyx:_ZNK3lyx13InsetMathRoot7idxLastERNS_6CursorE
lyx:_ZNK3lyx13InsetMathRoot7metricsERNS_11MetricsInfoERNS_9DimensionE
lyx:_ZNK3lyx13InsetMathRoot8idxFirstERNS_6CursorE
lyx:_ZNK3lyx13InsetMathRoot8validateERNS_13LaTeXFeaturesE
lyx:_ZNK3lyx13InsetMathRoot9idxUpDownERNS_6CursorEb
lyx:_ZNK3lyx13InsetMathRoot9mathmlizeERNS_12MathMLStreamE
lyx:_ZNK3lyx13InsetMathRoot9normalizeERNS_12NormalStreamE
lyx:_ZNK3lyx13InsetMathSize4drawERNS_11PainterInfoEii
lyx:_ZNK3lyx13InsetMathSize5cloneEv
lyx:_ZNK3lyx13InsetMathSize5writeERNS_13TeXMathStreamE
lyx:_ZNK3lyx13InsetMathSize7htmlizeERNS_10HtmlStreamE
lyx:_ZNK3lyx13InsetMathSize7infoizeERSt13basic_ostreamIwSt11char_traitsIwEE
lyx:_ZNK3lyx13InsetMathSize7metricsERNS_11MetricsInfoERNS_9DimensionE
lyx:_ZNK3lyx13InsetMathSize8validateERNS_13LaTeXFeaturesE
lyx:_ZNK3lyx13InsetMathSize9mathmlizeERNS_12MathMLStreamE
lyx:_ZNK3lyx13InsetMathSize9normalizeERNS_12NormalStreamE
lyx:_ZNK3lyx13InsetMathSqrt11mathematicaERNS_17MathematicaStreamE
lyx:_ZNK3lyx13InsetMathSqrt4drawERNS_11PainterInfoEii
lyx:_ZNK3lyx13InsetMathSqrt5cloneEv
lyx:_ZNK3lyx13InsetMathSqrt5drawTERNS_11TextPainterEii
lyx:_ZNK3lyx13InsetMathSqrt5mapleERNS_11MapleStreamE
lyx:_ZNK3lyx13InsetMathSqrt5writeERNS_13TeXMathStreamE
lyx:_ZNK3lyx13InsetMathSqrt6octaveERNS_12OctaveStreamE
lyx:_ZNK3lyx13InsetMathSqrt7htmlizeERNS_10HtmlStreamE
lyx:_ZNK3lyx13InsetMathSqrt7metricsERNS_11MetricsInfoERNS_9DimensionE
lyx:_ZNK3lyx13InsetMathSqrt8metricsTERKNS_15TextMetricsInfoERNS_9DimensionE
lyx:_ZNK3lyx13InsetMathSqrt8validateERNS_13LaTeXFeaturesE
lyx:_ZNK3lyx13InsetMathSqrt9mathmlizeERNS_12MathMLStreamE
lyx:_ZNK3lyx13InsetMathSqrt9normalizeERNS_12NormalStreamE
lyx:_ZNK3lyx13LaTeXFeatures10isProvidedERKNSt7__cxx1112basic_stringIcSt11char_traitsIcESaIcEEE
lyx:_ZNK3lyx13LaTeXFeatures10isRequiredERKNSt7__cxx1112basic_stringIcSt11char_traitsIcESaIcEEE
lyx:_ZNK3lyx13LaTeXFeatures10showStructEv
lyx:_ZNK3lyx13LaTeXFeatures11getPackagesB5cxx11Ev
lyx:_ZNK3lyx13LaTeXFeatures11langPackageEv
lyx:_ZNK3lyx13LaTeXFeatures11mustProvideERKNSt7__cxx1112basic_stringIcSt11char_traitsIcESaIcEEE
lyx:_ZNK3lyx13LaTeXFeatures12bufferParamsEv
lyx:_ZNK3lyx13LaTeXFeatures12hasLanguagesEv
lyx:_ZNK3lyx13LaTeXFeatures14getActiveCharsB5cxx11Ev
lyx:_ZNK3lyx13LaTeXFeatures14getCSSSnippetsB5cxx11Ev
lyx:_ZNK3lyx13LaTeXFeatures14getEncodingSetERKNSt7__cxx1112basic_stringIcSt11char_traitsIcESaIcEEE
lyx:_ZNK3lyx13LaTeXFeatures14hasRTLLanguageEv
lyx:_ZNK3lyx13LaTeXFeatures15getColorOptionsB5cxx11Ev
lyx:_ZNK3lyx13LaTeXFeatures15loadAMSPackagesB5cxx11Ev
lyx:_ZNK3lyx13LaTeXFeatures16getFontEncodingsERSt6vectorINSt7__cxx1112basic_stringIcSt11char_traitsIcESaIcEEESaIS7_EEb
lyx:_ZNK3lyx13LaTeXFeatures17getBabelLanguagesB5cxx11Ev
lyx:_ZNK3lyx13LaTeXFeatures17getPackageOptionsB5cxx11Ev
lyx:_ZNK3lyx13LaTeXFeatures17getTClassPreambleB5cxx11Ev
lyx:_ZNK3lyx13LaTeXFeatures19getBabelPresettingsB5cxx11Ev
lyx:_ZNK3lyx13LaTeXFeatures19getFloatDefinitionsERNS_10otexstreamE
lyx:_ZNK3lyx13LaTeXFeatures19getPreambleSnippetsEv
lyx:_ZNK3lyx13LaTeXFeatures19getTClassHTMLStylesB5cxx11Ev
lyx:_ZNK3lyx13LaTeXFeatures20getBabelPostsettingsB5cxx11Ev
lyx:_ZNK3lyx13LaTeXFeatures21getTClassHTMLPreambleB5cxx11Ev
lyx:_ZNK3lyx13LaTeXFeatures21getTClassI18nPreambleB5cxx11Ebbb
lyx:_ZNK3lyx13LaTeXFeatures23getPolyglossiaLanguagesB5cxx11Ev
lyx:_ZNK3lyx13LaTeXFeatures26getBabelExclusiveLanguagesB5cxx11Ev
lyx:_ZNK3lyx13LaTeXFeatures27hasOnlyPolyglossiaLanguagesEv
lyx:_ZNK3lyx13LaTeXFeatures32getPolyglossiaExclusiveLanguagesB5cxx11Ev
lyx:_ZNK3lyx13LaTeXFeatures32hasPolyglossiaExclusiveLanguagesEv
lyx:_ZNK3lyx13LaTeXFeatures6bufferEv
lyx:_ZNK3lyx13LaTeXFeatures9getMacrosEv
lyx:_ZNK3lyx13LyXCiteEngine11isAvailableEv
lyx:_ZNK3lyx13LyXCiteEngine13hasEngineTypeERKNS_14CiteEngineTypeE
lyx:_ZNK3lyx13LyXCiteEngine13prerequisitesB5cxx11Ev
lyx:_ZNK3lyx13LyXCiteEngine15isDefaultBiblioERKNSt7__cxx1112basic_stringIcSt11char_traitsIcESaIcEEE
lyx:_ZNK3lyx13LyXCiteEngine16getDefaultBiblioB5cxx11ERKNS_14CiteEngineTypeE
lyx:_ZNK3lyx13LyXCiteEngine8requiredERKNSt7__cxx1112basic_stringIcSt11char_traitsIcESaIcEEE
lyx:_ZNK3lyx13LyXDataSocket9connectedEv
lyx:_ZNK3lyx13LyXFileDialog10metaObjectEv
lyx:_ZNK3lyx13RenderGraphic4drawERNS_11PainterInfoEiib
lyx:_ZNK3lyx13RenderGraphic5cloneEPKNS_5InsetE
lyx:_ZNK3lyx13RenderGraphic6reloadEv
lyx:_ZNK3lyx13RenderGraphic7metricsERNS_11MetricsInfoERNS_9DimensionE
lyx:_ZNK3lyx13RenderPreview12startLoadingERKNS_6BufferEb
lyx:_ZNK3lyx13RenderPreview15getPreviewImageERKNS_6BufferE
lyx:_ZNK3lyx13RenderPreview4drawERNS_11PainterInfoEiib
lyx:_ZNK3lyx13RenderPreview5cloneEPKNS_5InsetE
lyx:_ZNK3lyx13RenderPreview7metricsERNS_11MetricsInfoERNS_9DimensionE
lyx:_ZNK3lyx14ConverterCache10remove_allERKNSt7__cxx1112basic_stringIcSt11char_traitsIcESaIcEEES8_
lyx:_ZNK3lyx14ConverterCache10writeIndexEv
lyx:_ZNK3lyx14ConverterCache3addERKNS_7support8FileNameERKNSt7__cxx1112basic_stringIcSt11char_traitsIcESaIcEEES4_
lyx:_ZNK3lyx14ConverterCache4copyERKNS_7support8FileNameERKNSt7__cxx1112basic_stringIcSt11char_traitsIcESaIcEEES4_
lyx:_ZNK3lyx14ConverterCache6removeERKNS_7support8FileNameERKNSt7__cxx1112basic_stringIcSt11char_traitsIcESaIcEEE
lyx:_ZNK3lyx14ConverterCache7inCacheERKNS_7support8FileNameERKNSt7__cxx1112basic_stringIcSt11char_traitsIcESaIcEEE
lyx:_ZNK3lyx14ConverterCache9cacheNameERKNS_7support8FileNameERKNSt7__cxx1112basic_stringIcSt11char_traitsIcESaIcEEE
lyx:_ZNK3lyx14EnchantChecker13hasDictionaryEPKNS_8LanguageE
lyx:_ZNK3lyx14EnchantChecker15numDictionariesEv
lyx:_ZNK3lyx14InsetBoxParams5writeERSo
lyx:_ZNK3lyx14InsetFloatList10layoutNameB5cxx11Ev
lyx:_ZNK3lyx14InsetFloatList11screenLabelB5cxx11Ev
lyx:_ZNK3lyx14InsetFloatList5latexERNS_10otexstreamERKNS_12OutputParamsE
lyx:_ZNK3lyx14InsetFloatList5writeERSo
lyx:_ZNK3lyx14InsetFloatList5xhtmlB5cxx11ERNS_9XMLStreamERKNS_12OutputParamsE
lyx:_ZNK3lyx14InsetFloatList8validateERNS_13LaTeXFeaturesE
lyx:_ZNK3lyx14InsetFloatList9plaintextERNSt7__cxx1119basic_ostringstreamIwSt11char_traitsIwESaIwEEERKNS_12OutputParamsEm
lyx:_ZNK3lyx14InsetHyperlink10viewTargetEv
lyx:_ZNK3lyx14InsetHyperlink11forOutlinerERNSt7__cxx1112basic_stringIwSt11char_traitsIwESaIwEEEmb
lyx:_ZNK3lyx14InsetHyperlink11screenLabelB5cxx11Ev
lyx:_ZNK3lyx14InsetHyperlink15contextMenuNameB5cxx11Ev
lyx:_ZNK3lyx14InsetHyperlink5latexERNS_10otexstreamERKNS_12OutputParamsE
lyx:_ZNK3lyx14InsetHyperlink5xhtmlB5cxx11ERNS_9XMLStreamERKNS_12OutputParamsE
lyx:_ZNK3lyx14InsetHyperlink7docbookERNS_9XMLStreamERKNS_12OutputParamsE
lyx:_ZNK3lyx14InsetHyperlink7isWordsEv
lyx:_ZNK3lyx14InsetHyperlink7toolTipB5cxx11ERKNS_10BufferViewEii
lyx:_ZNK3lyx14InsetHyperlink8toStringERSt13basic_ostreamIwSt11char_traitsIwEE
lyx:_ZNK3lyx14InsetHyperlink8validateERNS_13LaTeXFeaturesE
lyx:_ZNK3lyx14InsetHyperlink9getStatusERNS_6CursorERKNS_11FuncRequestERNS_10FuncStatusE
lyx:_ZNK3lyx14InsetHyperlink9plaintextERNSt7__cxx1119basic_ostringstreamIwSt11char_traitsIwESaIwEEERKNS_12OutputParamsEm
lyx:_ZNK3lyx14InsetMathArray4drawERNS_11PainterInfoEii
lyx:_ZNK3lyx14InsetMathArray5cloneEv
lyx:_ZNK3lyx14InsetMathArray5mapleERNS_11MapleStreamE
lyx:_ZNK3lyx14InsetMathArray5writeERNS_13TeXMathStreamE
lyx:_ZNK3lyx14InsetMathArray7infoizeERSt13basic_ostreamIwSt11char_traitsIwEE
lyx:_ZNK3lyx14InsetMathArray7metricsERNS_11MetricsInfoERNS_9DimensionE
lyx:_ZNK3lyx14InsetMathArray8validateERNS_13LaTeXFeaturesE
lyx:_ZNK3lyx14InsetMathArray9normalizeERNS_12NormalStreamE
lyx:_ZNK3lyx14InsetMathBinom11extraBracesEv
lyx:_ZNK3lyx14InsetMathBinom2dwEi
lyx:_ZNK3lyx14InsetMathBinom4drawERNS_11PainterInfoEii
lyx:_ZNK3lyx14InsetMathBinom5cloneEv
lyx:_ZNK3lyx14InsetMathBinom5writeERNS_13TeXMathStreamE
lyx:_ZNK3lyx14InsetMathBinom7htmlizeERNS_10HtmlStreamE
lyx:_ZNK3lyx14InsetMathBinom7metricsERNS_11MetricsInfoERNS_9DimensionE
lyx:_ZNK3lyx14InsetMathBinom8validateERNS_13LaTeXFeaturesE
lyx:_ZNK3lyx14InsetMathBinom9mathmlizeERNS_12MathMLStreamE
lyx:_ZNK3lyx14InsetMathBinom9normalizeERNS_12NormalStreamE
lyx:_ZNK3lyx14InsetMathBoxed4drawERNS_11PainterInfoEii
lyx:_ZNK3lyx14InsetMathBoxed5writeERNS_13TeXMathStreamE
lyx:_ZNK3lyx14InsetMathBoxed7htmlizeERNS_10HtmlStreamE
lyx:_ZNK3lyx14InsetMathBoxed7infoizeERSt13basic_ostreamIwSt11char_traitsIwEE
lyx:_ZNK3lyx14InsetMathBoxed7metricsERNS_11MetricsInfoERNS_9DimensionE
lyx:_ZNK3lyx14InsetMathBoxed8validateERNS_13LaTeXFeaturesE
lyx:_ZNK3lyx14InsetMathBoxed9mathmlizeERNS_12MathMLStreamE
lyx:_ZNK3lyx14InsetMathBoxed9normalizeERNS_12NormalStreamE
lyx:_ZNK3lyx14InsetMathBrace11mathematicaERNS_17MathematicaStreamE
lyx:_ZNK3lyx14InsetMathBrace4drawERNS_11PainterInfoEii
lyx:_ZNK3lyx14InsetMathBrace5cloneEv
lyx:_ZNK3lyx14InsetMathBrace5mapleERNS_11MapleStreamE
lyx:_ZNK3lyx14InsetMathBrace5writeERNS_13TeXMathStreamE
lyx:_ZNK3lyx14InsetMathBrace6octaveERNS_12OctaveStreamE
lyx:_ZNK3lyx14InsetMathBrace7htmlizeERNS_10HtmlStreamE
lyx:_ZNK3lyx14InsetMathBrace7infoizeERSt13basic_ostreamIwSt11char_traitsIwEE
lyx:_ZNK3lyx14InsetMathBrace7metricsERNS_11MetricsInfoERNS_9DimensionE
lyx:_ZNK3lyx14InsetMathBrace9mathmlizeERNS_12MathMLStreamE
lyx:_ZNK3lyx14InsetMathBrace9normalizeERNS_12NormalStreamE
lyx:_ZNK3lyx14InsetMathCases15displayColSpaceEm
lyx:_ZNK3lyx14InsetMathCases4drawERNS_11PainterInfoEii
lyx:_ZNK3lyx14InsetMathCases5cloneEv
lyx:_ZNK3lyx14InsetMathCases5mapleERNS_11MapleStreamE
lyx:_ZNK3lyx14InsetMathCases5writeERNS_13TeXMathStreamE
lyx:_ZNK3lyx14InsetMathCases7htmlizeERNS_10HtmlStreamE
lyx:_ZNK3lyx14InsetMathCases7infoizeERSt13basic_ostreamIwSt11char_traitsIwEE
lyx:_ZNK3lyx14InsetMathCases7metricsERNS_11MetricsInfoERNS_9DimensionE
lyx:_ZNK3lyx14InsetMathCases8validateERNS_13LaTeXFeaturesE
lyx:_ZNK3lyx14InsetMathCases9getStatusERNS_6CursorERKNS_11FuncRequestERNS_10FuncStatusE
lyx:_ZNK3lyx14InsetMathCases9mathmlizeERNS_12MathMLStreamE
lyx:_ZNK3lyx14InsetMathCases9normalizeERNS_12NormalStreamE
lyx:_ZNK3lyx14InsetMathClass13defaultLimitsEb
lyx:_ZNK3lyx14InsetMathClass4drawERNS_11PainterInfoEii
lyx:_ZNK3lyx14InsetMathClass4nameB5cxx11Ev
lyx:_ZNK3lyx14InsetMathClass5cloneEv
lyx:_ZNK3lyx14InsetMathClass5writeERNS_13TeXMathStreamE
lyx:_ZNK3lyx14InsetMathClass7infoizeERSt13basic_ostreamIwSt11char_traitsIwEE
lyx:_ZNK3lyx14InsetMathClass7metricsERNS_11MetricsInfoERNS_9DimensionE
lyx:_ZNK3lyx14InsetMathClass9mathmlizeERNS_12MathMLStreamE
lyx:_ZNK3lyx14InsetMathColor4drawERNS_11PainterInfoEii
lyx:_ZNK3lyx14InsetMathColor5cloneEv
lyx:_ZNK3lyx14InsetMathColor5writeERNS_13TeXMathStreamE
lyx:_ZNK3lyx14InsetMathColor7infoizeERSt13basic_ostreamIwSt11char_traitsIwEE
lyx:_ZNK3lyx14InsetMathColor7metricsERNS_11MetricsInfoERNS_9DimensionE
lyx:_ZNK3lyx14InsetMathColor8validateERNS_13LaTeXFeaturesE
lyx:_ZNK3lyx14InsetMathColor9normalizeERNS_12NormalStreamE
lyx:_ZNK3lyx14InsetMathDelim10isBracketsEv
lyx:_ZNK3lyx14InsetMathDelim11mathematicaERNS_17MathematicaStreamE
lyx:_ZNK3lyx14InsetMathDelim13isParenthesisEv
lyx:_ZNK3lyx14InsetMathDelim4drawERNS_11PainterInfoEii
lyx:_ZNK3lyx14InsetMathDelim5cloneEv
lyx:_ZNK3lyx14InsetMathDelim5isAbsEv
lyx:_ZNK3lyx14InsetMathDelim5mapleERNS_11MapleStreamE
lyx:_ZNK3lyx14InsetMathDelim5writeERNS_13TeXMathStreamE
lyx:_ZNK3lyx14InsetMathDelim6maximaERNS_12MaximaStreamE
lyx:_ZNK3lyx14InsetMathDelim6octaveERNS_12OctaveStreamE
lyx:_ZNK3lyx14InsetMathDelim7htmlizeERNS_10HtmlStreamE
lyx:_ZNK3lyx14InsetMathDelim7metricsERNS_11MetricsInfoERNS_9DimensionE
lyx:_ZNK3lyx14InsetMathDelim8validateERNS_13LaTeXFeaturesE
lyx:_ZNK3lyx14InsetMathDelim9mathmlizeERNS_12MathMLStreamE
lyx:_ZNK3lyx14InsetMathDelim9normalizeERNS_12NormalStreamE
lyx:_ZNK3lyx14InsetMathExInt10hasScriptsEv
lyx:_ZNK3lyx14InsetMathExInt11mathematicaERNS_17MathematicaStreamE
lyx:_ZNK3lyx14InsetMathExInt4drawERNS_11PainterInfoEii
lyx:_ZNK3lyx14InsetMathExInt5cloneEv
lyx:_ZNK3lyx14InsetMathExInt5mapleERNS_11MapleStreamE
lyx:_ZNK3lyx14InsetMathExInt5writeERNS_13TeXMathStreamE
lyx:_ZNK3lyx14InsetMathExInt6maximaERNS_12MaximaStreamE
lyx:_ZNK3lyx14InsetMathExInt7htmlizeERNS_10HtmlStreamE
lyx:_ZNK3lyx14InsetMathExInt7metricsERNS_11MetricsInfoERNS_9DimensionE
lyx:_ZNK3lyx14InsetMathExInt9mathmlizeERNS_12MathMLStreamE
lyx:_ZNK3lyx14InsetMathExInt9normalizeERNS_12NormalStreamE
lyx:_ZNK3lyx14InsetMathMacro10beforeDrawERKNS_11PainterInfoE
lyx:_ZNK3lyx14InsetMathMacro11currentModeEv
lyx:_ZNK3lyx14InsetMathMacro11displayModeEv
lyx:_ZNK3lyx14InsetMathMacro11editMetricsEPKNS_10BufferViewE
lyx:_ZNK3lyx14InsetMathMacro11extraBracesEv
lyx:_ZNK3lyx14InsetMathMacro11macroBackupEv
lyx:_ZNK3lyx14InsetMathMacro11mathematicaERNS_17MathematicaStreamE
lyx:_ZNK3lyx14InsetMathMacro12addToMathRowERNS_7MathRowERNS_11MetricsInfoE
lyx:_ZNK3lyx14InsetMathMacro12afterMetricsEv
lyx:_ZNK3lyx14InsetMathMacro13beforeMetricsEv
lyx:_ZNK3lyx14InsetMathMacro13defaultLimitsEb
lyx:_ZNK3lyx14InsetMathMacro16completionPrefixB5cxx11ERKNS_6CursorE
lyx:_ZNK3lyx14InsetMathMacro18allowsLimitsChangeEv
lyx:_ZNK3lyx14InsetMathMacro18computeDisplayModeEv
lyx:_ZNK3lyx14InsetMathMacro19completionPosAndDimERKNS_6CursorERiS4_RNS_9DimensionE
lyx:_ZNK3lyx14InsetMathMacro19completionSupportedERKNS_6CursorE
lyx:_ZNK3lyx14InsetMathMacro20createCompletionListERKNS_6CursorE
lyx:_ZNK3lyx14InsetMathMacro24automaticPopupCompletionEv
lyx:_ZNK3lyx14InsetMathMacro25automaticInlineCompletionEv
lyx:_ZNK3lyx14InsetMathMacro25inlineCompletionSupportedERKNS_6CursorE
lyx:_ZNK3lyx14InsetMathMacro4drawERNS_11PainterInfoEii
lyx:_ZNK3lyx14InsetMathMacro4nameB5cxx11Ev
lyx:_ZNK3lyx14InsetMathMacro5arityEv
lyx:_ZNK3lyx14InsetMathMacro5cloneEv
lyx:_ZNK3lyx14InsetMathMacro5macroEv
lyx:_ZNK3lyx14InsetMathMacro5mapleERNS_11MapleStreamE
lyx:_ZNK3lyx14InsetMathMacro5writeERNS_13TeXMathStreamE
lyx:_ZNK3lyx14InsetMathMacro6foldedEv
lyx:_ZNK3lyx14InsetMathMacro6limitsEv
lyx:_ZNK3lyx14InsetMathMacro6markerEPKNS_10BufferViewE
lyx:_ZNK3lyx14InsetMathMacro6maximaERNS_12MaximaStreamE
lyx:_ZNK3lyx14InsetMathMacro6octaveERNS_12OctaveStreamE
lyx:_ZNK3lyx14InsetMathMacro7htmlizeERNS_10HtmlStreamE
lyx:_ZNK3lyx14InsetMathMacro7idxLastERNS_6CursorE
lyx:_ZNK3lyx14InsetMathMacro7infoizeERSt13basic_ostreamIwSt11char_traitsIwEE
lyx:_ZNK3lyx14InsetMathMacro7kerningEPKNS_10BufferViewE
lyx:_ZNK3lyx14InsetMathMacro7metricsERNS_11MetricsInfoERNS_9DimensionE
lyx:_ZNK3lyx14InsetMathMacro7nestingEv
lyx:_ZNK3lyx14InsetMathMacro8appetiteEv
lyx:_ZNK3lyx14InsetMathMacro8editModeEPKNS_10BufferViewE
lyx:_ZNK3lyx14InsetMathMacro8idxFirstERNS_6CursorE
lyx:_ZNK3lyx14InsetMathMacro8infoize2ERSt13basic_ostreamIwSt11char_traitsIwEE
lyx:_ZNK3lyx14InsetMathMacro8validateERNS_13LaTeXFeaturesE
lyx:_ZNK3lyx14InsetMathMacro9afterDrawERKNS_11PainterInfoE
lyx:_ZNK3lyx14InsetMathMacro9cursorPosERKNS_10BufferViewERKNS_11CursorSliceEbRiS7_
lyx:_ZNK3lyx14InsetMathMacro9macroNameB5cxx11Ev
lyx:_ZNK3lyx14InsetMathMacro9mathClassEv
lyx:_ZNK3lyx14InsetMathMacro9mathmlizeERNS_12MathMLStreamE
lyx:_ZNK3lyx14InsetMathMacro9normalizeERNS_12NormalStreamE
lyx:_ZNK3lyx14InsetMathMacro9optionalsEv
lyx:_ZNK3lyx14InsetMathMacro9validNameEv
lyx:_ZNK3lyx14InsetMathSpace10isNegativeEv
lyx:_ZNK3lyx14InsetMathSpace11mathematicaERNS_17MathematicaStreamE
lyx:_ZNK3lyx14InsetMathSpace15contextMenuNameB5cxx11Ev
lyx:_ZNK3lyx14InsetMathSpace4drawERNS_11PainterInfoEii
lyx:_ZNK3lyx14InsetMathSpace5cloneEv
lyx:_ZNK3lyx14InsetMathSpace5mapleERNS_11MapleStreamE
lyx:_ZNK3lyx14InsetMathSpace5writeERNS_13TeXMathStreamE
lyx:_ZNK3lyx14InsetMathSpace6octaveERNS_12OctaveStreamE
lyx:_ZNK3lyx14InsetMathSpace6paramsEv
lyx:_ZNK3lyx14InsetMathSpace7htmlizeERNS_10HtmlStreamE
lyx:_ZNK3lyx14InsetMathSpace7metricsERNS_11MetricsInfoERNS_9DimensionE
lyx:_ZNK3lyx14InsetMathSpace8validateERNS_13LaTeXFeaturesE
lyx:_ZNK3lyx14InsetMathSpace9getStatusERNS_6CursorERKNS_11FuncRequestERNS_10FuncStatusE
lyx:_ZNK3lyx14InsetMathSpace9mathmlizeERNS_12MathMLStreamE
lyx:_ZNK3lyx14InsetMathSpace9normalizeERNS_12NormalStreamE
lyx:_ZNK3lyx14InsetMathSplit15displayColAlignEm
lyx:_ZNK3lyx14InsetMathSplit15displayColSpaceEm
lyx:_ZNK3lyx14InsetMathSplit4drawERNS_11PainterInfoEii
lyx:_ZNK3lyx14InsetMathSplit5cloneEv
lyx:_ZNK3lyx14InsetMathSplit5writeERNS_13TeXMathStreamE
lyx:_ZNK3lyx14InsetMathSplit7htmlizeERNS_10HtmlStreamE
lyx:_ZNK3lyx14InsetMathSplit7infoizeERSt13basic_ostreamIwSt11char_traitsIwEE
lyx:_ZNK3lyx14InsetMathSplit7metricsERNS_11MetricsInfoERNS_9DimensionE
lyx:_ZNK3lyx14InsetMathSplit8validateERNS_13LaTeXFeaturesE
lyx:_ZNK3lyx14InsetMathSplit9getStatusERNS_6CursorERKNS_11FuncRequestERNS_10FuncStatusE
lyx:_ZNK3lyx14InsetMathSplit9mathmlizeERNS_12MathMLStreamE
lyx:_ZNK3lyx14InsetSeparator15contextMenuNameB5cxx11Ev
lyx:_ZNK3lyx14InsetSeparator4drawERNS_11PainterInfoEii
lyx:_ZNK3lyx14InsetSeparator5latexERNS_10otexstreamERKNS_12OutputParamsE
lyx:_ZNK3lyx14InsetSeparator5writeERSo
lyx:_ZNK3lyx14InsetSeparator5xhtmlB5cxx11ERNS_9XMLStreamERKNS_12OutputParamsE
lyx:_ZNK3lyx14InsetSeparator7docbookERNS_9XMLStreamERKNS_12OutputParamsE
lyx:_ZNK3lyx14InsetSeparator7metricsERNS_11MetricsInfoERNS_9DimensionE
lyx:_ZNK3lyx14InsetSeparator9ColorNameEv
lyx:_ZNK3lyx14InsetSeparator9getStatusERNS_6CursorERKNS_11FuncRequestERNS_10FuncStatusE
lyx:_ZNK3lyx14InsetSeparator9plaintextERNSt7__cxx1119basic_ostringstreamIwSt11char_traitsIwESaIwEEERKNS_12OutputParamsEm
lyx:_ZNK3lyx14InsetTableCell12insetAllowedENS_9InsetCodeE
lyx:_ZNK3lyx14InsetTableCell20forceLocalFontSwitchEv
lyx:_ZNK3lyx14InsetTableCell27allowParagraphCustomizationEm
lyx:_ZNK3lyx14InsetTableCell5xhtmlB5cxx11ERNS_9XMLStreamERKNS_12OutputParamsE
lyx:_ZNK3lyx14InsetTableCell7docbookERNS_9XMLStreamERKNS_12OutputParamsE
lyx:_ZNK3lyx14InsetTableCell7metricsERNS_11MetricsInfoERNS_9DimensionE
lyx:_ZNK3lyx14InsetTableCell8addToTocERKNS_11DocIteratorEbNS_10UpdateTypeERNS_10TocBackendE
lyx:_ZNK3lyx14InsetTableCell9getStatusERNS_6CursorERKNS_11FuncRequestERNS_10FuncStatusE
lyx:_ZNK3lyx14LayoutFileList9classListEv
lyx:_ZNK3lyx14LayoutFileList9haveClassERKNSt7__cxx1112basic_stringIcSt11char_traitsIcESaIcEEE
lyx:_ZNK3lyx14LayoutFileListixERKNSt7__cxx1112basic_stringIcSt11char_traitsIcESaIcEEE
lyx:_ZNK3lyx15CiteEnginesList15getTypeAsStringB5cxx11ERKNS_14CiteEngineTypeE
lyx:_ZNK3lyx15CiteEnginesList3endEv
lyx:_ZNK3lyx15CiteEnginesList5beginEv
lyx:_ZNK3lyx15CiteEnginesList7getTypeERKNSt7__cxx1112basic_stringIcSt11char_traitsIcESaIcEEE
lyx:_ZNK3lyx15CiteEnginesListixERKNSt7__cxx1112basic_stringIcSt11char_traitsIcESaIcEEE
lyx:_ZNK3lyx15HunspellChecker13hasDictionaryEPKNS_8LanguageE
lyx:_ZNK3lyx15HunspellChecker15numDictionariesEv
lyx:_ZNK3lyx15HunspellChecker7Private15numDictionariesEv
lyx:_ZNK3lyx15HunspellChecker7Private9isIgnoredERKNS_13WordLangTupleE
lyx:_ZNK3lyx15InsetIndexMacro10getDocbookERNS_9XMLStreamERKNS_12OutputParamsE
lyx:_ZNK3lyx15InsetIndexMacro10getSortkeyERNS_10otexstreamERKNS_12OutputParamsE
lyx:_ZNK3lyx15InsetIndexMacro10hasSortKeyEv
lyx:_ZNK3lyx15InsetIndexMacro10layoutNameB5cxx11Ev
lyx:_ZNK3lyx15InsetIndexMacro11contextMenuB5cxx11ERKNS_10BufferViewEii
lyx:_ZNK3lyx15InsetIndexMacro12getPlaintextERNSt7__cxx1119basic_ostringstreamIwSt11char_traitsIwESaIwEEERKNS_12OutputParamsEm
lyx:_ZNK3lyx15InsetIndexMacro12hasNoContentEv
lyx:_ZNK3lyx15InsetIndexMacro12insetAllowedENS_9InsetCodeE
lyx:_ZNK3lyx15InsetIndexMacro15contextMenuNameB5cxx11Ev
lyx:_ZNK3lyx15InsetIndexMacro19processLatexSortingERNS_10otexstreamERKNS_12OutputParamsENSt7__cxx1112basic_stringIwSt11char_traitsIwESaIwEEESB_
lyx:_ZNK3lyx15InsetIndexMacro5writeERSo
lyx:_ZNK3lyx15InsetIndexMacro7lyxCodeEv
lyx:_ZNK3lyx15InsetIndexMacro7toolTipB5cxx11ERKNS_10BufferViewEii
lyx:_ZNK3lyx15InsetIndexMacro8getLatexERNS_10otexstreamERKNS_12OutputParamsE
lyx:_ZNK3lyx15InsetIndexMacro8getXhtmlB5cxx11ERNS_9XMLStreamERKNS_12OutputParamsE
lyx:_ZNK3lyx15InsetIndexMacro9getStatusERNS_6CursorERKNS_11FuncRequestERNS_10FuncStatusE
lyx:_ZNK3lyx15InsetInfoParams12getArgumentsEPKNS_6BufferERKNSt7__cxx1112basic_stringIcSt11char_traitsIcESaIcEEE
lyx:_ZNK3lyx15InsetInfoParams16validateArgumentEPKNS_6BufferERKNSt7__cxx1112basic_stringIwSt11char_traitsIwESaIwEEEb
lyx:_ZNK3lyx15InsetInfoParams8infoTypeB5cxx11Ev
lyx:_ZNK3lyx15InsetMathCancel4drawERNS_11PainterInfoEii
lyx:_ZNK3lyx15InsetMathCancel5cloneEv
lyx:_ZNK3lyx15InsetMathCancel5writeERNS_13TeXMathStreamE
lyx:_ZNK3lyx15InsetMathCancel7htmlizeERNS_10HtmlStreamE
lyx:_ZNK3lyx15InsetMathCancel7infoizeERSt13basic_ostreamIwSt11char_traitsIwEE
lyx:_ZNK3lyx15InsetMathCancel7metricsERNS_11MetricsInfoERNS_9DimensionE
lyx:_ZNK3lyx15InsetMathCancel8validateERNS_13LaTeXFeaturesE
lyx:_ZNK3lyx15InsetMathCancel9mathmlizeERNS_12MathMLStreamE
lyx:_ZNK3lyx15InsetMathCancel9normalizeERNS_12NormalStreamE
lyx:_ZNK3lyx15InsetMathExFunc11mathematicaERNS_17MathematicaStreamE
lyx:_ZNK3lyx15InsetMathExFunc4drawERNS_11PainterInfoEii
lyx:_ZNK3lyx15InsetMathExFunc4nameB5cxx11Ev
lyx:_ZNK3lyx15InsetMathExFunc5cloneEv
lyx:_ZNK3lyx15InsetMathExFunc5mapleERNS_11MapleStreamE
lyx:_ZNK3lyx15InsetMathExFunc6maximaERNS_12MaximaStreamE
lyx:_ZNK3lyx15InsetMathExFunc6octaveERNS_12OctaveStreamE
lyx:_ZNK3lyx15InsetMathExFunc7htmlizeERNS_10HtmlStreamE
lyx:_ZNK3lyx15InsetMathExFunc7metricsERNS_11MetricsInfoERNS_9DimensionE
lyx:_ZNK3lyx15InsetMathExFunc9mathmlizeERNS_12MathMLStreamE
lyx:_ZNK3lyx15InsetMathMatrix11mathematicaERNS_17MathematicaStreamE
lyx:_ZNK3lyx15InsetMathMatrix5cloneEv
lyx:_ZNK3lyx15InsetMathMatrix5mapleERNS_11MapleStreamE
lyx:_ZNK3lyx15InsetMathMatrix5writeERNS_13TeXMathStreamE
lyx:_ZNK3lyx15InsetMathMatrix6maximaERNS_12MaximaStreamE
lyx:_ZNK3lyx15InsetMathMatrix6octaveERNS_12OctaveStreamE
lyx:_ZNK3lyx15InsetMathMatrix7htmlizeERNS_10HtmlStreamE
lyx:_ZNK3lyx15InsetMathMatrix9mathmlizeERNS_12MathMLStreamE
lyx:_ZNK3lyx15InsetMathMatrix9normalizeERNS_12NormalStreamE
lyx:_ZNK3lyx15InsetMathNumber11mathematicaERNS_17MathematicaStreamE
lyx:_ZNK3lyx15InsetMathNumber4drawERNS_11PainterInfoEii
lyx:_ZNK3lyx15InsetMathNumber5cloneEv
lyx:_ZNK3lyx15InsetMathNumber5mapleERNS_11MapleStreamE
lyx:_ZNK3lyx15InsetMathNumber5writeERNS_13TeXMathStreamE
lyx:_ZNK3lyx15InsetMathNumber6octaveERNS_12OctaveStreamE
lyx:_ZNK3lyx15InsetMathNumber7htmlizeERNS_10HtmlStreamE
lyx:_ZNK3lyx15InsetMathNumber7metricsERNS_11MetricsInfoERNS_9DimensionE
lyx:_ZNK3lyx15InsetMathNumber9mathmlizeERNS_12MathMLStreamE
lyx:_ZNK3lyx15InsetMathNumber9normalizeERNS_12NormalStreamE
lyx:_ZNK3lyx15InsetMathScript10idxForwardERNS_6CursorE
lyx:_ZNK3lyx15InsetMathScript11idxBackwardERNS_6CursorE
lyx:_ZNK3lyx15InsetMathScript11idxOfScriptEb
lyx:_ZNK3lyx15InsetMathScript11mathematicaERNS_17MathematicaStreamE
lyx:_ZNK3lyx15InsetMathScript13asScriptInsetEv
lyx:_ZNK3lyx15InsetMathScript2upEv
lyx:_ZNK3lyx15InsetMathScript3dx0ERKNS_10BufferViewE
lyx:_ZNK3lyx15InsetMathScript3dx1ERKNS_10BufferViewE
lyx:_ZNK3lyx15InsetMathScript3dxxERKNS_10BufferViewE
lyx:_ZNK3lyx15InsetMathScript3dy0ERKNS_10BufferViewE
lyx:_ZNK3lyx15InsetMathScript3dy1ERKNS_10BufferViewE
lyx:_ZNK3lyx15InsetMathScript3hasEb
lyx:_ZNK3lyx15InsetMathScript3nucEv
lyx:_ZNK3lyx15InsetMathScript4downEv
lyx:_ZNK3lyx15InsetMathScript4drawERNS_11PainterInfoEii
lyx:_ZNK3lyx15InsetMathScript4dy01ERKNS_10BufferViewEiii
lyx:_ZNK3lyx15InsetMathScript4nascERKNS_10BufferViewE
lyx:_ZNK3lyx15InsetMathScript4ndesERKNS_10BufferViewE
lyx:_ZNK3lyx15InsetMathScript4nkerEPKNS_10BufferViewE
lyx:_ZNK3lyx15InsetMathScript4nwidERKNS_10BufferViewE
lyx:_ZNK3lyx15InsetMathScript5cloneEv
lyx:_ZNK3lyx15InsetMathScript5drawTERNS_11TextPainterEii
lyx:_ZNK3lyx15InsetMathScript5hasUpEv
lyx:_ZNK3lyx15InsetMathScript5mapleERNS_11MapleStreamE
lyx:_ZNK3lyx15InsetMathScript5writeERNS_13TeXMathStreamE
lyx:_ZNK3lyx15InsetMathScript6limitsEv
lyx:_ZNK3lyx15InsetMathScript6octaveERNS_12OctaveStreamE
lyx:_ZNK3lyx15InsetMathScript7hasDownEv
lyx:_ZNK3lyx15InsetMathScript7htmlizeERNS_10HtmlStreamE
lyx:_ZNK3lyx15InsetMathScript7infoizeERSt13basic_ostreamIwSt11char_traitsIwEE
lyx:_ZNK3lyx15InsetMathScript7metricsERNS_11MetricsInfoERNS_9DimensionE
lyx:_ZNK3lyx15InsetMathScript8infoize2ERSt13basic_ostreamIwSt11char_traitsIwEE
lyx:_ZNK3lyx15InsetMathScript8metricsTERKNS_15TextMetricsInfoERNS_9DimensionE
lyx:_ZNK3lyx15InsetMathScript8validateERNS_13LaTeXFeaturesE
lyx:_ZNK3lyx15InsetMathScript9hasLimitsERKNS_9MathStyleE
lyx:_ZNK3lyx15InsetMathScript9idxUpDownERNS_6CursorEb
lyx:_ZNK3lyx15InsetMathScript9mathClassEv
lyx:_ZNK3lyx15InsetMathScript9mathmlizeERNS_12MathMLStreamE
lyx:_ZNK3lyx15InsetMathScript9normalizeERNS_12NormalStreamE
lyx:_ZNK3lyx15InsetMathString11mathematicaERNS_17MathematicaStreamE
lyx:_ZNK3lyx15InsetMathString4drawERNS_11PainterInfoEii
lyx:_ZNK3lyx15InsetMathString5cloneEv
lyx:_ZNK3lyx15InsetMathString5mapleERNS_11MapleStreamE
lyx:_ZNK3lyx15InsetMathString5writeERNS_13TeXMathStreamE
lyx:_ZNK3lyx15InsetMathString6octaveERNS_12OctaveStreamE
lyx:_ZNK3lyx15InsetMathString7metricsERNS_11MetricsInfoERNS_9DimensionE
lyx:_ZNK3lyx15InsetMathString9mathmlizeERNS_12MathMLStreamE
lyx:_ZNK3lyx15InsetMathString9normalizeERNS_12NormalStreamE
lyx:_ZNK3lyx15InsetMathSymbol10isOrdAlphaEv
lyx:_ZNK3lyx15InsetMathSymbol11currentModeEv
lyx:_ZNK3lyx15InsetMathSymbol11mathematicaERNS_17MathematicaStreamE
lyx:_ZNK3lyx15InsetMathSymbol13defaultLimitsEb
lyx:_ZNK3lyx15InsetMathSymbol4drawERNS_11PainterInfoEii
lyx:_ZNK3lyx15InsetMathSymbol4nameB5cxx11Ev
lyx:_ZNK3lyx15InsetMathSymbol5cloneEv
lyx:_ZNK3lyx15InsetMathSymbol5mapleERNS_11MapleStreamE
lyx:_ZNK3lyx15InsetMathSymbol5writeERNS_13TeXMathStreamE
lyx:_ZNK3lyx15InsetMathSymbol6maximaERNS_12MaximaStreamE
lyx:_ZNK3lyx15InsetMathSymbol6octaveERNS_12OctaveStreamE
lyx:_ZNK3lyx15InsetMathSymbol7htmlizeERNS_10HtmlStreamE
lyx:_ZNK3lyx15InsetMathSymbol7htmlizeERNS_10HtmlStreamEb
lyx:_ZNK3lyx15InsetMathSymbol7metricsERNS_11MetricsInfoERNS_9DimensionE
lyx:_ZNK3lyx15InsetMathSymbol8infoize2ERSt13basic_ostreamIwSt11char_traitsIwEE
lyx:_ZNK3lyx15InsetMathSymbol8validateERNS_13LaTeXFeaturesE
lyx:_ZNK3lyx15InsetMathSymbol9mathClassEv
lyx:_ZNK3lyx15InsetMathSymbol9mathmlizeERNS_12MathMLStreamE
lyx:_ZNK3lyx15InsetMathSymbol9normalizeERNS_12NormalStreamE
lyx:_ZNK3lyx15InsetMathXArrow4drawERNS_11PainterInfoEii
lyx:_ZNK3lyx15InsetMathXArrow5cloneEv
lyx:_ZNK3lyx15InsetMathXArrow5writeERNS_13TeXMathStreamE
lyx:_ZNK3lyx15InsetMathXArrow7htmlizeERNS_10HtmlStreamE
lyx:_ZNK3lyx15InsetMathXArrow7metricsERNS_11MetricsInfoERNS_9DimensionE
lyx:_ZNK3lyx15InsetMathXArrow8validateERNS_13LaTeXFeaturesE
lyx:_ZNK3lyx15InsetMathXArrow9mathmlizeERNS_12MathMLStreamE
lyx:_ZNK3lyx15InsetMathXArrow9normalizeERNS_12NormalStreamE
lyx:_ZNK3lyx15InsetNoteParams5writeERSo
lyx:_ZNK3lyx15InsetPrintIndex11hasSettingsEv
lyx:_ZNK3lyx15InsetPrintIndex11screenLabelB5cxx11Ev
lyx:_ZNK3lyx15InsetPrintIndex15contextMenuNameB5cxx11Ev
lyx:_ZNK3lyx15InsetPrintIndex5latexERNS_10otexstreamERKNS_12OutputParamsE
lyx:_ZNK3lyx15InsetPrintIndex5xhtmlB5cxx11ERNS_9XMLStreamERKNS_12OutputParamsE
lyx:_ZNK3lyx15InsetPrintIndex8validateERNS_13LaTeXFeaturesE
lyx:_ZNK3lyx15InsetPrintIndex9getStatusERNS_6CursorERKNS_11FuncRequestERNS_10FuncStatusE
lyx:_ZNK3lyx15InsetWrapParams5writeERSo
lyx:_ZNK3lyx16AuthFilesSection4findERKNSt7__cxx1112basic_stringIcSt11char_traitsIcESaIcEEE
lyx:_ZNK3lyx16AuthFilesSection5writeERSo
lyx:_ZNK3lyx16BookmarksSection14bookmarksInParERKNS_7support8FileNameEi
lyx:_ZNK3lyx16BookmarksSection5writeERSo
lyx:_ZNK3lyx16BookmarksSection7isValidEj
lyx:_ZNK3lyx16BookmarksSection8bookmarkEj
lyx:_ZNK3lyx16BookmarksSection8hasValidEv
lyx:_ZNK3lyx16InsetCaptionable12insetAllowedENS_9InsetCodeE
lyx:_ZNK3lyx16InsetCaptionable13getLabelInsetEv
lyx:_ZNK3lyx16InsetCaptionable14getCaptionHTMLB5cxx11ERKNS_12OutputParamsE
lyx:_ZNK3lyx16InsetCaptionable14getCaptionTextB5cxx11ERKNS_12OutputParamsE
lyx:_ZNK3lyx16InsetCaptionable15getCaptionInsetEv
lyx:_ZNK3lyx16InsetCaptionable17getCaptionDocBookB5cxx11ERKNS_12OutputParamsE
lyx:_ZNK3lyx16InsetCaptionable8addToTocERKNS_11DocIteratorEbNS_10UpdateTypeERNS_10TocBackendE
lyx:_ZNK3lyx16InsetCaptionable9floatNameERKNSt7__cxx1112basic_stringIcSt11char_traitsIcESaIcEEE
lyx:_ZNK3lyx16InsetCollapsible10decorationEv
lyx:_ZNK3lyx16InsetCollapsible10labelColorEv
lyx:_ZNK3lyx16InsetCollapsible11buttonLabelB5cxx11ERKNS_10BufferViewE
lyx:_ZNK3lyx16InsetCollapsible11contextMenuB5cxx11ERKNS_10BufferViewEii
lyx:_ZNK3lyx16InsetCollapsible11descendableERKNS_10BufferViewE
lyx:_ZNK3lyx16InsetCollapsible11getNewLabelERKNSt7__cxx1112basic_stringIwSt11char_traitsIwESaIwEEE
lyx:_ZNK3lyx16InsetCollapsible12bottomOffsetEPKNS_10BufferViewE
lyx:_ZNK3lyx16InsetCollapsible13setMouseHoverEPKNS_10BufferViewEb
lyx:_ZNK3lyx16InsetCollapsible14canPaintChangeERKNS_10BufferViewE
lyx:_ZNK3lyx16InsetCollapsible15backgroundColorERKNS_11PainterInfoE
lyx:_ZNK3lyx16InsetCollapsible15contextMenuNameB5cxx11Ev
lyx:_ZNK3lyx16InsetCollapsible18dimensionCollapsedERKNS_10BufferViewE
lyx:_ZNK3lyx16InsetCollapsible4drawERNS_11PainterInfoEii
lyx:_ZNK3lyx16InsetCollapsible5writeERSo
lyx:_ZNK3lyx16InsetCollapsible6statusERKNS_10BufferViewE
lyx:_ZNK3lyx16InsetCollapsible7metricsERNS_11MetricsInfoERNS_9DimensionE
lyx:_ZNK3lyx16InsetCollapsible7toolTipB5cxx11ERKNS_10BufferViewEii
lyx:_ZNK3lyx16InsetCollapsible8addToTocERKNS_11DocIteratorEbNS_10UpdateTypeERNS_10TocBackendE
lyx:_ZNK3lyx16InsetCollapsible8editableEv
lyx:_ZNK3lyx16InsetCollapsible8geometryERKNS_10BufferViewE
lyx:_ZNK3lyx16InsetCollapsible8getLabelB5cxx11Ev
lyx:_ZNK3lyx16InsetCollapsible9clickableERKNS_10BufferViewEii
lyx:_ZNK3lyx16InsetCollapsible9cursorPosERKNS_10BufferViewERKNS_11CursorSliceEbRiS7_
lyx:_ZNK3lyx16InsetCollapsible9getStatusERNS_6CursorERKNS_11FuncRequestERNS_10FuncStatusE
lyx:_ZNK3lyx16InsetCollapsible9topOffsetEPKNS_10BufferViewE
lyx:_ZNK3lyx16InsetColoredCell4drawERNS_11PainterInfoEii
lyx:_ZNK3lyx16InsetColoredCell5cloneEv
lyx:_ZNK3lyx16InsetColoredCell7metricsERNS_11MetricsInfoERNS_9DimensionE
lyx:_ZNK3lyx16InsetFloatParams5writeERSo
lyx:_ZNK3lyx16InsetIndexParams5writeERSo
lyx:_ZNK3lyx16InsetMathCommand11screenLabelB5cxx11Ev
lyx:_ZNK3lyx16InsetMathCommand4drawERNS_11PainterInfoEii
lyx:_ZNK3lyx16InsetMathCommand5cloneEv
lyx:_ZNK3lyx16InsetMathCommand5writeERNS_13TeXMathStreamE
lyx:_ZNK3lyx16InsetMathCommand7metricsERNS_11MetricsInfoERNS_9DimensionE
lyx:_ZNK3lyx16InsetMathComment4drawERNS_11PainterInfoEii
lyx:_ZNK3lyx16InsetMathComment5cloneEv
lyx:_ZNK3lyx16InsetMathComment5drawTERNS_11TextPainterEii
lyx:_ZNK3lyx16InsetMathComment5mapleERNS_11MapleStreamE
lyx:_ZNK3lyx16InsetMathComment5writeERNS_13TeXMathStreamE
lyx:_ZNK3lyx16InsetMathComment7htmlizeERNS_10HtmlStreamE
lyx:_ZNK3lyx16InsetMathComment7infoizeERSt13basic_ostreamIwSt11char_traitsIwEE
lyx:_ZNK3lyx16InsetMathComment7metricsERNS_11MetricsInfoERNS_9DimensionE
lyx:_ZNK3lyx16InsetMathComment8metricsTERKNS_15TextMetricsInfoERNS_9DimensionE
lyx:_ZNK3lyx16InsetMathComment9mathmlizeERNS_12MathMLStreamE
lyx:_ZNK3lyx16InsetMathDiagram4drawERNS_11PainterInfoEii
lyx:_ZNK3lyx16InsetMathDiagram5cloneEv
lyx:_ZNK3lyx16InsetMathDiagram5mapleERNS_11MapleStreamE
lyx:_ZNK3lyx16InsetMathDiagram5writeERNS_13TeXMathStreamE
lyx:_ZNK3lyx16InsetMathDiagram6colsepEv
lyx:_ZNK3lyx16InsetMathDiagram6rowsepEv
lyx:_ZNK3lyx16InsetMathDiagram7infoizeERSt13basic_ostreamIwSt11char_traitsIwEE
lyx:_ZNK3lyx16InsetMathDiagram7metricsERNS_11MetricsInfoERNS_9DimensionE
lyx:_ZNK3lyx16InsetMathDiagram8validateERNS_13LaTeXFeaturesE
lyx:_ZNK3lyx16InsetMathDiagram9normalizeERNS_12NormalStreamE
lyx:_ZNK3lyx16InsetMathFontOld4drawERNS_11PainterInfoEii
lyx:_ZNK3lyx16InsetMathFontOld4fontB5cxx11Ev
lyx:_ZNK3lyx16InsetMathFontOld5cloneEv
lyx:_ZNK3lyx16InsetMathFontOld5drawTERNS_11TextPainterEii
lyx:_ZNK3lyx16InsetMathFontOld5writeERNS_13TeXMathStreamE
lyx:_ZNK3lyx16InsetMathFontOld7infoizeERSt13basic_ostreamIwSt11char_traitsIwEE
lyx:_ZNK3lyx16InsetMathFontOld7metricsERNS_11MetricsInfoERNS_9DimensionE
lyx:_ZNK3lyx16InsetMathFontOld8metricsTERKNS_15TextMetricsInfoERNS_9DimensionE
lyx:_ZNK3lyx16InsetMathFontOld9normalizeERNS_12NormalStreamE
lyx:_ZNK3lyx16InsetMathLefteqn4drawERNS_11PainterInfoEii
lyx:_ZNK3lyx16InsetMathLefteqn4nameB5cxx11Ev
lyx:_ZNK3lyx16InsetMathLefteqn5cloneEv
lyx:_ZNK3lyx16InsetMathLefteqn7infoizeERSt13basic_ostreamIwSt11char_traitsIwEE
lyx:_ZNK3lyx16InsetMathLefteqn7metricsERNS_11MetricsInfoERNS_9DimensionE
lyx:_ZNK3lyx16InsetMathMakebox4drawERNS_11PainterInfoEii
lyx:_ZNK3lyx16InsetMathMakebox5writeERNS_13TeXMathStreamE
lyx:_ZNK3lyx16InsetMathMakebox7htmlizeERNS_10HtmlStreamE
lyx:_ZNK3lyx16InsetMathMakebox7infoizeERSt13basic_ostreamIwSt11char_traitsIwEE
lyx:_ZNK3lyx16InsetMathMakebox7metricsERNS_11MetricsInfoERNS_9DimensionE
lyx:_ZNK3lyx16InsetMathMakebox8validateERNS_13LaTeXFeaturesE
lyx:_ZNK3lyx16InsetMathMakebox9mathmlizeERNS_12MathMLStreamE
lyx:_ZNK3lyx16InsetMathMakebox9normalizeERNS_12NormalStreamE
lyx:_ZNK3lyx16InsetMathOverset4drawERNS_11PainterInfoEii
lyx:_ZNK3lyx16InsetMathOverset5cloneEv
lyx:_ZNK3lyx16InsetMathOverset5writeERNS_13TeXMathStreamE
lyx:_ZNK3lyx16InsetMathOverset7htmlizeERNS_10HtmlStreamE
lyx:_ZNK3lyx16InsetMathOverset7idxLastERNS_6CursorE
lyx:_ZNK3lyx16InsetMathOverset7metricsERNS_11MetricsInfoERNS_9DimensionE
lyx:_ZNK3lyx16InsetMathOverset8idxFirstERNS_6CursorE
lyx:_ZNK3lyx16InsetMathOverset8validateERNS_13LaTeXFeaturesE
lyx:_ZNK3lyx16InsetMathOverset9idxUpDownERNS_6CursorEb
lyx:_ZNK3lyx16InsetMathOverset9mathmlizeERNS_12MathMLStreamE
lyx:_ZNK3lyx16InsetMathOverset9normalizeERNS_12NormalStreamE
lyx:_ZNK3lyx16InsetMathPhantom15visibleContentsEv
lyx:_ZNK3lyx16InsetMathPhantom4drawERNS_11PainterInfoEii
lyx:_ZNK3lyx16InsetMathPhantom5cloneEv
lyx:_ZNK3lyx16InsetMathPhantom5writeERNS_13TeXMathStreamE
lyx:_ZNK3lyx16InsetMathPhantom7infoizeERSt13basic_ostreamIwSt11char_traitsIwEE
lyx:_ZNK3lyx16InsetMathPhantom7metricsERNS_11MetricsInfoERNS_9DimensionE
lyx:_ZNK3lyx16InsetMathPhantom8validateERNS_13LaTeXFeaturesE
lyx:_ZNK3lyx16InsetMathPhantom9normalizeERNS_12NormalStreamE
lyx:_ZNK3lyx16InsetMathSideset10idxForwardERNS_6CursorE
lyx:_ZNK3lyx16InsetMathSideset11idxBackwardERNS_6CursorE
lyx:_ZNK3lyx16InsetMathSideset3dxnERKNS_10BufferViewE
lyx:_ZNK3lyx16InsetMathSideset3dxrERKNS_10BufferViewE
lyx:_ZNK3lyx16InsetMathSideset3dybERKNS_10BufferViewE
lyx:_ZNK3lyx16InsetMathSideset3dytERKNS_10BufferViewE
lyx:_ZNK3lyx16InsetMathSideset4drawERNS_11PainterInfoEii
lyx:_ZNK3lyx16InsetMathSideset4dybtERKNS_10BufferViewEiib
lyx:_ZNK3lyx16InsetMathSideset4nascERKNS_10BufferViewE
lyx:_ZNK3lyx16InsetMathSideset4ndesERKNS_10BufferViewE
lyx:_ZNK3lyx16InsetMathSideset4nkerEPKNS_10BufferViewE
lyx:_ZNK3lyx16InsetMathSideset4nwidERKNS_10BufferViewE
lyx:_ZNK3lyx16InsetMathSideset5cloneEv
lyx:_ZNK3lyx16InsetMathSideset5drawTERNS_11TextPainterEii
lyx:_ZNK3lyx16InsetMathSideset5writeERNS_13TeXMathStreamE
lyx:_ZNK3lyx16InsetMathSideset7htmlizeERNS_10HtmlStreamE
lyx:_ZNK3lyx16InsetMathSideset7infoizeERSt13basic_ostreamIwSt11char_traitsIwEE
lyx:_ZNK3lyx16InsetMathSideset7metricsERNS_11MetricsInfoERNS_9DimensionE
lyx:_ZNK3lyx16InsetMathSideset8metricsTERKNS_15TextMetricsInfoERNS_9DimensionE
lyx:_ZNK3lyx16InsetMathSideset8validateERNS_13LaTeXFeaturesE
lyx:_ZNK3lyx16InsetMathSideset9idxUpDownERNS_6CursorEb
lyx:_ZNK3lyx16InsetMathSideset9mathmlizeERNS_12MathMLStreamE
lyx:_ZNK3lyx16InsetMathSideset9normalizeERNS_12NormalStreamE
lyx:_ZNK3lyx16InsetMathTabular4drawERNS_11PainterInfoEii
lyx:_ZNK3lyx16InsetMathTabular5cloneEv
lyx:_ZNK3lyx16InsetMathTabular5mapleERNS_11MapleStreamE
lyx:_ZNK3lyx16InsetMathTabular5writeERNS_13TeXMathStreamE
lyx:_ZNK3lyx16InsetMathTabular7infoizeERSt13basic_ostreamIwSt11char_traitsIwEE
lyx:_ZNK3lyx16InsetMathTabular7metricsERNS_11MetricsInfoERNS_9DimensionE
lyx:_ZNK3lyx16InsetMathTabular9normalizeERNS_12NormalStreamE
lyx:_ZNK3lyx16InsetMathUnknown11mathematicaERNS_17MathematicaStreamE
lyx:_ZNK3lyx16InsetMathUnknown4drawERNS_11PainterInfoEii
lyx:_ZNK3lyx16InsetMathUnknown4nameB5cxx11Ev
lyx:_ZNK3lyx16InsetMathUnknown5finalEv
lyx:_ZNK3lyx16InsetMathUnknown5mapleERNS_11MapleStreamE
lyx:_ZNK3lyx16InsetMathUnknown6octaveERNS_12OctaveStreamE
lyx:_ZNK3lyx16InsetMathUnknown7htmlizeERNS_10HtmlStreamE
lyx:_ZNK3lyx16InsetMathUnknown7metricsERNS_11MetricsInfoERNS_9DimensionE
lyx:_ZNK3lyx16InsetMathUnknown9mathmlizeERNS_12MathMLStreamE
lyx:_ZNK3lyx16InsetMathUnknown9normalizeERNS_12NormalStreamE
lyx:_ZNK3lyx16InsetMathWrapper4drawERNS_11PainterInfoEii
lyx:_ZNK3lyx16InsetMathWrapper5cloneEv
lyx:_ZNK3lyx16InsetMathWrapper7metricsERNS_11MetricsInfoERNS_9DimensionE
lyx:_ZNK3lyx16InsetNameWrapper4drawERNS_11PainterInfoEii
lyx:_ZNK3lyx16InsetNameWrapper5cloneEv
lyx:_ZNK3lyx16InsetNameWrapper7metricsERNS_11MetricsInfoERNS_9DimensionE
lyx:_ZNK3lyx16InsetSpaceParams5writeERSo
lyx:_ZNK3lyx16InsetSpecialChar11forOutlinerERNSt7__cxx1112basic_stringIwSt11char_traitsIwESaIwEEEmb
lyx:_ZNK3lyx16InsetSpecialChar15isLineSeparatorEv
lyx:_ZNK3lyx16InsetSpecialChar4drawERNS_11PainterInfoEii
lyx:_ZNK3lyx16InsetSpecialChar4kindEv
lyx:_ZNK3lyx16InsetSpecialChar5latexERNS_10otexstreamERKNS_12OutputParamsE
lyx:_ZNK3lyx16InsetSpecialChar5writeERSo
lyx:_ZNK3lyx16InsetSpecialChar5xhtmlB5cxx11ERNS_9XMLStreamERKNS_12OutputParamsE
lyx:_ZNK3lyx16InsetSpecialChar6isCharEv
lyx:_ZNK3lyx16InsetSpecialChar7docbookERNS_9XMLStreamERKNS_12OutputParamsE
lyx:_ZNK3lyx16InsetSpecialChar7metricsERNS_11MetricsInfoERNS_9DimensionE
lyx:_ZNK3lyx16InsetSpecialChar7toolTipB5cxx11ERKNS_10BufferViewEii
lyx:_ZNK3lyx16InsetSpecialChar8isLetterEv
lyx:_ZNK3lyx16InsetSpecialChar8rowFlagsEv
lyx:_ZNK3lyx16InsetSpecialChar8toStringERSt13basic_ostreamIwSt11char_traitsIwEE
lyx:_ZNK3lyx16InsetSpecialChar8validateERNS_13LaTeXFeaturesE
lyx:_ZNK3lyx16InsetSpecialChar9plaintextERNSt7__cxx1119basic_ostringstreamIwSt11char_traitsIwESaIwEEERKNS_12OutputParamsEm
lyx:_ZNK3lyx16LastFilesSection5writeERSo
lyx:_ZNK3lyx16LayoutModuleList15moduleConflictsERKNSt7__cxx1112basic_stringIcSt11char_traitsIcESaIcEEEPKNS_10LayoutFileE
lyx:_ZNK3lyx16LayoutModuleList16moduleCanBeAddedERKNSt7__cxx1112basic_stringIcSt11char_traitsIcESaIcEEEPKNS_10LayoutFileE
lyx:_ZNK3lyx16LayoutModuleList8asStringB5cxx11Ev
lyx:_ZNK3lyx16ParConstIterator5plistEv
lyx:_ZNK3lyx16ParConstIteratordeEv
lyx:_ZNK3lyx16ParConstIteratorptEv
lyx:_ZNK3lyx16ParagraphMetrics11hasPositionEv
lyx:_ZNK3lyx16ParagraphMetrics11rightMarginERKNS_10BufferViewE
lyx:_ZNK3lyx16ParagraphMetrics14hfillExpansionERKNS_3RowEl
lyx:_ZNK3lyx16ParagraphMetrics4dumpEv
lyx:_ZNK3lyx16ParagraphMetrics6getRowElb
lyx:_ZNK3lyx16ParagraphMetrics7pos2rowEl
lyx:_ZNK3lyx16ParagraphMetrics8positionEv
lyx:_ZNK3lyx16PersonalWordList10equalwordsERKNSt7__cxx1112basic_stringIwSt11char_traitsIwESaIwEEES8_
lyx:_ZNK3lyx16PersonalWordList3endB5cxx11Ev
lyx:_ZNK3lyx16PersonalWordList5beginB5cxx11Ev
lyx:_ZNK3lyx16PersonalWordList6existsERKNSt7__cxx1112basic_stringIwSt11char_traitsIwESaIwEEE
lyx:_ZNK3lyx16PersonalWordList8dictfileEv
lyx:_ZNK3lyx16SpecialisedMover7do_copyERKNS_7support8FileNameES4_RKNSt7__cxx1112basic_stringIcSt11char_traitsIcESaIcEEE
lyx:_ZNK3lyx16SpecialisedMover9do_renameERKNS_7support8FileNameES4_RKNSt7__cxx1112basic_stringIcSt11char_traitsIcESaIcEEE
lyx:_ZNK3lyx17EncodingException4whatEv
lyx:_ZNK3lyx17InsetBranchParams5writeERSo
lyx:_ZNK3lyx17InsetMathAMSArray10name_rightEv
lyx:_ZNK3lyx17InsetMathAMSArray4drawERNS_11PainterInfoEii
lyx:_ZNK3lyx17InsetMathAMSArray5cloneEv
lyx:_ZNK3lyx17InsetMathAMSArray5writeERNS_13TeXMathStreamE
lyx:_ZNK3lyx17InsetMathAMSArray6borderEv
lyx:_ZNK3lyx17InsetMathAMSArray6colsepEv
lyx:_ZNK3lyx17InsetMathAMSArray6rowsepEv
lyx:_ZNK3lyx17InsetMathAMSArray7infoizeERSt13basic_ostreamIwSt11char_traitsIwEE
lyx:_ZNK3lyx17InsetMathAMSArray7metricsERNS_11MetricsInfoERNS_9DimensionE
lyx:_ZNK3lyx17InsetMathAMSArray8validateERNS_13LaTeXFeaturesE
lyx:_ZNK3lyx17InsetMathAMSArray9getStatusERNS_6CursorERKNS_11FuncRequestERNS_10FuncStatusE
lyx:_ZNK3lyx17InsetMathAMSArray9name_leftEv
lyx:_ZNK3lyx17InsetMathAMSArray9normalizeERNS_12NormalStreamE
lyx:_ZNK3lyx17InsetMathCancelto4drawERNS_11PainterInfoEii
lyx:_ZNK3lyx17InsetMathCancelto5cloneEv
lyx:_ZNK3lyx17InsetMathCancelto5writeERNS_13TeXMathStreamE
lyx:_ZNK3lyx17InsetMathCancelto7infoizeERSt13basic_ostreamIwSt11char_traitsIwEE
lyx:_ZNK3lyx17InsetMathCancelto7metricsERNS_11MetricsInfoERNS_9DimensionE
lyx:_ZNK3lyx17InsetMathCancelto8validateERNS_13LaTeXFeaturesE
lyx:_ZNK3lyx17InsetMathCancelto9idxUpDownERNS_6CursorEb
lyx:_ZNK3lyx17InsetMathCancelto9normalizeERNS_12NormalStreamE
lyx:_ZNK3lyx17InsetMathFracBase9idxUpDownERNS_6CursorEb
lyx:_ZNK3lyx17InsetMathStackrel4drawERNS_11PainterInfoEii
lyx:_ZNK3lyx17InsetMathStackrel5cloneEv
lyx:_ZNK3lyx17InsetMathStackrel5writeERNS_13TeXMathStreamE
lyx:_ZNK3lyx17InsetMathStackrel7htmlizeERNS_10HtmlStreamE
lyx:_ZNK3lyx17InsetMathStackrel7idxLastERNS_6CursorE
lyx:_ZNK3lyx17InsetMathStackrel7metricsERNS_11MetricsInfoERNS_9DimensionE
lyx:_ZNK3lyx17InsetMathStackrel8idxFirstERNS_6CursorE
lyx:_ZNK3lyx17InsetMathStackrel8validateERNS_13LaTeXFeaturesE
lyx:_ZNK3lyx17InsetMathStackrel9idxUpDownERNS_6CursorEb
lyx:_ZNK3lyx17InsetMathStackrel9mathClassEv
lyx:_ZNK3lyx17InsetMathStackrel9mathmlizeERNS_12MathMLStreamE
lyx:_ZNK3lyx17InsetMathStackrel9normalizeERNS_12NormalStreamE
lyx:_ZNK3lyx17InsetMathSubstack4drawERNS_11PainterInfoEii
lyx:_ZNK3lyx17InsetMathSubstack5cloneEv
lyx:_ZNK3lyx17InsetMathSubstack5mapleERNS_11MapleStreamE
lyx:_ZNK3lyx17InsetMathSubstack5writeERNS_13TeXMathStreamE
lyx:_ZNK3lyx17InsetMathSubstack7htmlizeERNS_10HtmlStreamE
lyx:_ZNK3lyx17InsetMathSubstack7infoizeERSt13basic_ostreamIwSt11char_traitsIwEE
lyx:_ZNK3lyx17InsetMathSubstack7metricsERNS_11MetricsInfoERNS_9DimensionE
lyx:_ZNK3lyx17InsetMathSubstack8validateERNS_13LaTeXFeaturesE
lyx:_ZNK3lyx17InsetMathSubstack9getStatusERNS_6CursorERKNS_11FuncRequestERNS_10FuncStatusE
lyx:_ZNK3lyx17InsetMathSubstack9mathmlizeERNS_12MathMLStreamE
lyx:_ZNK3lyx17InsetMathSubstack9normalizeERNS_12NormalStreamE
lyx:_ZNK3lyx17InsetMathTextsize4drawERNS_11PainterInfoEii
lyx:_ZNK3lyx17InsetMathTextsize5cloneEv
lyx:_ZNK3lyx17InsetMathTextsize5drawTERNS_11TextPainterEii
lyx:_ZNK3lyx17InsetMathTextsize5writeERNS_13TeXMathStreamE
lyx:_ZNK3lyx17InsetMathTextsize7infoizeERSt13basic_ostreamIwSt11char_traitsIwEE
lyx:_ZNK3lyx17InsetMathTextsize7metricsERNS_11MetricsInfoERNS_9DimensionE
lyx:_ZNK3lyx17InsetMathTextsize8metricsTERKNS_15TextMetricsInfoERNS_9DimensionE
lyx:_ZNK3lyx17InsetMathTextsize9normalizeERNS_12NormalStreamE
lyx:_ZNK3lyx17InsetMathUnderset4drawERNS_11PainterInfoEii
lyx:_ZNK3lyx17InsetMathUnderset5cloneEv
lyx:_ZNK3lyx17InsetMathUnderset5writeERNS_13TeXMathStreamE
lyx:_ZNK3lyx17InsetMathUnderset7htmlizeERNS_10HtmlStreamE
lyx:_ZNK3lyx17InsetMathUnderset7idxLastERNS_6CursorE
lyx:_ZNK3lyx17InsetMathUnderset7metricsERNS_11MetricsInfoERNS_9DimensionE
lyx:_ZNK3lyx17InsetMathUnderset8idxFirstERNS_6CursorE
lyx:_ZNK3lyx17InsetMathUnderset8validateERNS_13LaTeXFeaturesE
lyx:_ZNK3lyx17InsetMathUnderset9mathmlizeERNS_12MathMLStreamE
lyx:_ZNK3lyx17InsetMathUnderset9normalizeERNS_12NormalStreamE
lyx:_ZNK3lyx17InsetMathXYMatrix4drawERNS_11PainterInfoEii
lyx:_ZNK3lyx17InsetMathXYMatrix5cloneEv
lyx:_ZNK3lyx17InsetMathXYMatrix5mapleERNS_11MapleStreamE
lyx:_ZNK3lyx17InsetMathXYMatrix5writeERNS_13TeXMathStreamE
lyx:_ZNK3lyx17InsetMathXYMatrix6colsepEv
lyx:_ZNK3lyx17InsetMathXYMatrix6rowsepEv
lyx:_ZNK3lyx17InsetMathXYMatrix7htmlizeERNS_10HtmlStreamE
lyx:_ZNK3lyx17InsetMathXYMatrix7infoizeERSt13basic_ostreamIwSt11char_traitsIwEE
lyx:_ZNK3lyx17InsetMathXYMatrix7metricsERNS_11MetricsInfoERNS_9DimensionE
lyx:_ZNK3lyx17InsetMathXYMatrix8validateERNS_13LaTeXFeaturesE
lyx:_ZNK3lyx17InsetMathXYMatrix9mathmlizeERNS_12MathMLStreamE
lyx:_ZNK3lyx17InsetMathXYMatrix9normalizeERNS_12NormalStreamE
lyx:_ZNK3lyx17InsetPrintNomencl11screenLabelB5cxx11Ev
lyx:_ZNK3lyx17InsetPrintNomencl15contextMenuNameB5cxx11Ev
lyx:_ZNK3lyx17InsetPrintNomencl5latexERNS_10otexstreamERKNS_12OutputParamsE
lyx:_ZNK3lyx17InsetPrintNomencl5xhtmlB5cxx11ERNS_9XMLStreamERKNS_12OutputParamsE
lyx:_ZNK3lyx17InsetPrintNomencl7docbookERNS_9XMLStreamERKNS_12OutputParamsE
lyx:_ZNK3lyx17InsetPrintNomencl7lyxCodeEv
lyx:_ZNK3lyx17InsetPrintNomencl8validateERNS_13LaTeXFeaturesE
lyx:_ZNK3lyx17InsetPrintNomencl9getStatusERNS_6CursorERKNS_11FuncRequestERNS_10FuncStatusE
lyx:_ZNK3lyx17InsetQuotesParams11getGuiLabelB5cxx11ERKNS_10QuoteStyleEb
lyx:_ZNK3lyx17InsetQuotesParams11getXMLQuoteB5cxx11Ew
lyx:_ZNK3lyx17InsetQuotesParams11stylescountEv
lyx:_ZNK3lyx17InsetQuotesParams12getQuoteCharERKNS_10QuoteStyleERKNS_10QuoteLevelERKNS_9QuoteSideEb
lyx:_ZNK3lyx17InsetQuotesParams12getQuoteSideERKNSt7__cxx1112basic_stringIcSt11char_traitsIcESaIcEEEbNS_9QuoteSideE
lyx:_ZNK3lyx17InsetQuotesParams12getStyleCharERKNS_10QuoteStyleE
lyx:_ZNK3lyx17InsetQuotesParams13getLaTeXQuoteEwRKNSt7__cxx1112basic_stringIcSt11char_traitsIcESaIcEEEb
lyx:_ZNK3lyx17InsetQuotesParams13getQuoteLevelERKNSt7__cxx1112basic_stringIcSt11char_traitsIcESaIcEEEbNS_10QuoteLevelE
lyx:_ZNK3lyx17InsetQuotesParams13getQuoteStyleERKNSt7__cxx1112basic_stringIcSt11char_traitsIcESaIcEEEbNS_10QuoteStyleE
lyx:_ZNK3lyx17InsetQuotesParams16getShortGuiLabelERKNSt7__cxx1112basic_stringIwSt11char_traitsIwESaIwEEE
lyx:_ZNK3lyx17InsetQuotesParams8getTypesB5cxx11Ev
lyx:_ZNK3lyx17InsetScriptParams5shiftERKNS_8FontInfoE
lyx:_ZNK3lyx17InsetScriptParams5writeERSo
lyx:_ZNK3lyx17LastOpenedSection5writeERSo
lyx:_ZNK3lyx17StableDocIterator13asDocIteratorEPNS_6BufferE
lyx:_ZNK3lyx18InsetCommandParams10getCommandB5cxx11ERKNS_12OutputParamsEbb
lyx:_ZNK3lyx18InsetCommandParams10getParamOrERKNSt7__cxx1112basic_stringIcSt11char_traitsIcESaIcEEERKNS2_IwS3_IwESaIwEEE
lyx:_ZNK3lyx18InsetCommandParams14prepareCommandERKNS_12OutputParamsERKNSt7__cxx1112basic_stringIwSt11char_traitsIwESaIwEEENS_9ParamInfo13ParamHandlingE
lyx:_ZNK3lyx18InsetCommandParams18writeEmptyOptionalEN9__gnu_cxx17__normal_iteratorIPKNS_9ParamInfo9ParamDataESt6vectorIS4_SaIS4_EEEE
lyx:_ZNK3lyx18InsetCommandParams19getFirstNonOptParamB5cxx11Ev
lyx:_ZNK3lyx18InsetCommandParams5WriteERSoPKNS_6BufferE
lyx:_ZNK3lyx18InsetCommandParams5writeERSo
lyx:_ZNK3lyx18InsetCommandParams8hasParamERKNSt7__cxx1112basic_stringIcSt11char_traitsIcESaIcEEE
lyx:_ZNK3lyx18InsetCommandParams9insetTypeB5cxx11Ev
lyx:_ZNK3lyx18InsetCommandParamsixERKNSt7__cxx1112basic_stringIcSt11char_traitsIcESaIcEEE
lyx:_ZNK3lyx18InsetIPADecoParams5writeERSo
lyx:_ZNK3lyx18InsetNewlineParams5writeERSo
lyx:_ZNK3lyx18InsetNewpageParams5writeERSo
lyx:_ZNK3lyx18InsetPhantomParams5writeERSo
lyx:_ZNK3lyx18LastFilePosSection4loadERKNS_7support8FileNameE
lyx:_ZNK3lyx18LastFilePosSection5writeERSo
lyx:_ZNK3lyx18MathCompletionList4dataB5cxx11Em
lyx:_ZNK3lyx18MathCompletionList4iconB5cxx11Em
lyx:_ZNK3lyx18MathCompletionList4sizeEv
lyx:_ZNK3lyx18ShellEscapeSection4findERKNSt7__cxx1112basic_stringIcSt11char_traitsIcESaIcEEE
lyx:_ZNK3lyx18ShellEscapeSection5writeERSo
lyx:_ZNK3lyx18ShellEscapeSection8findAuthERKNSt7__cxx1112basic_stringIcSt11char_traitsIcESaIcEEE
lyx:_ZNK3lyx19InsetExternalParams5writeERKNS_6BufferERSo
lyx:_ZNK3lyx19InsetGraphicsParams13as_grfxParamsEv
lyx:_ZNK3lyx19InsetGraphicsParams5WriteERSoRKNS_6BufferE
lyx:_ZNK3lyx19InsetListingsParams13encodedStringB5cxx11Ev
lyx:_ZNK3lyx19InsetListingsParams13getParamValueERKNSt7__cxx1112basic_stringIcSt11char_traitsIcESaIcEEE
lyx:_ZNK3lyx19InsetListingsParams15separatedParamsB5cxx11Eb
lyx:_ZNK3lyx19InsetListingsParams5writeERSo
lyx:_ZNK3lyx19InsetListingsParams6paramsERKNSt7__cxx1112basic_stringIcSt11char_traitsIcESaIcEEE
lyx:_ZNK3lyx19InsetListingsParams7isFloatEv
lyx:_ZNK3lyx19InsetListingsParams8getValueERKNSt7__cxx1112basic_stringIcSt11char_traitsIcESaIcEEE
lyx:_ZNK3lyx19InsetListingsParams8hasParamERKNSt7__cxx1112basic_stringIcSt11char_traitsIcESaIcEEE
lyx:_ZNK3lyx19InsetListingsParams8validateB5cxx11Ev
lyx:_ZNK3lyx19InsetMathBoldSymbol4drawERNS_11PainterInfoEii
lyx:_ZNK3lyx19InsetMathBoldSymbol4nameB5cxx11Ev
lyx:_ZNK3lyx19InsetMathBoldSymbol5cloneEv
lyx:_ZNK3lyx19InsetMathBoldSymbol5drawTERNS_11TextPainterEii
lyx:_ZNK3lyx19InsetMathBoldSymbol5writeERNS_13TeXMathStreamE
lyx:_ZNK3lyx19InsetMathBoldSymbol7htmlizeERNS_10HtmlStreamE
lyx:_ZNK3lyx19InsetMathBoldSymbol7infoizeERSt13basic_ostreamIwSt11char_traitsIwEE
lyx:_ZNK3lyx19InsetMathBoldSymbol7metricsERNS_11MetricsInfoERNS_9DimensionE
lyx:_ZNK3lyx19InsetMathBoldSymbol8metricsTERKNS_15TextMetricsInfoERNS_9DimensionE
lyx:_ZNK3lyx19InsetMathBoldSymbol8validateERNS_13LaTeXFeaturesE
lyx:_ZNK3lyx19InsetMathBoldSymbol9mathmlizeERNS_12MathMLStreamE
lyx:_ZNK3lyx19InsetMathDecoration11currentModeEv
lyx:_ZNK3lyx19InsetMathDecoration13defaultLimitsEb
lyx:_ZNK3lyx19InsetMathDecoration4drawERNS_11PainterInfoEii
lyx:_ZNK3lyx19InsetMathDecoration4nameB5cxx11Ev
lyx:_ZNK3lyx19InsetMathDecoration4wideEv
lyx:_ZNK3lyx19InsetMathDecoration5cloneEv
lyx:_ZNK3lyx19InsetMathDecoration5upperEv
lyx:_ZNK3lyx19InsetMathDecoration5writeERNS_13TeXMathStreamE
lyx:_ZNK3lyx19InsetMathDecoration7htmlizeERNS_10HtmlStreamE
lyx:_ZNK3lyx19InsetMathDecoration7infoizeERSt13basic_ostreamIwSt11char_traitsIwEE
lyx:_ZNK3lyx19InsetMathDecoration7metricsERNS_11MetricsInfoERNS_9DimensionE
lyx:_ZNK3lyx19InsetMathDecoration7protectEv
lyx:_ZNK3lyx19InsetMathDecoration8validateERNS_13LaTeXFeaturesE
lyx:_ZNK3lyx19InsetMathDecoration9mathClassEv
lyx:_ZNK3lyx19InsetMathDecoration9mathmlizeERNS_12MathMLStreamE
lyx:_ZNK3lyx19InsetMathDecoration9normalizeERNS_12NormalStreamE
lyx:_ZNK3lyx19InsetMathEnsureMath4drawERNS_11PainterInfoEii
lyx:_ZNK3lyx19InsetMathEnsureMath5cloneEv
lyx:_ZNK3lyx19InsetMathEnsureMath5drawTERNS_11TextPainterEii
lyx:_ZNK3lyx19InsetMathEnsureMath5writeERNS_13TeXMathStreamE
lyx:_ZNK3lyx19InsetMathEnsureMath7htmlizeERNS_10HtmlStreamE
lyx:_ZNK3lyx19InsetMathEnsureMath7infoizeERSt13basic_ostreamIwSt11char_traitsIwEE
lyx:_ZNK3lyx19InsetMathEnsureMath7metricsERNS_11MetricsInfoERNS_9DimensionE
lyx:_ZNK3lyx19InsetMathEnsureMath8metricsTERKNS_15TextMetricsInfoERNS_9DimensionE
lyx:_ZNK3lyx19InsetMathEnsureMath8validateERNS_13LaTeXFeaturesE
lyx:_ZNK3lyx19InsetMathEnsureMath9mathmlizeERNS_12MathMLStreamE
lyx:_ZNK3lyx19LastCommandsSection5writeERSo
lyx:_ZNK3lyx19ParagraphParameters10leftIndentEv
lyx:_ZNK3lyx19ParagraphParameters10sameLayoutERKS0_
lyx:_ZNK3lyx19ParagraphParameters11labelStringB5cxx11Ev
lyx:_ZNK3lyx19ParagraphParameters15startOfAppendixEv
lyx:_ZNK3lyx19ParagraphParameters16labelWidthStringB5cxx11Ev
lyx:_ZNK3lyx19ParagraphParameters5alignEv
lyx:_ZNK3lyx19ParagraphParameters5depthEv
lyx:_ZNK3lyx19ParagraphParameters5writeERSo
lyx:_ZNK3lyx19ParagraphParameters7spacingEv
lyx:_ZNK3lyx19ParagraphParameters8appendixEv
lyx:_ZNK3lyx19ParagraphParameters8noindentEv
lyx:_ZNK3lyx20InsetDisplayLabelBox4drawERNS_11PainterInfoEii
lyx:_ZNK3lyx20InsetDisplayLabelBox5cloneEv
lyx:_ZNK3lyx20InsetDisplayLabelBox6markerEPKNS_10BufferViewE
lyx:_ZNK3lyx20InsetDisplayLabelBox7metricsERNS_11MetricsInfoERNS_9DimensionE
lyx:_ZNK3lyx20InsetMathSpecialChar11mathematicaERNS_17MathematicaStreamE
lyx:_ZNK3lyx20InsetMathSpecialChar4drawERNS_11PainterInfoEii
lyx:_ZNK3lyx20InsetMathSpecialChar5cloneEv
lyx:_ZNK3lyx20InsetMathSpecialChar5drawTERNS_11TextPainterEii
lyx:_ZNK3lyx20InsetMathSpecialChar5mapleERNS_11MapleStreamE
lyx:_ZNK3lyx20InsetMathSpecialChar5writeERNS_13TeXMathStreamE
lyx:_ZNK3lyx20InsetMathSpecialChar6octaveERNS_12OctaveStreamE
lyx:_ZNK3lyx20InsetMathSpecialChar7htmlizeERNS_10HtmlStreamE
lyx:_ZNK3lyx20InsetMathSpecialChar7metricsERNS_11MetricsInfoERNS_9DimensionE
lyx:_ZNK3lyx20InsetMathSpecialChar8metricsTERKNS_15TextMetricsInfoERNS_9DimensionE
lyx:_ZNK3lyx20InsetMathSpecialChar8validateERNS_13LaTeXFeaturesE
lyx:_ZNK3lyx20InsetMathSpecialChar9mathmlizeERNS_12MathMLStreamE
lyx:_ZNK3lyx20InsetMathSpecialChar9normalizeERNS_12NormalStreamE
lyx:_ZNK3lyx20InsetSeparatorParams5writeERSo
lyx:_ZNK3lyx21InsetIndexMacroParams5writeERSo
lyx:_ZNK3lyx22InsetMathMacroArgument5cloneEv
lyx:_ZNK3lyx22InsetMathMacroArgument9normalizeERNS_12NormalStreamE
lyx:_ZNK3lyx22InsetMathMacroTemplate10createLookEi
lyx:_ZNK3lyx22InsetMathMacroTemplate10definitionB5cxx11Ev
lyx:_ZNK3lyx22InsetMathMacroTemplate10updateLookEv
lyx:_ZNK3lyx22InsetMathMacroTemplate10validMacroEv
lyx:_ZNK3lyx22InsetMathMacroTemplate11getDefaultsERSt6vectorINSt7__cxx1112basic_stringIwSt11char_traitsIwESaIwEEESaIS7_EE
lyx:_ZNK3lyx22InsetMathMacroTemplate12numOptionalsEv
lyx:_ZNK3lyx22InsetMathMacroTemplate15contextMenuNameB5cxx11Ev
lyx:_ZNK3lyx22InsetMathMacroTemplate17displayDefinitionB5cxx11Ev
lyx:_ZNK3lyx22InsetMathMacroTemplate23maxArgumentInDefinitionEv
lyx:_ZNK3lyx22InsetMathMacroTemplate4drawERNS_11PainterInfoEii
lyx:_ZNK3lyx22InsetMathMacroTemplate4nameB5cxx11Ev
lyx:_ZNK3lyx22InsetMathMacroTemplate5cloneEv
lyx:_ZNK3lyx22InsetMathMacroTemplate5writeERNS_13TeXMathStreamE
lyx:_ZNK3lyx22InsetMathMacroTemplate5writeERNS_13TeXMathStreamEb
lyx:_ZNK3lyx22InsetMathMacroTemplate5writeERSo
lyx:_ZNK3lyx22InsetMathMacroTemplate5xhtmlB5cxx11ERNS_9XMLStreamERKNS_12OutputParamsE
lyx:_ZNK3lyx22InsetMathMacroTemplate7infoizeERSt13basic_ostreamIwSt11char_traitsIwEE
lyx:_ZNK3lyx22InsetMathMacroTemplate7metricsERNS_11MetricsInfoERNS_9DimensionE
lyx:_ZNK3lyx22InsetMathMacroTemplate7numArgsEv
lyx:_ZNK3lyx22InsetMathMacroTemplate8addToTocERKNS_11DocIteratorEbNS_10UpdateTypeERNS_10TocBackendE
lyx:_ZNK3lyx22InsetMathMacroTemplate8validateERNS_13LaTeXFeaturesE
lyx:_ZNK3lyx22InsetMathMacroTemplate9getStatusERNS_6CursorERKNS_11FuncRequestERNS_10FuncStatusE
lyx:_ZNK3lyx22InsetMathMacroTemplate9plaintextERNSt7__cxx1119basic_ostringstreamIwSt11char_traitsIwESaIwEEERKNS_12OutputParamsEm
lyx:_ZNK3lyx22InsetMathMacroTemplate9validNameEv
lyx:_ZNK3lyx22RenderMonitoredPreview10monitoringEv
lyx:_ZNK3lyx22RenderMonitoredPreview14stopMonitoringEv
lyx:_ZNK3lyx22RenderMonitoredPreview15startMonitoringEv
lyx:_ZNK3lyx22RenderMonitoredPreview4drawERNS_11PainterInfoEiib
lyx:_ZNK3lyx29iconv_codecvt_facet_exception4whatEv
lyx:_ZNK3lyx3Box8containsEii
lyx:_ZNK3lyx3CVS8isLockedEv
lyx:_ZNK3lyx3CVS8toStringB5cxx11ENS0_9CvsStatusE
lyx:_ZNK3lyx3CVS9getTargetB5cxx11ENS0_13OperationModeE
lyx:_ZNK3lyx3Row10sameStringERKNS_4FontERKNS_6ChangeE
lyx:_ZNK3lyx3Row11findElementElbRd
lyx:_ZNK3lyx3Row12setSelectionEll
lyx:_ZNK3lyx3Row16isMarginSelectedEbRKNS_11DocIteratorES3_
lyx:_ZNK3lyx3Row22setSelectionAndMarginsERKNS_11DocIteratorES3_
lyx:_ZNK3lyx3Row24clearSelectionAndMarginsEv
lyx:_ZNK3lyx3Row6left_xEv
lyx:_ZNK3lyx3Row7Element14countExpandersEv
lyx:_ZNK3lyx3Row7Element15expansionAmountEv
lyx:_ZNK3lyx3Row7Element5pos2xEl
lyx:_ZNK3lyx3Row7Element5x2posERi
lyx:_ZNK3lyx3Row7right_xEv
lyx:_ZNK3lyx3Row9selectionEv
lyx:_ZNK3lyx3SVN8isLockedEv
lyx:_ZNK3lyx3VCS15makeRCSRevisionERKNSt7__cxx1112basic_stringIcSt11char_traitsIcESaIcEEERS6_
lyx:_ZNK3lyx3xml6EndTag11writeEndTagB5cxx11Ev
lyx:_ZNK3lyx3xml7CompTag8writeTagB5cxx11Ev
lyx:_ZNK3lyx3xml8StartTag11writeEndTagB5cxx11Ev
lyx:_ZNK3lyx3xml8StartTag8writeTagB5cxx11Ev
lyx:_ZNK3lyx4Font13isRightToLeftEv
lyx:_ZNK3lyx4Font15lyxWriteChangesERKS0_RSo
lyx:_ZNK3lyx4Font20isVisibleRightToLeftEv
lyx:_ZNK3lyx4Font20latexWriteEndChangesERNS_10otexstreamERKNS_12BufferParamsERKNS_12OutputParamsERKS0_SA_Rbb
lyx:_ZNK3lyx4Font22latexWriteStartChangesERNS_10otexstreamERKNS_12BufferParamsERKNS_12OutputParamsERKS0_SA_bb
lyx:_ZNK3lyx4Font8toStringB5cxx11Eb
lyx:_ZNK3lyx4Font8validateERNS_13LaTeXFeaturesE
lyx:_ZNK3lyx4Font9latexSizeB5cxx11Ev
lyx:_ZNK3lyx4Font9stateTextB5cxx11EPNS_12BufferParamsEb
lyx:_ZNK3lyx4Text10isMainTextEv
lyx:_ZNK3lyx4Text10layoutFontEl
lyx:_ZNK3lyx4Text11forOutlinerERNSt7__cxx1112basic_stringIwSt11char_traitsIwESaIwEEEmb
lyx:_ZNK3lyx4Text11forOutlinerERNSt7__cxx1112basic_stringIwSt11char_traitsIwESaIwEEEmllb
lyx:_ZNK3lyx4Text11getEndLabelEl
lyx:_ZNK3lyx4Text11getTocLevelEl
lyx:_ZNK3lyx4Text12currentStateB5cxx11ERKNS_10CursorDataEb
lyx:_ZNK3lyx4Text12getFreeFontsB5cxx11Ev
lyx:_ZNK3lyx4Text14lastInSequenceEl
lyx:_ZNK3lyx4Text16completionPrefixB5cxx11ERKNS_6CursorE
lyx:_ZNK3lyx4Text16getPossibleLabelB5cxx11ERKNS_11DocIteratorE
lyx:_ZNK3lyx4Text17inDescriptionItemERKNS_6CursorE
lyx:_ZNK3lyx4Text17isFirstInSequenceEl
lyx:_ZNK3lyx4Text18changeDepthAllowedERKNS_6CursorENS0_12DEPTH_CHANGEE
lyx:_ZNK3lyx4Text19completionSupportedERKNS_6CursorE
lyx:_ZNK3lyx4Text20createCompletionListERKNS_6CursorE
lyx:_ZNK3lyx4Text20macrocontextPositionEv
lyx:_ZNK3lyx4Text5emptyEv
lyx:_ZNK3lyx4Text5insetEv
lyx:_ZNK3lyx4Text5isRTLEl
lyx:_ZNK3lyx4Text5writeERSo
lyx:_ZNK3lyx4Text7getWordERNS_11CursorSliceES2_NS_13word_locationE
lyx:_ZNK3lyx4Text7spacingERKNS_9ParagraphE
lyx:_ZNK3lyx4Text8asStringB5cxx11Ei
lyx:_ZNK3lyx4Text8asStringB5cxx11Elli
lyx:_ZNK3lyx4Text9depthHookElm
lyx:_ZNK3lyx4Text9getStatusERNS_6CursorERKNS_11FuncRequestERNS_10FuncStatusE
lyx:_ZNK3lyx4Text9labelFontERKNS_9ParagraphE
lyx:_ZNK3lyx4Text9outerFontEl
lyx:_ZNK3lyx4Text9outerHookEl
lyx:_ZNK3lyx4Undo12hasRedoStackEv
lyx:_ZNK3lyx4Undo12hasUndoStackEv
lyx:_ZNK3lyx4Undo15activeUndoGroupEv
lyx:_ZNK3lyx5ColoreqERKS0_
lyx:_ZNK3lyx5ColorleERKS0_
lyx:_ZNK3lyx5ColorltERKS0_
lyx:_ZNK3lyx5ColorneERKS0_
lyx:_ZNK3lyx5Index5colorEv
lyx:_ZNK3lyx5Index5indexB5cxx11Ev
lyx:_ZNK3lyx5Index8shortcutB5cxx11Ev
lyx:_ZNK3lyx5Inset10allowEmptyEv
lyx:_ZNK3lyx5Inset10autoDeleteEv
lyx:_ZNK3lyx5Inset10idxBetweenEmmm
lyx:_ZNK3lyx5Inset10isPassThruEv
lyx:_ZNK3lyx5Inset10labelColorEv
lyx:_ZNK3lyx5Inset10layoutNameB5cxx11Ev
lyx:_ZNK3lyx5Inset11contextMenuB5cxx11ERKNS_10BufferViewEii
lyx:_ZNK3lyx5Inset11directWriteEv
lyx:_ZNK3lyx5Inset11drawMarkersERNS_11PainterInfoEii
lyx:_ZNK3lyx5Inset11forOutlinerERNSt7__cxx1112basic_stringIwSt11char_traitsIwESaIwEEEmb
lyx:_ZNK3lyx5Inset11getCtObjectERKNS_12OutputParamsE
lyx:_ZNK3lyx5Inset11hasSettingsEv
lyx:_ZNK3lyx5Inset12getLabelfontEv
lyx:_ZNK3lyx5Inset13isBufferValidEv
lyx:_ZNK3lyx5Inset13isFreeSpacingEv
lyx:_ZNK3lyx5Inset13resetFontEditEv
lyx:_ZNK3lyx5Inset14drawBackgroundERNS_11PainterInfoEii
lyx:_ZNK3lyx5Inset14isBufferLoadedEv
lyx:_ZNK3lyx5Inset14metricsMarkersERNS_9DimensionEi
lyx:_ZNK3lyx5Inset14updateFrontendEv
lyx:_ZNK3lyx5Inset15backgroundColorERKNS_11PainterInfoE
lyx:_ZNK3lyx5Inset15contextMenuNameB5cxx11Ev
lyx:_ZNK3lyx5Inset15metricsMarkers2ERNS_9DimensionEi
lyx:_ZNK3lyx5Inset15showInsetDialogEPNS_10BufferViewE
lyx:_ZNK3lyx5Inset16completionPrefixB5cxx11ERKNS_6CursorE
lyx:_ZNK3lyx5Inset21getLocalOrDefaultLangERKNS_12OutputParamsE
lyx:_ZNK3lyx5Inset2xoERKNS_10BufferViewE
lyx:_ZNK3lyx5Inset2yoERKNS_10BufferViewE
lyx:_ZNK3lyx5Inset4dumpEv
lyx:_ZNK3lyx5Inset5indexEmm
lyx:_ZNK3lyx5Inset5xhtmlB5cxx11ERNS_9XMLStreamERKNS_12OutputParamsE
lyx:_ZNK3lyx5Inset6bufferEv
lyx:_ZNK3lyx5Inset6coversERKNS_10BufferViewEii
lyx:_ZNK3lyx5Inset7docbookERNS_9XMLStreamERKNS_12OutputParamsE
lyx:_ZNK3lyx5Inset7editingEPKNS_10BufferViewE
lyx:_ZNK3lyx5Inset7getFontEv
lyx:_ZNK3lyx5Inset7isInTocEv
lyx:_ZNK3lyx5Inset7toolTipB5cxx11ERKNS_10BufferViewEii
lyx:_ZNK3lyx5Inset8editableEv
lyx:_ZNK3lyx5Inset8forceLTRERKNS_12OutputParamsE
lyx:_ZNK3lyx5Inset9cursorPosERKNS_10BufferViewERKNS_11CursorSliceEbRiS7_
lyx:_ZNK3lyx5Inset9dimensionERKNS_10BufferViewE
lyx:_ZNK3lyx5Inset9getLayoutEv
lyx:_ZNK3lyx5Inset9getStatusERNS_6CursorERKNS_11FuncRequestERNS_10FuncStatusE
lyx:_ZNK3lyx5Inset9idxUpDownERNS_6CursorEb
lyx:_ZNK3lyx5Inset9undefinedEv
lyx:_ZNK3lyx5LaTeX20removeAuxiliaryFilesEv
lyx:_ZNK3lyx5Lexer10getIntegerEv
lyx:_ZNK3lyx5Lexer10lineNumberEv
lyx:_ZNK3lyx5Lexer10printErrorERKNSt7__cxx1112basic_stringIcSt11char_traitsIcESaIcEEE
lyx:_ZNK3lyx5Lexer12getDocStringB5cxx11Eb
lyx:_ZNK3lyx5Lexer4isOKEv
lyx:_ZNK3lyx5Lexer5Pimpl10printErrorERKNSt7__cxx1112basic_stringIcSt11char_traitsIcESaIcEEE
lyx:_ZNK3lyx5Lexer5Pimpl12getDocStringB5cxx11Ev
lyx:_ZNK3lyx5Lexer5Pimpl13searchKeywordEPKc
lyx:_ZNK3lyx5Lexer5Pimpl9getStringB5cxx11Ev
lyx:_ZNK3lyx5Lexer7getBoolEv
lyx:_ZNK3lyx5Lexer8getFloatEv
lyx:_ZNK3lyx5Lexer9getStringB5cxx11Eb
lyx:_ZNK3lyx5LexercvPKvEv
lyx:_ZNK3lyx5LexerntEv
lyx:_ZNK3lyx5LyXRC5printEv
lyx:_ZNK3lyx5LyXRC5writeERKNS_7support8FileNameEb
lyx:_ZNK3lyx5LyXRC5writeERSobRKNSt7__cxx1112basic_stringIcSt11char_traitsIcESaIcEEE
lyx:_ZNK3lyx5LyXVC10getLogFileB5cxx11Ev
lyx:_ZNK3lyx5LyXVC11copyEnabledEv
lyx:_ZNK3lyx5LyXVC12revisionInfoB5cxx11ENS0_12RevisionInfoE
lyx:_ZNK3lyx5LyXVC13renameEnabledEv
lyx:_ZNK3lyx5LyXVC13versionStringB5cxx11Ev
lyx:_ZNK3lyx5LyXVC14checkInEnabledEv
lyx:_ZNK3lyx5LyXVC15checkOutEnabledEv
lyx:_ZNK3lyx5LyXVC15undoLastEnabledEv
lyx:_ZNK3lyx5LyXVC17repoUpdateEnabledEv
lyx:_ZNK3lyx5LyXVC20lockingToggleEnabledEv
lyx:_ZNK3lyx5LyXVC25isCheckInWithConfirmationEv
lyx:_ZNK3lyx5LyXVC5inUseEv
lyx:_ZNK3lyx5LyXVC7lockingEv
lyx:_ZNK3lyx5LyXVC8vcstatusB5cxx11Ev
lyx:_ZNK3lyx5Mover4copyERKNS_7support8FileNameES4_
lyx:_ZNK3lyx5Mover6renameERKNS_7support8FileNameES4_
lyx:_ZNK3lyx5Mover7do_copyERKNS_7support8FileNameES4_RKNSt7__cxx1112basic_stringIcSt11char_traitsIcESaIcEEE
lyx:_ZNK3lyx5Mover9do_renameERKNS_7support8FileNameES4_RKNSt7__cxx1112basic_stringIcSt11char_traitsIcESaIcEEE
lyx:_ZNK3lyx5Timer5toStrB5cxx11Ev
lyx:_ZNK3lyx5Timer7dateStrB5cxx11Ec
lyx:_ZNK3lyx5Timer7elapsedEv
lyx:_ZNK3lyx5Timer7timeStrB5cxx11Ec
lyx:_ZNK3lyx5Trans15isAccentDefinedENS_10tex_accentERNS_8KmodInfoE
lyx:_ZNK3lyx5Trans9isDefinedEv
lyx:_ZNK3lyx6Author12nameAndEmailB5cxx11Ev
lyx:_ZNK3lyx6Author5validEv
lyx:_ZNK3lyx6Branch10isSelectedEv
lyx:_ZNK3lyx6Branch13darkModeColorB5cxx11Ev
lyx:_ZNK3lyx6Branch14lightModeColorB5cxx11Ev
lyx:_ZNK3lyx6Branch17hasFileNameSuffixEv
lyx:_ZNK3lyx6Branch5colorB5cxx11Ev
lyx:_ZNK3lyx6Branch6branchB5cxx11Ev
lyx:_ZNK3lyx6Buffer10bufferRefsERKNS_9TeXErrorsERNS_9ErrorListE
lyx:_ZNK3lyx6Buffer10insetLabelERKNSt7__cxx1112basic_stringIwSt11char_traitsIwESaIwEEEb
lyx:_ZNK3lyx6Buffer10isDepCleanERKNSt7__cxx1112basic_stringIcSt11char_traitsIcESaIcEEE
lyx:_ZNK3lyx6Buffer10isInternalEv
lyx:_ZNK3lyx6Buffer10isReadonlyEv
lyx:_ZNK3lyx6Buffer10needUpdateEv
lyx:_ZNK3lyx6Buffer10paragraphsEv
lyx:_ZNK3lyx6Buffer10referencesERKNSt7__cxx1112basic_stringIwSt11char_traitsIwESaIwEEE
lyx:_ZNK3lyx6Buffer10spellCheckERNS_11DocIteratorES2_RNS_13WordLangTupleERNS_14docstring_listE
lyx:_ZNK3lyx6Buffer10tocBackendEv
lyx:_ZNK3lyx6Buffer11absFileNameB5cxx11Ev
lyx:_ZNK3lyx6Buffer11activeLabelERKNSt7__cxx1112basic_stringIwSt11char_traitsIwESaIwEEE
lyx:_ZNK3lyx6Buffer11forceUpdateEv
lyx:_ZNK3lyx6Buffer11getBibfilesENS0_11UpdateScopeE
lyx:_ZNK3lyx6Buffer11getChildrenB5cxx11Ev
lyx:_ZNK3lyx6Buffer11hasChildrenEv
lyx:_ZNK3lyx6Buffer11isExportingEv
lyx:_ZNK3lyx6Buffer12allRelativesB5cxx11Ev
lyx:_ZNK3lyx6Buffer12bufferErrorsERKNS_9TeXErrorsERNS_9ErrorListE
lyx:_ZNK3lyx6Buffer12getLabelListERSt6vectorISt5tupleIJNSt7__cxx1112basic_stringIwSt11char_traitsIwESaIwEEES8_S8_EESaIS9_EE
lyx:_ZNK3lyx6Buffer12getLanguagesERSt3setIPKNS_8LanguageESt4lessIS4_ESaIS4_EE
lyx:_ZNK3lyx6Buffer12getLanguagesEv
lyx:_ZNK3lyx6Buffer12getParFromIDEi
lyx:_ZNK3lyx6Buffer12hasParWithIDEi
lyx:_ZNK3lyx6Buffer12masterBufferEv
lyx:_ZNK3lyx6Buffer12masterParamsEv
lyx:_ZNK3lyx6Buffer12saveCheckSumEv
lyx:_ZNK3lyx6Buffer12updateBufferENS0_11UpdateScopeENS_10UpdateTypeE
lyx:_ZNK3lyx6Buffer12updateBufferERNS_11ParIteratorENS_10UpdateTypeEb
lyx:_ZNK3lyx6Buffer12updateBufferEv
lyx:_ZNK3lyx6Buffer12updateMacrosEv
lyx:_ZNK3lyx6Buffer12updateTitlesEv
lyx:_ZNK3lyx6Buffer13addBibTeXInfoERKNSt7__cxx1112basic_stringIwSt11char_traitsIwESaIwEEERKNS_10BibTeXInfoE
lyx:_ZNK3lyx6Buffer13addBiblioInfoERKNS_10BiblioInfoE
lyx:_ZNK3lyx6Buffer13getBackupNameEv
lyx:_ZNK3lyx6Buffer13getSourceCodeERSt13basic_ostreamIwSt11char_traitsIwEERKNSt7__cxx1112basic_stringIcS2_IcESaIcEEEllNS0_10OutputWhatEb
lyx:_ZNK3lyx6Buffer13isFullyLoadedEv
lyx:_ZNK3lyx6Buffer13makeLaTeXFileERKNS_7support8FileNameERKNSt7__cxx1112basic_stringIcSt11char_traitsIcESaIcEEERKNS_12OutputParamsENS0_10OutputWhatE
lyx:_ZNK3lyx6Buffer13masterBibInfoEv
lyx:_ZNK3lyx6Buffer13setMathFlavorERNS_12OutputParamsE
lyx:_ZNK3lyx6Buffer13updateTocItemERKNSt7__cxx1112basic_stringIcSt11char_traitsIcESaIcEEERKNS_11DocIteratorE
lyx:_ZNK3lyx6Buffer14collectBibKeysERNS_7support12FileNameListE
lyx:_ZNK3lyx6Buffer14emergencyWriteB5cxx11Ev
lyx:_ZNK3lyx6Buffer14getBibfilePathERKNSt7__cxx1112basic_stringIwSt11char_traitsIwESaIwEEE
lyx:_ZNK3lyx6Buffer14getDescendantsB5cxx11Ev
lyx:_ZNK3lyx6Buffer14hasGuiDelegateEv
lyx:_ZNK3lyx6Buffer14isMultiLingualEv
lyx:_ZNK3lyx6Buffer14listMacroNamesERNS_12MacroNameSetE
lyx:_ZNK3lyx6Buffer14parseLyXFormatERNS_5LexerERKNS_7support8FileNameERi
lyx:_ZNK3lyx6Buffer14removePreviewsEv
lyx:_ZNK3lyx6Buffer14updatePreviewsEv
lyx:_ZNK3lyx6Buffer15citeLabelsValidEv
lyx:_ZNK3lyx6Buffer15cloneBufferOnlyEv
lyx:_ZNK3lyx6Buffer15collectChildrenERNSt7__cxx114listIPS0_SaIS3_EEEb
lyx:_ZNK3lyx6Buffer15getUsedBranchesERNSt7__cxx114listINS1_12basic_stringIwSt11char_traitsIwESaIwEEESaIS7_EEEb
lyx:_ZNK3lyx6Buffer15hasReadonlyFlagEv
lyx:_ZNK3lyx6Buffer15makeDocBookFileERKNS_7support8FileNameERKNS_12OutputParamsENS0_10OutputWhatE
lyx:_ZNK3lyx6Buffer15makeLyXHTMLFileERKNS_7support8FileNameERKNS_12OutputParamsE
lyx:_ZNK3lyx6Buffer15setExportStatusEb
lyx:_ZNK3lyx6Buffer15workAreaManagerEv
lyx:_ZNK3lyx6Buffer16clearIncludeListEv
lyx:_ZNK3lyx6Buffer16includedFilePathERKNSt7__cxx1112basic_stringIcSt11char_traitsIcESaIcEEES8_
lyx:_ZNK3lyx6Buffer16isBufferIncludedEPKS0_
lyx:_ZNK3lyx6Buffer16isSyncTeXenabledEv
lyx:_ZNK3lyx6Buffer16listParentMacrosERNS_8MacroSetERNS_13LaTeXFeaturesE
lyx:_ZNK3lyx6Buffer16moveAutosaveFileERKNS_7support8FileNameE
lyx:_ZNK3lyx6Buffer16par_iterator_endEv
lyx:_ZNK3lyx6Buffer16registerBibfilesERKNS_14docstring_listE
lyx:_ZNK3lyx6Buffer16structureChangedEv
lyx:_ZNK3lyx6Buffer16updateStatisticsERNS_11DocIteratorES2_b
lyx:_ZNK3lyx6Buffer16writeLaTeXSourceERNS_10otexstreamERKNSt7__cxx1112basic_stringIcSt11char_traitsIcESaIcEEERKNS_12OutputParamsENS0_10OutputWhatE
lyx:_ZNK3lyx6Buffer17areChangesPresentEv
lyx:_ZNK3lyx6Buffer17clearBibFileCacheEv
lyx:_ZNK3lyx6Buffer17cloneWithChildrenERSt3mapIPKS0_PS0_St4lessIS3_ESaISt4pairIKS3_S4_EEESt10shared_ptrISt3setIS4_S5_IS4_ESaIS4_EEE
lyx:_ZNK3lyx6Buffer17cloneWithChildrenEv
lyx:_ZNK3lyx6Buffer17fontScalingFactorEv
lyx:_ZNK3lyx6Buffer17popIncludedBufferEv
lyx:_ZNK3lyx6Buffer17requireFreshStartEb
lyx:_ZNK3lyx6Buffer18freshStartRequiredEv
lyx:_ZNK3lyx6Buffer18isChecksumModifiedEv
lyx:_ZNK3lyx6Buffer18makeCitationLabelsEv
lyx:_ZNK3lyx6Buffer18par_iterator_beginEv
lyx:_ZNK3lyx6Buffer18pushIncludedBufferEPKS0_
lyx:_ZNK3lyx6Buffer18reloadBibInfoCacheEb
lyx:_ZNK3lyx6Buffer18removeAutosaveFileEv
lyx:_ZNK3lyx6Buffer18writeDocBookSourceERSt13basic_ostreamIwSt11char_traitsIwEERKNS_12OutputParamsENS0_10OutputWhatE
lyx:_ZNK3lyx6Buffer18writeLyXHTMLSourceERSt13basic_ostreamIwSt11char_traitsIwEERKNS_12OutputParamsENS0_10OutputWhatE
lyx:_ZNK3lyx6Buffer19clearReferenceCacheEv
lyx:_ZNK3lyx6Buffer19getAutosaveFileNameEv
lyx:_ZNK3lyx6Buffer19prepareBibFilePathsB5cxx11ERKNS_12OutputParamsERKNS_14docstring_listEb
lyx:_ZNK3lyx6Buffer19resetAutosaveTimersEv
lyx:_ZNK3lyx6Buffer20getEmergencyFileNameEv
lyx:_ZNK3lyx6Buffer20invalidateCiteLabelsEv
lyx:_ZNK3lyx6Buffer20updateMacroInstancesENS_10UpdateTypeE
lyx:_ZNK3lyx6Buffer21getReferencedFileNameERKNSt7__cxx1112basic_stringIcSt11char_traitsIcESaIcEEE
lyx:_ZNK3lyx6Buffer21removeBiblioTempFilesEv
lyx:_ZNK3lyx6Buffer22invalidateBibinfoCacheEv
lyx:_ZNK3lyx6Buffer23branchActivationEnabledENS_8FuncCodeERKNSt7__cxx1112basic_stringIwSt11char_traitsIwESaIwEEE
lyx:_ZNK3lyx6Buffer23prepareFileNameForLaTeXERKNSt7__cxx1112basic_stringIcSt11char_traitsIcESaIcEEES8_b
lyx:_ZNK3lyx6Buffer23scheduleRedrawWorkAreasEv
lyx:_ZNK3lyx6Buffer25clearExternalModificationEv
lyx:_ZNK3lyx6Buffer26checkIfBibInfoCacheIsValidEv
lyx:_ZNK3lyx6Buffer28notifiesExternalModificationEv
lyx:_ZNK3lyx6Buffer2B_ERKNSt7__cxx1112basic_stringIcSt11char_traitsIcESaIcEEE
lyx:_ZNK3lyx6Buffer2idEv
lyx:_ZNK3lyx6Buffer4Impl14exportFileNameEv
lyx:_ZNK3lyx6Buffer4Impl14getBufferMacroERKNSt7__cxx1112basic_stringIwSt11char_traitsIwESaIwEEERKNS_11DocIteratorE
lyx:_ZNK3lyx6Buffer4Impl14traverseErrorsEN9__gnu_cxx17__normal_iteratorIPKNS_9TeXErrors5ErrorESt6vectorIS5_SaIS5_EEEESB_RNS_9ErrorListE
lyx:_ZNK3lyx6Buffer4Impl8setLabelERNS_11ParIteratorENS_10UpdateTypeE
lyx:_ZNK3lyx6Buffer4saveEv
lyx:_ZNK3lyx6Buffer4textEv
lyx:_ZNK3lyx6Buffer4undoEv
lyx:_ZNK3lyx6Buffer5emptyEv
lyx:_ZNK3lyx6Buffer5insetEv
lyx:_ZNK3lyx6Buffer5lyxvcEv
lyx:_ZNK3lyx6Buffer5writeERSo
lyx:_ZNK3lyx6Buffer6errorsERKNSt7__cxx1112basic_stringIcSt11char_traitsIcESaIcEEEb
lyx:_ZNK3lyx6Buffer6loaderEv
lyx:_ZNK3lyx6Buffer6paramsEv
lyx:_ZNK3lyx6Buffer6parentEv
lyx:_ZNK3lyx6Buffer6texrowEv
lyx:_ZNK3lyx6Buffer7bibInfoEv
lyx:_ZNK3lyx6Buffer7changedEb
lyx:_ZNK3lyx6Buffer7isChildEPS0_
lyx:_ZNK3lyx6Buffer7isCleanEv
lyx:_ZNK3lyx6Buffer7isCloneEv
lyx:_ZNK3lyx6Buffer7logNameB5cxx11EPNS0_7LogTypeE
lyx:_ZNK3lyx6Buffer7messageERKNSt7__cxx1112basic_stringIwSt11char_traitsIwESaIwEEE
lyx:_ZNK3lyx6Buffer7previewERKNSt7__cxx1112basic_stringIcSt11char_traitsIcESaIcEEE
lyx:_ZNK3lyx6Buffer7previewERKNSt7__cxx1112basic_stringIcSt11char_traitsIcESaIcEEEb
lyx:_ZNK3lyx6Buffer7setBusyEb
lyx:_ZNK3lyx6Buffer8autoSaveEv
lyx:_ZNK3lyx6Buffer8doExportERKNSt7__cxx1112basic_stringIcSt11char_traitsIcESaIcEEEb
lyx:_ZNK3lyx6Buffer8doExportERKNSt7__cxx1112basic_stringIcSt11char_traitsIcESaIcEEEbRS6_
lyx:_ZNK3lyx6Buffer8doExportERKNSt7__cxx1112basic_stringIcSt11char_traitsIcESaIcEEEbbRS6_
lyx:_ZNK3lyx6Buffer8fileNameEv
lyx:_ZNK3lyx6Buffer8filePathB5cxx11Ev
lyx:_ZNK3lyx6Buffer8getMacroERKNSt7__cxx1112basic_stringIwSt11char_traitsIwESaIwEEERKNS_11DocIteratorEb
lyx:_ZNK3lyx6Buffer8getMacroERKNSt7__cxx1112basic_stringIwSt11char_traitsIwESaIwEEERKS0_b
lyx:_ZNK3lyx6Buffer8getMacroERKNSt7__cxx1112basic_stringIwSt11char_traitsIwESaIwEEEb
lyx:_ZNK3lyx6Buffer8languageEv
lyx:_ZNK3lyx6Buffer8temppathB5cxx11Ev
lyx:_ZNK3lyx6Buffer8validateERNS_13LaTeXFeaturesE
lyx:_ZNK3lyx6Buffer9charCountEb
lyx:_ZNK3lyx6Buffer9errorListERKNSt7__cxx1112basic_stringIcSt11char_traitsIcESaIcEEE
lyx:_ZNK3lyx6Buffer9getStatusERKNS_11FuncRequestERNS_10FuncStatusE
lyx:_ZNK3lyx6Buffer9isUnnamedEv
lyx:_ZNK3lyx6Buffer9latexNameB5cxx11Eb
lyx:_ZNK3lyx6Buffer9layoutPosB5cxx11Ev
lyx:_ZNK3lyx6Buffer9markCleanEv
lyx:_ZNK3lyx6Buffer9wordCountEv
lyx:_ZNK3lyx6Buffer9writeFileERKNS_7support8FileNameE
lyx:_ZNK3lyx6Bullet11getFontSizeEv
lyx:_ZNK3lyx6Bullet12generateTextEv
lyx:_ZNK3lyx6Bullet12getCharacterEv
lyx:_ZNK3lyx6Bullet13testInvariantEv
lyx:_ZNK3lyx6Bullet7getFontEv
lyx:_ZNK3lyx6Bullet7getSizeEv
lyx:_ZNK3lyx6Bullet7getTextB5cxx11Ev
lyx:_ZNK3lyx6Bullet8getLabelB5cxx11Ev
lyx:_ZNK3lyx6Change11isSimilarToERKS0_
lyx:_ZNK3lyx6Change5colorEv
lyx:_ZNK3lyx6Change8paintCueERNS_11PainterInfoEdddRKNS_8FontInfoE
lyx:_ZNK3lyx6Change8paintCueERNS_11PainterInfoEdddd
lyx:_ZNK3lyx6Cursor10dispatchedEv
lyx:_ZNK3lyx6Cursor11activeMacroEv
lyx:_ZNK3lyx6Cursor11inMacroModeEv
lyx:_ZNK3lyx6Cursor12errorMessageERKNSt7__cxx1112basic_stringIwSt11char_traitsIwESaIwEEE
lyx:_ZNK3lyx6Cursor12undispatchedEv
lyx:_ZNK3lyx6Cursor14noScreenUpdateEv
lyx:_ZNK3lyx6Cursor16needBufferUpdateEv
lyx:_ZNK3lyx6Cursor16textTargetOffsetEv
lyx:_ZNK3lyx6Cursor17clearBufferUpdateEv
lyx:_ZNK3lyx6Cursor17forceBufferUpdateEv
lyx:_ZNK3lyx6Cursor17getSurroundingPosERlS1_
lyx:_ZNK3lyx6Cursor17screenUpdateFlagsENS_6Update5flagsE
lyx:_ZNK3lyx6Cursor22reverseDirectionNeededEv
lyx:_ZNK3lyx6Cursor2bvEv
lyx:_ZNK3lyx6Cursor6getPosERiS1_
lyx:_ZNK3lyx6Cursor6resultEv
lyx:_ZNK3lyx6Cursor7getFontEv
lyx:_ZNK3lyx6Cursor7messageERKNSt7__cxx1112basic_stringIwSt11char_traitsIwESaIwEEE
lyx:_ZNK3lyx6Cursor7targetXEv
lyx:_ZNK3lyx6Cursor7textRowEv
lyx:_ZNK3lyx6Cursor8openableERKNS_8MathAtomE
lyx:_ZNK3lyx6Cursor8x_targetEv
lyx:_ZNK3lyx6Cursor9getStatusERKNS_11FuncRequestERNS_10FuncStatusE
lyx:_ZNK3lyx6Filter8toStringEv
lyx:_ZNK3lyx6Format10extensionsB5cxx11Ev
lyx:_ZNK3lyx6Format12hasExtensionERKNSt7__cxx1112basic_stringIcSt11char_traitsIcESaIcEEE
lyx:_ZNK3lyx6Format12parentFormatB5cxx11Ev
lyx:_ZNK3lyx6Format13isChildFormatEv
lyx:_ZNK3lyx6Format5dummyEv
lyx:_ZNK3lyx6KeyMap12findBindingsERKNS_11FuncRequestE
lyx:_ZNK3lyx6KeyMap12findBindingsERKNS_11FuncRequestERKNS_11KeySequenceE
lyx:_ZNK3lyx6KeyMap12listBindingsERSt6vectorINS0_7BindingESaIS2_EERKNS_11KeySequenceENS0_8ItemTypeE
lyx:_ZNK3lyx6KeyMap12listBindingsEbNS0_8ItemTypeE
lyx:_ZNK3lyx6KeyMap13printBindingsB5cxx11ERKNS_11FuncRequestENS_11KeySequence12outputFormatEb
lyx:_ZNK3lyx6KeyMap5printB5cxx11Eb
lyx:_ZNK3lyx6KeyMap5writeERKNSt7__cxx1112basic_stringIcSt11char_traitsIcESaIcEEEbb
lyx:_ZNK3lyx6KeyMap6lookupERKNS_9KeySymbolEjPNS_11KeySequenceE
lyx:_ZNK3lyx6Layout10docbooktagB5cxx11Ev
lyx:_ZNK3lyx6Layout11docbookattrB5cxx11Ev
lyx:_ZNK3lyx6Layout11htmlitemtagB5cxx11Ev
lyx:_ZNK3lyx6Layout12htmlitemattrB5cxx11Ev
lyx:_ZNK3lyx6Layout12htmllabeltagB5cxx11Ev
lyx:_ZNK3lyx6Layout12requiredArgsEv
lyx:_ZNK3lyx6Layout13docbookininfoB5cxx11Ev
lyx:_ZNK3lyx6Layout13htmllabelattrB5cxx11Ev
lyx:_ZNK3lyx6Layout14docbookitemtagB5cxx11Ev
lyx:_ZNK3lyx6Layout14docbooktagtypeB5cxx11Ev
lyx:_ZNK3lyx6Layout14makeDefaultCSSEv
lyx:_ZNK3lyx6Layout15defaultCSSClassB5cxx11Ev
lyx:_ZNK3lyx6Layout15docbookinnertagB5cxx11Ev
lyx:_ZNK3lyx6Layout15docbookitemattrB5cxx11Ev
lyx:_ZNK3lyx6Layout16docbookinnerattrB5cxx11Ev
lyx:_ZNK3lyx6Layout17docbooksectiontagB5cxx11Ev
lyx:_ZNK3lyx6Layout17docbookwrappertagB5cxx11Ev
lyx:_ZNK3lyx6Layout17htmlGetAttrStringB5cxx11Ev
lyx:_ZNK3lyx6Layout18docbookitemtagtypeB5cxx11Ev
lyx:_ZNK3lyx6Layout18docbookwrapperattrB5cxx11Ev
lyx:_ZNK3lyx6Layout19docbookinnertagtypeB5cxx11Ev
lyx:_ZNK3lyx6Layout19docbookiteminnertagB5cxx11Ev
lyx:_ZNK3lyx6Layout19docbookitemlabeltagB5cxx11Ev
lyx:_ZNK3lyx6Layout20docbookiteminnerattrB5cxx11Ev
lyx:_ZNK3lyx6Layout20docbookitemlabelattrB5cxx11Ev
lyx:_ZNK3lyx6Layout21docbookitemwrappertagB5cxx11Ev
lyx:_ZNK3lyx6Layout21docbookwrappertagtypeB5cxx11Ev
lyx:_ZNK3lyx6Layout22docbookitemwrapperattrB5cxx11Ev
lyx:_ZNK3lyx6Layout23docbookforceabstracttagB5cxx11Ev
lyx:_ZNK3lyx6Layout23docbookiteminnertagtypeB5cxx11Ev
lyx:_ZNK3lyx6Layout23docbookitemlabeltagtypeB5cxx11Ev
lyx:_ZNK3lyx6Layout25docbookitemwrappertagtypeB5cxx11Ev
lyx:_ZNK3lyx6Layout4argsB5cxx11Ev
lyx:_ZNK3lyx6Layout5writeERSo
lyx:_ZNK3lyx6Layout7hasArgsEv
lyx:_ZNK3lyx6Layout7htmltagB5cxx11Ev
lyx:_ZNK3lyx6Layout7optArgsEv
lyx:_ZNK3lyx6Layout9htmlclassB5cxx11Ev
lyx:_ZNK3lyx6Layout9htmlstyleB5cxx11Ev
lyx:_ZNK3lyx6LayouteqERKS0_
lyx:_ZNK3lyx6Length11asDocstringB5cxx11Ev
lyx:_ZNK3lyx6Length12asHTMLStringB5cxx11Ev
lyx:_ZNK3lyx6Length13asLatexStringB5cxx11Ev
lyx:_ZNK3lyx6Length4inBPEv
lyx:_ZNK3lyx6Length6inInchEdd
lyx:_ZNK3lyx6Length8asStringB5cxx11Ev
lyx:_ZNK3lyx6Length8inPixelsEii
lyx:_ZNK3lyx6LyXErr9debuggingEy
lyx:_ZNK3lyx6Movers7commandERKNSt7__cxx1112basic_stringIcSt11char_traitsIcESaIcEEE
lyx:_ZNK3lyx6MoversclERKNSt7__cxx1112basic_stringIcSt11char_traitsIcESaIcEEE
lyx:_ZNK3lyx6TexRow12RowEntryList12getTextEntryEv
lyx:_ZNK3lyx6TexRow13rowFromCursorERKNS_6CursorE
lyx:_ZNK3lyx6TexRow15goToFuncFromRowEi
lyx:_ZNK3lyx6TexRow17getEntriesFromRowEi
lyx:_ZNK3lyx6TexRow18rowFromDocIteratorERKNS_11DocIteratorE
lyx:_ZNK3lyx6TexRow22getDocIteratorsFromRowEiRKNS_6BufferE
lyx:_ZNK3lyx6TexRow3endEv
lyx:_ZNK3lyx6TexRow4rowsEv
lyx:_ZNK3lyx6TexRow5beginEv
lyx:_ZNK3lyx6TexRow7prependERNS_14docstring_listE
lyx:_ZNK3lyx6VSpace12asHTMLLengthB5cxx11Ev
lyx:_ZNK3lyx6VSpace12asLyXCommandB5cxx11Ev
lyx:_ZNK3lyx6VSpace14asLatexCommandB5cxx11ERKNS_12BufferParamsE
lyx:_ZNK3lyx6VSpace8inPixelsERKNS_10BufferViewE
lyx:_ZNK3lyx6VSpace9asGUINameB5cxx11Ev
lyx:_ZNK3lyx6VSpaceeqERKS0_
lyx:_ZNK3lyx7Changes12checkAuthorsERKNS_10AuthorListE
lyx:_ZNK3lyx7Changes5Range10intersectsERKS1_
lyx:_ZNK3lyx7Changes6lookupEl
lyx:_ZNK3lyx7Changes8addToTocERKNS_11DocIteratorERKNS_6BufferEbRNS_10TocBackendE
lyx:_ZNK3lyx7Changes9isChangedEll
lyx:_ZNK3lyx7Changes9isChangedEv
lyx:_ZNK3lyx7Changes9isDeletedEll
lyx:_ZNK3lyx7Compare10metaObjectEv
lyx:_ZNK3lyx7Compare11progressMaxEi
lyx:_ZNK3lyx7Compare13statusMessageE7QString
lyx:_ZNK3lyx7Compare4Impl17writeToDestBufferERKNS_13ParagraphListE
lyx:_ZNK3lyx7Compare5errorEv
