libabigail.so.0:_ZN7abigail10arial_typoE
libabigail.so.0:_ZN7abigail10comparison10array_diff16finish_diff_typeEv
libabigail.so.0:_ZN7abigail10comparison10array_diff17element_type_diffESt10shared_ptrINS0_4diffEE
libabigail.so.0:_ZN7abigail10comparison10array_diff20chain_into_hierarchyEv
libabigail.so.0:_ZN7abigail10comparison10array_diffC1ESt10shared_ptrINS_2ir14array_type_defEES5_S2_INS0_4diffEES2_INS0_12diff_contextEE
libabigail.so.0:_ZN7abigail10comparison10array_diffC2ESt10shared_ptrINS_2ir14array_type_defEES5_S2_INS0_4diffEES2_INS0_12diff_contextEE
libabigail.so.0:_ZN7abigail10comparison10class_diff12base_changesEv
libabigail.so.0:_ZN7abigail10comparison10class_diff13changed_basesEv
libabigail.so.0:_ZN7abigail10comparison10class_diff16finish_diff_typeEv
libabigail.so.0:_ZN7abigail10comparison10class_diff18allocate_priv_dataEv
libabigail.so.0:_ZN7abigail10comparison10class_diff19clear_lookup_tablesEv
libabigail.so.0:_ZN7abigail10comparison10class_diff20chain_into_hierarchyEv
libabigail.so.0:_ZN7abigail10comparison10class_diff4priv20count_filtered_basesEv
libabigail.so.0:_ZN7abigail10comparison10class_diffC1ESt10shared_ptrINS_2ir10class_declEES5_S2_INS0_12diff_contextEE
libabigail.so.0:_ZN7abigail10comparison10class_diffC2ESt10shared_ptrINS_2ir10class_declEES5_S2_INS0_12diff_contextEE
libabigail.so.0:_ZN7abigail10comparison10class_diffD0Ev
libabigail.so.0:_ZN7abigail10comparison10class_diffD1Ev
libabigail.so.0:_ZN7abigail10comparison10class_diffD2Ev
libabigail.so.0:_ZN7abigail10comparison10scope_diff14member_changesEv
libabigail.so.0:_ZN7abigail10comparison10scope_diff16finish_diff_typeEv
libabigail.so.0:_ZN7abigail10comparison10scope_diff18inserted_member_atEN9__gnu_cxx17__normal_iteratorIPKjSt6vectorIjSaIjEEEE
libabigail.so.0:_ZN7abigail10comparison10scope_diff18inserted_member_atEj
libabigail.so.0:_ZN7abigail10comparison10scope_diff19clear_lookup_tablesEv
libabigail.so.0:_ZN7abigail10comparison10scope_diff20chain_into_hierarchyEv
libabigail.so.0:_ZN7abigail10comparison10scope_diff30ensure_lookup_tables_populatedEv
libabigail.so.0:_ZN7abigail10comparison10scope_diffC1ESt10shared_ptrINS_2ir10scope_declEES5_S2_INS0_12diff_contextEE
libabigail.so.0:_ZN7abigail10comparison10scope_diffC2ESt10shared_ptrINS_2ir10scope_declEES5_S2_INS0_12diff_contextEE
libabigail.so.0:_ZN7abigail10comparison10union_diff16finish_diff_typeEv
libabigail.so.0:_ZN7abigail10comparison10union_diff18allocate_priv_dataEv
libabigail.so.0:_ZN7abigail10comparison10union_diff19clear_lookup_tablesEv
libabigail.so.0:_ZN7abigail10comparison10union_diffC1ESt10shared_ptrINS_2ir10union_declEES5_S2_INS0_12diff_contextEE
libabigail.so.0:_ZN7abigail10comparison10union_diffC2ESt10shared_ptrINS_2ir10union_declEES5_S2_INS0_12diff_contextEE
libabigail.so.0:_ZN7abigail10comparison10union_diffD0Ev
libabigail.so.0:_ZN7abigail10comparison10union_diffD1Ev
libabigail.so.0:_ZN7abigail10comparison10union_diffD2Ev
libabigail.so.0:_ZN7abigail10comparison11corpus_diff10diff_stats14num_func_addedEm
libabigail.so.0:_ZN7abigail10comparison11corpus_diff10diff_stats14num_vars_addedEm
libabigail.so.0:_ZN7abigail10comparison11corpus_diff10diff_stats16num_func_changedEm
libabigail.so.0:_ZN7abigail10comparison11corpus_diff10diff_stats16num_func_removedEm
libabigail.so.0:_ZN7abigail10comparison11corpus_diff10diff_stats16num_leaf_changesEm
libabigail.so.0:_ZN7abigail10comparison11corpus_diff10diff_stats16num_vars_changedEm
libabigail.so.0:_ZN7abigail10comparison11corpus_diff10diff_stats16num_vars_removedEm
libabigail.so.0:_ZN7abigail10comparison11corpus_diff10diff_stats18num_var_syms_addedEm
libabigail.so.0:_ZN7abigail10comparison11corpus_diff10diff_stats19num_func_syms_addedEm
libabigail.so.0:_ZN7abigail10comparison11corpus_diff10diff_stats20num_leaf_var_changesEm
libabigail.so.0:_ZN7abigail10comparison11corpus_diff10diff_stats20num_var_syms_removedEm
libabigail.so.0:_ZN7abigail10comparison11corpus_diff10diff_stats21num_func_syms_removedEm
libabigail.so.0:_ZN7abigail10comparison11corpus_diff10diff_stats21num_leaf_func_changesEm
libabigail.so.0:_ZN7abigail10comparison11corpus_diff10diff_stats21num_leaf_type_changesEm
libabigail.so.0:_ZN7abigail10comparison11corpus_diff10diff_stats27num_added_func_filtered_outEm
libabigail.so.0:_ZN7abigail10comparison11corpus_diff10diff_stats27num_added_unreachable_typesEm
libabigail.so.0:_ZN7abigail10comparison11corpus_diff10diff_stats27num_added_vars_filtered_outEm
libabigail.so.0:_ZN7abigail10comparison11corpus_diff10diff_stats29num_changed_func_filtered_outEm
libabigail.so.0:_ZN7abigail10comparison11corpus_diff10diff_stats29num_changed_unreachable_typesEm
libabigail.so.0:_ZN7abigail10comparison11corpus_diff10diff_stats29num_changed_vars_filtered_outEm
libabigail.so.0:_ZN7abigail10comparison11corpus_diff10diff_stats29num_leaf_changes_filtered_outEm
libabigail.so.0:_ZN7abigail10comparison11corpus_diff10diff_stats29num_removed_func_filtered_outEm
libabigail.so.0:_ZN7abigail10comparison11corpus_diff10diff_stats29num_removed_unreachable_typesEm
libabigail.so.0:_ZN7abigail10comparison11corpus_diff10diff_stats31num_added_var_syms_filtered_outEm
libabigail.so.0:_ZN7abigail10comparison11corpus_diff10diff_stats32num_added_func_syms_filtered_outEm
libabigail.so.0:_ZN7abigail10comparison11corpus_diff10diff_stats33num_leaf_var_changes_filtered_outEm
libabigail.so.0:_ZN7abigail10comparison11corpus_diff10diff_stats33num_removed_var_syms_filtered_outEm
libabigail.so.0:_ZN7abigail10comparison11corpus_diff10diff_stats34num_leaf_func_changes_filtered_outEm
libabigail.so.0:_ZN7abigail10comparison11corpus_diff10diff_stats34num_leaf_type_changes_filtered_outEm
libabigail.so.0:_ZN7abigail10comparison11corpus_diff10diff_stats34num_removed_func_syms_filtered_outEm
libabigail.so.0:_ZN7abigail10comparison11corpus_diff10diff_stats36num_func_with_virtual_offset_changesEm
libabigail.so.0:_ZN7abigail10comparison11corpus_diff10diff_stats40num_added_unreachable_types_filtered_outEm
libabigail.so.0:_ZN7abigail10comparison11corpus_diff10diff_stats42num_changed_unreachable_types_filtered_outEm
libabigail.so.0:_ZN7abigail10comparison11corpus_diff10diff_stats42num_removed_unreachable_types_filtered_outEm
libabigail.so.0:_ZN7abigail10comparison11corpus_diff10diff_statsC1ESt10shared_ptrINS0_12diff_contextEE
libabigail.so.0:_ZN7abigail10comparison11corpus_diff10diff_statsC2ESt10shared_ptrINS0_12diff_contextEE
libabigail.so.0:_ZN7abigail10comparison11corpus_diff14get_leaf_diffsEv
libabigail.so.0:_ZN7abigail10comparison11corpus_diff15added_functionsB5cxx11Ev
libabigail.so.0:_ZN7abigail10comparison11corpus_diff16finish_diff_typeEv
libabigail.so.0:_ZN7abigail10comparison11corpus_diff17append_child_nodeESt10shared_ptrINS0_4diffEE
libabigail.so.0:_ZN7abigail10comparison11corpus_diff17changed_functionsB5cxx11Ev
libabigail.so.0:_ZN7abigail10comparison11corpus_diff17changed_variablesB5cxx11Ev
libabigail.so.0:_ZN7abigail10comparison11corpus_diff20chain_into_hierarchyEv
libabigail.so.0:_ZN7abigail10comparison11corpus_diff20mark_leaf_diff_nodesEv
libabigail.so.0:_ZN7abigail10comparison11corpus_diff24changed_functions_sortedEv
libabigail.so.0:_ZN7abigail10comparison11corpus_diff24changed_variables_sortedEv
libabigail.so.0:_ZN7abigail10comparison11corpus_diff47apply_filters_and_suppressions_before_reportingEv
libabigail.so.0:_ZN7abigail10comparison11corpus_diff4priv11get_contextEv
libabigail.so.0:_ZN7abigail10comparison11corpus_diff4priv15emit_diff_statsERKNS1_10diff_statsERSoRKNSt7__cxx1112basic_stringIcSt11char_traitsIcESaIcEEE
libabigail.so.0:_ZN7abigail10comparison11corpus_diff4priv18count_leaf_changesERmS3_
libabigail.so.0:_ZN7abigail10comparison11corpus_diff4priv19clear_lookup_tablesEv
libabigail.so.0:_ZN7abigail10comparison11corpus_diff4priv20maybe_dump_diff_treeEv
libabigail.so.0:_ZN7abigail10comparison11corpus_diff4priv23count_leaf_type_changesERmS3_
libabigail.so.0:_ZN7abigail10comparison11corpus_diff4priv23count_unreachable_typesERmS3_S3_S3_S3_S3_
libabigail.so.0:_ZN7abigail10comparison11corpus_diff4priv30ensure_lookup_tables_populatedEv
libabigail.so.0:_ZN7abigail10comparison11corpus_diff4priv31clear_redundancy_categorizationEv
libabigail.so.0:_ZN7abigail10comparison11corpus_diff4priv36apply_filters_and_compute_diff_statsERNS1_10diff_statsE
libabigail.so.0:_ZN7abigail10comparison11corpus_diff4priv38categorize_redundant_changed_sub_nodesEv
libabigail.so.0:_ZN7abigail10comparison11corpus_diff4priv56apply_supprs_to_added_removed_fns_vars_unreachable_typesEv
libabigail.so.0:_ZN7abigail10comparison11corpus_diff8traverseERNS0_17diff_node_visitorE
libabigail.so.0:_ZN7abigail10comparison11corpus_diffC1ESt10shared_ptrINS_2ir6corpusEES5_S2_INS0_12diff_contextEE
libabigail.so.0:_ZN7abigail10comparison11corpus_diffC2ESt10shared_ptrINS_2ir6corpusEES5_S2_INS0_12diff_contextEE
libabigail.so.0:_ZN7abigail10comparison11corpus_diffD0Ev
libabigail.so.0:_ZN7abigail10comparison11corpus_diffD1Ev
libabigail.so.0:_ZN7abigail10comparison11corpus_diffD2Ev
libabigail.so.0:_ZN7abigail10comparison11is_var_diffEPKNS0_4diffE
libabigail.so.0:_ZN7abigail10comparison12compute_diffERKSt10shared_ptrINS_2ir12corpus_groupEES6_S1_INS0_12diff_contextEE
libabigail.so.0:_ZN7abigail10comparison12compute_diffESt10shared_ptrINS_2ir10class_decl9base_specEES5_S1_INS0_12diff_contextEE
libabigail.so.0:_ZN7abigail10comparison12compute_diffESt10shared_ptrINS_2ir10class_declEES4_S1_INS0_12diff_contextEE
libabigail.so.0:_ZN7abigail10comparison12compute_diffESt10shared_ptrINS_2ir10scope_declEES4_S1_INS0_10scope_diffEES1_INS0_12diff_contextEE
libabigail.so.0:_ZN7abigail10comparison12compute_diffESt10shared_ptrINS_2ir10scope_declEES4_S1_INS0_12diff_contextEE
libabigail.so.0:_ZN7abigail10comparison12compute_diffESt10shared_ptrINS_2ir10union_declEES4_S1_INS0_12diff_contextEE
libabigail.so.0:_ZN7abigail10comparison12compute_diffESt10shared_ptrINS_2ir12typedef_declEES4_S1_INS0_12diff_contextEE
libabigail.so.0:_ZN7abigail10comparison12compute_diffESt10shared_ptrINS_2ir13function_decl9parameterEES5_S1_INS0_12diff_contextEE
libabigail.so.0:_ZN7abigail10comparison12compute_diffESt10shared_ptrINS_2ir13function_declEES4_S1_INS0_12diff_contextEE
libabigail.so.0:_ZN7abigail10comparison12compute_diffESt10shared_ptrINS_2ir13function_typeEES4_S1_INS0_12diff_contextEE
libabigail.so.0:_ZN7abigail10comparison12compute_diffESt10shared_ptrINS_2ir14array_type_defEES4_S1_INS0_12diff_contextEE
libabigail.so.0:_ZN7abigail10comparison12compute_diffESt10shared_ptrINS_2ir14enum_type_declEES4_S1_INS0_12diff_contextEE
libabigail.so.0:_ZN7abigail10comparison12compute_diffESt10shared_ptrINS_2ir16pointer_type_defEES4_S1_INS0_12diff_contextEE
libabigail.so.0:_ZN7abigail10comparison12compute_diffESt10shared_ptrINS_2ir16translation_unitEES4_S1_INS0_12diff_contextEE
libabigail.so.0:_ZN7abigail10comparison12compute_diffESt10shared_ptrINS_2ir18qualified_type_defEES4_S1_INS0_12diff_contextEE
libabigail.so.0:_ZN7abigail10comparison12compute_diffESt10shared_ptrINS_2ir18reference_type_defEES4_S1_INS0_12diff_contextEE
libabigail.so.0:_ZN7abigail10comparison12compute_diffESt10shared_ptrINS_2ir6corpusEES4_S1_INS0_12diff_contextEE
libabigail.so.0:_ZN7abigail10comparison12compute_diffESt10shared_ptrINS_2ir8var_declEES4_S1_INS0_12diff_contextEE
libabigail.so.0:_ZN7abigail10comparison12compute_diffESt10shared_ptrINS_2ir9decl_baseEES4_S1_INS0_12diff_contextEE
libabigail.so.0:_ZN7abigail10comparison12compute_diffESt10shared_ptrINS_2ir9type_baseEES4_S1_INS0_12diff_contextEE
libabigail.so.0:_ZN7abigail10comparison12compute_diffESt10shared_ptrINS_2ir9type_declEES4_S1_INS0_12diff_contextEE
libabigail.so.0:_ZN7abigail10comparison12diff_context12set_reporterERSt10shared_ptrINS0_13reporter_baseEE
libabigail.so.0:_ZN7abigail10comparison12diff_context14dump_diff_treeEb
libabigail.so.0:_ZN7abigail10comparison12diff_context14show_added_fnsEb
libabigail.so.0:_ZN7abigail10comparison12diff_context15add_diff_filterESt10shared_ptrINS0_9filtering11filter_baseEE
libabigail.so.0:_ZN7abigail10comparison12diff_context15add_suppressionESt10shared_ptrINS_5suppr16suppression_baseEE
libabigail.so.0:_ZN7abigail10comparison12diff_context15keep_diff_aliveERSt10shared_ptrINS0_4diffEE
libabigail.so.0:_ZN7abigail10comparison12diff_context15set_corpus_diffERKSt10shared_ptrINS0_11corpus_diffEE
libabigail.so.0:_ZN7abigail10comparison12diff_context15show_added_varsEb
libabigail.so.0:_ZN7abigail10comparison12diff_context15show_hex_valuesEb
libabigail.so.0:_ZN7abigail10comparison12diff_context15show_stats_onlyEb
libabigail.so.0:_ZN7abigail10comparison12diff_context16add_suppressionsERKSt6vectorISt10shared_ptrINS_5suppr16suppression_baseEESaIS6_EE
libabigail.so.0:_ZN7abigail10comparison12diff_context16show_changed_fnsEb
libabigail.so.0:_ZN7abigail10comparison12diff_context16show_deleted_fnsEb
libabigail.so.0:_ZN7abigail10comparison12diff_context17show_changed_varsEb
libabigail.so.0:_ZN7abigail10comparison12diff_context17show_deleted_varsEb
libabigail.so.0:_ZN7abigail10comparison12diff_context18show_linkage_namesEb
libabigail.so.0:_ZN7abigail10comparison12diff_context18show_soname_changeEb
libabigail.so.0:_ZN7abigail10comparison12diff_context19error_output_streamEPSo
libabigail.so.0:_ZN7abigail10comparison12diff_context19maybe_apply_filtersESt10shared_ptrINS0_11corpus_diffEE
libabigail.so.0:_ZN7abigail10comparison12diff_context19maybe_apply_filtersESt10shared_ptrINS0_4diffEE
libabigail.so.0:_ZN7abigail10comparison12diff_context20forget_visited_diffsEv
libabigail.so.0:_ZN7abigail10comparison12diff_context20mark_diff_as_visitedEPKNS0_4diffE
libabigail.so.0:_ZN7abigail10comparison12diff_context20set_allowed_categoryENS0_13diff_categoryE
libabigail.so.0:_ZN7abigail10comparison12diff_context20switch_categories_onENS0_13diff_categoryE
libabigail.so.0:_ZN7abigail10comparison12diff_context21default_output_streamEPSo
libabigail.so.0:_ZN7abigail10comparison12diff_context21default_output_streamEv
libabigail.so.0:_ZN7abigail10comparison12diff_context21switch_categories_offENS0_13diff_categoryE
libabigail.so.0:_ZN7abigail10comparison12diff_context22set_canonical_diff_forESt10shared_ptrINS_2ir17type_or_decl_baseEES5_S2_INS0_4diffEE
libabigail.so.0:_ZN7abigail10comparison12diff_context22show_leaf_changes_onlyEb
libabigail.so.0:_ZN7abigail10comparison12diff_context22show_redundant_changesEb
libabigail.so.0:_ZN7abigail10comparison12diff_context22show_unreachable_typesEb
libabigail.so.0:_ZN7abigail10comparison12diff_context22show_unreachable_typesEv
libabigail.so.0:_ZN7abigail10comparison12diff_context24show_architecture_changeEb
libabigail.so.0:_ZN7abigail10comparison12diff_context24show_impacted_interfacesEb
libabigail.so.0:_ZN7abigail10comparison12diff_context25initialize_canonical_diffESt10shared_ptrINS0_4diffEE
libabigail.so.0:_ZN7abigail10comparison12diff_context26show_offsets_sizes_in_bitsEb
libabigail.so.0:_ZN7abigail10comparison12diff_context28forbid_visiting_a_node_twiceEb
libabigail.so.0:_ZN7abigail10comparison12diff_context28show_relative_offset_changesEb
libabigail.so.0:_ZN7abigail10comparison12diff_context28show_relative_offset_changesEv
libabigail.so.0:_ZN7abigail10comparison12diff_context29set_or_get_canonical_diff_forESt10shared_ptrINS_2ir17type_or_decl_baseEES5_S2_INS0_4diffEE
libabigail.so.0:_ZN7abigail10comparison12diff_context39show_symbols_unreferenced_by_debug_infoEb
libabigail.so.0:_ZN7abigail10comparison12diff_context42forbid_visiting_a_node_twice_per_interfaceEb
libabigail.so.0:_ZN7abigail10comparison12diff_context45show_added_symbols_unreferenced_by_debug_infoEb
libabigail.so.0:_ZN7abigail10comparison12diff_context8add_diffEPKNS0_4diffE
libabigail.so.0:_ZN7abigail10comparison12diff_context8add_diffESt10shared_ptrINS0_4diffEE
libabigail.so.0:_ZN7abigail10comparison12diff_context8add_diffESt10shared_ptrINS_2ir17type_or_decl_baseEES5_S2_INS0_4diffEE
libabigail.so.0:_ZN7abigail10comparison12diff_context9show_locsEb
libabigail.so.0:_ZN7abigail10comparison12diff_contextC1Ev
libabigail.so.0:_ZN7abigail10comparison12diff_contextC2Ev
libabigail.so.0:_ZN7abigail10comparison12diff_contextD1Ev
libabigail.so.0:_ZN7abigail10comparison12diff_contextD2Ev
libabigail.so.0:_ZN7abigail10comparison12fn_parm_diff16finish_diff_typeEv
libabigail.so.0:_ZN7abigail10comparison12fn_parm_diff20chain_into_hierarchyEv
libabigail.so.0:_ZN7abigail10comparison12fn_parm_diffC1ESt10shared_ptrINS_2ir13function_decl9parameterEES6_S2_INS0_12diff_contextEE
libabigail.so.0:_ZN7abigail10comparison12fn_parm_diffC2ESt10shared_ptrINS_2ir13function_decl9parameterEES6_S2_INS0_12diff_contextEE
libabigail.so.0:_ZN7abigail10comparison12is_base_diffEPKNS0_4diffE
libabigail.so.0:_ZN7abigail10comparison12is_decl_diffEPKNS0_4diffE
libabigail.so.0:_ZN7abigail10comparison12is_enum_diffEPKNS0_4diffE
libabigail.so.0:_ZN7abigail10comparison12is_type_diffEPKNS0_4diffE
libabigail.so.0:_ZN7abigail10comparison12pointer_diff16finish_diff_typeEv
libabigail.so.0:_ZN7abigail10comparison12pointer_diff20chain_into_hierarchyEv
libabigail.so.0:_ZN7abigail10comparison12pointer_diff20underlying_type_diffESt10shared_ptrINS0_4diffEE
libabigail.so.0:_ZN7abigail10comparison12pointer_diffC1ESt10shared_ptrINS_2ir16pointer_type_defEES5_S2_INS0_4diffEES2_INS0_12diff_contextEE
libabigail.so.0:_ZN7abigail10comparison12pointer_diffC2ESt10shared_ptrINS_2ir16pointer_type_defEES5_S2_INS0_4diffEES2_INS0_12diff_contextEE
libabigail.so.0:_ZN7abigail10comparison12typedef_diff16finish_diff_typeEv
libabigail.so.0:_ZN7abigail10comparison12typedef_diff20chain_into_hierarchyEv
libabigail.so.0:_ZN7abigail10comparison12typedef_diff20underlying_type_diffESt10shared_ptrINS0_4diffEE
libabigail.so.0:_ZN7abigail10comparison12typedef_diffC1ESt10shared_ptrINS_2ir12typedef_declEES5_S2_INS0_4diffEES2_INS0_12diff_contextEE
libabigail.so.0:_ZN7abigail10comparison12typedef_diffC2ESt10shared_ptrINS_2ir12typedef_declEES5_S2_INS0_4diffEES2_INS0_12diff_contextEE
libabigail.so.0:_ZN7abigail10comparison13apply_filtersESt10shared_ptrINS0_11corpus_diffEE
libabigail.so.0:_ZN7abigail10comparison13distinct_diff16finish_diff_typeEv
libabigail.so.0:_ZN7abigail10comparison13distinct_diff20chain_into_hierarchyEv
libabigail.so.0:_ZN7abigail10comparison13distinct_diff30entities_are_of_distinct_kindsESt10shared_ptrINS_2ir17type_or_decl_baseEES5_
libabigail.so.0:_ZN7abigail10comparison13distinct_diffC1ESt10shared_ptrINS_2ir17type_or_decl_baseEES5_S2_INS0_12diff_contextEE
libabigail.so.0:_ZN7abigail10comparison13distinct_diffC2ESt10shared_ptrINS_2ir17type_or_decl_baseEES5_S2_INS0_12diff_contextEE
libabigail.so.0:_ZN7abigail10comparison13is_array_diffEPKNS0_4diffE
libabigail.so.0:_ZN7abigail10comparison13is_class_diffEPKNS0_4diffE
libabigail.so.0:_ZN7abigail10comparison13is_union_diffEPKNS0_4diffE
libabigail.so.0:_ZN7abigail10comparison14decl_diff_baseC1ESt10shared_ptrINS_2ir9decl_baseEES5_S2_INS0_12diff_contextEE
libabigail.so.0:_ZN7abigail10comparison14decl_diff_baseC2ESt10shared_ptrINS_2ir9decl_baseEES5_S2_INS0_12diff_contextEE
libabigail.so.0:_ZN7abigail10comparison14decl_diff_baseD0Ev
libabigail.so.0:_ZN7abigail10comparison14decl_diff_baseD1Ev
libabigail.so.0:_ZN7abigail10comparison14decl_diff_baseD2Ev
libabigail.so.0:_ZN7abigail10comparison14is_corpus_diffEPKNS0_4diffE
libabigail.so.0:_ZN7abigail10comparison14reference_diff16finish_diff_typeEv
libabigail.so.0:_ZN7abigail10comparison14reference_diff20chain_into_hierarchyEv
libabigail.so.0:_ZN7abigail10comparison14reference_diff20underlying_type_diffESt10shared_ptrINS0_4diffEE
libabigail.so.0:_ZN7abigail10comparison14reference_diffC1ESt10shared_ptrINS_2ir18reference_type_defEES5_S2_INS0_4diffEES2_INS0_12diff_contextEE
libabigail.so.0:_ZN7abigail10comparison14reference_diffC2ESt10shared_ptrINS_2ir18reference_type_defEES5_S2_INS0_4diffEES2_INS0_12diff_contextEE
libabigail.so.0:_ZN7abigail10comparison14type_decl_diff16finish_diff_typeEv
libabigail.so.0:_ZN7abigail10comparison14type_decl_diffC1ESt10shared_ptrINS_2ir9type_declEES5_S2_INS0_12diff_contextEE
libabigail.so.0:_ZN7abigail10comparison14type_decl_diffC2ESt10shared_ptrINS_2ir9type_declEES5_S2_INS0_12diff_contextEE
libabigail.so.0:_ZN7abigail10comparison14type_diff_baseC1ESt10shared_ptrINS_2ir9type_baseEES5_S2_INS0_12diff_contextEE
libabigail.so.0:_ZN7abigail10comparison14type_diff_baseC2ESt10shared_ptrINS_2ir9type_baseEES5_S2_INS0_12diff_contextEE
libabigail.so.0:_ZN7abigail10comparison14type_diff_baseD0Ev
libabigail.so.0:_ZN7abigail10comparison14type_diff_baseD1Ev
libabigail.so.0:_ZN7abigail10comparison14type_diff_baseD2Ev
libabigail.so.0:_ZN7abigail10comparison15is_fn_parm_diffEPKNS0_4diffE
libabigail.so.0:_ZN7abigail10comparison15is_pointer_diffEPKNS0_4diffE
libabigail.so.0:_ZN7abigail10comparison15is_typedef_diffEPKNS0_4diffE
libabigail.so.0:_ZN7abigail10comparison15print_diff_treeEPNS0_11corpus_diffERSo
libabigail.so.0:_ZN7abigail10comparison15print_diff_treeEPNS0_4diffERSo
libabigail.so.0:_ZN7abigail10comparison15print_diff_treeESt10shared_ptrINS0_11corpus_diffEERSo
libabigail.so.0:_ZN7abigail10comparison15print_diff_treeESt10shared_ptrINS0_4diffEERSo
libabigail.so.0:_ZN7abigail10comparison16is_distinct_diffEPKNS0_4diffE
libabigail.so.0:_ZN7abigail10comparison17diff_node_visitor11visit_beginEPNS0_11corpus_diffE
libabigail.so.0:_ZN7abigail10comparison17diff_node_visitor11visit_beginEPNS0_4diffE
libabigail.so.0:_ZN7abigail10comparison17diff_node_visitor16or_visiting_kindENS0_13visiting_kindE
libabigail.so.0:_ZN7abigail10comparison17diff_node_visitor17set_visiting_kindENS0_13visiting_kindE
libabigail.so.0:_ZN7abigail10comparison17diff_node_visitor30set_current_topmost_iface_diffEPNS0_4diffE
libabigail.so.0:_ZN7abigail10comparison17diff_node_visitor5visitEPNS0_10class_diffEb
libabigail.so.0:_ZN7abigail10comparison17diff_node_visitor5visitEPNS0_10scope_diffEb
libabigail.so.0:_ZN7abigail10comparison17diff_node_visitor5visitEPNS0_11corpus_diffEb
libabigail.so.0:_ZN7abigail10comparison17diff_node_visitor5visitEPNS0_12pointer_diffEb
libabigail.so.0:_ZN7abigail10comparison17diff_node_visitor5visitEPNS0_12typedef_diffEb
libabigail.so.0:_ZN7abigail10comparison17diff_node_visitor5visitEPNS0_13distinct_diffEb
libabigail.so.0:_ZN7abigail10comparison17diff_node_visitor5visitEPNS0_14reference_diffEb
libabigail.so.0:_ZN7abigail10comparison17diff_node_visitor5visitEPNS0_14type_decl_diffEb
libabigail.so.0:_ZN7abigail10comparison17diff_node_visitor5visitEPNS0_18function_decl_diffEb
libabigail.so.0:_ZN7abigail10comparison17diff_node_visitor5visitEPNS0_19qualified_type_diffEb
libabigail.so.0:_ZN7abigail10comparison17diff_node_visitor5visitEPNS0_21translation_unit_diffEb
libabigail.so.0:_ZN7abigail10comparison17diff_node_visitor5visitEPNS0_4diffEb
libabigail.so.0:_ZN7abigail10comparison17diff_node_visitor5visitEPNS0_8var_diffEb
libabigail.so.0:_ZN7abigail10comparison17diff_node_visitor5visitEPNS0_9base_diffEb
libabigail.so.0:_ZN7abigail10comparison17diff_node_visitor5visitEPNS0_9enum_diffEb
libabigail.so.0:_ZN7abigail10comparison17diff_node_visitor9visit_endEPNS0_11corpus_diffE
libabigail.so.0:_ZN7abigail10comparison17diff_node_visitor9visit_endEPNS0_4diffE
libabigail.so.0:_ZN7abigail10comparison17diff_node_visitorC1ENS0_13visiting_kindE
libabigail.so.0:_ZN7abigail10comparison17diff_node_visitorC1Ev
libabigail.so.0:_ZN7abigail10comparison17diff_node_visitorC2ENS0_13visiting_kindE
libabigail.so.0:_ZN7abigail10comparison17diff_node_visitorC2Ev
libabigail.so.0:_ZN7abigail10comparison17diff_node_visitorD0Ev
libabigail.so.0:_ZN7abigail10comparison17diff_node_visitorD1Ev
libabigail.so.0:_ZN7abigail10comparison17diff_node_visitorD2Ev
libabigail.so.0:_ZN7abigail10comparison17is_reference_diffEPKNS0_4diffE
libabigail.so.0:_ZN7abigail10comparison17peel_pointer_diffEPKNS0_4diffE
libabigail.so.0:_ZN7abigail10comparison17peel_typedef_diffEPKNS0_4diffE
libabigail.so.0:_ZN7abigail10comparison18apply_suppressionsEPKNS0_11corpus_diffE
libabigail.so.0:_ZN7abigail10comparison18apply_suppressionsEPNS0_4diffE
libabigail.so.0:_ZN7abigail10comparison18apply_suppressionsESt10shared_ptrINS0_11corpus_diffEE
libabigail.so.0:_ZN7abigail10comparison18apply_suppressionsESt10shared_ptrINS0_4diffEE
libabigail.so.0:_ZN7abigail10comparison18function_decl_diff16finish_diff_typeEv
libabigail.so.0:_ZN7abigail10comparison18function_decl_diff20chain_into_hierarchyEv
libabigail.so.0:_ZN7abigail10comparison18function_decl_diff30ensure_lookup_tables_populatedEv
libabigail.so.0:_ZN7abigail10comparison18function_decl_diffC1ESt10shared_ptrINS_2ir13function_declEES5_S2_INS0_12diff_contextEE
libabigail.so.0:_ZN7abigail10comparison18function_decl_diffC2ESt10shared_ptrINS_2ir13function_declEES5_S2_INS0_12diff_contextEE
libabigail.so.0:_ZN7abigail10comparison18function_type_diff16finish_diff_typeEv
libabigail.so.0:_ZN7abigail10comparison18function_type_diff20chain_into_hierarchyEv
libabigail.so.0:_ZN7abigail10comparison18function_type_diff30ensure_lookup_tables_populatedEv
libabigail.so.0:_ZN7abigail10comparison18function_type_diffC1ESt10shared_ptrINS_2ir13function_typeEES5_S2_INS0_12diff_contextEE
libabigail.so.0:_ZN7abigail10comparison18function_type_diffC2ESt10shared_ptrINS_2ir13function_typeEES5_S2_INS0_12diff_contextEE
libabigail.so.0:_ZN7abigail10comparison19class_or_union_diff16finish_diff_typeEv
libabigail.so.0:_ZN7abigail10comparison19class_or_union_diff18allocate_priv_dataEv
libabigail.so.0:_ZN7abigail10comparison19class_or_union_diff18member_fns_changesEv
libabigail.so.0:_ZN7abigail10comparison19class_or_union_diff19clear_lookup_tablesEv
libabigail.so.0:_ZN7abigail10comparison19class_or_union_diff20chain_into_hierarchyEv
libabigail.so.0:_ZN7abigail10comparison19class_or_union_diff20data_members_changesEv
libabigail.so.0:_ZN7abigail10comparison19class_or_union_diff20member_types_changesEv
libabigail.so.0:_ZN7abigail10comparison19class_or_union_diff23member_fn_tmpls_changesEv
libabigail.so.0:_ZN7abigail10comparison19class_or_union_diff26member_class_tmpls_changesEv
libabigail.so.0:_ZN7abigail10comparison19class_or_union_diff4priv25count_filtered_changed_dmEb
libabigail.so.0:_ZN7abigail10comparison19class_or_union_diff4priv30count_filtered_changed_mem_fnsERKSt10shared_ptrINS0_12diff_contextEE
libabigail.so.0:_ZN7abigail10comparison19class_or_union_diff4priv30count_filtered_deleted_mem_fnsERKSt10shared_ptrINS0_12diff_contextEE
libabigail.so.0:_ZN7abigail10comparison19class_or_union_diff4priv31count_filtered_inserted_mem_fnsERKSt10shared_ptrINS0_12diff_contextEE
libabigail.so.0:_ZN7abigail10comparison19class_or_union_diff4priv33count_filtered_subtype_changed_dmEb
libabigail.so.0:_ZN7abigail10comparison19class_or_union_diffC1ESt10shared_ptrINS_2ir14class_or_unionEES5_S2_INS0_12diff_contextEE
libabigail.so.0:_ZN7abigail10comparison19class_or_union_diffC2ESt10shared_ptrINS_2ir14class_or_unionEES5_S2_INS0_12diff_contextEE
libabigail.so.0:_ZN7abigail10comparison19class_or_union_diffD0Ev
libabigail.so.0:_ZN7abigail10comparison19class_or_union_diffD1Ev
libabigail.so.0:_ZN7abigail10comparison19class_or_union_diffD2Ev
libabigail.so.0:_ZN7abigail10comparison19peel_qualified_diffEPKNS0_4diffE
libabigail.so.0:_ZN7abigail10comparison19peel_reference_diffEPKNS0_4diffE
libabigail.so.0:_ZN7abigail10comparison19qualified_type_diff16finish_diff_typeEv
libabigail.so.0:_ZN7abigail10comparison19qualified_type_diff20chain_into_hierarchyEv
libabigail.so.0:_ZN7abigail10comparison19qualified_type_diff20underlying_type_diffESt10shared_ptrINS0_4diffEE
libabigail.so.0:_ZN7abigail10comparison19qualified_type_diffC1ESt10shared_ptrINS_2ir18qualified_type_defEES5_S2_INS0_4diffEES2_INS0_12diff_contextEE
libabigail.so.0:_ZN7abigail10comparison19qualified_type_diffC2ESt10shared_ptrINS_2ir18qualified_type_defEES5_S2_INS0_4diffEES2_INS0_12diff_contextEE
libabigail.so.0:_ZN7abigail10comparison20propagate_categoriesEPNS0_11corpus_diffE
libabigail.so.0:_ZN7abigail10comparison20propagate_categoriesEPNS0_4diffE
libabigail.so.0:_ZN7abigail10comparison20propagate_categoriesESt10shared_ptrINS0_11corpus_diffEE
libabigail.so.0:_ZN7abigail10comparison20propagate_categoriesESt10shared_ptrINS0_4diffEE
libabigail.so.0:_ZN7abigail10comparison21categorize_redundancyEPNS0_11corpus_diffE
libabigail.so.0:_ZN7abigail10comparison21categorize_redundancyEPNS0_4diffE
libabigail.so.0:_ZN7abigail10comparison21categorize_redundancyESt10shared_ptrINS0_11corpus_diffEE
libabigail.so.0:_ZN7abigail10comparison21categorize_redundancyESt10shared_ptrINS0_4diffEE
libabigail.so.0:_ZN7abigail10comparison21diff_traversable_base8traverseERNS0_17diff_node_visitorE
libabigail.so.0:_ZN7abigail10comparison21is_diff_of_basic_typeEPKNS0_4diffE
libabigail.so.0:_ZN7abigail10comparison21is_diff_of_basic_typeEPKNS0_4diffEb
libabigail.so.0:_ZN7abigail10comparison21is_function_decl_diffEPKNS0_4diffE
libabigail.so.0:_ZN7abigail10comparison21is_function_type_diffEPKNS0_4diffE
libabigail.so.0:_ZN7abigail10comparison21translation_unit_diffC1ESt10shared_ptrINS_2ir16translation_unitEES5_S2_INS0_12diff_contextEE
libabigail.so.0:_ZN7abigail10comparison21translation_unit_diffC2ESt10shared_ptrINS_2ir16translation_unitEES5_S2_INS0_12diff_contextEE
libabigail.so.0:_ZN7abigail10comparison22is_class_or_union_diffEPKNS0_4diffE
libabigail.so.0:_ZN7abigail10comparison22is_qualified_type_diffEPKNS0_4diffE
libabigail.so.0:_ZN7abigail10comparison25get_pretty_representationB5cxx11EPNS0_4diffE
libabigail.so.0:_ZN7abigail10comparison26has_basic_type_change_onlyEPKNS0_4diffE
libabigail.so.0:_ZN7abigail10comparison26is_child_node_of_base_diffEPKNS0_4diffE
libabigail.so.0:_ZN7abigail10comparison29is_diff_of_variadic_parameterEPKNS0_4diffE
libabigail.so.0:_ZN7abigail10comparison29is_diff_of_variadic_parameterERKSt10shared_ptrINS0_4diffEE
libabigail.so.0:_ZN7abigail10comparison30is_diff_of_class_or_union_typeEPKNS0_4diffE
libabigail.so.0:_ZN7abigail10comparison31clear_redundancy_categorizationEPNS0_11corpus_diffE
libabigail.so.0:_ZN7abigail10comparison31clear_redundancy_categorizationEPNS0_4diffE
libabigail.so.0:_ZN7abigail10comparison31clear_redundancy_categorizationESt10shared_ptrINS0_11corpus_diffEE
libabigail.so.0:_ZN7abigail10comparison31clear_redundancy_categorizationESt10shared_ptrINS0_4diffEE
libabigail.so.0:_ZN7abigail10comparison31compute_diff_for_distinct_kindsESt10shared_ptrINS_2ir17type_or_decl_baseEES4_S1_INS0_12diff_contextEE
libabigail.so.0:_ZN7abigail10comparison32is_anonymous_class_or_union_diffEPKNS0_4diffE
libabigail.so.0:_ZN7abigail10comparison34is_diff_of_variadic_parameter_typeEPKNS0_4diffE
libabigail.so.0:_ZN7abigail10comparison34is_diff_of_variadic_parameter_typeERKSt10shared_ptrINS0_4diffEE
libabigail.so.0:_ZN7abigail10comparison35is_child_node_of_function_parm_diffEPKNS0_4diffE
libabigail.so.0:_ZN7abigail10comparison35peel_pointer_or_qualified_type_diffEPKNS0_4diffE
libabigail.so.0:_ZN7abigail10comparison35peel_typedef_or_qualified_type_diffEPKNS0_4diffE
libabigail.so.0:_ZN7abigail10comparison37get_default_harmful_categories_bitmapEv
libabigail.so.0:_ZN7abigail10comparison37get_typedef_diff_underlying_type_diffEPKNS0_4diffE
libabigail.so.0:_ZN7abigail10comparison38get_default_harmless_categories_bitmapEv
libabigail.so.0:_ZN7abigail10comparison40is_function_type_diff_with_local_changesEPKNS0_4diffE
libabigail.so.0:_ZN7abigail10comparison4diff12set_categoryENS0_13diff_categoryE
libabigail.so.0:_ZN7abigail10comparison4diff14end_traversingEv
libabigail.so.0:_ZN7abigail10comparison4diff15add_to_categoryENS0_13diff_categoryE
libabigail.so.0:_ZN7abigail10comparison4diff16begin_traversingEv
libabigail.so.0:_ZN7abigail10comparison4diff16finish_diff_typeEv
libabigail.so.0:_ZN7abigail10comparison4diff17append_child_nodeESt10shared_ptrIS1_E
libabigail.so.0:_ZN7abigail10comparison4diff18set_canonical_diffEPS1_
libabigail.so.0:_ZN7abigail10comparison4diff18set_local_categoryENS0_13diff_categoryE
libabigail.so.0:_ZN7abigail10comparison4diff20chain_into_hierarchyEv
libabigail.so.0:_ZN7abigail10comparison4diff20remove_from_categoryENS0_13diff_categoryE
libabigail.so.0:_ZN7abigail10comparison4diff21add_to_local_categoryENS0_13diff_categoryE
libabigail.so.0:_ZN7abigail10comparison4diff26remove_from_local_categoryENS0_13diff_categoryE
libabigail.so.0:_ZN7abigail10comparison4diff37add_to_local_and_inherited_categoriesENS0_13diff_categoryE
libabigail.so.0:_ZN7abigail10comparison4diff7contextESt10shared_ptrINS0_12diff_contextEE
libabigail.so.0:_ZN7abigail10comparison4diff8traverseERNS0_17diff_node_visitorE
libabigail.so.0:_ZN7abigail10comparison4diffC1ESt10shared_ptrINS_2ir17type_or_decl_baseEES5_
libabigail.so.0:_ZN7abigail10comparison4diffC1ESt10shared_ptrINS_2ir17type_or_decl_baseEES5_S2_INS0_12diff_contextEE
libabigail.so.0:_ZN7abigail10comparison4diffC2ESt10shared_ptrINS_2ir17type_or_decl_baseEES5_
libabigail.so.0:_ZN7abigail10comparison4diffC2ESt10shared_ptrINS_2ir17type_or_decl_baseEES5_S2_INS0_12diff_contextEE
libabigail.so.0:_ZN7abigail10comparison8var_diff16finish_diff_typeEv
libabigail.so.0:_ZN7abigail10comparison8var_diff20chain_into_hierarchyEv
libabigail.so.0:_ZN7abigail10comparison8var_diffC1ESt10shared_ptrINS_2ir8var_declEES5_S2_INS0_4diffEES2_INS0_12diff_contextEE
libabigail.so.0:_ZN7abigail10comparison8var_diffC2ESt10shared_ptrINS_2ir8var_declEES5_S2_INS0_4diffEES2_INS0_12diff_contextEE
libabigail.so.0:_ZN7abigail10comparison9base_diff16finish_diff_typeEv
libabigail.so.0:_ZN7abigail10comparison9base_diff20chain_into_hierarchyEv
libabigail.so.0:_ZN7abigail10comparison9base_diff25set_underlying_class_diffESt10shared_ptrINS0_10class_diffEE
libabigail.so.0:_ZN7abigail10comparison9base_diffC1ESt10shared_ptrINS_2ir10class_decl9base_specEES6_S2_INS0_10class_diffEES2_INS0_12diff_contextEE
libabigail.so.0:_ZN7abigail10comparison9base_diffC2ESt10shared_ptrINS_2ir10class_decl9base_specEES6_S2_INS0_10class_diffEES2_INS0_12diff_contextEE
libabigail.so.0:_ZN7abigail10comparison9diff_maps16insert_diff_nodeEPKNS0_4diffERKSt10shared_ptrINS_2ir17type_or_decl_baseEE
libabigail.so.0:_ZN7abigail10comparison9diff_maps17get_enum_diff_mapB5cxx11Ev
libabigail.so.0:_ZN7abigail10comparison9diff_maps18get_array_diff_mapB5cxx11Ev
libabigail.so.0:_ZN7abigail10comparison9diff_maps18get_class_diff_mapB5cxx11Ev
libabigail.so.0:_ZN7abigail10comparison9diff_maps18get_union_diff_mapB5cxx11Ev
libabigail.so.0:_ZN7abigail10comparison9diff_maps20get_fn_parm_diff_mapB5cxx11Ev
libabigail.so.0:_ZN7abigail10comparison9diff_maps20get_typedef_diff_mapB5cxx11Ev
libabigail.so.0:_ZN7abigail10comparison9diff_maps21get_distinct_diff_mapB5cxx11Ev
libabigail.so.0:_ZN7abigail10comparison9diff_maps21get_var_decl_diff_mapB5cxx11Ev
libabigail.so.0:_ZN7abigail10comparison9diff_maps22get_reference_diff_mapB5cxx11Ev
libabigail.so.0:_ZN7abigail10comparison9diff_maps22get_type_decl_diff_mapB5cxx11Ev
libabigail.so.0:_ZN7abigail10comparison9diff_maps26get_function_decl_diff_mapB5cxx11Ev
libabigail.so.0:_ZN7abigail10comparison9diff_maps26get_function_type_diff_mapB5cxx11Ev
libabigail.so.0:_ZN7abigail10comparison9diff_mapsC1Ev
libabigail.so.0:_ZN7abigail10comparison9diff_mapsC2Ev
libabigail.so.0:_ZN7abigail10comparison9diff_mapsD1Ev
libabigail.so.0:_ZN7abigail10comparison9diff_mapsD2Ev
libabigail.so.0:_ZN7abigail10comparison9enum_diff16finish_diff_typeEv
libabigail.so.0:_ZN7abigail10comparison9enum_diff19clear_lookup_tablesEv
libabigail.so.0:_ZN7abigail10comparison9enum_diff20chain_into_hierarchyEv
libabigail.so.0:_ZN7abigail10comparison9enum_diff30ensure_lookup_tables_populatedEv
libabigail.so.0:_ZN7abigail10comparison9enum_diffC1ESt10shared_ptrINS_2ir14enum_type_declEES5_S2_INS0_4diffEES2_INS0_12diff_contextEE
libabigail.so.0:_ZN7abigail10comparison9enum_diffC2ESt10shared_ptrINS_2ir14enum_type_declEES5_S2_INS0_4diffEES2_INS0_12diff_contextEE
libabigail.so.0:_ZN7abigail10comparison9filtering12apply_filterERNS1_11filter_baseESt10shared_ptrINS0_11corpus_diffEE
libabigail.so.0:_ZN7abigail10comparison9filtering12apply_filterERNS1_11filter_baseESt10shared_ptrINS0_4diffEE
libabigail.so.0:_ZN7abigail10comparison9filtering12apply_filterESt10shared_ptrINS1_11filter_baseEES2_INS0_4diffEE
libabigail.so.0:_ZN7abigail10comparison9filtering23harmless_harmful_filter5visitEPNS0_4diffEb
libabigail.so.0:_ZN7abigail10comparison9filtering23harmless_harmful_filter9visit_endEPNS0_4diffE
libabigail.so.0:_ZN7abigail10comparison9filtering23has_harmful_name_changeEPKNS0_4diffE
libabigail.so.0:_ZN7abigail10comparison9filtering23has_harmful_name_changeERKSt10shared_ptrINS_2ir9decl_baseEES7_
libabigail.so.0:_ZN7abigail10comparison9filtering23is_mostly_distinct_diffEPKNS0_4diffE
libabigail.so.0:_ZN7abigail10comparison9filtering24has_decl_only_def_changeEPKNS0_4diffE
libabigail.so.0:_ZN7abigail10comparison9filtering24has_decl_only_def_changeERKSt10shared_ptrINS_2ir9decl_baseEES7_
libabigail.so.0:_ZN7abigail10comparison9filtering24has_harmless_name_changeERKSt10shared_ptrINS_2ir9decl_baseEES7_
libabigail.so.0:_ZN7abigail10comparison9filtering25has_virtual_mem_fn_changeEPKNS0_18function_decl_diffE
libabigail.so.0:_ZN7abigail10comparison9filtering26has_basic_type_name_changeEPKNS0_4diffE
libabigail.so.0:_ZN7abigail10comparison9filtering29has_enum_decl_only_def_changeEPKNS0_4diffE
libabigail.so.0:_ZN7abigail10comparison9filtering29has_enum_decl_only_def_changeERKSt10shared_ptrINS_2ir14enum_type_declEES7_
libabigail.so.0:_ZN7abigail10comparison9filtering30has_class_decl_only_def_changeEPKNS0_4diffE
libabigail.so.0:_ZN7abigail10comparison9filtering30has_class_decl_only_def_changeERKSt10shared_ptrINS_2ir14class_or_unionEES7_
libabigail.so.0:_ZN7abigail10comparison9filtering31union_diff_has_harmless_changesEPKNS0_4diffE
libabigail.so.0:_ZN7abigail10comparison9filtering32has_anonymous_data_member_changeEPKNS0_4diffE
libabigail.so.0:_ZN7abigail10comparison9filtering32has_anonymous_data_member_changeERKSt10shared_ptrINS0_4diffEE
libabigail.so.0:_ZN7abigail10comparison9filtering35has_basic_or_class_type_name_changeEPKNS0_4diffE
libabigail.so.0:_ZN7abigail10comparison9filtering35has_class_or_union_type_name_changeEPKNS0_4diffE
libabigail.so.0:_ZN7abigail10comparison9filtering35has_data_member_replaced_by_anon_dmEPKNS0_4diffE
libabigail.so.0:_ZN7abigail10comparison9filtering35is_decl_only_class_with_size_changeEPKNS0_4diffE
libabigail.so.0:_ZN7abigail10comparison9filtering35is_decl_only_class_with_size_changeERKNS_2ir14class_or_unionES5_
libabigail.so.0:_ZN7abigail10comparison9filtering35is_decl_only_class_with_size_changeERKSt10shared_ptrINS_2ir14class_or_unionEES7_
libabigail.so.0:_ZN7abigail10comparisonaNERNS0_13diff_categoryES1_
libabigail.so.0:_ZN7abigail10comparisonanENS0_13diff_categoryES1_
libabigail.so.0:_ZN7abigail10comparisonanENS0_13visiting_kindES1_
libabigail.so.0:_ZN7abigail10comparisoncoENS0_13diff_categoryE
libabigail.so.0:_ZN7abigail10comparisoncoENS0_13visiting_kindE
libabigail.so.0:_ZN7abigail10comparisoneoENS0_13diff_categoryES1_
libabigail.so.0:_ZN7abigail10comparisonlsERSoNS0_13diff_categoryE
libabigail.so.0:_ZN7abigail10comparisonoRERNS0_13diff_categoryES1_
libabigail.so.0:_ZN7abigail10comparisonorENS0_13diff_categoryES1_
libabigail.so.0:_ZN7abigail10comparisonorENS0_13visiting_kindES1_
libabigail.so.0:_ZN7abigail10diff_utils11compute_lcsEPKcS2_RiRNSt7__cxx1112basic_stringIcSt11char_traitsIcESaIcEEE
libabigail.so.0:_ZN7abigail10diff_utils11compute_sesEPKcS2_RNS0_11edit_scriptE
libabigail.so.0:_ZN7abigail10diff_utils16snake_end_pointsERKNS0_5snakeERNS0_5pointES5_
libabigail.so.0:_ZN7abigail10diff_utils20compute_middle_snakeEPKcS2_RNS0_5snakeERi
libabigail.so.0:_ZN7abigail10diff_utils23point_is_valid_in_graphERNS0_5pointEjj
libabigail.so.0:_ZN7abigail10diff_utils32ends_of_furthest_d_paths_overlapERKNS0_5pointES3_
libabigail.so.0:_ZN7abigail10diff_utils7ses_lenEPKcS2_b
libabigail.so.0:_ZN7abigail10parent_styE
libabigail.so.0:_ZN7abigail10sptr_utils10build_sptrI14_xmlTextReaderEESt10shared_ptrIT_EPS4_
libabigail.so.0:_ZN7abigail10sptr_utils10build_sptrI17re_pattern_bufferEESt10shared_ptrIT_EPS4_
libabigail.so.0:_ZN7abigail10sptr_utils10build_sptrI17re_pattern_bufferEESt10shared_ptrIT_Ev
libabigail.so.0:_ZN7abigail10sptr_utils10build_sptrIhEESt10shared_ptrIT_EPS3_
libabigail.so.0:_ZN7abigail10xml_reader12read_context18get_scope_for_nodeEP8_xmlNodeRNS_2ir16access_specifierE
libabigail.so.0:_ZN7abigail10xml_reader12read_context22build_or_get_type_declERKNSt7__cxx1112basic_stringIcSt11char_traitsIcESaIcEEEb
libabigail.so.0:_ZN7abigail10xml_reader21read_context_get_pathB5cxx11ERKNS0_12read_contextE
libabigail.so.0:_ZN7abigail10xml_reader22read_corpus_from_inputERNS0_12read_contextE
libabigail.so.0:_ZN7abigail10xml_reader27read_corpus_from_native_xmlEPSiPNS_2ir11environmentE
libabigail.so.0:_ZN7abigail10xml_reader28read_corpus_group_from_inputERNS0_12read_contextE
libabigail.so.0:_ZN7abigail10xml_reader29add_read_context_suppressionsERNS0_12read_contextERKSt6vectorISt10shared_ptrINS_5suppr16suppression_baseEESaIS7_EE
libabigail.so.0:_ZN7abigail10xml_reader30create_native_xml_read_contextEPSiPNS_2ir11environmentE
libabigail.so.0:_ZN7abigail10xml_reader30create_native_xml_read_contextERKNSt7__cxx1112basic_stringIcSt11char_traitsIcESaIcEEEPNS_2ir11environmentE
libabigail.so.0:_ZN7abigail10xml_reader31read_translation_unit_from_fileERKNSt7__cxx1112basic_stringIcSt11char_traitsIcESaIcEEEPNS_2ir11environmentE
libabigail.so.0:_ZN7abigail10xml_reader32read_corpus_from_native_xml_fileERKNSt7__cxx1112basic_stringIcSt11char_traitsIcESaIcEEEPNS_2ir11environmentE
libabigail.so.0:_ZN7abigail10xml_reader33read_corpus_group_from_native_xmlEPSiPNS_2ir11environmentE
libabigail.so.0:_ZN7abigail10xml_reader33read_translation_unit_from_bufferERKNSt7__cxx1112basic_stringIcSt11char_traitsIcESaIcEEEPNS_2ir11environmentE
libabigail.so.0:_ZN7abigail10xml_reader34read_translation_unit_from_istreamEPSiPNS_2ir11environmentE
libabigail.so.0:_ZN7abigail10xml_reader38read_corpus_group_from_native_xml_fileERKNSt7__cxx1112basic_stringIcSt11char_traitsIcESaIcEEEPNS_2ir11environmentE
libabigail.so.0:_ZN7abigail10xml_reader51consider_types_not_reachable_from_public_interfacesERNS0_12read_contextEb
libabigail.so.0:_ZN7abigail10xml_writer11set_ostreamERNS0_13write_contextERSo
libabigail.so.0:_ZN7abigail10xml_writer12set_annotateERNS0_13write_contextEb
libabigail.so.0:_ZN7abigail10xml_writer12write_corpusERNS0_13write_contextERKSt10shared_ptrINS_2ir6corpusEEjb
libabigail.so.0:_ZN7abigail10xml_writer13set_show_locsERNS0_13write_contextEb
libabigail.so.0:_ZN7abigail10xml_writer14set_short_locsERNS0_13write_contextEb
libabigail.so.0:_ZN7abigail10xml_writer17set_type_id_styleERNS0_13write_contextENS0_18type_id_style_kindE
libabigail.so.0:_ZN7abigail10xml_writer18set_write_comp_dirERNS0_13write_contextEb
libabigail.so.0:_ZN7abigail10xml_writer18write_corpus_groupERNS0_13write_contextERKSt10shared_ptrINS_2ir12corpus_groupEEj
libabigail.so.0:_ZN7abigail10xml_writer20create_write_contextEPKNS_2ir11environmentERSo
libabigail.so.0:_ZN7abigail10xml_writer20set_write_elf_neededERNS0_13write_contextEb
libabigail.so.0:_ZN7abigail10xml_writer21set_write_corpus_pathERNS0_13write_contextEb
libabigail.so.0:_ZN7abigail10xml_writer22set_write_architectureERNS0_13write_contextEb
libabigail.so.0:_ZN7abigail10xml_writer22write_translation_unitERNS0_13write_contextERKNS_2ir16translation_unitEjb
libabigail.so.0:_ZN7abigail10xml_writer23set_write_default_sizesERNS0_13write_contextEb
libabigail.so.0:_ZN7abigail10xml_writer25set_write_parameter_namesERNS0_13write_contextEb
libabigail.so.0:_ZN7abigail11tools_utils10check_fileERKNSt7__cxx1112basic_stringIcSt11char_traitsIcESaIcEEERSoS8_
libabigail.so.0:_ZN7abigail11tools_utils10dir_existsERKNSt7__cxx1112basic_stringIcSt11char_traitsIcESaIcEEE
libabigail.so.0:_ZN7abigail11tools_utils11emit_prefixERKNSt7__cxx1112basic_stringIcSt11char_traitsIcESaIcEEERSo
libabigail.so.0:_ZN7abigail11tools_utils11file_existsERKNSt7__cxx1112basic_stringIcSt11char_traitsIcESaIcEEE
libabigail.so.0:_ZN7abigail11tools_utils12dir_is_emptyERKNSt7__cxx1112basic_stringIcSt11char_traitsIcESaIcEEE
libabigail.so.0:_ZN7abigail11tools_utils12get_deb_nameERKNSt7__cxx1112basic_stringIcSt11char_traitsIcESaIcEEERS6_
libabigail.so.0:_ZN7abigail11tools_utils12get_rpm_archERKNSt7__cxx1112basic_stringIcSt11char_traitsIcESaIcEEERS6_
libabigail.so.0:_ZN7abigail11tools_utils12get_rpm_nameERKNSt7__cxx1112basic_stringIcSt11char_traitsIcESaIcEEERS6_
libabigail.so.0:_ZN7abigail11tools_utils12split_stringERKNSt7__cxx1112basic_stringIcSt11char_traitsIcESaIcEEES8_RSt6vectorIS6_SaIS6_EE
libabigail.so.0:_ZN7abigail11tools_utils13string_suffixERKNSt7__cxx1112basic_stringIcSt11char_traitsIcESaIcEEES8_RS6_
libabigail.so.0:_ZN7abigail11tools_utils15guess_file_typeERKNSt7__cxx1112basic_stringIcSt11char_traitsIcESaIcEEE
libabigail.so.0:_ZN7abigail11tools_utils15guess_file_typeERSi
libabigail.so.0:_ZN7abigail11tools_utils15is_regular_fileERKNSt7__cxx1112basic_stringIcSt11char_traitsIcESaIcEEE
libabigail.so.0:_ZN7abigail11tools_utils15string_is_asciiERKNSt7__cxx1112basic_stringIcSt11char_traitsIcESaIcEEE
libabigail.so.0:_ZN7abigail11tools_utils16decl_names_equalERKNSt7__cxx1112basic_stringIcSt11char_traitsIcESaIcEEES8_
libabigail.so.0:_ZN7abigail11tools_utils16string_ends_withERKNSt7__cxx1112basic_stringIcSt11char_traitsIcESaIcEEES8_
libabigail.so.0:_ZN7abigail11tools_utils16trim_white_spaceERKNSt7__cxx1112basic_stringIcSt11char_traitsIcESaIcEEE
libabigail.so.0:_ZN7abigail11tools_utils17get_random_numberEv
libabigail.so.0:_ZN7abigail11tools_utils17get_system_libdirEv
libabigail.so.0:_ZN7abigail11tools_utils18make_path_absoluteEPKc
libabigail.so.0:_ZN7abigail11tools_utils18string_begins_withERKNSt7__cxx1112basic_stringIcSt11char_traitsIcESaIcEEES8_
libabigail.so.0:_ZN7abigail11tools_utils19find_file_under_dirERKNSt7__cxx1112basic_stringIcSt11char_traitsIcESaIcEEES8_RS6_
libabigail.so.0:_ZN7abigail11tools_utils19trim_leading_stringERKNSt7__cxx1112basic_stringIcSt11char_traitsIcESaIcEEES8_
libabigail.so.0:_ZN7abigail11tools_utils22file_is_kernel_packageERKNSt7__cxx1112basic_stringIcSt11char_traitsIcESaIcEEENS0_9file_typeE
libabigail.so.0:_ZN7abigail11tools_utils23ensure_dir_path_createdERKNSt7__cxx1112basic_stringIcSt11char_traitsIcESaIcEEE
libabigail.so.0:_ZN7abigail11tools_utils24abidiff_status_has_errorENS0_14abidiff_statusE
libabigail.so.0:_ZN7abigail11tools_utils24get_dsos_provided_by_rpmERKNSt7__cxx1112basic_stringIcSt11char_traitsIcESaIcEEERSt3setIS6_St4lessIS6_ESaIS6_EE
libabigail.so.0:_ZN7abigail11tools_utils25ensure_parent_dir_createdERKNSt7__cxx1112basic_stringIcSt11char_traitsIcESaIcEEE
libabigail.so.0:_ZN7abigail11tools_utils26get_library_version_stringB5cxx11Ev
libabigail.so.0:_ZN7abigail11tools_utils26string_is_ascii_identifierERKNSt7__cxx1112basic_stringIcSt11char_traitsIcESaIcEEE
libabigail.so.0:_ZN7abigail11tools_utils27gen_suppr_spec_from_headersERKNSt7__cxx1112basic_stringIcSt11char_traitsIcESaIcEEE
libabigail.so.0:_ZN7abigail11tools_utils27gen_suppr_spec_from_headersERKNSt7__cxx1112basic_stringIcSt11char_traitsIcESaIcEEERKSt6vectorIS6_SaIS6_EE
libabigail.so.0:_ZN7abigail11tools_utils27gen_suppr_spec_from_headersERKSt6vectorINSt7__cxx1112basic_stringIcSt11char_traitsIcESaIcEEESaIS7_EESB_
libabigail.so.0:_ZN7abigail11tools_utils27get_random_number_as_stringB5cxx11Ev
libabigail.so.0:_ZN7abigail11tools_utils28sorted_strings_common_prefixERSt6vectorINSt7__cxx1112basic_stringIcSt11char_traitsIcESaIcEEESaIS7_EERS7_
libabigail.so.0:_ZN7abigail11tools_utils29abidiff_status_has_abi_changeENS0_14abidiff_statusE
libabigail.so.0:_ZN7abigail11tools_utils30execute_command_and_get_outputERKNSt7__cxx1112basic_stringIcSt11char_traitsIcESaIcEEERSt6vectorIS6_SaIS6_EE
libabigail.so.0:_ZN7abigail11tools_utils30load_default_user_suppressionsERSt6vectorISt10shared_ptrINS_5suppr16suppression_baseEESaIS5_EE
libabigail.so.0:_ZN7abigail11tools_utils30make_path_absolute_to_be_freedEPKc
libabigail.so.0:_ZN7abigail11tools_utils32file_is_kernel_debuginfo_packageERKNSt7__cxx1112basic_stringIcSt11char_traitsIcESaIcEEENS0_9file_typeE
libabigail.so.0:_ZN7abigail11tools_utils32load_default_system_suppressionsERSt6vectorISt10shared_ptrINS_5suppr16suppression_baseEESaIS5_EE
libabigail.so.0:_ZN7abigail11tools_utils33get_binary_paths_from_kernel_distERKNSt7__cxx1112basic_stringIcSt11char_traitsIcESaIcEEERS6_RSt6vectorIS6_SaIS6_EE
libabigail.so.0:_ZN7abigail11tools_utils33get_binary_paths_from_kernel_distERKNSt7__cxx1112basic_stringIcSt11char_traitsIcESaIcEEES8_RS6_RSt6vectorIS6_SaIS6_EE
libabigail.so.0:_ZN7abigail11tools_utils33get_vmlinux_path_from_kernel_distERKNSt7__cxx1112basic_stringIcSt11char_traitsIcESaIcEEERS6_
libabigail.so.0:_ZN7abigail11tools_utils34maybe_get_symlink_target_file_pathERKNSt7__cxx1112basic_stringIcSt11char_traitsIcESaIcEEERS6_
libabigail.so.0:_ZN7abigail11tools_utils37convert_char_stars_to_char_star_starsERKSt6vectorIPcSaIS2_EERS1_IPS2_SaIS7_EE
libabigail.so.0:_ZN7abigail11tools_utils38get_default_user_suppression_file_pathB5cxx11Ev
libabigail.so.0:_ZN7abigail11tools_utils39get_anonymous_enum_internal_name_prefixEv
libabigail.so.0:_ZN7abigail11tools_utils40get_anonymous_union_internal_name_prefixEv
libabigail.so.0:_ZN7abigail11tools_utils40get_default_system_suppression_file_pathB5cxx11Ev
libabigail.so.0:_ZN7abigail11tools_utils41build_corpus_group_from_kernel_dist_underERKNSt7__cxx1112basic_stringIcSt11char_traitsIcESaIcEEES6_S8_RSt6vectorIS6_SaIS6_EESC_RS9_ISt10shared_ptrINS_5suppr16suppression_baseEESaISG_EEbRSD_INS_2ir11environmentEE
libabigail.so.0:_ZN7abigail11tools_utils41gen_suppr_spec_from_kernel_abi_whitelistsERKSt6vectorINSt7__cxx1112basic_stringIcSt11char_traitsIcESaIcEEESaIS7_EE
libabigail.so.0:_ZN7abigail11tools_utils41get_anonymous_struct_internal_name_prefixEv
libabigail.so.0:_ZN7abigail11tools_utils42abidiff_status_has_incompatible_abi_changeENS0_14abidiff_statusE
libabigail.so.0:_ZN7abigail11tools_utils5timer4stopEv
libabigail.so.0:_ZN7abigail11tools_utils5timer5startEv
libabigail.so.0:_ZN7abigail11tools_utils5timerC1ENS1_4kindE
libabigail.so.0:_ZN7abigail11tools_utils5timerC2ENS1_4kindE
libabigail.so.0:_ZN7abigail11tools_utils5timerD1Ev
libabigail.so.0:_ZN7abigail11tools_utils5timerD2Ev
libabigail.so.0:_ZN7abigail11tools_utils6is_dirERKNSt7__cxx1112basic_stringIcSt11char_traitsIcESaIcEEE
libabigail.so.0:_ZN7abigail11tools_utils8dir_nameERKNSt7__cxx1112basic_stringIcSt11char_traitsIcESaIcEEERS6_b
libabigail.so.0:_ZN7abigail11tools_utils9base_nameERKNSt7__cxx1112basic_stringIcSt11char_traitsIcESaIcEEERS6_
libabigail.so.0:_ZN7abigail11tools_utils9check_dirERKNSt7__cxx1112basic_stringIcSt11char_traitsIcESaIcEEERSoS8_
libabigail.so.0:_ZN7abigail11tools_utils9real_pathERKNSt7__cxx1112basic_stringIcSt11char_traitsIcESaIcEEERS6_
libabigail.so.0:_ZN7abigail11tools_utils9temp_file10get_streamEv
libabigail.so.0:_ZN7abigail11tools_utils9temp_file6createEv
libabigail.so.0:_ZN7abigail11tools_utils9temp_fileC1Ev
libabigail.so.0:_ZN7abigail11tools_utils9temp_fileC2Ev
libabigail.so.0:_ZN7abigail11tools_utilsanENS0_14abidiff_statusES1_
libabigail.so.0:_ZN7abigail11tools_utilslsERSoNS0_9file_typeE
libabigail.so.0:_ZN7abigail11tools_utilslsERSoRKNS0_5timerE
libabigail.so.0:_ZN7abigail11tools_utilsoRERNS0_14abidiff_statusES1_
libabigail.so.0:_ZN7abigail11tools_utilsorENS0_14abidiff_statusES1_
libabigail.so.0:_ZN7abigail12base_row_styE
libabigail.so.0:_ZN7abigail12dwarf_reader10set_do_logERNS0_12read_contextEb
libabigail.so.0:_ZN7abigail12dwarf_reader14get_show_statsERNS0_12read_contextE
libabigail.so.0:_ZN7abigail12dwarf_reader14set_show_statsERNS0_12read_contextEb
libabigail.so.0:_ZN7abigail12dwarf_reader18has_alt_debug_infoERKNSt7__cxx1112basic_stringIcSt11char_traitsIcESaIcEEEPPcRbRS6_
libabigail.so.0:_ZN7abigail12dwarf_reader18has_alt_debug_infoERNS0_12read_contextERbRNSt7__cxx1112basic_stringIcSt11char_traitsIcESaIcEEE
libabigail.so.0:_ZN7abigail12dwarf_reader18reset_read_contextERSt10shared_ptrINS0_12read_contextEERKNSt7__cxx1112basic_stringIcSt11char_traitsIcESaIcEEERKSt6vectorIPPcSaISF_EEPNS_2ir11environmentEbb
libabigail.so.0:_ZN7abigail12dwarf_reader19create_read_contextERKNSt7__cxx1112basic_stringIcSt11char_traitsIcESaIcEEERKSt6vectorIPPcSaISB_EEPNS_2ir11environmentEbb
libabigail.so.0:_ZN7abigail12dwarf_reader20get_type_of_elf_fileERKNSt7__cxx1112basic_stringIcSt11char_traitsIcESaIcEEERNS0_8elf_typeE
libabigail.so.0:_ZN7abigail12dwarf_reader20read_corpus_from_elfERKNSt7__cxx1112basic_stringIcSt11char_traitsIcESaIcEEERKSt6vectorIPPcSaISB_EEPNS_2ir11environmentEbRNS0_6statusE
libabigail.so.0:_ZN7abigail12dwarf_reader20read_corpus_from_elfERNS0_12read_contextERNS0_6statusE
libabigail.so.0:_ZN7abigail12dwarf_reader21read_context_get_pathB5cxx11ERKNS0_12read_contextE
libabigail.so.0:_ZN7abigail12dwarf_reader22get_soname_of_elf_fileERKNSt7__cxx1112basic_stringIcSt11char_traitsIcESaIcEEERS6_
libabigail.so.0:_ZN7abigail12dwarf_reader22lookup_symbol_from_elfEPKNS_2ir11environmentERKNSt7__cxx1112basic_stringIcSt11char_traitsIcESaIcEEESC_bRSt6vectorISt10shared_ptrINS1_10elf_symbolEESaISG_EE
libabigail.so.0:_ZN7abigail12dwarf_reader23set_drop_undefined_symsERNS0_12read_contextEb
libabigail.so.0:_ZN7abigail12dwarf_reader24refers_to_alt_debug_infoERKNS0_12read_contextERNSt7__cxx1112basic_stringIcSt11char_traitsIcESaIcEEE
libabigail.so.0:_ZN7abigail12dwarf_reader24set_debug_info_root_pathERNS0_12read_contextEPPc
libabigail.so.0:_ZN7abigail12dwarf_reader27status_to_diagnostic_stringB5cxx11ENS0_6statusE
libabigail.so.0:_ZN7abigail12dwarf_reader29add_read_context_suppressionsERNS0_12read_contextERKSt6vectorISt10shared_ptrINS_5suppr16suppression_baseEESaIS7_EE
libabigail.so.0:_ZN7abigail12dwarf_reader29set_read_context_corpus_groupERNS0_12read_contextERSt10shared_ptrINS_2ir12corpus_groupEE
libabigail.so.0:_ZN7abigail12dwarf_reader37read_and_add_corpus_to_group_from_elfERNS0_12read_contextERNS_2ir12corpus_groupERNS0_6statusE
libabigail.so.0:_ZN7abigail12dwarf_reader38lookup_public_function_symbol_from_elfEPKNS_2ir11environmentERKNSt7__cxx1112basic_stringIcSt11char_traitsIcESaIcEEESC_RSt6vectorISt10shared_ptrINS1_10elf_symbolEESaISG_EE
libabigail.so.0:_ZN7abigail12dwarf_readeraNERNS0_6statusES1_
libabigail.so.0:_ZN7abigail12dwarf_readeranENS0_6statusES1_
libabigail.so.0:_ZN7abigail12dwarf_readeroRERNS0_6statusES1_
libabigail.so.0:_ZN7abigail12dwarf_readerorENS0_6statusES1_
libabigail.so.0:_ZN7abigail13iso_a4_canvasE
libabigail.so.0:_ZN7abigail14member_row_styE
libabigail.so.0:_ZN7abigail14string_replaceERNSt7__cxx1112basic_stringIcSt11char_traitsIcESaIcEEERKS5_S8_
libabigail.so.0:_ZN7abigail15color_to_stringB5cxx11ENS_5colorE
libabigail.so.0:_ZN7abigail15primary_row_styE
libabigail.so.0:_ZN7abigail15units_to_stringB5cxx11ENS_5unitsE
libabigail.so.0:_ZN7abigail18ansi_letter_canvasE
libabigail.so.0:_ZN7abigail20interned_string_pool13create_stringERKNSt7__cxx1112basic_stringIcSt11char_traitsIcESaIcEEE
libabigail.so.0:_ZN7abigail20interned_string_poolC1Ev
libabigail.so.0:_ZN7abigail20interned_string_poolC2Ev
libabigail.so.0:_ZN7abigail20interned_string_poolD1Ev
libabigail.so.0:_ZN7abigail20interned_string_poolD2Ev
libabigail.so.0:_ZN7abigail20source_code_pro_typoE
libabigail.so.0:_ZN7abigail22implementation_row_styE
libabigail.so.0:_ZN7abigail2ir10class_decl18add_base_specifierESt10shared_ptrINS1_9base_specEE
libabigail.so.0:_ZN7abigail2ir10class_decl18insert_member_declESt10shared_ptrINS0_9decl_baseEEN9__gnu_cxx17__normal_iteratorIPS4_St6vectorIS4_SaIS4_EEEE
libabigail.so.0:_ZN7abigail2ir10class_decl20sort_virtual_mem_fnsEv
libabigail.so.0:_ZN7abigail2ir10class_decl21on_canonical_type_setEv
libabigail.so.0:_ZN7abigail2ir10class_decl8traverseERNS0_15ir_node_visitorE
libabigail.so.0:_ZN7abigail2ir10class_decl9base_spec8traverseERNS0_15ir_node_visitorE
libabigail.so.0:_ZN7abigail2ir10class_decl9base_specC1ERKSt10shared_ptrINS0_9type_baseEENS0_16access_specifierElb
libabigail.so.0:_ZN7abigail2ir10class_decl9base_specC1ERKSt10shared_ptrIS1_ENS0_16access_specifierElb
libabigail.so.0:_ZN7abigail2ir10class_decl9base_specC2ERKSt10shared_ptrINS0_9type_baseEENS0_16access_specifierElb
libabigail.so.0:_ZN7abigail2ir10class_decl9base_specC2ERKSt10shared_ptrIS1_ENS0_16access_specifierElb
libabigail.so.0:_ZN7abigail2ir10class_decl9base_specD0Ev
libabigail.so.0:_ZN7abigail2ir10class_decl9base_specD1Ev
libabigail.so.0:_ZN7abigail2ir10class_decl9base_specD2Ev
libabigail.so.0:_ZN7abigail2ir10class_decl9is_structEb
libabigail.so.0:_ZN7abigail2ir10class_declC1EPKNS0_11environmentERKNSt7__cxx1112basic_stringIcSt11char_traitsIcESaIcEEEbb
libabigail.so.0:_ZN7abigail2ir10class_declC1EPKNS0_11environmentERKNSt7__cxx1112basic_stringIcSt11char_traitsIcESaIcEEEmmbRKNS0_8locationENS0_9decl_base10visibilityE
libabigail.so.0:_ZN7abigail2ir10class_declC1EPKNS0_11environmentERKNSt7__cxx1112basic_stringIcSt11char_traitsIcESaIcEEEmmbRKNS0_8locationENS0_9decl_base10visibilityERSt6vectorISt10shared_ptrINS1_9base_specEESaISL_EERSI_ISJ_INS0_9type_baseEESaISQ_EERSI_ISJ_INS0_8var_declEESaISV_EERSI_ISJ_INS0_11method_declEESaIS10_EE
libabigail.so.0:_ZN7abigail2ir10class_declC1EPKNS0_11environmentERKNSt7__cxx1112basic_stringIcSt11char_traitsIcESaIcEEEmmbRKNS0_8locationENS0_9decl_base10visibilityERSt6vectorISt10shared_ptrINS1_9base_specEESaISL_EERSI_ISJ_INS0_9type_baseEESaISQ_EERSI_ISJ_INS0_8var_declEESaISV_EERSI_ISJ_INS0_11method_declEESaIS10_EEb
libabigail.so.0:_ZN7abigail2ir10class_declC1EPKNS0_11environmentERKNSt7__cxx1112basic_stringIcSt11char_traitsIcESaIcEEEmmbRKNS0_8locationENS0_9decl_base10visibilityEb
libabigail.so.0:_ZN7abigail2ir10class_declC2EPKNS0_11environmentERKNSt7__cxx1112basic_stringIcSt11char_traitsIcESaIcEEEbb
libabigail.so.0:_ZN7abigail2ir10class_declC2EPKNS0_11environmentERKNSt7__cxx1112basic_stringIcSt11char_traitsIcESaIcEEEmmbRKNS0_8locationENS0_9decl_base10visibilityE
libabigail.so.0:_ZN7abigail2ir10class_declC2EPKNS0_11environmentERKNSt7__cxx1112basic_stringIcSt11char_traitsIcESaIcEEEmmbRKNS0_8locationENS0_9decl_base10visibilityERSt6vectorISt10shared_ptrINS1_9base_specEESaISL_EERSI_ISJ_INS0_9type_baseEESaISQ_EERSI_ISJ_INS0_8var_declEESaISV_EERSI_ISJ_INS0_11method_declEESaIS10_EE
libabigail.so.0:_ZN7abigail2ir10class_declC2EPKNS0_11environmentERKNSt7__cxx1112basic_stringIcSt11char_traitsIcESaIcEEEmmbRKNS0_8locationENS0_9decl_base10visibilityERSt6vectorISt10shared_ptrINS1_9base_specEESaISL_EERSI_ISJ_INS0_9type_baseEESaISQ_EERSI_ISJ_INS0_8var_declEESaISV_EERSI_ISJ_INS0_11method_declEESaIS10_EEb
libabigail.so.0:_ZN7abigail2ir10class_declC2EPKNS0_11environmentERKNSt7__cxx1112basic_stringIcSt11char_traitsIcESaIcEEEmmbRKNS0_8locationENS0_9decl_base10visibilityEb
libabigail.so.0:_ZN7abigail2ir10class_declD0Ev
libabigail.so.0:_ZN7abigail2ir10class_declD1Ev
libabigail.so.0:_ZN7abigail2ir10class_declD2Ev
libabigail.so.0:_ZN7abigail2ir10elf_symbol10is_definedEb
libabigail.so.0:_ZN7abigail2ir10elf_symbol11set_bindingENS1_7bindingE
libabigail.so.0:_ZN7abigail2ir10elf_symbol11set_versionERKNS1_7versionE
libabigail.so.0:_ZN7abigail2ir10elf_symbol14set_visibilityENS1_10visibilityE
libabigail.so.0:_ZN7abigail2ir10elf_symbol15get_main_symbolEv
libabigail.so.0:_ZN7abigail2ir10elf_symbol17set_is_in_ksymtabEb
libabigail.so.0:_ZN7abigail2ir10elf_symbol17set_is_suppressedEb
libabigail.so.0:_ZN7abigail2ir10elf_symbol18update_main_symbolERKNSt7__cxx1112basic_stringIcSt11char_traitsIcESaIcEEE
libabigail.so.0:_ZN7abigail2ir10elf_symbol19add_common_instanceERKSt10shared_ptrIS1_E
libabigail.so.0:_ZN7abigail2ir10elf_symbol28get_name_and_version_from_idERKNSt7__cxx1112basic_stringIcSt11char_traitsIcESaIcEEERS7_SA_
libabigail.so.0:_ZN7abigail2ir10elf_symbol6createEPKNS0_11environmentEmmRKNSt7__cxx1112basic_stringIcSt11char_traitsIcESaIcEEENS1_4typeENS1_7bindingEbbRKNS1_7versionENS1_10visibilityEbmb
libabigail.so.0:_ZN7abigail2ir10elf_symbol6createEv
libabigail.so.0:_ZN7abigail2ir10elf_symbol7set_crcEm
libabigail.so.0:_ZN7abigail2ir10elf_symbol7version10is_defaultEb
libabigail.so.0:_ZN7abigail2ir10elf_symbol7version3strERKNSt7__cxx1112basic_stringIcSt11char_traitsIcESaIcEEE
libabigail.so.0:_ZN7abigail2ir10elf_symbol7versionC1ERKNSt7__cxx1112basic_stringIcSt11char_traitsIcESaIcEEEb
libabigail.so.0:_ZN7abigail2ir10elf_symbol7versionC1ERKS2_
libabigail.so.0:_ZN7abigail2ir10elf_symbol7versionC1Ev
libabigail.so.0:_ZN7abigail2ir10elf_symbol7versionC2ERKNSt7__cxx1112basic_stringIcSt11char_traitsIcESaIcEEEb
libabigail.so.0:_ZN7abigail2ir10elf_symbol7versionC2ERKS2_
libabigail.so.0:_ZN7abigail2ir10elf_symbol7versionC2Ev
libabigail.so.0:_ZN7abigail2ir10elf_symbol7versionD1Ev
libabigail.so.0:_ZN7abigail2ir10elf_symbol7versionD2Ev
libabigail.so.0:_ZN7abigail2ir10elf_symbol7versionaSERKS2_
libabigail.so.0:_ZN7abigail2ir10elf_symbol8set_nameERKNSt7__cxx1112basic_stringIcSt11char_traitsIcESaIcEEE
libabigail.so.0:_ZN7abigail2ir10elf_symbol8set_sizeEm
libabigail.so.0:_ZN7abigail2ir10elf_symbol8set_typeENS1_4typeE
libabigail.so.0:_ZN7abigail2ir10elf_symbol9add_aliasERKSt10shared_ptrIS1_E
libabigail.so.0:_ZN7abigail2ir10elf_symbol9set_indexEm
libabigail.so.0:_ZN7abigail2ir10elf_symbolC1EPKNS0_11environmentEmmRKNSt7__cxx1112basic_stringIcSt11char_traitsIcESaIcEEENS1_4typeENS1_7bindingEbbRKNS1_7versionENS1_10visibilityEbmb
libabigail.so.0:_ZN7abigail2ir10elf_symbolC1Ev
libabigail.so.0:_ZN7abigail2ir10elf_symbolC2EPKNS0_11environmentEmmRKNSt7__cxx1112basic_stringIcSt11char_traitsIcESaIcEEENS1_4typeENS1_7bindingEbbRKNS1_7versionENS1_10visibilityEbmb
libabigail.so.0:_ZN7abigail2ir10elf_symbolC2Ev
libabigail.so.0:_ZN7abigail2ir10fns_to_strEN9__gnu_cxx17__normal_iteratorIPKPNS0_13function_declESt6vectorIS4_SaIS4_EEEESA_SA_SA_RSo
libabigail.so.0:_ZN7abigail2ir10is_typedefEPKNS0_9type_baseE
libabigail.so.0:_ZN7abigail2ir10is_typedefEPNS0_9type_baseE
libabigail.so.0:_ZN7abigail2ir10is_typedefESt10shared_ptrINS0_17type_or_decl_baseEE
libabigail.so.0:_ZN7abigail2ir10scope_decl15add_member_declERKSt10shared_ptrINS0_9decl_baseEE
libabigail.so.0:_ZN7abigail2ir10scope_decl16get_member_declsEv
libabigail.so.0:_ZN7abigail2ir10scope_decl17get_member_scopesEv
libabigail.so.0:_ZN7abigail2ir10scope_decl18insert_member_declESt10shared_ptrINS0_9decl_baseEEN9__gnu_cxx17__normal_iteratorIPS4_St6vectorIS4_SaIS4_EEEE
libabigail.so.0:_ZN7abigail2ir10scope_decl18remove_member_declESt10shared_ptrINS0_9decl_baseEE
libabigail.so.0:_ZN7abigail2ir10scope_decl19get_canonical_typesEv
libabigail.so.0:_ZN7abigail2ir10scope_decl24find_iterator_for_memberEPKNS0_9decl_baseERN9__gnu_cxx17__normal_iteratorIPSt10shared_ptrIS2_ESt6vectorIS8_SaIS8_EEEE
libabigail.so.0:_ZN7abigail2ir10scope_decl24find_iterator_for_memberESt10shared_ptrINS0_9decl_baseEERN9__gnu_cxx17__normal_iteratorIPS4_St6vectorIS4_SaIS4_EEEE
libabigail.so.0:_ZN7abigail2ir10scope_decl8traverseERNS0_15ir_node_visitorE
libabigail.so.0:_ZN7abigail2ir10scope_declC1EPKNS0_11environmentERKNSt7__cxx1112basic_stringIcSt11char_traitsIcESaIcEEERKNS0_8locationENS0_9decl_base10visibilityE
libabigail.so.0:_ZN7abigail2ir10scope_declC1EPKNS0_11environmentERNS0_8locationE
libabigail.so.0:_ZN7abigail2ir10scope_declC2EPKNS0_11environmentERKNSt7__cxx1112basic_stringIcSt11char_traitsIcESaIcEEERKNS0_8locationENS0_9decl_base10visibilityE
libabigail.so.0:_ZN7abigail2ir10scope_declC2EPKNS0_11environmentERNS0_8locationE
libabigail.so.0:_ZN7abigail2ir10scope_declD0Ev
libabigail.so.0:_ZN7abigail2ir10scope_declD1Ev
libabigail.so.0:_ZN7abigail2ir10scope_declD2Ev
libabigail.so.0:_ZN7abigail2ir10union_decl8traverseERNS0_15ir_node_visitorE
libabigail.so.0:_ZN7abigail2ir10union_declC1EPKNS0_11environmentERKNSt7__cxx1112basic_stringIcSt11char_traitsIcESaIcEEEb
libabigail.so.0:_ZN7abigail2ir10union_declC1EPKNS0_11environmentERKNSt7__cxx1112basic_stringIcSt11char_traitsIcESaIcEEEmRKNS0_8locationENS0_9decl_base10visibilityE
libabigail.so.0:_ZN7abigail2ir10union_declC1EPKNS0_11environmentERKNSt7__cxx1112basic_stringIcSt11char_traitsIcESaIcEEEmRKNS0_8locationENS0_9decl_base10visibilityERSt6vectorISt10shared_ptrINS0_9type_baseEESaISL_EERSI_ISJ_INS0_8var_declEESaISQ_EERSI_ISJ_INS0_11method_declEESaISV_EE
libabigail.so.0:_ZN7abigail2ir10union_declC1EPKNS0_11environmentERKNSt7__cxx1112basic_stringIcSt11char_traitsIcESaIcEEEmRKNS0_8locationENS0_9decl_base10visibilityERSt6vectorISt10shared_ptrINS0_9type_baseEESaISL_EERSI_ISJ_INS0_8var_declEESaISQ_EERSI_ISJ_INS0_11method_declEESaISV_EEb
libabigail.so.0:_ZN7abigail2ir10union_declC1EPKNS0_11environmentERKNSt7__cxx1112basic_stringIcSt11char_traitsIcESaIcEEEmRKNS0_8locationENS0_9decl_base10visibilityEb
libabigail.so.0:_ZN7abigail2ir10union_declC2EPKNS0_11environmentERKNSt7__cxx1112basic_stringIcSt11char_traitsIcESaIcEEEb
libabigail.so.0:_ZN7abigail2ir10union_declC2EPKNS0_11environmentERKNSt7__cxx1112basic_stringIcSt11char_traitsIcESaIcEEEmRKNS0_8locationENS0_9decl_base10visibilityE
libabigail.so.0:_ZN7abigail2ir10union_declC2EPKNS0_11environmentERKNSt7__cxx1112basic_stringIcSt11char_traitsIcESaIcEEEmRKNS0_8locationENS0_9decl_base10visibilityERSt6vectorISt10shared_ptrINS0_9type_baseEESaISL_EERSI_ISJ_INS0_8var_declEESaISQ_EERSI_ISJ_INS0_11method_declEESaISV_EE
libabigail.so.0:_ZN7abigail2ir10union_declC2EPKNS0_11environmentERKNSt7__cxx1112basic_stringIcSt11char_traitsIcESaIcEEEmRKNS0_8locationENS0_9decl_base10visibilityERSt6vectorISt10shared_ptrINS0_9type_baseEESaISL_EERSI_ISJ_INS0_8var_declEESaISQ_EERSI_ISJ_INS0_11method_declEESaISV_EEb
libabigail.so.0:_ZN7abigail2ir10union_declC2EPKNS0_11environmentERKNSt7__cxx1112basic_stringIcSt11char_traitsIcESaIcEEEmRKNS0_8locationENS0_9decl_base10visibilityEb
libabigail.so.0:_ZN7abigail2ir10union_declD0Ev
libabigail.so.0:_ZN7abigail2ir10union_declD1Ev
libabigail.so.0:_ZN7abigail2ir10union_declD2Ev
libabigail.so.0:_ZN7abigail2ir11class_tdecl11set_patternESt10shared_ptrINS0_10class_declEE
libabigail.so.0:_ZN7abigail2ir11class_tdecl8traverseERNS0_15ir_node_visitorE
libabigail.so.0:_ZN7abigail2ir11class_tdeclC1EPKNS0_11environmentERKNS0_8locationENS0_9decl_base10visibilityE
libabigail.so.0:_ZN7abigail2ir11class_tdeclC1ESt10shared_ptrINS0_10class_declEERKNS0_8locationENS0_9decl_base10visibilityE
libabigail.so.0:_ZN7abigail2ir11class_tdeclC2EPKNS0_11environmentERKNS0_8locationENS0_9decl_base10visibilityE
libabigail.so.0:_ZN7abigail2ir11class_tdeclC2ESt10shared_ptrINS0_10class_declEERKNS0_8locationENS0_9decl_base10visibilityE
libabigail.so.0:_ZN7abigail2ir11class_tdeclD0Ev
libabigail.so.0:_ZN7abigail2ir11class_tdeclD1Ev
libabigail.so.0:_ZN7abigail2ir11class_tdeclD2Ev
libabigail.so.0:_ZN7abigail2ir11clone_arrayERKSt10shared_ptrINS0_14array_type_defEE
libabigail.so.0:_ZN7abigail2ir11context_relD0Ev
libabigail.so.0:_ZN7abigail2ir11context_relD1Ev
libabigail.so.0:_ZN7abigail2ir11context_relD2Ev
libabigail.so.0:_ZN7abigail2ir11environment18get_canonical_typeEPKcj
libabigail.so.0:_ZN7abigail2ir11environment19get_canonical_typesEPKc
libabigail.so.0:_ZN7abigail2ir11environment23get_canonical_types_mapB5cxx11Ev
libabigail.so.0:_ZN7abigail2ir11environment24canonicalization_is_doneEb
libabigail.so.0:_ZN7abigail2ir11environment30do_on_the_fly_canonicalizationEb
libabigail.so.0:_ZN7abigail2ir11environmentC1Ev
libabigail.so.0:_ZN7abigail2ir11environmentC2Ev
libabigail.so.0:_ZN7abigail2ir11environmentD0Ev
libabigail.so.0:_ZN7abigail2ir11environmentD1Ev
libabigail.so.0:_ZN7abigail2ir11environmentD2Ev
libabigail.so.0:_ZN7abigail2ir11is_var_declEPKNS0_17type_or_decl_baseE
libabigail.so.0:_ZN7abigail2ir11is_var_declERKSt10shared_ptrINS0_17type_or_decl_baseEE
libabigail.so.0:_ZN7abigail2ir11lookup_typeERKNS0_9type_baseERKNS0_6corpusE
libabigail.so.0:_ZN7abigail2ir11lookup_typeERKNS_15interned_stringERKNS0_6corpusE
libabigail.so.0:_ZN7abigail2ir11lookup_typeERKNSt7__cxx1112basic_stringIcSt11char_traitsIcESaIcEEERKNS0_16translation_unitE
libabigail.so.0:_ZN7abigail2ir11lookup_typeERKSt10shared_ptrINS0_9type_baseEERKNS0_6corpusE
libabigail.so.0:_ZN7abigail2ir11lookup_typeESt10shared_ptrINS0_9type_baseEERKNS0_16translation_unitE
libabigail.so.0:_ZN7abigail2ir11method_decl16set_linkage_nameERKNSt7__cxx1112basic_stringIcSt11char_traitsIcESaIcEEE
libabigail.so.0:_ZN7abigail2ir11method_decl9set_scopeEPNS0_10scope_declE
libabigail.so.0:_ZN7abigail2ir11method_declC1ERKNSt7__cxx1112basic_stringIcSt11char_traitsIcESaIcEEESt10shared_ptrINS0_11method_typeEEbRKNS0_8locationES9_NS0_9decl_base10visibilityENSG_7bindingE
libabigail.so.0:_ZN7abigail2ir11method_declC1ERKNSt7__cxx1112basic_stringIcSt11char_traitsIcESaIcEEESt10shared_ptrINS0_13function_typeEEbRKNS0_8locationES9_NS0_9decl_base10visibilityENSG_7bindingE
libabigail.so.0:_ZN7abigail2ir11method_declC1ERKNSt7__cxx1112basic_stringIcSt11char_traitsIcESaIcEEESt10shared_ptrINS0_9type_baseEEbRKNS0_8locationES9_NS0_9decl_base10visibilityENSG_7bindingE
libabigail.so.0:_ZN7abigail2ir11method_declC2ERKNSt7__cxx1112basic_stringIcSt11char_traitsIcESaIcEEESt10shared_ptrINS0_11method_typeEEbRKNS0_8locationES9_NS0_9decl_base10visibilityENSG_7bindingE
libabigail.so.0:_ZN7abigail2ir11method_declC2ERKNSt7__cxx1112basic_stringIcSt11char_traitsIcESaIcEEESt10shared_ptrINS0_13function_typeEEbRKNS0_8locationES9_NS0_9decl_base10visibilityENSG_7bindingE
libabigail.so.0:_ZN7abigail2ir11method_declC2ERKNSt7__cxx1112basic_stringIcSt11char_traitsIcESaIcEEESt10shared_ptrINS0_9type_baseEEbRKNS0_8locationES9_NS0_9decl_base10visibilityENSG_7bindingE
libabigail.so.0:_ZN7abigail2ir11method_declD0Ev
libabigail.so.0:_ZN7abigail2ir11method_declD1Ev
libabigail.so.0:_ZN7abigail2ir11method_declD2Ev
libabigail.so.0:_ZN7abigail2ir11method_type12set_is_constEb
libabigail.so.0:_ZN7abigail2ir11method_type14set_class_typeERKSt10shared_ptrINS0_14class_or_unionEE
libabigail.so.0:_ZN7abigail2ir11method_typeC1EPKNS0_11environmentEmm
libabigail.so.0:_ZN7abigail2ir11method_typeC1ESt10shared_ptrINS0_14class_or_unionEEbmm
libabigail.so.0:_ZN7abigail2ir11method_typeC1ESt10shared_ptrINS0_9type_baseEES2_INS0_14class_or_unionEERKSt6vectorIS2_INS0_13function_decl9parameterEESaISA_EEbmm
libabigail.so.0:_ZN7abigail2ir11method_typeC1ESt10shared_ptrINS0_9type_baseEES4_RKSt6vectorIS2_INS0_13function_decl9parameterEESaIS8_EEbmm
libabigail.so.0:_ZN7abigail2ir11method_typeC2EPKNS0_11environmentEmm
libabigail.so.0:_ZN7abigail2ir11method_typeC2ESt10shared_ptrINS0_14class_or_unionEEbmm
libabigail.so.0:_ZN7abigail2ir11method_typeC2ESt10shared_ptrINS0_9type_baseEES2_INS0_14class_or_unionEERKSt6vectorIS2_INS0_13function_decl9parameterEESaISA_EEbmm
libabigail.so.0:_ZN7abigail2ir11method_typeC2ESt10shared_ptrINS0_9type_baseEES4_RKSt6vectorIS2_INS0_13function_decl9parameterEESaIS8_EEbmm
libabigail.so.0:_ZN7abigail2ir11method_typeD0Ev
libabigail.so.0:_ZN7abigail2ir11method_typeD1Ev
libabigail.so.0:_ZN7abigail2ir11method_typeD2Ev
libabigail.so.0:_ZN7abigail2ir12canonicalizeESt10shared_ptrINS0_9type_baseEE
libabigail.so.0:_ZN7abigail2ir12corpus_group10add_corpusERKSt10shared_ptrINS0_6corpusEE
libabigail.so.0:_ZN7abigail2ir12corpus_group15get_main_corpusEv
libabigail.so.0:_ZN7abigail2ir12corpus_group39get_public_types_pretty_representationsEv
libabigail.so.0:_ZN7abigail2ir12corpus_group57recording_types_reachable_from_public_interface_supportedEv
libabigail.so.0:_ZN7abigail2ir12corpus_groupC1EPNS0_11environmentERKNSt7__cxx1112basic_stringIcSt11char_traitsIcESaIcEEE
libabigail.so.0:_ZN7abigail2ir12corpus_groupC2EPNS0_11environmentERKNSt7__cxx1112basic_stringIcSt11char_traitsIcESaIcEEE
libabigail.so.0:_ZN7abigail2ir12corpus_groupD0Ev
libabigail.so.0:_ZN7abigail2ir12corpus_groupD1Ev
libabigail.so.0:_ZN7abigail2ir12corpus_groupD2Ev
libabigail.so.0:_ZN7abigail2ir12debug_equalsEPKNS0_17type_or_decl_baseES3_
libabigail.so.0:_ZN7abigail2ir12get_locationERKSt10shared_ptrINS0_9decl_baseEE
libabigail.so.0:_ZN7abigail2ir12get_locationERKSt10shared_ptrINS0_9type_baseEE
libabigail.so.0:_ZN7abigail2ir12global_scopeC1EPNS0_16translation_unitE
libabigail.so.0:_ZN7abigail2ir12global_scopeC2EPNS0_16translation_unitE
libabigail.so.0:_ZN7abigail2ir12global_scopeD0Ev
libabigail.so.0:_ZN7abigail2ir12global_scopeD1Ev
libabigail.so.0:_ZN7abigail2ir12global_scopeD2Ev
libabigail.so.0:_ZN7abigail2ir12is_decl_slowEPKNS0_17type_or_decl_baseE
libabigail.so.0:_ZN7abigail2ir12is_decl_slowERKSt10shared_ptrINS0_17type_or_decl_baseEE
libabigail.so.0:_ZN7abigail2ir12is_enum_typeEPKNS0_17type_or_decl_baseE
libabigail.so.0:_ZN7abigail2ir12is_enum_typeERKSt10shared_ptrINS0_17type_or_decl_baseEE
libabigail.so.0:_ZN7abigail2ir12is_namespaceEPKNS0_9decl_baseE
libabigail.so.0:_ZN7abigail2ir12is_namespaceERKSt10shared_ptrINS0_9decl_baseEE
libabigail.so.0:_ZN7abigail2ir12is_type_declEPKNS0_17type_or_decl_baseE
libabigail.so.0:_ZN7abigail2ir12is_type_declERKSt10shared_ptrINS0_17type_or_decl_baseEE
libabigail.so.0:_ZN7abigail2ir12type_or_voidESt10shared_ptrINS0_9type_baseEEPKNS0_11environmentE
libabigail.so.0:_ZN7abigail2ir12typedef_decl19set_underlying_typeERKSt10shared_ptrINS0_9type_baseEE
libabigail.so.0:_ZN7abigail2ir12typedef_decl8traverseERNS0_15ir_node_visitorE
libabigail.so.0:_ZN7abigail2ir12typedef_declC1ERKNSt7__cxx1112basic_stringIcSt11char_traitsIcESaIcEEEPNS0_11environmentERKNS0_8locationES9_NS0_9decl_base10visibilityE
libabigail.so.0:_ZN7abigail2ir12typedef_declC1ERKNSt7__cxx1112basic_stringIcSt11char_traitsIcESaIcEEESt10shared_ptrINS0_9type_baseEERKNS0_8locationES9_NS0_9decl_base10visibilityE
libabigail.so.0:_ZN7abigail2ir12typedef_declC2ERKNSt7__cxx1112basic_stringIcSt11char_traitsIcESaIcEEEPNS0_11environmentERKNS0_8locationES9_NS0_9decl_base10visibilityE
libabigail.so.0:_ZN7abigail2ir12typedef_declC2ERKNSt7__cxx1112basic_stringIcSt11char_traitsIcESaIcEEESt10shared_ptrINS0_9type_baseEERKNS0_8locationES9_NS0_9decl_base10visibilityE
libabigail.so.0:_ZN7abigail2ir12typedef_declD0Ev
libabigail.so.0:_ZN7abigail2ir12typedef_declD1Ev
libabigail.so.0:_ZN7abigail2ir12typedef_declD2Ev
libabigail.so.0:_ZN7abigail2ir13clone_typedefERKSt10shared_ptrINS0_12typedef_declEE
libabigail.so.0:_ZN7abigail2ir13function_decl10set_symbolERKSt10shared_ptrINS0_10elf_symbolEE
libabigail.so.0:_ZN7abigail2ir13function_decl16append_parameterESt10shared_ptrINS1_9parameterEE
libabigail.so.0:_ZN7abigail2ir13function_decl17append_parametersERSt6vectorISt10shared_ptrINS1_9parameterEESaIS5_EE
libabigail.so.0:_ZN7abigail2ir13function_decl8set_typeERKSt10shared_ptrINS0_13function_typeEE
libabigail.so.0:_ZN7abigail2ir13function_decl8traverseERNS0_15ir_node_visitorE
libabigail.so.0:_ZN7abigail2ir13function_decl9parameter8traverseERNS0_15ir_node_visitorE
libabigail.so.0:_ZN7abigail2ir13function_decl9parameter9set_indexEj
libabigail.so.0:_ZN7abigail2ir13function_decl9parameterC1ESt10shared_ptrINS0_9type_baseEERKNSt7__cxx1112basic_stringIcSt11char_traitsIcESaIcEEERKNS0_8locationEbb
libabigail.so.0:_ZN7abigail2ir13function_decl9parameterC1ESt10shared_ptrINS0_9type_baseEEjRKNSt7__cxx1112basic_stringIcSt11char_traitsIcESaIcEEERKNS0_8locationEb
libabigail.so.0:_ZN7abigail2ir13function_decl9parameterC1ESt10shared_ptrINS0_9type_baseEEjRKNSt7__cxx1112basic_stringIcSt11char_traitsIcESaIcEEERKNS0_8locationEbb
libabigail.so.0:_ZN7abigail2ir13function_decl9parameterC1ESt10shared_ptrINS0_9type_baseEEjb
libabigail.so.0:_ZN7abigail2ir13function_decl9parameterC2ESt10shared_ptrINS0_9type_baseEERKNSt7__cxx1112basic_stringIcSt11char_traitsIcESaIcEEERKNS0_8locationEbb
libabigail.so.0:_ZN7abigail2ir13function_decl9parameterC2ESt10shared_ptrINS0_9type_baseEEjRKNSt7__cxx1112basic_stringIcSt11char_traitsIcESaIcEEERKNS0_8locationEb
libabigail.so.0:_ZN7abigail2ir13function_decl9parameterC2ESt10shared_ptrINS0_9type_baseEEjRKNSt7__cxx1112basic_stringIcSt11char_traitsIcESaIcEEERKNS0_8locationEbb
libabigail.so.0:_ZN7abigail2ir13function_decl9parameterC2ESt10shared_ptrINS0_9type_baseEEjb
libabigail.so.0:_ZN7abigail2ir13function_decl9parameterD0Ev
libabigail.so.0:_ZN7abigail2ir13function_decl9parameterD1Ev
libabigail.so.0:_ZN7abigail2ir13function_decl9parameterD2Ev
libabigail.so.0:_ZN7abigail2ir13function_declC1ERKNSt7__cxx1112basic_stringIcSt11char_traitsIcESaIcEEESt10shared_ptrINS0_13function_typeEEbRKNS0_8locationES9_NS0_9decl_base10visibilityENSG_7bindingE
libabigail.so.0:_ZN7abigail2ir13function_declC1ERKNSt7__cxx1112basic_stringIcSt11char_traitsIcESaIcEEESt10shared_ptrINS0_9type_baseEEbRKNS0_8locationES9_NS0_9decl_base10visibilityENSG_7bindingE
libabigail.so.0:_ZN7abigail2ir13function_declC2ERKNSt7__cxx1112basic_stringIcSt11char_traitsIcESaIcEEESt10shared_ptrINS0_13function_typeEEbRKNS0_8locationES9_NS0_9decl_base10visibilityENSG_7bindingE
libabigail.so.0:_ZN7abigail2ir13function_declC2ERKNSt7__cxx1112basic_stringIcSt11char_traitsIcESaIcEEESt10shared_ptrINS0_9type_baseEEbRKNS0_8locationES9_NS0_9decl_base10visibilityENSG_7bindingE
libabigail.so.0:_ZN7abigail2ir13function_declD0Ev
libabigail.so.0:_ZN7abigail2ir13function_declD1Ev
libabigail.so.0:_ZN7abigail2ir13function_declD2Ev
libabigail.so.0:_ZN7abigail2ir13function_type14set_parametersERKSt6vectorISt10shared_ptrINS0_13function_decl9parameterEESaIS6_EE
libabigail.so.0:_ZN7abigail2ir13function_type15set_return_typeESt10shared_ptrINS0_9type_baseEE
libabigail.so.0:_ZN7abigail2ir13function_type16append_parameterESt10shared_ptrINS0_13function_decl9parameterEE
libabigail.so.0:_ZN7abigail2ir13function_type21on_canonical_type_setEv
libabigail.so.0:_ZN7abigail2ir13function_type8traverseERNS0_15ir_node_visitorE
libabigail.so.0:_ZN7abigail2ir13function_typeC1EPKNS0_11environmentEmm
libabigail.so.0:_ZN7abigail2ir13function_typeC1ESt10shared_ptrINS0_9type_baseEERKSt6vectorIS2_INS0_13function_decl9parameterEESaIS8_EEmm
libabigail.so.0:_ZN7abigail2ir13function_typeC1ESt10shared_ptrINS0_9type_baseEEmm
libabigail.so.0:_ZN7abigail2ir13function_typeC2EPKNS0_11environmentEmm
libabigail.so.0:_ZN7abigail2ir13function_typeC2ESt10shared_ptrINS0_9type_baseEERKSt6vectorIS2_INS0_13function_decl9parameterEESaIS8_EEmm
libabigail.so.0:_ZN7abigail2ir13function_typeC2ESt10shared_ptrINS0_9type_baseEEmm
libabigail.so.0:_ZN7abigail2ir13function_typeD0Ev
libabigail.so.0:_ZN7abigail2ir13function_typeD1Ev
libabigail.so.0:_ZN7abigail2ir13function_typeD2Ev
libabigail.so.0:_ZN7abigail2ir13get_type_nameEPKNS0_9type_baseEbb
libabigail.so.0:_ZN7abigail2ir13get_type_nameERKNS0_9type_baseEbb
libabigail.so.0:_ZN7abigail2ir13get_type_nameERKSt10shared_ptrINS0_9type_baseEEbb
libabigail.so.0:_ZN7abigail2ir13is_array_typeEPKNS0_17type_or_decl_baseE
libabigail.so.0:_ZN7abigail2ir13is_array_typeERKSt10shared_ptrINS0_17type_or_decl_baseEE
libabigail.so.0:_ZN7abigail2ir13is_c_languageENS0_16translation_unit8languageE
libabigail.so.0:_ZN7abigail2ir13is_class_typeEPKNS0_17type_or_decl_baseE
libabigail.so.0:_ZN7abigail2ir13is_class_typeERKNS0_17type_or_decl_baseE
libabigail.so.0:_ZN7abigail2ir13is_class_typeERKSt10shared_ptrINS0_17type_or_decl_baseEE
libabigail.so.0:_ZN7abigail2ir13is_scope_declEPNS0_9decl_baseE
libabigail.so.0:_ZN7abigail2ir13is_scope_declERKSt10shared_ptrINS0_9decl_baseEE
libabigail.so.0:_ZN7abigail2ir13is_union_typeEPKNS0_17type_or_decl_baseE
libabigail.so.0:_ZN7abigail2ir13is_union_typeERKNS0_17type_or_decl_baseE
libabigail.so.0:_ZN7abigail2ir13is_union_typeERKSt10shared_ptrINS0_17type_or_decl_baseEE
libabigail.so.0:_ZN7abigail2ir13strip_typedefESt10shared_ptrINS0_9type_baseEE
libabigail.so.0:_ZN7abigail2ir13template_decl22add_template_parameterESt10shared_ptrINS0_18template_parameterEE
libabigail.so.0:_ZN7abigail2ir13template_declC1EPKNS0_11environmentERKNSt7__cxx1112basic_stringIcSt11char_traitsIcESaIcEEERKNS0_8locationENS0_9decl_base10visibilityE
libabigail.so.0:_ZN7abigail2ir13template_declC2EPKNS0_11environmentERKNSt7__cxx1112basic_stringIcSt11char_traitsIcESaIcEEERKNS0_8locationENS0_9decl_base10visibilityE
libabigail.so.0:_ZN7abigail2ir13template_declD0Ev
libabigail.so.0:_ZN7abigail2ir13template_declD1Ev
libabigail.so.0:_ZN7abigail2ir13template_declD2Ev
libabigail.so.0:_ZN7abigail2ir14array_type_def11update_sizeEv
libabigail.so.0:_ZN7abigail2ir14array_type_def13subrange_type11bound_value10set_signedEl
libabigail.so.0:_ZN7abigail2ir14array_type_def13subrange_type11bound_value12set_unsignedEm
libabigail.so.0:_ZN7abigail2ir14array_type_def13subrange_type11bound_value14set_signednessENS3_10signednessE
libabigail.so.0:_ZN7abigail2ir14array_type_def13subrange_type11bound_value18get_unsigned_valueEv
libabigail.so.0:_ZN7abigail2ir14array_type_def13subrange_type11bound_valueC1El
libabigail.so.0:_ZN7abigail2ir14array_type_def13subrange_type11bound_valueC1Em
libabigail.so.0:_ZN7abigail2ir14array_type_def13subrange_type11bound_valueC1Ev
libabigail.so.0:_ZN7abigail2ir14array_type_def13subrange_type11bound_valueC2El
libabigail.so.0:_ZN7abigail2ir14array_type_def13subrange_type11bound_valueC2Em
libabigail.so.0:_ZN7abigail2ir14array_type_def13subrange_type11bound_valueC2Ev
libabigail.so.0:_ZN7abigail2ir14array_type_def13subrange_type11is_infiniteEb
libabigail.so.0:_ZN7abigail2ir14array_type_def13subrange_type15set_lower_boundEl
libabigail.so.0:_ZN7abigail2ir14array_type_def13subrange_type15set_upper_boundEl
libabigail.so.0:_ZN7abigail2ir14array_type_def13subrange_type16vector_as_stringB5cxx11ERKSt6vectorISt10shared_ptrIS2_ESaIS5_EE
libabigail.so.0:_ZN7abigail2ir14array_type_def13subrange_type19set_underlying_typeERKSt10shared_ptrINS0_9type_baseEE
libabigail.so.0:_ZN7abigail2ir14array_type_def13subrange_type8traverseERNS0_15ir_node_visitorE
libabigail.so.0:_ZN7abigail2ir14array_type_def13subrange_typeC1EPKNS0_11environmentERKNSt7__cxx1112basic_stringIcSt11char_traitsIcESaIcEEENS2_11bound_valueERKNS0_8locationENS0_16translation_unit8languageE
libabigail.so.0:_ZN7abigail2ir14array_type_def13subrange_typeC1EPKNS0_11environmentERKNSt7__cxx1112basic_stringIcSt11char_traitsIcESaIcEEENS2_11bound_valueESE_RKNS0_8locationENS0_16translation_unit8languageE
libabigail.so.0:_ZN7abigail2ir14array_type_def13subrange_typeC1EPKNS0_11environmentERKNSt7__cxx1112basic_stringIcSt11char_traitsIcESaIcEEENS2_11bound_valueESE_RKSt10shared_ptrINS0_9type_baseEERKNS0_8locationENS0_16translation_unit8languageE
libabigail.so.0:_ZN7abigail2ir14array_type_def13subrange_typeC2EPKNS0_11environmentERKNSt7__cxx1112basic_stringIcSt11char_traitsIcESaIcEEENS2_11bound_valueERKNS0_8locationENS0_16translation_unit8languageE
libabigail.so.0:_ZN7abigail2ir14array_type_def13subrange_typeC2EPKNS0_11environmentERKNSt7__cxx1112basic_stringIcSt11char_traitsIcESaIcEEENS2_11bound_valueESE_RKNS0_8locationENS0_16translation_unit8languageE
libabigail.so.0:_ZN7abigail2ir14array_type_def13subrange_typeC2EPKNS0_11environmentERKNSt7__cxx1112basic_stringIcSt11char_traitsIcESaIcEEENS2_11bound_valueESE_RKSt10shared_ptrINS0_9type_baseEERKNS0_8locationENS0_16translation_unit8languageE
libabigail.so.0:_ZN7abigail2ir14array_type_def13subrange_typeD0Ev
libabigail.so.0:_ZN7abigail2ir14array_type_def13subrange_typeD1Ev
libabigail.so.0:_ZN7abigail2ir14array_type_def13subrange_typeD2Ev
libabigail.so.0:_ZN7abigail2ir14array_type_def16append_subrangesERKSt6vectorISt10shared_ptrINS1_13subrange_typeEESaIS5_EE
libabigail.so.0:_ZN7abigail2ir14array_type_def16set_element_typeERKSt10shared_ptrINS0_9type_baseEE
libabigail.so.0:_ZN7abigail2ir14array_type_def8traverseERNS0_15ir_node_visitorE
libabigail.so.0:_ZN7abigail2ir14array_type_defC1EPNS0_11environmentERKSt6vectorISt10shared_ptrINS1_13subrange_typeEESaIS7_EERKNS0_8locationE
libabigail.so.0:_ZN7abigail2ir14array_type_defC1ESt10shared_ptrINS0_9type_baseEERKSt6vectorIS2_INS1_13subrange_typeEESaIS7_EERKNS0_8locationE
libabigail.so.0:_ZN7abigail2ir14array_type_defC2EPNS0_11environmentERKSt6vectorISt10shared_ptrINS1_13subrange_typeEESaIS7_EERKNS0_8locationE
libabigail.so.0:_ZN7abigail2ir14array_type_defC2ESt10shared_ptrINS0_9type_baseEERKSt6vectorIS2_INS1_13subrange_typeEESaIS7_EERKNS0_8locationE
libabigail.so.0:_ZN7abigail2ir14array_type_defD0Ev
libabigail.so.0:_ZN7abigail2ir14array_type_defD1Ev
libabigail.so.0:_ZN7abigail2ir14array_type_defD2Ev
libabigail.so.0:_ZN7abigail2ir14class_or_union15add_data_memberESt10shared_ptrINS0_8var_declEENS0_16access_specifierEbbm
libabigail.so.0:_ZN7abigail2ir14class_or_union15add_member_declERKSt10shared_ptrINS0_9decl_baseEE
libabigail.so.0:_ZN7abigail2ir14class_or_union15add_member_typeESt10shared_ptrINS0_9type_baseEE
libabigail.so.0:_ZN7abigail2ir14class_or_union15add_member_typeESt10shared_ptrINS0_9type_baseEENS0_16access_specifierE
libabigail.so.0:_ZN7abigail2ir14class_or_union16set_size_in_bitsEm
libabigail.so.0:_ZN7abigail2ir14class_or_union18insert_member_declESt10shared_ptrINS0_9decl_baseEEN9__gnu_cxx17__normal_iteratorIPS4_St6vectorIS4_SaIS4_EEEE
libabigail.so.0:_ZN7abigail2ir14class_or_union18insert_member_typeESt10shared_ptrINS0_9type_baseEEN9__gnu_cxx17__normal_iteratorIPS2_INS0_9decl_baseEESt6vectorIS8_SaIS8_EEEE
libabigail.so.0:_ZN7abigail2ir14class_or_union18remove_member_declESt10shared_ptrINS0_9decl_baseEE
libabigail.so.0:_ZN7abigail2ir14class_or_union18remove_member_typeESt10shared_ptrINS0_9type_baseEE
libabigail.so.0:_ZN7abigail2ir14class_or_union19add_member_functionESt10shared_ptrINS0_11method_declEENS0_16access_specifierEbbbb
libabigail.so.0:_ZN7abigail2ir14class_or_union19add_member_functionESt10shared_ptrINS0_11method_declEENS0_16access_specifierEbmbbbb
libabigail.so.0:_ZN7abigail2ir14class_or_union20find_member_functionERKNSt7__cxx1112basic_stringIcSt11char_traitsIcESaIcEEE
libabigail.so.0:_ZN7abigail2ir14class_or_union21set_alignment_in_bitsEm
libabigail.so.0:_ZN7abigail2ir14class_or_union25add_member_class_templateESt10shared_ptrINS0_21member_class_templateEE
libabigail.so.0:_ZN7abigail2ir14class_or_union25find_member_function_sptrERKNSt7__cxx1112basic_stringIcSt11char_traitsIcESaIcEEE
libabigail.so.0:_ZN7abigail2ir14class_or_union28add_member_function_templateESt10shared_ptrINS0_24member_function_templateEE
libabigail.so.0:_ZN7abigail2ir14class_or_union35find_member_function_from_signatureERKNSt7__cxx1112basic_stringIcSt11char_traitsIcESaIcEEE
libabigail.so.0:_ZN7abigail2ir14class_or_union39maybe_fixup_members_of_anon_data_memberERSt10shared_ptrINS0_8var_declEE
libabigail.so.0:_ZN7abigail2ir14class_or_union8traverseERNS0_15ir_node_visitorE
libabigail.so.0:_ZN7abigail2ir14class_or_unionC1EPKNS0_11environmentERKNSt7__cxx1112basic_stringIcSt11char_traitsIcESaIcEEEb
libabigail.so.0:_ZN7abigail2ir14class_or_unionC1EPKNS0_11environmentERKNSt7__cxx1112basic_stringIcSt11char_traitsIcESaIcEEEmmRKNS0_8locationENS0_9decl_base10visibilityE
libabigail.so.0:_ZN7abigail2ir14class_or_unionC1EPKNS0_11environmentERKNSt7__cxx1112basic_stringIcSt11char_traitsIcESaIcEEEmmRKNS0_8locationENS0_9decl_base10visibilityERSt6vectorISt10shared_ptrINS0_9type_baseEESaISL_EERSI_ISJ_INS0_8var_declEESaISQ_EERSI_ISJ_INS0_11method_declEESaISV_EE
libabigail.so.0:_ZN7abigail2ir14class_or_unionC2EPKNS0_11environmentERKNSt7__cxx1112basic_stringIcSt11char_traitsIcESaIcEEEb
libabigail.so.0:_ZN7abigail2ir14class_or_unionC2EPKNS0_11environmentERKNSt7__cxx1112basic_stringIcSt11char_traitsIcESaIcEEEmmRKNS0_8locationENS0_9decl_base10visibilityE
libabigail.so.0:_ZN7abigail2ir14class_or_unionC2EPKNS0_11environmentERKNSt7__cxx1112basic_stringIcSt11char_traitsIcESaIcEEEmmRKNS0_8locationENS0_9decl_base10visibilityERSt6vectorISt10shared_ptrINS0_9type_baseEESaISL_EERSI_ISJ_INS0_8var_declEESaISQ_EERSI_ISJ_INS0_11method_declEESaISV_EE
libabigail.so.0:_ZN7abigail2ir14class_or_unionD0Ev
libabigail.so.0:_ZN7abigail2ir14class_or_unionD1Ev
libabigail.so.0:_ZN7abigail2ir14class_or_unionD2Ev
libabigail.so.0:_ZN7abigail2ir14dm_context_rel15set_is_laid_outEb
libabigail.so.0:_ZN7abigail2ir14dm_context_rel18set_offset_in_bitsEm
libabigail.so.0:_ZN7abigail2ir14dm_context_rel25set_anonymous_data_memberEPNS0_8var_declE
libabigail.so.0:_ZN7abigail2ir14dm_context_relC1EPNS0_10scope_declE
libabigail.so.0:_ZN7abigail2ir14dm_context_relC1EPNS0_10scope_declEbmNS0_16access_specifierEb
libabigail.so.0:_ZN7abigail2ir14dm_context_relC1Ev
libabigail.so.0:_ZN7abigail2ir14dm_context_relC2EPNS0_10scope_declE
libabigail.so.0:_ZN7abigail2ir14dm_context_relC2EPNS0_10scope_declEbmNS0_16access_specifierEb
libabigail.so.0:_ZN7abigail2ir14dm_context_relC2Ev
libabigail.so.0:_ZN7abigail2ir14dm_context_relD0Ev
libabigail.so.0:_ZN7abigail2ir14dm_context_relD1Ev
libabigail.so.0:_ZN7abigail2ir14dm_context_relD2Ev
libabigail.so.0:_ZN7abigail2ir14enum_type_decl10enumerator13set_enum_typeEPS1_
libabigail.so.0:_ZN7abigail2ir14enum_type_decl10enumerator8set_nameERKNSt7__cxx1112basic_stringIcSt11char_traitsIcESaIcEEE
libabigail.so.0:_ZN7abigail2ir14enum_type_decl10enumerator9set_valueEl
libabigail.so.0:_ZN7abigail2ir14enum_type_decl10enumeratorC1EPKNS0_11environmentERKNSt7__cxx1112basic_stringIcSt11char_traitsIcESaIcEEEl
libabigail.so.0:_ZN7abigail2ir14enum_type_decl10enumeratorC1ERKS2_
libabigail.so.0:_ZN7abigail2ir14enum_type_decl10enumeratorC1Ev
libabigail.so.0:_ZN7abigail2ir14enum_type_decl10enumeratorC2EPKNS0_11environmentERKNSt7__cxx1112basic_stringIcSt11char_traitsIcESaIcEEEl
libabigail.so.0:_ZN7abigail2ir14enum_type_decl10enumeratorC2ERKS2_
libabigail.so.0:_ZN7abigail2ir14enum_type_decl10enumeratorC2Ev
libabigail.so.0:_ZN7abigail2ir14enum_type_decl10enumeratorD1Ev
libabigail.so.0:_ZN7abigail2ir14enum_type_decl10enumeratorD2Ev
libabigail.so.0:_ZN7abigail2ir14enum_type_decl10enumeratoraSERKS2_
libabigail.so.0:_ZN7abigail2ir14enum_type_decl15get_enumeratorsEv
libabigail.so.0:_ZN7abigail2ir14enum_type_decl8traverseERNS0_15ir_node_visitorE
libabigail.so.0:_ZN7abigail2ir14enum_type_declC1ERKNSt7__cxx1112basic_stringIcSt11char_traitsIcESaIcEEERKNS0_8locationESt10shared_ptrINS0_9type_baseEERSt6vectorINS1_10enumeratorESaISH_EES9_NS0_9decl_base10visibilityE
libabigail.so.0:_ZN7abigail2ir14enum_type_declC2ERKNSt7__cxx1112basic_stringIcSt11char_traitsIcESaIcEEERKNS0_8locationESt10shared_ptrINS0_9type_baseEERSt6vectorINS1_10enumeratorESaISH_EES9_NS0_9decl_base10visibilityE
libabigail.so.0:_ZN7abigail2ir14enum_type_declD0Ev
libabigail.so.0:_ZN7abigail2ir14enum_type_declD1Ev
libabigail.so.0:_ZN7abigail2ir14enum_type_declD2Ev
libabigail.so.0:_ZN7abigail2ir14function_tdecl11set_patternESt10shared_ptrINS0_13function_declEE
libabigail.so.0:_ZN7abigail2ir14function_tdecl8traverseERNS0_15ir_node_visitorE
libabigail.so.0:_ZN7abigail2ir14function_tdeclC1EPKNS0_11environmentERKNS0_8locationENS0_9decl_base10visibilityENS8_7bindingE
libabigail.so.0:_ZN7abigail2ir14function_tdeclC1ESt10shared_ptrINS0_13function_declEERKNS0_8locationENS0_9decl_base10visibilityENS8_7bindingE
libabigail.so.0:_ZN7abigail2ir14function_tdeclC2EPKNS0_11environmentERKNS0_8locationENS0_9decl_base10visibilityENS8_7bindingE
libabigail.so.0:_ZN7abigail2ir14function_tdeclC2ESt10shared_ptrINS0_13function_declEERKNS0_8locationENS0_9decl_base10visibilityENS8_7bindingE
libabigail.so.0:_ZN7abigail2ir14function_tdeclD0Ev
libabigail.so.0:_ZN7abigail2ir14function_tdeclD1Ev
libabigail.so.0:_ZN7abigail2ir14function_tdeclD2Ev
libabigail.so.0:_ZN7abigail2ir14get_type_scopeEPNS0_9type_baseE
libabigail.so.0:_ZN7abigail2ir14get_type_scopeERKSt10shared_ptrINS0_9type_baseEE
libabigail.so.0:_ZN7abigail2ir14is_data_memberEPKNS0_17type_or_decl_baseE
libabigail.so.0:_ZN7abigail2ir14is_data_memberEPKNS0_8var_declE
libabigail.so.0:_ZN7abigail2ir14is_data_memberEPKNS0_9decl_baseE
libabigail.so.0:_ZN7abigail2ir14is_data_memberERKNS0_8var_declE
libabigail.so.0:_ZN7abigail2ir14is_data_memberERKSt10shared_ptrINS0_17type_or_decl_baseEE
libabigail.so.0:_ZN7abigail2ir14is_data_memberERKSt10shared_ptrINS0_9decl_baseEE
libabigail.so.0:_ZN7abigail2ir14is_data_memberESt10shared_ptrINS0_8var_declEE
libabigail.so.0:_ZN7abigail2ir14is_member_declEPKNS0_9decl_baseE
libabigail.so.0:_ZN7abigail2ir14is_member_declERKNS0_9decl_baseE
libabigail.so.0:_ZN7abigail2ir14is_member_declESt10shared_ptrINS0_9decl_baseEE
libabigail.so.0:_ZN7abigail2ir14is_member_typeERKSt10shared_ptrINS0_9type_baseEE
libabigail.so.0:_ZN7abigail2ir14is_method_declEPKNS0_17type_or_decl_baseE
libabigail.so.0:_ZN7abigail2ir14is_method_declERKNS0_17type_or_decl_baseE
libabigail.so.0:_ZN7abigail2ir14is_method_declERKSt10shared_ptrINS0_17type_or_decl_baseEE
libabigail.so.0:_ZN7abigail2ir14is_method_typeEPKNS0_17type_or_decl_baseE
libabigail.so.0:_ZN7abigail2ir14is_method_typeEPNS0_17type_or_decl_baseE
libabigail.so.0:_ZN7abigail2ir14is_method_typeERKSt10shared_ptrINS0_17type_or_decl_baseEE
libabigail.so.0:_ZN7abigail2ir14namespace_decl8traverseERNS0_15ir_node_visitorE
libabigail.so.0:_ZN7abigail2ir14namespace_declC1EPKNS0_11environmentERKNSt7__cxx1112basic_stringIcSt11char_traitsIcESaIcEEERKNS0_8locationENS0_9decl_base10visibilityE
libabigail.so.0:_ZN7abigail2ir14namespace_declC2EPKNS0_11environmentERKNSt7__cxx1112basic_stringIcSt11char_traitsIcESaIcEEERKNS0_8locationENS0_9decl_base10visibilityE
libabigail.so.0:_ZN7abigail2ir14namespace_declD0Ev
libabigail.so.0:_ZN7abigail2ir14namespace_declD1Ev
libabigail.so.0:_ZN7abigail2ir14namespace_declD2Ev
libabigail.so.0:_ZN7abigail2ir15get_data_memberEPNS0_14class_or_unionEPKc
libabigail.so.0:_ZN7abigail2ir15get_data_memberEPNS0_9type_baseEPKc
libabigail.so.0:_ZN7abigail2ir15ir_node_visitor11visit_beginEPNS0_10class_decl9base_specE
libabigail.so.0:_ZN7abigail2ir15ir_node_visitor11visit_beginEPNS0_10class_declE
libabigail.so.0:_ZN7abigail2ir15ir_node_visitor11visit_beginEPNS0_10scope_declE
libabigail.so.0:_ZN7abigail2ir15ir_node_visitor11visit_beginEPNS0_10union_declE
libabigail.so.0:_ZN7abigail2ir15ir_node_visitor11visit_beginEPNS0_11class_tdeclE
libabigail.so.0:_ZN7abigail2ir15ir_node_visitor11visit_beginEPNS0_12typedef_declE
libabigail.so.0:_ZN7abigail2ir15ir_node_visitor11visit_beginEPNS0_13function_decl9parameterE
libabigail.so.0:_ZN7abigail2ir15ir_node_visitor11visit_beginEPNS0_13function_declE
libabigail.so.0:_ZN7abigail2ir15ir_node_visitor11visit_beginEPNS0_13function_typeE
libabigail.so.0:_ZN7abigail2ir15ir_node_visitor11visit_beginEPNS0_14array_type_def13subrange_typeE
libabigail.so.0:_ZN7abigail2ir15ir_node_visitor11visit_beginEPNS0_14array_type_defE
libabigail.so.0:_ZN7abigail2ir15ir_node_visitor11visit_beginEPNS0_14class_or_unionE
libabigail.so.0:_ZN7abigail2ir15ir_node_visitor11visit_beginEPNS0_14enum_type_declE
libabigail.so.0:_ZN7abigail2ir15ir_node_visitor11visit_beginEPNS0_14function_tdeclE
libabigail.so.0:_ZN7abigail2ir15ir_node_visitor11visit_beginEPNS0_14namespace_declE
libabigail.so.0:_ZN7abigail2ir15ir_node_visitor11visit_beginEPNS0_15scope_type_declE
libabigail.so.0:_ZN7abigail2ir15ir_node_visitor11visit_beginEPNS0_16pointer_type_defE
libabigail.so.0:_ZN7abigail2ir15ir_node_visitor11visit_beginEPNS0_18qualified_type_defE
libabigail.so.0:_ZN7abigail2ir15ir_node_visitor11visit_beginEPNS0_18reference_type_defE
libabigail.so.0:_ZN7abigail2ir15ir_node_visitor11visit_beginEPNS0_21member_class_templateE
libabigail.so.0:_ZN7abigail2ir15ir_node_visitor11visit_beginEPNS0_24member_function_templateE
libabigail.so.0:_ZN7abigail2ir15ir_node_visitor11visit_beginEPNS0_8var_declE
libabigail.so.0:_ZN7abigail2ir15ir_node_visitor11visit_beginEPNS0_9decl_baseE
libabigail.so.0:_ZN7abigail2ir15ir_node_visitor11visit_beginEPNS0_9type_baseE
libabigail.so.0:_ZN7abigail2ir15ir_node_visitor11visit_beginEPNS0_9type_declE
libabigail.so.0:_ZN7abigail2ir15ir_node_visitor25forget_visited_type_nodesEv
libabigail.so.0:_ZN7abigail2ir15ir_node_visitor25mark_type_node_as_visitedEPNS0_9type_baseE
libabigail.so.0:_ZN7abigail2ir15ir_node_visitor40allow_visiting_already_visited_type_nodeEb
libabigail.so.0:_ZN7abigail2ir15ir_node_visitor9visit_endEPNS0_10class_decl9base_specE
libabigail.so.0:_ZN7abigail2ir15ir_node_visitor9visit_endEPNS0_10class_declE
libabigail.so.0:_ZN7abigail2ir15ir_node_visitor9visit_endEPNS0_10scope_declE
libabigail.so.0:_ZN7abigail2ir15ir_node_visitor9visit_endEPNS0_10union_declE
libabigail.so.0:_ZN7abigail2ir15ir_node_visitor9visit_endEPNS0_11class_tdeclE
libabigail.so.0:_ZN7abigail2ir15ir_node_visitor9visit_endEPNS0_12typedef_declE
libabigail.so.0:_ZN7abigail2ir15ir_node_visitor9visit_endEPNS0_13function_decl9parameterE
libabigail.so.0:_ZN7abigail2ir15ir_node_visitor9visit_endEPNS0_13function_declE
libabigail.so.0:_ZN7abigail2ir15ir_node_visitor9visit_endEPNS0_13function_typeE
libabigail.so.0:_ZN7abigail2ir15ir_node_visitor9visit_endEPNS0_14array_type_def13subrange_typeE
libabigail.so.0:_ZN7abigail2ir15ir_node_visitor9visit_endEPNS0_14array_type_defE
libabigail.so.0:_ZN7abigail2ir15ir_node_visitor9visit_endEPNS0_14class_or_unionE
libabigail.so.0:_ZN7abigail2ir15ir_node_visitor9visit_endEPNS0_14enum_type_declE
libabigail.so.0:_ZN7abigail2ir15ir_node_visitor9visit_endEPNS0_14function_tdeclE
libabigail.so.0:_ZN7abigail2ir15ir_node_visitor9visit_endEPNS0_14namespace_declE
libabigail.so.0:_ZN7abigail2ir15ir_node_visitor9visit_endEPNS0_15scope_type_declE
libabigail.so.0:_ZN7abigail2ir15ir_node_visitor9visit_endEPNS0_16pointer_type_defE
libabigail.so.0:_ZN7abigail2ir15ir_node_visitor9visit_endEPNS0_18qualified_type_defE
libabigail.so.0:_ZN7abigail2ir15ir_node_visitor9visit_endEPNS0_18reference_type_defE
libabigail.so.0:_ZN7abigail2ir15ir_node_visitor9visit_endEPNS0_21member_class_templateE
libabigail.so.0:_ZN7abigail2ir15ir_node_visitor9visit_endEPNS0_24member_function_templateE
libabigail.so.0:_ZN7abigail2ir15ir_node_visitor9visit_endEPNS0_8var_declE
libabigail.so.0:_ZN7abigail2ir15ir_node_visitor9visit_endEPNS0_9decl_baseE
libabigail.so.0:_ZN7abigail2ir15ir_node_visitor9visit_endEPNS0_9type_baseE
libabigail.so.0:_ZN7abigail2ir15ir_node_visitor9visit_endEPNS0_9type_declE
libabigail.so.0:_ZN7abigail2ir15ir_node_visitorC1Ev
libabigail.so.0:_ZN7abigail2ir15ir_node_visitorC2Ev
libabigail.so.0:_ZN7abigail2ir15ir_node_visitorD0Ev
libabigail.so.0:_ZN7abigail2ir15ir_node_visitorD1Ev
libabigail.so.0:_ZN7abigail2ir15ir_node_visitorD2Ev
libabigail.so.0:_ZN7abigail2ir15is_ada_languageENS0_16translation_unit8languageE
libabigail.so.0:_ZN7abigail2ir15is_global_scopeEPKNS0_10scope_declE
libabigail.so.0:_ZN7abigail2ir15is_global_scopeERKNS0_10scope_declE
libabigail.so.0:_ZN7abigail2ir15is_global_scopeESt10shared_ptrINS0_10scope_declEE
libabigail.so.0:_ZN7abigail2ir15is_pointer_typeEPKNS0_17type_or_decl_baseE
libabigail.so.0:_ZN7abigail2ir15is_pointer_typeEPNS0_17type_or_decl_baseE
libabigail.so.0:_ZN7abigail2ir15is_pointer_typeERKSt10shared_ptrINS0_17type_or_decl_baseEE
libabigail.so.0:_ZN7abigail2ir15keep_type_aliveESt10shared_ptrINS0_9type_baseEE
libabigail.so.0:_ZN7abigail2ir15odr_is_relevantERKNS0_17type_or_decl_baseE
libabigail.so.0:_ZN7abigail2ir15peel_array_typeEPKNS0_9type_baseE
libabigail.so.0:_ZN7abigail2ir15peel_array_typeERKSt10shared_ptrINS0_9type_baseEE
libabigail.so.0:_ZN7abigail2ir15scope_type_decl8traverseERNS0_15ir_node_visitorE
libabigail.so.0:_ZN7abigail2ir15scope_type_declC1EPKNS0_11environmentERKNSt7__cxx1112basic_stringIcSt11char_traitsIcESaIcEEEmmRKNS0_8locationENS0_9decl_base10visibilityE
libabigail.so.0:_ZN7abigail2ir15scope_type_declC2EPKNS0_11environmentERKNSt7__cxx1112basic_stringIcSt11char_traitsIcESaIcEEEmmRKNS0_8locationENS0_9decl_base10visibilityE
libabigail.so.0:_ZN7abigail2ir15scope_type_declD0Ev
libabigail.so.0:_ZN7abigail2ir15scope_type_declD1Ev
libabigail.so.0:_ZN7abigail2ir15scope_type_declD2Ev
libabigail.so.0:_ZN7abigail2ir15type_tparameterC1EjSt10shared_ptrINS0_13template_declEERKNSt7__cxx1112basic_stringIcSt11char_traitsIcESaIcEEERKNS0_8locationE
libabigail.so.0:_ZN7abigail2ir15type_tparameterC2EjSt10shared_ptrINS0_13template_declEERKNSt7__cxx1112basic_stringIcSt11char_traitsIcESaIcEEERKNS0_8locationE
libabigail.so.0:_ZN7abigail2ir15type_tparameterD0Ev
libabigail.so.0:_ZN7abigail2ir15type_tparameterD1Ev
libabigail.so.0:_ZN7abigail2ir15type_tparameterD2Ev
libabigail.so.0:_ZN7abigail2ir16clone_array_treeESt10shared_ptrINS0_9type_baseEE
libabigail.so.0:_ZN7abigail2ir16get_global_scopeEPKNS0_9decl_baseE
libabigail.so.0:_ZN7abigail2ir16get_global_scopeERKNS0_9decl_baseE
libabigail.so.0:_ZN7abigail2ir16get_global_scopeESt10shared_ptrINS0_9decl_baseEE
libabigail.so.0:_ZN7abigail2ir16is_function_declEPKNS0_17type_or_decl_baseE
libabigail.so.0:_ZN7abigail2ir16is_function_declERKNS0_17type_or_decl_baseE
libabigail.so.0:_ZN7abigail2ir16is_function_declERKSt10shared_ptrINS0_17type_or_decl_baseEE
libabigail.so.0:_ZN7abigail2ir16is_function_typeEPKNS0_17type_or_decl_baseE
libabigail.so.0:_ZN7abigail2ir16is_function_typeEPNS0_17type_or_decl_baseE
libabigail.so.0:_ZN7abigail2ir16is_function_typeERKSt10shared_ptrINS0_17type_or_decl_baseEE
libabigail.so.0:_ZN7abigail2ir16is_java_languageENS0_16translation_unit8languageE
libabigail.so.0:_ZN7abigail2ir16is_subrange_typeEPKNS0_17type_or_decl_baseE
libabigail.so.0:_ZN7abigail2ir16is_subrange_typeERKSt10shared_ptrINS0_17type_or_decl_baseEE
libabigail.so.0:_ZN7abigail2ir16is_template_declESt10shared_ptrINS0_9decl_baseEE
libabigail.so.0:_ZN7abigail2ir16location_manager19create_new_locationERKNSt7__cxx1112basic_stringIcSt11char_traitsIcESaIcEEEmm
libabigail.so.0:_ZN7abigail2ir16location_managerC1Ev
libabigail.so.0:_ZN7abigail2ir16location_managerC2Ev
libabigail.so.0:_ZN7abigail2ir16location_managerD1Ev
libabigail.so.0:_ZN7abigail2ir16location_managerD2Ev
libabigail.so.0:_ZN7abigail2ir16lookup_enum_typeERKNS0_14enum_type_declERKNS0_6corpusE
libabigail.so.0:_ZN7abigail2ir16lookup_enum_typeERKNS_15interned_stringERKNS0_6corpusE
libabigail.so.0:_ZN7abigail2ir16lookup_enum_typeERKNSt7__cxx1112basic_stringIcSt11char_traitsIcESaIcEEERKNS0_16translation_unitE
libabigail.so.0:_ZN7abigail2ir16lookup_enum_typeERKNSt7__cxx1112basic_stringIcSt11char_traitsIcESaIcEEERKNS0_6corpusE
libabigail.so.0:_ZN7abigail2ir16pointer_type_def19set_pointed_to_typeERKSt10shared_ptrINS0_9type_baseEE
libabigail.so.0:_ZN7abigail2ir16pointer_type_def21on_canonical_type_setEv
libabigail.so.0:_ZN7abigail2ir16pointer_type_def8traverseERNS0_15ir_node_visitorE
libabigail.so.0:_ZN7abigail2ir16pointer_type_defC1EPNS0_11environmentEmmRKNS0_8locationE
libabigail.so.0:_ZN7abigail2ir16pointer_type_defC1ERKSt10shared_ptrINS0_9type_baseEEmmRKNS0_8locationE
libabigail.so.0:_ZN7abigail2ir16pointer_type_defC2EPNS0_11environmentEmmRKNS0_8locationE
libabigail.so.0:_ZN7abigail2ir16pointer_type_defC2ERKSt10shared_ptrINS0_9type_baseEEmmRKNS0_8locationE
libabigail.so.0:_ZN7abigail2ir16pointer_type_defD0Ev
libabigail.so.0:_ZN7abigail2ir16pointer_type_defD1Ev
libabigail.so.0:_ZN7abigail2ir16pointer_type_defD2Ev
libabigail.so.0:_ZN7abigail2ir16translation_unit10get_corpusEv
libabigail.so.0:_ZN7abigail2ir16translation_unit10set_corpusEPNS0_6corpusE
libabigail.so.0:_ZN7abigail2ir16translation_unit11get_loc_mgrEv
libabigail.so.0:_ZN7abigail2ir16translation_unit12set_languageENS1_8languageE
libabigail.so.0:_ZN7abigail2ir16translation_unit15get_environmentEv
libabigail.so.0:_ZN7abigail2ir16translation_unit15set_environmentEPKNS0_11environmentE
libabigail.so.0:_ZN7abigail2ir16translation_unit16get_global_scopeEv
libabigail.so.0:_ZN7abigail2ir16translation_unit16set_address_sizeEc
libabigail.so.0:_ZN7abigail2ir16translation_unit18set_is_constructedEb
libabigail.so.0:_ZN7abigail2ir16translation_unit24set_compilation_dir_pathERKNSt7__cxx1112basic_stringIcSt11char_traitsIcESaIcEEE
libabigail.so.0:_ZN7abigail2ir16translation_unit8set_pathERKNSt7__cxx1112basic_stringIcSt11char_traitsIcESaIcEEE
libabigail.so.0:_ZN7abigail2ir16translation_unit8traverseERNS0_15ir_node_visitorE
libabigail.so.0:_ZN7abigail2ir16translation_unit9get_typesEv
libabigail.so.0:_ZN7abigail2ir16translation_unitC1EPKNS0_11environmentERKNSt7__cxx1112basic_stringIcSt11char_traitsIcESaIcEEEc
libabigail.so.0:_ZN7abigail2ir16translation_unitC2EPKNS0_11environmentERKNSt7__cxx1112basic_stringIcSt11char_traitsIcESaIcEEEc
libabigail.so.0:_ZN7abigail2ir16translation_unitD0Ev
libabigail.so.0:_ZN7abigail2ir16translation_unitD1Ev
libabigail.so.0:_ZN7abigail2ir16translation_unitD2Ev
libabigail.so.0:_ZN7abigail2ir16traversable_base8visitingEb
libabigail.so.0:_ZN7abigail2ir16traversable_baseC1Ev
libabigail.so.0:_ZN7abigail2ir16traversable_baseC2Ev
libabigail.so.0:_ZN7abigail2ir16traversable_baseD0Ev
libabigail.so.0:_ZN7abigail2ir16traversable_baseD1Ev
libabigail.so.0:_ZN7abigail2ir16traversable_baseD2Ev
libabigail.so.0:_ZN7abigail2ir16type_composition17set_composed_typeESt10shared_ptrINS0_9type_baseEE
libabigail.so.0:_ZN7abigail2ir16type_compositionC1EjSt10shared_ptrINS0_13template_declEES2_INS0_9type_baseEE
libabigail.so.0:_ZN7abigail2ir16type_compositionC2EjSt10shared_ptrINS0_13template_declEES2_INS0_9type_baseEE
libabigail.so.0:_ZN7abigail2ir16type_compositionD0Ev
libabigail.so.0:_ZN7abigail2ir16type_compositionD1Ev
libabigail.so.0:_ZN7abigail2ir16type_compositionD2Ev
libabigail.so.0:_ZN7abigail2ir17add_decl_to_scopeESt10shared_ptrINS0_9decl_baseEEPNS0_10scope_declE
libabigail.so.0:_ZN7abigail2ir17add_decl_to_scopeESt10shared_ptrINS0_9decl_baseEERKS1_INS0_10scope_declEE
libabigail.so.0:_ZN7abigail2ir17elf_symbols_aliasERKNS0_10elf_symbolES3_
libabigail.so.0:_ZN7abigail2ir17fqn_to_componentsERKNSt7__cxx1112basic_stringIcSt11char_traitsIcESaIcEEERNS1_4listIS6_SaIS6_EEE
libabigail.so.0:_ZN7abigail2ir17hash_type_or_declEPKNS0_17type_or_decl_baseE
libabigail.so.0:_ZN7abigail2ir17hash_type_or_declERKSt10shared_ptrINS0_17type_or_decl_baseEE
libabigail.so.0:_ZN7abigail2ir17is_anonymous_typeEPKNS0_9type_baseE
libabigail.so.0:_ZN7abigail2ir17is_anonymous_typeERKSt10shared_ptrINS0_9type_baseEE
libabigail.so.0:_ZN7abigail2ir17is_at_class_scopeEPKNS0_9decl_baseE
libabigail.so.0:_ZN7abigail2ir17is_at_class_scopeERKNS0_9decl_baseE
libabigail.so.0:_ZN7abigail2ir17is_at_class_scopeESt10shared_ptrINS0_9decl_baseEE
libabigail.so.0:_ZN7abigail2ir17is_qualified_typeEPKNS0_17type_or_decl_baseE
libabigail.so.0:_ZN7abigail2ir17is_qualified_typeERKSt10shared_ptrINS0_17type_or_decl_baseEE
libabigail.so.0:_ZN7abigail2ir17is_reference_typeEPKNS0_17type_or_decl_baseE
libabigail.so.0:_ZN7abigail2ir17is_reference_typeEPNS0_17type_or_decl_baseE
libabigail.so.0:_ZN7abigail2ir17is_reference_typeERKSt10shared_ptrINS0_17type_or_decl_baseEE
libabigail.so.0:_ZN7abigail2ir17lookup_array_typeERKNS0_14array_type_defERKNS0_6corpusE
libabigail.so.0:_ZN7abigail2ir17lookup_array_typeERKNS_15interned_stringERKNS0_6corpusE
libabigail.so.0:_ZN7abigail2ir17lookup_basic_typeERKNS0_9type_declERKNS0_6corpusE
libabigail.so.0:_ZN7abigail2ir17lookup_basic_typeERKNS_15interned_stringERKNS0_16translation_unitE
libabigail.so.0:_ZN7abigail2ir17lookup_basic_typeERKNS_15interned_stringERKNS0_6corpusE
libabigail.so.0:_ZN7abigail2ir17lookup_basic_typeERKNSt7__cxx1112basic_stringIcSt11char_traitsIcESaIcEEERKNS0_16translation_unitE
libabigail.so.0:_ZN7abigail2ir17lookup_basic_typeERKNSt7__cxx1112basic_stringIcSt11char_traitsIcESaIcEEERKNS0_6corpusE
libabigail.so.0:_ZN7abigail2ir17lookup_class_typeERKNS0_10class_declERKNS0_6corpusE
libabigail.so.0:_ZN7abigail2ir17lookup_class_typeERKNS_15interned_stringERKNS0_16translation_unitE
libabigail.so.0:_ZN7abigail2ir17lookup_class_typeERKNS_15interned_stringERKNS0_6corpusE
libabigail.so.0:_ZN7abigail2ir17lookup_class_typeERKNSt7__cxx1112basic_stringIcSt11char_traitsIcESaIcEEERKNS0_16translation_unitE
libabigail.so.0:_ZN7abigail2ir17lookup_class_typeERKNSt7__cxx1112basic_stringIcSt11char_traitsIcESaIcEEERKNS0_6corpusE
libabigail.so.0:_ZN7abigail2ir17lookup_enum_typesERKNS_15interned_stringERKNS0_6corpusE
libabigail.so.0:_ZN7abigail2ir17lookup_enum_typesERKNSt7__cxx1112basic_stringIcSt11char_traitsIcESaIcEEERKNS0_6corpusE
libabigail.so.0:_ZN7abigail2ir17lookup_union_typeERKNS_15interned_stringERKNS0_16translation_unitE
libabigail.so.0:_ZN7abigail2ir17lookup_union_typeERKNS_15interned_stringERKNS0_6corpusE
libabigail.so.0:_ZN7abigail2ir17lookup_union_typeERKNSt7__cxx1112basic_stringIcSt11char_traitsIcESaIcEEERKNS0_6corpusE
libabigail.so.0:_ZN7abigail2ir17peel_pointer_typeEPKNS0_9type_baseE
libabigail.so.0:_ZN7abigail2ir17peel_pointer_typeERKSt10shared_ptrINS0_9type_baseEE
libabigail.so.0:_ZN7abigail2ir17peel_typedef_typeEPKNS0_9type_baseE
libabigail.so.0:_ZN7abigail2ir17peel_typedef_typeERKSt10shared_ptrINS0_9type_baseEE
libabigail.so.0:_ZN7abigail2ir17type_or_decl_base10get_corpusEv
libabigail.so.0:_ZN7abigail2ir17type_or_decl_base15get_environmentEv
libabigail.so.0:_ZN7abigail2ir17type_or_decl_base15set_environmentEPKNS0_11environmentE
libabigail.so.0:_ZN7abigail2ir17type_or_decl_base17set_is_artificialEb
libabigail.so.0:_ZN7abigail2ir17type_or_decl_base20get_translation_unitEv
libabigail.so.0:_ZN7abigail2ir17type_or_decl_base20set_translation_unitEPNS0_16translation_unitE
libabigail.so.0:_ZN7abigail2ir17type_or_decl_base21runtime_type_instanceEPv
libabigail.so.0:_ZN7abigail2ir17type_or_decl_base21runtime_type_instanceEv
libabigail.so.0:_ZN7abigail2ir17type_or_decl_base23set_artificial_locationERKNS0_8locationE
libabigail.so.0:_ZN7abigail2ir17type_or_decl_base25type_or_decl_base_pointerEv
libabigail.so.0:_ZN7abigail2ir17type_or_decl_base4kindENS1_17type_or_decl_kindE
libabigail.so.0:_ZN7abigail2ir17type_or_decl_base8traverseERNS0_15ir_node_visitorE
libabigail.so.0:_ZN7abigail2ir17type_or_decl_baseC1EPKNS0_11environmentENS1_17type_or_decl_kindE
libabigail.so.0:_ZN7abigail2ir17type_or_decl_baseC1ERKS1_
libabigail.so.0:_ZN7abigail2ir17type_or_decl_baseC1Ev
libabigail.so.0:_ZN7abigail2ir17type_or_decl_baseC2EPKNS0_11environmentENS1_17type_or_decl_kindE
libabigail.so.0:_ZN7abigail2ir17type_or_decl_baseC2ERKS1_
libabigail.so.0:_ZN7abigail2ir17type_or_decl_baseC2Ev
libabigail.so.0:_ZN7abigail2ir17type_or_decl_baseD0Ev
libabigail.so.0:_ZN7abigail2ir17type_or_decl_baseD1Ev
libabigail.so.0:_ZN7abigail2ir17type_or_decl_baseD2Ev
libabigail.so.0:_ZN7abigail2ir17type_or_decl_baseaSERKS1_
libabigail.so.0:_ZN7abigail2ir18is_at_global_scopeERKNS0_9decl_baseE
libabigail.so.0:_ZN7abigail2ir18is_at_global_scopeESt10shared_ptrINS0_9decl_baseEE
libabigail.so.0:_ZN7abigail2ir18is_class_base_specESt10shared_ptrINS0_17type_or_decl_baseEE
libabigail.so.0:_ZN7abigail2ir18is_member_functionEPKNS0_13function_declE
libabigail.so.0:_ZN7abigail2ir18is_member_functionERKNS0_13function_declE
libabigail.so.0:_ZN7abigail2ir18is_member_functionERKSt10shared_ptrINS0_13function_declEE
libabigail.so.0:_ZN7abigail2ir18lookup_class_typesERKNS_15interned_stringERKNS0_6corpusE
libabigail.so.0:_ZN7abigail2ir18lookup_class_typesERKNSt7__cxx1112basic_stringIcSt11char_traitsIcESaIcEEERKNS0_6corpusE
libabigail.so.0:_ZN7abigail2ir18lookup_data_memberEPKNS0_9type_baseEPKc
libabigail.so.0:_ZN7abigail2ir18mem_fn_context_relD0Ev
libabigail.so.0:_ZN7abigail2ir18mem_fn_context_relD1Ev
libabigail.so.0:_ZN7abigail2ir18mem_fn_context_relD2Ev
libabigail.so.0:_ZN7abigail2ir18qualified_type_def12set_cv_qualsENS1_2CVE
libabigail.so.0:_ZN7abigail2ir18qualified_type_def19set_underlying_typeERKSt10shared_ptrINS0_9type_baseEE
libabigail.so.0:_ZN7abigail2ir18qualified_type_def21on_canonical_type_setEv
libabigail.so.0:_ZN7abigail2ir18qualified_type_def8traverseERNS0_15ir_node_visitorE
libabigail.so.0:_ZN7abigail2ir18qualified_type_defC1EPNS0_11environmentENS1_2CVERKNS0_8locationE
libabigail.so.0:_ZN7abigail2ir18qualified_type_defC1ESt10shared_ptrINS0_9type_baseEENS1_2CVERKNS0_8locationE
libabigail.so.0:_ZN7abigail2ir18qualified_type_defC2EPNS0_11environmentENS1_2CVERKNS0_8locationE
libabigail.so.0:_ZN7abigail2ir18qualified_type_defC2ESt10shared_ptrINS0_9type_baseEENS1_2CVERKNS0_8locationE
libabigail.so.0:_ZN7abigail2ir18qualified_type_defD0Ev
libabigail.so.0:_ZN7abigail2ir18qualified_type_defD1Ev
libabigail.so.0:_ZN7abigail2ir18qualified_type_defD2Ev
libabigail.so.0:_ZN7abigail2ir18reference_type_def19set_pointed_to_typeERSt10shared_ptrINS0_9type_baseEE
libabigail.so.0:_ZN7abigail2ir18reference_type_def21on_canonical_type_setEv
libabigail.so.0:_ZN7abigail2ir18reference_type_def8traverseERNS0_15ir_node_visitorE
libabigail.so.0:_ZN7abigail2ir18reference_type_defC1EPKNS0_11environmentEbmmRKNS0_8locationE
libabigail.so.0:_ZN7abigail2ir18reference_type_defC1ESt10shared_ptrINS0_9type_baseEEbmmRKNS0_8locationE
libabigail.so.0:_ZN7abigail2ir18reference_type_defC2EPKNS0_11environmentEbmmRKNS0_8locationE
libabigail.so.0:_ZN7abigail2ir18reference_type_defC2ESt10shared_ptrINS0_9type_baseEEbmmRKNS0_8locationE
libabigail.so.0:_ZN7abigail2ir18reference_type_defD0Ev
libabigail.so.0:_ZN7abigail2ir18reference_type_defD1Ev
libabigail.so.0:_ZN7abigail2ir18reference_type_defD2Ev
libabigail.so.0:_ZN7abigail2ir18template_parameterC1EjSt10shared_ptrINS0_13template_declEE
libabigail.so.0:_ZN7abigail2ir18template_parameterC2EjSt10shared_ptrINS0_13template_declEE
libabigail.so.0:_ZN7abigail2ir18template_parameterD0Ev
libabigail.so.0:_ZN7abigail2ir18template_parameterD1Ev
libabigail.so.0:_ZN7abigail2ir18template_parameterD2Ev
libabigail.so.0:_ZN7abigail2ir19ir_traversable_base8traverseERNS0_15ir_node_visitorE
libabigail.so.0:_ZN7abigail2ir19is_typedef_of_arrayERKSt10shared_ptrINS0_9type_baseEE
libabigail.so.0:_ZN7abigail2ir19lookup_pointer_typeERKNS0_16pointer_type_defERKNS0_6corpusE
libabigail.so.0:_ZN7abigail2ir19lookup_pointer_typeERKNS_15interned_stringERKNS0_6corpusE
libabigail.so.0:_ZN7abigail2ir19lookup_pointer_typeERKNSt7__cxx1112basic_stringIcSt11char_traitsIcESaIcEEERKNS0_16translation_unitE
libabigail.so.0:_ZN7abigail2ir19lookup_pointer_typeERKSt10shared_ptrINS0_9type_baseEERKNS0_16translation_unitE
libabigail.so.0:_ZN7abigail2ir19lookup_typedef_typeERKNS0_12typedef_declERKNS0_6corpusE
libabigail.so.0:_ZN7abigail2ir19lookup_typedef_typeERKNS_15interned_stringERKNS0_16translation_unitE
libabigail.so.0:_ZN7abigail2ir19lookup_typedef_typeERKNS_15interned_stringERKNS0_6corpusE
libabigail.so.0:_ZN7abigail2ir19lookup_typedef_typeERKNSt7__cxx1112basic_stringIcSt11char_traitsIcESaIcEEERKNS0_16translation_unitE
libabigail.so.0:_ZN7abigail2ir19lookup_typedef_typeERKNSt7__cxx1112basic_stringIcSt11char_traitsIcESaIcEEERKNS0_6corpusE
libabigail.so.0:_ZN7abigail2ir19non_type_tparameterC1EjSt10shared_ptrINS0_13template_declEERKNSt7__cxx1112basic_stringIcSt11char_traitsIcESaIcEEES2_INS0_9type_baseEERKNS0_8locationE
libabigail.so.0:_ZN7abigail2ir19non_type_tparameterC2EjSt10shared_ptrINS0_13template_declEERKNSt7__cxx1112basic_stringIcSt11char_traitsIcESaIcEEES2_INS0_9type_baseEERKNS0_8locationE
libabigail.so.0:_ZN7abigail2ir19non_type_tparameterD0Ev
libabigail.so.0:_ZN7abigail2ir19non_type_tparameterD1Ev
libabigail.so.0:_ZN7abigail2ir19non_type_tparameterD2Ev
libabigail.so.0:_ZN7abigail2ir19peel_qualified_typeEPKNS0_9type_baseE
libabigail.so.0:_ZN7abigail2ir19peel_qualified_typeERKSt10shared_ptrINS0_9type_baseEE
libabigail.so.0:_ZN7abigail2ir19peel_reference_typeEPKNS0_9type_baseE
libabigail.so.0:_ZN7abigail2ir19peel_reference_typeERKSt10shared_ptrINS0_9type_baseEE
libabigail.so.0:_ZN7abigail2ir19template_tparameterC1EjSt10shared_ptrINS0_13template_declEERKNSt7__cxx1112basic_stringIcSt11char_traitsIcESaIcEEERKNS0_8locationE
libabigail.so.0:_ZN7abigail2ir19template_tparameterC2EjSt10shared_ptrINS0_13template_declEERKNSt7__cxx1112basic_stringIcSt11char_traitsIcESaIcEEERKNS0_8locationE
libabigail.so.0:_ZN7abigail2ir19template_tparameterD0Ev
libabigail.so.0:_ZN7abigail2ir19template_tparameterD1Ev
libabigail.so.0:_ZN7abigail2ir19template_tparameterD2Ev
libabigail.so.0:_ZN7abigail2ir20build_qualified_nameB5cxx11EPKNS0_10scope_declERKSt10shared_ptrINS0_9type_baseEE
libabigail.so.0:_ZN7abigail2ir20build_qualified_nameEPKNS0_10scope_declERKNSt7__cxx1112basic_stringIcSt11char_traitsIcESaIcEEE
libabigail.so.0:_ZN7abigail2ir20clone_qualified_typeERKSt10shared_ptrINS0_18qualified_type_defEE
libabigail.so.0:_ZN7abigail2ir20copy_member_functionERKSt10shared_ptrINS0_10class_declEEPKNS0_11method_declE
libabigail.so.0:_ZN7abigail2ir20copy_member_functionERKSt10shared_ptrINS0_10class_declEERKS1_INS0_11method_declEE
libabigail.so.0:_ZN7abigail2ir20copy_member_functionERKSt10shared_ptrINS0_10union_declEEPKNS0_11method_declE
libabigail.so.0:_ZN7abigail2ir20copy_member_functionERKSt10shared_ptrINS0_10union_declEERKS1_INS0_11method_declEE
libabigail.so.0:_ZN7abigail2ir20copy_member_functionERKSt10shared_ptrINS0_14class_or_unionEEPKNS0_11method_declE
libabigail.so.0:_ZN7abigail2ir20copy_member_functionERKSt10shared_ptrINS0_14class_or_unionEERKS1_INS0_11method_declEE
libabigail.so.0:_ZN7abigail2ir20function_decls_aliasERKNS0_13function_declES3_
libabigail.so.0:_ZN7abigail2ir20get_member_is_staticEPKNS0_9decl_baseE
libabigail.so.0:_ZN7abigail2ir20get_member_is_staticERKNS0_9decl_baseE
libabigail.so.0:_ZN7abigail2ir20get_member_is_staticERKSt10shared_ptrINS0_9decl_baseEE
libabigail.so.0:_ZN7abigail2ir20get_method_type_nameEPKNS0_11method_typeEb
libabigail.so.0:_ZN7abigail2ir20get_method_type_nameERKNS0_11method_typeEb
libabigail.so.0:_ZN7abigail2ir20get_next_data_memberERKSt10shared_ptrINS0_14class_or_unionEERKS1_INS0_8var_declEE
libabigail.so.0:_ZN7abigail2ir20get_translation_unitEPKNS0_9decl_baseE
libabigail.so.0:_ZN7abigail2ir20get_translation_unitERKNS0_9decl_baseE
libabigail.so.0:_ZN7abigail2ir20get_translation_unitESt10shared_ptrINS0_9decl_baseEE
libabigail.so.0:_ZN7abigail2ir20get_type_declarationEPKNS0_9type_baseE
libabigail.so.0:_ZN7abigail2ir20get_type_declarationEPNS0_9type_baseE
libabigail.so.0:_ZN7abigail2ir20get_type_declarationESt10shared_ptrINS0_9type_baseEE
libabigail.so.0:_ZN7abigail2ir20get_var_size_in_bitsERKSt10shared_ptrINS0_8var_declEE
libabigail.so.0:_ZN7abigail2ir20is_at_template_scopeESt10shared_ptrINS0_9decl_baseEE
libabigail.so.0:_ZN7abigail2ir20is_user_defined_typeEPKNS0_9type_baseE
libabigail.so.0:_ZN7abigail2ir20is_user_defined_typeERKSt10shared_ptrINS0_9type_baseEE
libabigail.so.0:_ZN7abigail2ir20is_void_pointer_typeEPKNS0_9type_baseE
libabigail.so.0:_ZN7abigail2ir20lookup_function_typeERKNS0_13function_typeERKNS0_16translation_unitE
libabigail.so.0:_ZN7abigail2ir20lookup_function_typeERKNS0_13function_typeERKNS0_6corpusE
libabigail.so.0:_ZN7abigail2ir20lookup_function_typeERKNS_15interned_stringERKNS0_16translation_unitE
libabigail.so.0:_ZN7abigail2ir20lookup_function_typeERKNS_15interned_stringERKNS0_6corpusE
libabigail.so.0:_ZN7abigail2ir20lookup_function_typeERKSt10shared_ptrINS0_13function_typeEERKNS0_16translation_unitE
libabigail.so.0:_ZN7abigail2ir20lookup_function_typeERKSt10shared_ptrINS0_13function_typeEERKNS0_6corpusE
libabigail.so.0:_ZN7abigail2ir20lookup_type_in_scopeERKNSt7__cxx1112basic_stringIcSt11char_traitsIcESaIcEEERKSt10shared_ptrINS0_10scope_declEE
libabigail.so.0:_ZN7abigail2ir20lookup_type_in_scopeERKNSt7__cxx114listINS1_12basic_stringIcSt11char_traitsIcESaIcEEESaIS7_EEERKSt10shared_ptrINS0_10scope_declEE
libabigail.so.0:_ZN7abigail2ir20set_member_is_staticERKSt10shared_ptrINS0_9decl_baseEEb
libabigail.so.0:_ZN7abigail2ir20set_member_is_staticERNS0_9decl_baseEb
libabigail.so.0:_ZN7abigail2ir20types_are_compatibleESt10shared_ptrINS0_9decl_baseEES3_
libabigail.so.0:_ZN7abigail2ir20types_are_compatibleESt10shared_ptrINS0_9type_baseEES3_
libabigail.so.0:_ZN7abigail2ir21is_function_parameterEPKNS0_17type_or_decl_baseE
libabigail.so.0:_ZN7abigail2ir21is_function_parameterESt10shared_ptrINS0_17type_or_decl_baseEE
libabigail.so.0:_ZN7abigail2ir21is_template_parameterESt10shared_ptrINS0_9decl_baseEE
libabigail.so.0:_ZN7abigail2ir21lookup_qualified_typeERKNS0_18qualified_type_defERKNS0_6corpusE
libabigail.so.0:_ZN7abigail2ir21lookup_qualified_typeERKNS_15interned_stringERKNS0_6corpusE
libabigail.so.0:_ZN7abigail2ir21lookup_qualified_typeERKSt10shared_ptrINS0_9type_baseEENS0_18qualified_type_def2CVERKNS0_16translation_unitE
libabigail.so.0:_ZN7abigail2ir21lookup_reference_typeERKNS0_18reference_type_defERKNS0_6corpusE
libabigail.so.0:_ZN7abigail2ir21lookup_reference_typeERKNS_15interned_stringERKNS0_6corpusE
libabigail.so.0:_ZN7abigail2ir21lookup_reference_typeERKSt10shared_ptrINS0_9type_baseEEbRKNS0_16translation_unitE
libabigail.so.0:_ZN7abigail2ir21member_class_template8traverseERNS0_15ir_node_visitorE
libabigail.so.0:_ZN7abigail2ir22elf_symbol_is_functionENS0_10elf_symbol4typeE
libabigail.so.0:_ZN7abigail2ir22elf_symbol_is_variableENS0_10elf_symbol4typeE
libabigail.so.0:_ZN7abigail2ir22get_data_member_offsetERKNS0_8var_declE
libabigail.so.0:_ZN7abigail2ir22get_data_member_offsetESt10shared_ptrINS0_8var_declEE
libabigail.so.0:_ZN7abigail2ir22get_data_member_offsetESt10shared_ptrINS0_9decl_baseEE
libabigail.so.0:_ZN7abigail2ir22get_function_parameterEPKNS0_9decl_baseEj
libabigail.so.0:_ZN7abigail2ir22get_function_type_nameEPKNS0_13function_typeEb
libabigail.so.0:_ZN7abigail2ir22get_function_type_nameERKNS0_13function_typeEb
libabigail.so.0:_ZN7abigail2ir22get_function_type_nameERKSt10shared_ptrINS0_13function_typeEEb
libabigail.so.0:_ZN7abigail2ir22insert_decl_into_scopeESt10shared_ptrINS0_9decl_baseEEN9__gnu_cxx17__normal_iteratorIPS3_St6vectorIS3_SaIS3_EEEEPNS0_10scope_declE
libabigail.so.0:_ZN7abigail2ir22insert_decl_into_scopeESt10shared_ptrINS0_9decl_baseEEN9__gnu_cxx17__normal_iteratorIPS3_St6vectorIS3_SaIS3_EEEES1_INS0_10scope_declEE
libabigail.so.0:_ZN7abigail2ir22is_class_or_union_typeEPKNS0_17type_or_decl_baseE
libabigail.so.0:_ZN7abigail2ir22is_class_or_union_typeERKSt10shared_ptrINS0_17type_or_decl_baseEE
libabigail.so.0:_ZN7abigail2ir22is_cplus_plus_languageENS0_16translation_unit8languageE
libabigail.so.0:_ZN7abigail2ir22look_through_decl_onlyEPNS0_9decl_baseE
libabigail.so.0:_ZN7abigail2ir22look_through_decl_onlyERKNS0_9decl_baseE
libabigail.so.0:_ZN7abigail2ir22look_through_decl_onlyERKSt10shared_ptrINS0_9decl_baseEE
libabigail.so.0:_ZN7abigail2ir22remove_decl_from_scopeESt10shared_ptrINS0_9decl_baseEE
libabigail.so.0:_ZN7abigail2ir22set_data_member_offsetESt10shared_ptrINS0_8var_declEEm
libabigail.so.0:_ZN7abigail2ir23components_to_type_nameERKNSt7__cxx114listINS1_12basic_stringIcSt11char_traitsIcESaIcEEESaIS7_EEE
libabigail.so.0:_ZN7abigail2ir24enum_has_non_name_changeERKNS0_14enum_type_declES3_PNS0_11change_kindE
libabigail.so.0:_ZN7abigail2ir24get_debug_representationB5cxx11EPKNS0_17type_or_decl_baseE
libabigail.so.0:_ZN7abigail2ir24get_top_most_scope_underEPKNS0_9decl_baseEPKNS0_10scope_declE
libabigail.so.0:_ZN7abigail2ir24get_top_most_scope_underESt10shared_ptrINS0_9decl_baseEEPKNS0_10scope_declE
libabigail.so.0:_ZN7abigail2ir24get_top_most_scope_underESt10shared_ptrINS0_9decl_baseEES1_INS0_10scope_declEE
libabigail.so.0:_ZN7abigail2ir24is_anonymous_data_memberEPKNS0_17type_or_decl_baseE
libabigail.so.0:_ZN7abigail2ir24is_anonymous_data_memberEPKNS0_8var_declE
libabigail.so.0:_ZN7abigail2ir24is_anonymous_data_memberEPKNS0_9decl_baseE
libabigail.so.0:_ZN7abigail2ir24is_anonymous_data_memberERKNS0_8var_declE
libabigail.so.0:_ZN7abigail2ir24is_anonymous_data_memberERKNS0_9decl_baseE
libabigail.so.0:_ZN7abigail2ir24is_anonymous_data_memberERKSt10shared_ptrINS0_17type_or_decl_baseEE
libabigail.so.0:_ZN7abigail2ir24is_anonymous_data_memberERKSt10shared_ptrINS0_8var_declEE
libabigail.so.0:_ZN7abigail2ir24is_anonymous_data_memberERKSt10shared_ptrINS0_9decl_baseEE
libabigail.so.0:_ZN7abigail2ir24lookup_type_per_locationERKNS_15interned_stringERKNS0_6corpusE
libabigail.so.0:_ZN7abigail2ir24lookup_var_decl_in_scopeERKNSt7__cxx1112basic_stringIcSt11char_traitsIcESaIcEEERKSt10shared_ptrINS0_10scope_declEE
libabigail.so.0:_ZN7abigail2ir24lookup_var_decl_in_scopeERKNSt7__cxx114listINS1_12basic_stringIcSt11char_traitsIcESaIcEEESaIS7_EEERKSt10shared_ptrINS0_10scope_declEE
libabigail.so.0:_ZN7abigail2ir24member_function_template8traverseERNS0_15ir_node_visitorE
libabigail.so.0:_ZN7abigail2ir25get_pretty_representationB5cxx11EPKNS0_11method_typeEb
libabigail.so.0:_ZN7abigail2ir25get_pretty_representationB5cxx11EPKNS0_13function_typeEb
libabigail.so.0:_ZN7abigail2ir25get_pretty_representationB5cxx11EPKNS0_17type_or_decl_baseEb
libabigail.so.0:_ZN7abigail2ir25get_pretty_representationB5cxx11EPKNS0_9decl_baseEb
libabigail.so.0:_ZN7abigail2ir25get_pretty_representationB5cxx11EPKNS0_9type_baseEb
libabigail.so.0:_ZN7abigail2ir25get_pretty_representationB5cxx11ERKNS0_11method_typeEb
libabigail.so.0:_ZN7abigail2ir25get_pretty_representationB5cxx11ERKNS0_13function_typeEb
libabigail.so.0:_ZN7abigail2ir25get_pretty_representationB5cxx11ERKSt10shared_ptrINS0_13function_typeEEb
libabigail.so.0:_ZN7abigail2ir25get_pretty_representationB5cxx11ERKSt10shared_ptrINS0_17type_or_decl_baseEEb
libabigail.so.0:_ZN7abigail2ir25get_pretty_representationB5cxx11ERKSt10shared_ptrINS0_9decl_baseEEb
libabigail.so.0:_ZN7abigail2ir25get_pretty_representationB5cxx11ERKSt10shared_ptrINS0_9type_baseEEb
libabigail.so.0:_ZN7abigail2ir25string_to_elf_symbol_typeERKNSt7__cxx1112basic_stringIcSt11char_traitsIcESaIcEEERNS0_10elf_symbol4typeE
libabigail.so.0:_ZN7abigail2ir25type_has_sub_type_changesESt10shared_ptrINS0_9type_baseEES3_
libabigail.so.0:_ZN7abigail2ir26equals_modulo_cv_qualifierEPKNS0_14array_type_defES3_
libabigail.so.0:_ZN7abigail2ir26function_decl_is_less_thanERKNS0_13function_declES3_
libabigail.so.0:_ZN7abigail2ir26get_name_of_qualified_typeERKSt10shared_ptrINS0_9type_baseEENS0_18qualified_type_def2CVEbb
libabigail.so.0:_ZN7abigail2ir26lookup_type_through_scopesERKNSt7__cxx114listINS1_12basic_stringIcSt11char_traitsIcESaIcEEESaIS7_EEERKNS0_16translation_unitE
libabigail.so.0:_ZN7abigail2ir27demangle_cplus_mangled_nameERKNSt7__cxx1112basic_stringIcSt11char_traitsIcESaIcEEE
libabigail.so.0:_ZN7abigail2ir27get_data_member_is_laid_outERKNS0_8var_declE
libabigail.so.0:_ZN7abigail2ir27get_data_member_is_laid_outESt10shared_ptrINS0_8var_declEE
libabigail.so.0:_ZN7abigail2ir27get_member_access_specifierERKNS0_9decl_baseE
libabigail.so.0:_ZN7abigail2ir27get_member_access_specifierERKSt10shared_ptrINS0_9decl_baseEE
libabigail.so.0:_ZN7abigail2ir27get_member_function_is_ctorERKNS0_13function_declE
libabigail.so.0:_ZN7abigail2ir27get_member_function_is_ctorERKSt10shared_ptrINS0_13function_declEE
libabigail.so.0:_ZN7abigail2ir27get_member_function_is_dtorERKNS0_13function_declE
libabigail.so.0:_ZN7abigail2ir27get_member_function_is_dtorERKSt10shared_ptrINS0_13function_declEE
libabigail.so.0:_ZN7abigail2ir27get_name_of_pointer_to_typeERKNS0_9type_baseEbb
libabigail.so.0:_ZN7abigail2ir27look_through_decl_only_enumERKNS0_14enum_type_declE
libabigail.so.0:_ZN7abigail2ir27look_through_decl_only_enumESt10shared_ptrINS0_14enum_type_declEE
libabigail.so.0:_ZN7abigail2ir27set_data_member_is_laid_outESt10shared_ptrINS0_8var_declEEb
libabigail.so.0:_ZN7abigail2ir27set_member_access_specifierERKSt10shared_ptrINS0_9decl_baseEENS0_16access_specifierE
libabigail.so.0:_ZN7abigail2ir27set_member_access_specifierERNS0_9decl_baseENS0_16access_specifierE
libabigail.so.0:_ZN7abigail2ir27set_member_function_is_ctorERKSt10shared_ptrINS0_13function_declEEb
libabigail.so.0:_ZN7abigail2ir27set_member_function_is_dtorERKSt10shared_ptrINS0_13function_declEEb
libabigail.so.0:_ZN7abigail2ir27set_member_function_is_dtorERNS0_13function_declEb
libabigail.so.0:_ZN7abigail2ir28get_member_function_is_constERKNS0_13function_declE
libabigail.so.0:_ZN7abigail2ir28get_member_function_is_constERKSt10shared_ptrINS0_13function_declEE
libabigail.so.0:_ZN7abigail2ir28is_compatible_with_enum_typeERKSt10shared_ptrINS0_9decl_baseEE
libabigail.so.0:_ZN7abigail2ir28is_compatible_with_enum_typeERKSt10shared_ptrINS0_9type_baseEE
libabigail.so.0:_ZN7abigail2ir28is_function_template_patternESt10shared_ptrINS0_9decl_baseEE
libabigail.so.0:_ZN7abigail2ir28look_through_decl_only_classEPNS0_14class_or_unionE
libabigail.so.0:_ZN7abigail2ir28look_through_decl_only_classERKNS0_14class_or_unionE
libabigail.so.0:_ZN7abigail2ir28look_through_decl_only_classESt10shared_ptrINS0_14class_or_unionEE
libabigail.so.0:_ZN7abigail2ir28lookup_class_or_typedef_typeERKNSt7__cxx1112basic_stringIcSt11char_traitsIcESaIcEEERKNS0_6corpusE
libabigail.so.0:_ZN7abigail2ir28lookup_or_synthesize_fn_typeERKSt10shared_ptrINS0_13function_typeEERKNS0_6corpusE
libabigail.so.0:_ZN7abigail2ir28set_environment_for_artifactEPNS0_17type_or_decl_baseEPKNS0_11environmentE
libabigail.so.0:_ZN7abigail2ir28set_environment_for_artifactESt10shared_ptrINS0_17type_or_decl_baseEEPKNS0_11environmentE
libabigail.so.0:_ZN7abigail2ir28set_member_function_is_constERKSt10shared_ptrINS0_13function_declEEb
libabigail.so.0:_ZN7abigail2ir28set_member_function_is_constERNS0_13function_declEb
libabigail.so.0:_ZN7abigail2ir28string_to_elf_symbol_bindingERKNSt7__cxx1112basic_stringIcSt11char_traitsIcESaIcEEERNS0_10elf_symbol7bindingE
libabigail.so.0:_ZN7abigail2ir28types_have_similar_structureEPKNS0_9type_baseES3_b
libabigail.so.0:_ZN7abigail2ir28types_have_similar_structureERKSt10shared_ptrINS0_9type_baseEES5_b
libabigail.so.0:_ZN7abigail2ir29fixup_virtual_member_functionESt10shared_ptrINS0_11method_declEE
libabigail.so.0:_ZN7abigail2ir29get_name_of_reference_to_typeERKNS0_9type_baseEbbb
libabigail.so.0:_ZN7abigail2ir29is_anonymous_or_typedef_namedERKNS0_9decl_baseE
libabigail.so.0:_ZN7abigail2ir29is_array_of_qualified_elementERKSt10shared_ptrINS0_14array_type_defEE
libabigail.so.0:_ZN7abigail2ir29is_array_of_qualified_elementERKSt10shared_ptrINS0_9type_baseEE
libabigail.so.0:_ZN7abigail2ir29is_compatible_with_class_typeERKSt10shared_ptrINS0_9decl_baseEE
libabigail.so.0:_ZN7abigail2ir29is_compatible_with_class_typeERKSt10shared_ptrINS0_9type_baseEE
libabigail.so.0:_ZN7abigail2ir29lookup_enum_type_per_locationERKNS_15interned_stringERKNS0_6corpusE
libabigail.so.0:_ZN7abigail2ir29lookup_enum_type_per_locationERKNSt7__cxx1112basic_stringIcSt11char_traitsIcESaIcEEERKNS0_6corpusE
libabigail.so.0:_ZN7abigail2ir29maybe_compare_as_member_declsERKNS0_9decl_baseES3_PNS0_11change_kindE
libabigail.so.0:_ZN7abigail2ir29maybe_update_types_lookup_mapERKSt10shared_ptrINS0_10class_declEE
libabigail.so.0:_ZN7abigail2ir29maybe_update_types_lookup_mapERKSt10shared_ptrINS0_10union_declEE
libabigail.so.0:_ZN7abigail2ir29maybe_update_types_lookup_mapERKSt10shared_ptrINS0_12typedef_declEE
libabigail.so.0:_ZN7abigail2ir29maybe_update_types_lookup_mapERKSt10shared_ptrINS0_14array_type_defEE
libabigail.so.0:_ZN7abigail2ir29maybe_update_types_lookup_mapERKSt10shared_ptrINS0_14enum_type_declEE
libabigail.so.0:_ZN7abigail2ir29maybe_update_types_lookup_mapERKSt10shared_ptrINS0_16pointer_type_defEE
libabigail.so.0:_ZN7abigail2ir29maybe_update_types_lookup_mapERKSt10shared_ptrINS0_18qualified_type_defEE
libabigail.so.0:_ZN7abigail2ir29maybe_update_types_lookup_mapERKSt10shared_ptrINS0_18reference_type_defEE
libabigail.so.0:_ZN7abigail2ir29maybe_update_types_lookup_mapERKSt10shared_ptrINS0_9decl_baseEE
libabigail.so.0:_ZN7abigail2ir29maybe_update_types_lookup_mapERKSt10shared_ptrINS0_9type_baseEE
libabigail.so.0:_ZN7abigail2ir29maybe_update_types_lookup_mapERKSt10shared_ptrINS0_9type_declEE
libabigail.so.0:_ZN7abigail2ir30compute_aliases_for_elf_symbolERKNS0_10elf_symbolERKSt13unordered_mapINSt7__cxx1112basic_stringIcSt11char_traitsIcESaIcEEESt6vectorISt10shared_ptrIS1_ESaISD_EESt4hashISA_ESt8equal_toISA_ESaISt4pairIKSA_SF_EEERSF_
libabigail.so.0:_ZN7abigail2ir30data_member_has_anonymous_typeEPKNS0_8var_declE
libabigail.so.0:_ZN7abigail2ir30data_member_has_anonymous_typeERKNS0_8var_declE
libabigail.so.0:_ZN7abigail2ir30data_member_has_anonymous_typeERKSt10shared_ptrINS0_8var_declEE
libabigail.so.0:_ZN7abigail2ir30get_member_function_is_virtualEPKNS0_13function_declE
libabigail.so.0:_ZN7abigail2ir30get_member_function_is_virtualERKNS0_13function_declE
libabigail.so.0:_ZN7abigail2ir30get_member_function_is_virtualERKSt10shared_ptrINS0_13function_declEE
libabigail.so.0:_ZN7abigail2ir30lookup_basic_type_per_locationERKNS_15interned_stringERKNS0_6corpusE
libabigail.so.0:_ZN7abigail2ir30lookup_basic_type_per_locationERKNSt7__cxx1112basic_stringIcSt11char_traitsIcESaIcEEERKNS0_6corpusE
libabigail.so.0:_ZN7abigail2ir30lookup_class_type_per_locationERKNS_15interned_stringERKNS0_6corpusE
libabigail.so.0:_ZN7abigail2ir30lookup_class_type_per_locationERKNSt7__cxx1112basic_stringIcSt11char_traitsIcESaIcEEERKNS0_6corpusE
libabigail.so.0:_ZN7abigail2ir30lookup_union_type_per_locationERKNS_15interned_stringERKNS0_6corpusE
libabigail.so.0:_ZN7abigail2ir30lookup_union_type_per_locationERKNSt7__cxx1112basic_stringIcSt11char_traitsIcESaIcEEERKNS0_6corpusE
libabigail.so.0:_ZN7abigail2ir30peel_pointer_or_reference_typeEPKNS0_9type_baseEb
libabigail.so.0:_ZN7abigail2ir30peel_qualified_or_typedef_typeEPKNS0_9type_baseE
libabigail.so.0:_ZN7abigail2ir30peel_qualified_or_typedef_typeERKSt10shared_ptrINS0_9type_baseEE
libabigail.so.0:_ZN7abigail2ir30set_member_function_is_virtualERKSt10shared_ptrINS0_13function_declEEb
libabigail.so.0:_ZN7abigail2ir30set_member_function_is_virtualERNS0_13function_declEb
libabigail.so.0:_ZN7abigail2ir31get_absolute_data_member_offsetERKNS0_8var_declE
libabigail.so.0:_ZN7abigail2ir31string_to_elf_symbol_visibilityERKNSt7__cxx1112basic_stringIcSt11char_traitsIcESaIcEEERNS0_10elf_symbol10visibilityE
libabigail.so.0:_ZN7abigail2ir32lookup_class_type_through_scopesERKNSt7__cxx114listINS1_12basic_stringIcSt11char_traitsIcESaIcEEESaIS7_EEERKNS0_16translation_unitE
libabigail.so.0:_ZN7abigail2ir32lookup_typedef_type_per_locationERKNS_15interned_stringERKNS0_6corpusE
libabigail.so.0:_ZN7abigail2ir32lookup_typedef_type_per_locationERKNSt7__cxx1112basic_stringIcSt11char_traitsIcESaIcEEERKNS0_6corpusE
libabigail.so.0:_ZN7abigail2ir32scope_anonymous_or_typedef_namedERKNS0_9decl_baseE
libabigail.so.0:_ZN7abigail2ir33get_member_function_vtable_offsetERKNS0_13function_declE
libabigail.so.0:_ZN7abigail2ir33get_member_function_vtable_offsetERKSt10shared_ptrINS0_13function_declEE
libabigail.so.0:_ZN7abigail2ir33is_template_parm_composition_typeESt10shared_ptrINS0_9decl_baseEE
libabigail.so.0:_ZN7abigail2ir33look_through_no_op_qualified_typeERKSt10shared_ptrINS0_9type_baseEE
libabigail.so.0:_ZN7abigail2ir33lookup_class_typedef_or_enum_typeERKNSt7__cxx1112basic_stringIcSt11char_traitsIcESaIcEEERKNS0_6corpusE
libabigail.so.0:_ZN7abigail2ir33lookup_type_from_translation_unitERKNSt7__cxx1112basic_stringIcSt11char_traitsIcESaIcEEES8_RKNS0_6corpusE
libabigail.so.0:_ZN7abigail2ir33member_function_has_vtable_offsetERKNS0_13function_declE
libabigail.so.0:_ZN7abigail2ir33set_member_function_vtable_offsetERKSt10shared_ptrINS0_13function_declEEl
libabigail.so.0:_ZN7abigail2ir34get_artificial_or_natural_locationEPKNS0_9decl_baseE
libabigail.so.0:_ZN7abigail2ir34get_natural_or_artificial_locationEPKNS0_9decl_baseE
libabigail.so.0:_ZN7abigail2ir34type_has_non_canonicalized_subtypeESt10shared_ptrINS0_9type_baseEE
libabigail.so.0:_ZN7abigail2ir35get_first_non_anonymous_data_memberESt10shared_ptrINS0_8var_declEE
libabigail.so.0:_ZN7abigail2ir35string_to_translation_unit_languageERKNSt7__cxx1112basic_stringIcSt11char_traitsIcESaIcEEE
libabigail.so.0:_ZN7abigail2ir35translation_unit_language_to_stringB5cxx11ENS0_16translation_unit8languageE
libabigail.so.0:_ZN7abigail2ir37get_string_representation_of_cv_qualsB5cxx11ENS0_18qualified_type_def2CVE
libabigail.so.0:_ZN7abigail2ir37lookup_type_through_translation_unitsERKNSt7__cxx1112basic_stringIcSt11char_traitsIcESaIcEEERKNS0_6corpusE
libabigail.so.0:_ZN7abigail2ir37synthesize_type_from_translation_unitERKSt10shared_ptrINS0_9type_baseEERNS0_16translation_unitE
libabigail.so.0:_ZN7abigail2ir38get_class_or_union_flat_representationEPKNS0_14class_or_unionERKNSt7__cxx1112basic_stringIcSt11char_traitsIcESaIcEEEbbb
libabigail.so.0:_ZN7abigail2ir38get_class_or_union_flat_representationERKNS0_14class_or_unionERKNSt7__cxx1112basic_stringIcSt11char_traitsIcESaIcEEEbbb
libabigail.so.0:_ZN7abigail2ir38get_class_or_union_flat_representationERKSt10shared_ptrINS0_14class_or_unionEERKNSt7__cxx1112basic_stringIcSt11char_traitsIcESaIcEEEbbb
libabigail.so.0:_ZN7abigail2ir38peel_typedef_pointer_or_reference_typeEPKNS0_9type_baseE
libabigail.so.0:_ZN7abigail2ir38peel_typedef_pointer_or_reference_typeESt10shared_ptrINS0_9type_baseEE
libabigail.so.0:_ZN7abigail2ir39anonymous_data_member_to_class_or_unionEPKNS0_8var_declE
libabigail.so.0:_ZN7abigail2ir39anonymous_data_member_to_class_or_unionERKSt10shared_ptrINS0_8var_declEE
libabigail.so.0:_ZN7abigail2ir39is_declaration_only_class_or_union_typeEPKNS0_9type_baseE
libabigail.so.0:_ZN7abigail2ir43find_data_member_from_anonymous_data_memberERKSt10shared_ptrINS0_8var_declEERKNSt7__cxx1112basic_stringIcSt11char_traitsIcESaIcEEE
libabigail.so.0:_ZN7abigail2ir46synthesize_function_type_from_translation_unitERKNS0_13function_typeERNS0_16translation_unitE
libabigail.so.0:_ZN7abigail2ir5debugEPKNS0_17type_or_decl_baseE
libabigail.so.0:_ZN7abigail2ir5debugEPKNS0_9decl_baseE
libabigail.so.0:_ZN7abigail2ir5debugEPKNS0_9type_baseE
libabigail.so.0:_ZN7abigail2ir6corpus10get_sonameB5cxx11Ev
libabigail.so.0:_ZN7abigail2ir6corpus10set_neededERKSt6vectorINSt7__cxx1112basic_stringIcSt11char_traitsIcESaIcEEESaIS8_EE
libabigail.so.0:_ZN7abigail2ir6corpus10set_originENS1_6originE
libabigail.so.0:_ZN7abigail2ir6corpus10set_sonameERKNSt7__cxx1112basic_stringIcSt11char_traitsIcESaIcEEE
libabigail.so.0:_ZN7abigail2ir6corpus10set_symtabESt10shared_ptrINS_13symtab_reader6symtabEE
libabigail.so.0:_ZN7abigail2ir6corpus14sort_functionsEv
libabigail.so.0:_ZN7abigail2ir6corpus14sort_variablesEv
libabigail.so.0:_ZN7abigail2ir6corpus15get_environmentEv
libabigail.so.0:_ZN7abigail2ir6corpus15set_environmentEPNS0_11environmentE
libabigail.so.0:_ZN7abigail2ir6corpus19init_format_versionEv
libabigail.so.0:_ZN7abigail2ir6corpus20get_type_per_loc_mapEv
libabigail.so.0:_ZN7abigail2ir6corpus21set_architecture_nameERKNSt7__cxx1112basic_stringIcSt11char_traitsIcESaIcEEE
libabigail.so.0:_ZN7abigail2ir6corpus22drop_translation_unitsEv
libabigail.so.0:_ZN7abigail2ir6corpus22exported_decls_builder18exported_functionsEv
libabigail.so.0:_ZN7abigail2ir6corpus22exported_decls_builder18exported_variablesEv
libabigail.so.0:_ZN7abigail2ir6corpus22exported_decls_builder28maybe_add_fn_to_exported_fnsEPNS0_13function_declE
libabigail.so.0:_ZN7abigail2ir6corpus22exported_decls_builder30maybe_add_var_to_exported_varsEPNS0_8var_declE
libabigail.so.0:_ZN7abigail2ir6corpus22exported_decls_builderC1ERSt6vectorIPNS0_13function_declESaIS5_EERS3_IPNS0_8var_declESaISA_EERS3_INSt7__cxx1112basic_stringIcSt11char_traitsIcESaIcEEESaISJ_EESM_SM_SM_SM_SM_
libabigail.so.0:_ZN7abigail2ir6corpus22exported_decls_builderC2ERSt6vectorIPNS0_13function_declESaIS5_EERS3_IPNS0_8var_declESaISA_EERS3_INSt7__cxx1112basic_stringIcSt11char_traitsIcESaIcEEESaISJ_EESM_SM_SM_SM_SM_
libabigail.so.0:_ZN7abigail2ir6corpus26get_sym_ids_of_fns_to_keepB5cxx11Ev
libabigail.so.0:_ZN7abigail2ir6corpus27get_sym_ids_of_vars_to_keepB5cxx11Ev
libabigail.so.0:_ZN7abigail2ir6corpus30maybe_drop_some_exported_declsEv
libabigail.so.0:_ZN7abigail2ir6corpus31set_format_major_version_numberERKNSt7__cxx1112basic_stringIcSt11char_traitsIcESaIcEEE
libabigail.so.0:_ZN7abigail2ir6corpus31set_format_minor_version_numberERKNSt7__cxx1112basic_stringIcSt11char_traitsIcESaIcEEE
libabigail.so.0:_ZN7abigail2ir6corpus33get_regex_patterns_of_fns_to_keepB5cxx11Ev
libabigail.so.0:_ZN7abigail2ir6corpus34get_regex_patterns_of_vars_to_keepB5cxx11Ev
libabigail.so.0:_ZN7abigail2ir6corpus37get_regex_patterns_of_fns_to_suppressB5cxx11Ev
libabigail.so.0:_ZN7abigail2ir6corpus38get_regex_patterns_of_vars_to_suppressB5cxx11Ev
libabigail.so.0:_ZN7abigail2ir6corpus3addESt10shared_ptrINS0_16translation_unitEE
libabigail.so.0:_ZN7abigail2ir6corpus47record_type_as_reachable_from_public_interfacesERKNS0_9type_baseE
libabigail.so.0:_ZN7abigail2ir6corpus4priv39get_public_types_pretty_representationsEv
libabigail.so.0:_ZN7abigail2ir6corpus4priv9get_typesEv
libabigail.so.0:_ZN7abigail2ir6corpus4privD1Ev
libabigail.so.0:_ZN7abigail2ir6corpus4privD2Ev
libabigail.so.0:_ZN7abigail2ir6corpus57recording_types_reachable_from_public_interface_supportedEv
libabigail.so.0:_ZN7abigail2ir6corpus8set_pathERKNSt7__cxx1112basic_stringIcSt11char_traitsIcESaIcEEE
libabigail.so.0:_ZN7abigail2ir6corpus9get_groupEv
libabigail.so.0:_ZN7abigail2ir6corpus9get_typesEv
libabigail.so.0:_ZN7abigail2ir6corpus9set_groupEPNS0_12corpus_groupE
libabigail.so.0:_ZN7abigail2ir6corpusC1EPNS0_11environmentERKNSt7__cxx1112basic_stringIcSt11char_traitsIcESaIcEEE
libabigail.so.0:_ZN7abigail2ir6corpusC2EPNS0_11environmentERKNSt7__cxx1112basic_stringIcSt11char_traitsIcESaIcEEE
libabigail.so.0:_ZN7abigail2ir6corpusD0Ev
libabigail.so.0:_ZN7abigail2ir6corpusD1Ev
libabigail.so.0:_ZN7abigail2ir6corpusD2Ev
libabigail.so.0:_ZN7abigail2ir6equalsERKNS0_10class_decl9base_specES4_PNS0_11change_kindE
libabigail.so.0:_ZN7abigail2ir6equalsERKNS0_10class_declES3_PNS0_11change_kindE
libabigail.so.0:_ZN7abigail2ir6equalsERKNS0_10scope_declES3_PNS0_11change_kindE
libabigail.so.0:_ZN7abigail2ir6equalsERKNS0_10union_declES3_PNS0_11change_kindE
libabigail.so.0:_ZN7abigail2ir6equalsERKNS0_12typedef_declES3_PNS0_11change_kindE
libabigail.so.0:_ZN7abigail2ir6equalsERKNS0_13function_decl9parameterES4_PNS0_11change_kindE
libabigail.so.0:_ZN7abigail2ir6equalsERKNS0_13function_declES3_PNS0_11change_kindE
libabigail.so.0:_ZN7abigail2ir6equalsERKNS0_13function_typeES3_PNS0_11change_kindE
libabigail.so.0:_ZN7abigail2ir6equalsERKNS0_14array_type_defES3_PNS0_11change_kindE
libabigail.so.0:_ZN7abigail2ir6equalsERKNS0_14enum_type_declES3_PNS0_11change_kindE
libabigail.so.0:_ZN7abigail2ir6equalsERKNS0_15scope_type_declES3_PNS0_11change_kindE
libabigail.so.0:_ZN7abigail2ir6equalsERKNS0_16pointer_type_defES3_PNS0_11change_kindE
libabigail.so.0:_ZN7abigail2ir6equalsERKNS0_18qualified_type_defES3_PNS0_11change_kindE
libabigail.so.0:_ZN7abigail2ir6equalsERKNS0_18reference_type_defES3_PNS0_11change_kindE
libabigail.so.0:_ZN7abigail2ir6equalsERKNS0_8var_declES3_PNS0_11change_kindE
libabigail.so.0:_ZN7abigail2ir6equalsERKNS0_9decl_baseES3_PNS0_11change_kindE
libabigail.so.0:_ZN7abigail2ir6equalsERKNS0_9type_baseES3_PNS0_11change_kindE
libabigail.so.0:_ZN7abigail2ir6equalsERKNS0_9type_declES3_PNS0_11change_kindE
libabigail.so.0:_ZN7abigail2ir7is_declEPKNS0_17type_or_decl_baseE
libabigail.so.0:_ZN7abigail2ir7is_declERKSt10shared_ptrINS0_17type_or_decl_baseEE
libabigail.so.0:_ZN7abigail2ir7is_typeEPKNS0_17type_or_decl_baseE
libabigail.so.0:_ZN7abigail2ir7is_typeERKNS0_17type_or_decl_baseE
libabigail.so.0:_ZN7abigail2ir7is_typeERKSt10shared_ptrINS0_17type_or_decl_baseEE
libabigail.so.0:_ZN7abigail2ir8get_nameB5cxx11EPKNS0_17type_or_decl_baseEb
libabigail.so.0:_ZN7abigail2ir8get_nameB5cxx11ERKSt10shared_ptrINS0_17type_or_decl_baseEEb
libabigail.so.0:_ZN7abigail2ir8var_decl10set_symbolERKSt10shared_ptrINS0_10elf_symbolEE
libabigail.so.0:_ZN7abigail2ir8var_decl11set_bindingENS0_9decl_base7bindingE
libabigail.so.0:_ZN7abigail2ir8var_decl8traverseERNS0_15ir_node_visitorE
libabigail.so.0:_ZN7abigail2ir8var_decl9set_scopeEPNS0_10scope_declE
libabigail.so.0:_ZN7abigail2ir8var_declC1ERKNSt7__cxx1112basic_stringIcSt11char_traitsIcESaIcEEESt10shared_ptrINS0_9type_baseEERKNS0_8locationES9_NS0_9decl_base10visibilityENSG_7bindingE
libabigail.so.0:_ZN7abigail2ir8var_declC2ERKNSt7__cxx1112basic_stringIcSt11char_traitsIcESaIcEEESt10shared_ptrINS0_9type_baseEERKNS0_8locationES9_NS0_9decl_base10visibilityENSG_7bindingE
libabigail.so.0:_ZN7abigail2ir8var_declD0Ev
libabigail.so.0:_ZN7abigail2ir8var_declD1Ev
libabigail.so.0:_ZN7abigail2ir8var_declD2Ev
libabigail.so.0:_ZN7abigail2ir9decl_base12set_locationERKNS0_8locationE
libabigail.so.0:_ZN7abigail2ir9decl_base14set_visibilityENS1_10visibilityE
libabigail.so.0:_ZN7abigail2ir9decl_base15get_context_relEv
libabigail.so.0:_ZN7abigail2ir9decl_base15set_context_relEPNS0_11context_relE
libabigail.so.0:_ZN7abigail2ir9decl_base16set_is_anonymousEb
libabigail.so.0:_ZN7abigail2ir9decl_base16set_linkage_nameERKNSt7__cxx1112basic_stringIcSt11char_traitsIcESaIcEEE
libabigail.so.0:_ZN7abigail2ir9decl_base18set_naming_typedefERKSt10shared_ptrINS0_12typedef_declEE
libabigail.so.0:_ZN7abigail2ir9decl_base20clear_qualified_nameEv
libabigail.so.0:_ZN7abigail2ir9decl_base23set_earlier_declarationERKSt10shared_ptrIS1_E
libabigail.so.0:_ZN7abigail2ir9decl_base23set_is_declaration_onlyEb
libabigail.so.0:_ZN7abigail2ir9decl_base29set_definition_of_declarationERKSt10shared_ptrIS1_E
libabigail.so.0:_ZN7abigail2ir9decl_base29set_is_in_public_symbol_tableEb
libabigail.so.0:_ZN7abigail2ir9decl_base8set_nameERKNSt7__cxx1112basic_stringIcSt11char_traitsIcESaIcEEE
libabigail.so.0:_ZN7abigail2ir9decl_base8traverseERNS0_15ir_node_visitorE
libabigail.so.0:_ZN7abigail2ir9decl_base9set_scopeEPNS0_10scope_declE
libabigail.so.0:_ZN7abigail2ir9decl_baseC1EPKNS0_11environmentERKNS0_8locationE
libabigail.so.0:_ZN7abigail2ir9decl_baseC1EPKNS0_11environmentERKNS_15interned_stringERKNS0_8locationES7_NS1_10visibilityE
libabigail.so.0:_ZN7abigail2ir9decl_baseC1EPKNS0_11environmentERKNSt7__cxx1112basic_stringIcSt11char_traitsIcESaIcEEERKNS0_8locationESC_NS1_10visibilityE
libabigail.so.0:_ZN7abigail2ir9decl_baseC1ERKS1_
libabigail.so.0:_ZN7abigail2ir9decl_baseC2EPKNS0_11environmentERKNS0_8locationE
libabigail.so.0:_ZN7abigail2ir9decl_baseC2EPKNS0_11environmentERKNS_15interned_stringERKNS0_8locationES7_NS1_10visibilityE
libabigail.so.0:_ZN7abigail2ir9decl_baseC2EPKNS0_11environmentERKNSt7__cxx1112basic_stringIcSt11char_traitsIcESaIcEEERKNS0_8locationESC_NS1_10visibilityE
libabigail.so.0:_ZN7abigail2ir9decl_baseC2ERKS1_
libabigail.so.0:_ZN7abigail2ir9decl_baseD0Ev
libabigail.so.0:_ZN7abigail2ir9decl_baseD1Ev
libabigail.so.0:_ZN7abigail2ir9decl_baseD2Ev
libabigail.so.0:_ZN7abigail2ir9has_scopeERKNS0_9decl_baseE
libabigail.so.0:_ZN7abigail2ir9has_scopeESt10shared_ptrINS0_9decl_baseEE
libabigail.so.0:_ZN7abigail2ir9hash_typeEPKNS0_9type_baseE
libabigail.so.0:_ZN7abigail2ir9type_base16set_size_in_bitsEm
libabigail.so.0:_ZN7abigail2ir9type_base21on_canonical_type_setEv
libabigail.so.0:_ZN7abigail2ir9type_base21set_alignment_in_bitsEm
libabigail.so.0:_ZN7abigail2ir9type_base22get_canonical_type_forESt10shared_ptrIS1_E
libabigail.so.0:_ZN7abigail2ir9type_base8traverseERNS0_15ir_node_visitorE
libabigail.so.0:_ZN7abigail2ir9type_baseC1EPKNS0_11environmentEmm
libabigail.so.0:_ZN7abigail2ir9type_baseC2EPKNS0_11environmentEmm
libabigail.so.0:_ZN7abigail2ir9type_baseD0Ev
libabigail.so.0:_ZN7abigail2ir9type_baseD1Ev
libabigail.so.0:_ZN7abigail2ir9type_baseD2Ev
libabigail.so.0:_ZN7abigail2ir9type_decl8traverseERNS0_15ir_node_visitorE
libabigail.so.0:_ZN7abigail2ir9type_declC1EPKNS0_11environmentERKNSt7__cxx1112basic_stringIcSt11char_traitsIcESaIcEEEmmRKNS0_8locationESC_NS0_9decl_base10visibilityE
libabigail.so.0:_ZN7abigail2ir9type_declC2EPKNS0_11environmentERKNSt7__cxx1112basic_stringIcSt11char_traitsIcESaIcEEEmmRKNS0_8locationESC_NS0_9decl_base10visibilityE
libabigail.so.0:_ZN7abigail2ir9type_declD0Ev
libabigail.so.0:_ZN7abigail2ir9type_declD1Ev
libabigail.so.0:_ZN7abigail2ir9type_declD2Ev
libabigail.so.0:_ZN7abigail2ir9type_maps10enum_typesEv
libabigail.so.0:_ZN7abigail2ir9type_maps11array_typesEv
libabigail.so.0:_ZN7abigail2ir9type_maps11basic_typesEv
libabigail.so.0:_ZN7abigail2ir9type_maps11class_typesEv
libabigail.so.0:_ZN7abigail2ir9type_maps11union_typesEv
libabigail.so.0:_ZN7abigail2ir9type_maps13pointer_typesEv
libabigail.so.0:_ZN7abigail2ir9type_maps13typedef_typesEv
libabigail.so.0:_ZN7abigail2ir9type_maps14function_typesEv
libabigail.so.0:_ZN7abigail2ir9type_maps14subrange_typesEv
libabigail.so.0:_ZN7abigail2ir9type_maps15qualified_typesEv
libabigail.so.0:_ZN7abigail2ir9type_maps15reference_typesEv
libabigail.so.0:_ZN7abigail2ir9type_mapsC1Ev
libabigail.so.0:_ZN7abigail2ir9type_mapsC2Ev
libabigail.so.0:_ZN7abigail2ir9type_mapsD1Ev
libabigail.so.0:_ZN7abigail2ir9type_mapsD2Ev
libabigail.so.0:_ZN7abigail2iraNERNS0_11change_kindES1_
libabigail.so.0:_ZN7abigail2iraNERNS0_17type_or_decl_base17type_or_decl_kindES2_
libabigail.so.0:_ZN7abigail2iranENS0_11change_kindES1_
libabigail.so.0:_ZN7abigail2iranENS0_17type_or_decl_base17type_or_decl_kindES2_
libabigail.so.0:_ZN7abigail2iranENS0_18qualified_type_def2CVES2_
libabigail.so.0:_ZN7abigail2ircoENS0_18qualified_type_def2CVE
libabigail.so.0:_ZN7abigail2ireqERKNS0_17type_or_decl_baseES3_
libabigail.so.0:_ZN7abigail2ireqERKSt10shared_ptrINS0_10class_decl9base_specEES6_
libabigail.so.0:_ZN7abigail2ireqERKSt10shared_ptrINS0_10class_declEES5_
libabigail.so.0:_ZN7abigail2ireqERKSt10shared_ptrINS0_10elf_symbolEES5_
libabigail.so.0:_ZN7abigail2ireqERKSt10shared_ptrINS0_10scope_declEES5_
libabigail.so.0:_ZN7abigail2ireqERKSt10shared_ptrINS0_10union_declEES5_
libabigail.so.0:_ZN7abigail2ireqERKSt10shared_ptrINS0_11method_declEES5_
libabigail.so.0:_ZN7abigail2ireqERKSt10shared_ptrINS0_13function_decl9parameterEES6_
libabigail.so.0:_ZN7abigail2ireqERKSt10shared_ptrINS0_13function_declEES5_
libabigail.so.0:_ZN7abigail2ireqERKSt10shared_ptrINS0_14class_or_unionEES5_
libabigail.so.0:_ZN7abigail2ireqERKSt10shared_ptrINS0_14enum_type_declEES5_
libabigail.so.0:_ZN7abigail2ireqERKSt10shared_ptrINS0_16pointer_type_defEES5_
libabigail.so.0:_ZN7abigail2ireqERKSt10shared_ptrINS0_16translation_unitEES5_
libabigail.so.0:_ZN7abigail2ireqERKSt10shared_ptrINS0_17type_or_decl_baseEES5_
libabigail.so.0:_ZN7abigail2ireqERKSt10shared_ptrINS0_18qualified_type_defEES5_
libabigail.so.0:_ZN7abigail2ireqERKSt10shared_ptrINS0_18reference_type_defEES5_
libabigail.so.0:_ZN7abigail2ireqERKSt10shared_ptrINS0_21member_class_templateEES5_
libabigail.so.0:_ZN7abigail2ireqERKSt10shared_ptrINS0_24member_function_templateEES5_
libabigail.so.0:_ZN7abigail2ireqERKSt10shared_ptrINS0_9decl_baseEES5_
libabigail.so.0:_ZN7abigail2ireqERKSt10shared_ptrINS0_9type_baseEES5_
libabigail.so.0:_ZN7abigail2ireqERKSt10shared_ptrINS0_9type_declEES5_
libabigail.so.0:_ZN7abigail2irlsERSoNS0_10elf_symbol10visibilityE
libabigail.so.0:_ZN7abigail2irlsERSoNS0_10elf_symbol4typeE
libabigail.so.0:_ZN7abigail2irlsERSoNS0_10elf_symbol7bindingE
libabigail.so.0:_ZN7abigail2irlsERSoNS0_16access_specifierE
libabigail.so.0:_ZN7abigail2irlsERSoNS0_18qualified_type_def2CVE
libabigail.so.0:_ZN7abigail2irlsERSoNS0_9decl_base10visibilityE
libabigail.so.0:_ZN7abigail2irlsERSoNS0_9decl_base7bindingE
libabigail.so.0:_ZN7abigail2irneERKSt10shared_ptrINS0_10class_decl9base_specEES6_
libabigail.so.0:_ZN7abigail2irneERKSt10shared_ptrINS0_10class_declEES5_
libabigail.so.0:_ZN7abigail2irneERKSt10shared_ptrINS0_10elf_symbolEES5_
libabigail.so.0:_ZN7abigail2irneERKSt10shared_ptrINS0_10scope_declEES5_
libabigail.so.0:_ZN7abigail2irneERKSt10shared_ptrINS0_10union_declEES5_
libabigail.so.0:_ZN7abigail2irneERKSt10shared_ptrINS0_11method_declEES5_
libabigail.so.0:_ZN7abigail2irneERKSt10shared_ptrINS0_13function_declEES5_
libabigail.so.0:_ZN7abigail2irneERKSt10shared_ptrINS0_14class_or_unionEES5_
libabigail.so.0:_ZN7abigail2irneERKSt10shared_ptrINS0_14enum_type_declEES5_
libabigail.so.0:_ZN7abigail2irneERKSt10shared_ptrINS0_16pointer_type_defEES5_
libabigail.so.0:_ZN7abigail2irneERKSt10shared_ptrINS0_16translation_unitEES5_
libabigail.so.0:_ZN7abigail2irneERKSt10shared_ptrINS0_17type_or_decl_baseEES5_
libabigail.so.0:_ZN7abigail2irneERKSt10shared_ptrINS0_18qualified_type_defEES5_
libabigail.so.0:_ZN7abigail2irneERKSt10shared_ptrINS0_18reference_type_defEES5_
libabigail.so.0:_ZN7abigail2irneERKSt10shared_ptrINS0_21member_class_templateEES5_
libabigail.so.0:_ZN7abigail2irneERKSt10shared_ptrINS0_24member_function_templateEES5_
libabigail.so.0:_ZN7abigail2irneERKSt10shared_ptrINS0_9decl_baseEES5_
libabigail.so.0:_ZN7abigail2irneERKSt10shared_ptrINS0_9type_baseEES5_
libabigail.so.0:_ZN7abigail2irneERKSt10shared_ptrINS0_9type_declEES5_
libabigail.so.0:_ZN7abigail2iroRERNS0_11change_kindES1_
libabigail.so.0:_ZN7abigail2iroRERNS0_17type_or_decl_base17type_or_decl_kindES2_
libabigail.so.0:_ZN7abigail2iroRERNS0_18qualified_type_def2CVES2_
libabigail.so.0:_ZN7abigail2irorENS0_11change_kindES1_
libabigail.so.0:_ZN7abigail2irorENS0_17type_or_decl_base17type_or_decl_kindES2_
libabigail.so.0:_ZN7abigail2irorENS0_18qualified_type_def2CVES2_
libabigail.so.0:_ZN7abigail3dot10add_parentERKNS_11parent_nodeE
libabigail.so.0:_ZN7abigail3dot13start_elementEv
libabigail.so.0:_ZN7abigail3dot14finish_elementEv
libabigail.so.0:_ZN7abigail3dot17add_child_to_nodeERKNS_10child_nodeERKNS_9node_baseE
libabigail.so.0:_ZN7abigail3dot5writeEv
libabigail.so.0:_ZN7abigail3dot8add_edgeERKNS_9node_baseES3_
libabigail.so.0:_ZN7abigail3dot8add_nodeERKNS_9node_baseE
libabigail.so.0:_ZN7abigail3dot9add_titleEv
libabigail.so.0:_ZN7abigail3ini11read_configERKNSt7__cxx1112basic_stringIcSt11char_traitsIcESaIcEEE
libabigail.so.0:_ZN7abigail3ini11read_configERKNSt7__cxx1112basic_stringIcSt11char_traitsIcESaIcEEERNS0_6configE
libabigail.so.0:_ZN7abigail3ini11read_configERSi
libabigail.so.0:_ZN7abigail3ini11read_configERSiRNS0_6configE
libabigail.so.0:_ZN7abigail3ini12write_configERKNS0_6configERKNSt7__cxx1112basic_stringIcSt11char_traitsIcESaIcEEE
libabigail.so.0:_ZN7abigail3ini12write_configERKNS0_6configERSo
libabigail.so.0:_ZN7abigail3ini13list_property9set_valueERKSt10shared_ptrINS0_19list_property_valueEE
libabigail.so.0:_ZN7abigail3ini13list_propertyC1ERKNSt7__cxx1112basic_stringIcSt11char_traitsIcESaIcEEERKSt10shared_ptrINS0_19list_property_valueEE
libabigail.so.0:_ZN7abigail3ini13list_propertyC1Ev
libabigail.so.0:_ZN7abigail3ini13list_propertyC2ERKNSt7__cxx1112basic_stringIcSt11char_traitsIcESaIcEEERKSt10shared_ptrINS0_19list_property_valueEE
libabigail.so.0:_ZN7abigail3ini13list_propertyC2Ev
libabigail.so.0:_ZN7abigail3ini13list_propertyD0Ev
libabigail.so.0:_ZN7abigail3ini13list_propertyD1Ev
libabigail.so.0:_ZN7abigail3ini13list_propertyD2Ev
libabigail.so.0:_ZN7abigail3ini13read_sectionsERKNSt7__cxx1112basic_stringIcSt11char_traitsIcESaIcEEERSt6vectorISt10shared_ptrINS0_6config7sectionEESaISD_EE
libabigail.so.0:_ZN7abigail3ini13read_sectionsERSiRSt6vectorISt10shared_ptrINS0_6config7sectionEESaIS6_EE
libabigail.so.0:_ZN7abigail3ini14property_valueC1ENS1_10value_kindE
libabigail.so.0:_ZN7abigail3ini14property_valueC1Ev
libabigail.so.0:_ZN7abigail3ini14property_valueC2ENS1_10value_kindE
libabigail.so.0:_ZN7abigail3ini14property_valueC2Ev
libabigail.so.0:_ZN7abigail3ini14property_valueD0Ev
libabigail.so.0:_ZN7abigail3ini14property_valueD1Ev
libabigail.so.0:_ZN7abigail3ini14property_valueD2Ev
libabigail.so.0:_ZN7abigail3ini14tuple_property9set_valueESt10shared_ptrINS0_20tuple_property_valueEE
libabigail.so.0:_ZN7abigail3ini14tuple_propertyC1ERKNSt7__cxx1112basic_stringIcSt11char_traitsIcESaIcEEESt10shared_ptrINS0_20tuple_property_valueEE
libabigail.so.0:_ZN7abigail3ini14tuple_propertyC1Ev
libabigail.so.0:_ZN7abigail3ini14tuple_propertyC2ERKNSt7__cxx1112basic_stringIcSt11char_traitsIcESaIcEEESt10shared_ptrINS0_20tuple_property_valueEE
libabigail.so.0:_ZN7abigail3ini14tuple_propertyC2Ev
libabigail.so.0:_ZN7abigail3ini14tuple_propertyD0Ev
libabigail.so.0:_ZN7abigail3ini14tuple_propertyD1Ev
libabigail.so.0:_ZN7abigail3ini14tuple_propertyD2Ev
libabigail.so.0:_ZN7abigail3ini14write_sectionsERKSt6vectorISt10shared_ptrINS0_6config7sectionEESaIS5_EERKNSt7__cxx1112basic_stringIcSt11char_traitsIcESaIcEEE
libabigail.so.0:_ZN7abigail3ini14write_sectionsERKSt6vectorISt10shared_ptrINS0_6config7sectionEESaIS5_EERSo
libabigail.so.0:_ZN7abigail3ini15simple_property9set_valueERKSt10shared_ptrINS0_21string_property_valueEE
libabigail.so.0:_ZN7abigail3ini15simple_propertyC1ERKNSt7__cxx1112basic_stringIcSt11char_traitsIcESaIcEEE
libabigail.so.0:_ZN7abigail3ini15simple_propertyC1ERKNSt7__cxx1112basic_stringIcSt11char_traitsIcESaIcEEERKSt10shared_ptrINS0_21string_property_valueEE
libabigail.so.0:_ZN7abigail3ini15simple_propertyC1Ev
libabigail.so.0:_ZN7abigail3ini15simple_propertyC2ERKNSt7__cxx1112basic_stringIcSt11char_traitsIcESaIcEEE
libabigail.so.0:_ZN7abigail3ini15simple_propertyC2ERKNSt7__cxx1112basic_stringIcSt11char_traitsIcESaIcEEERKSt10shared_ptrINS0_21string_property_valueEE
libabigail.so.0:_ZN7abigail3ini15simple_propertyC2Ev
libabigail.so.0:_ZN7abigail3ini15simple_propertyD0Ev
libabigail.so.0:_ZN7abigail3ini15simple_propertyD1Ev
libabigail.so.0:_ZN7abigail3ini15simple_propertyD2Ev
libabigail.so.0:_ZN7abigail3ini16is_list_propertyEPKNS0_8propertyE
libabigail.so.0:_ZN7abigail3ini16is_list_propertyESt10shared_ptrINS0_8propertyEE
libabigail.so.0:_ZN7abigail3ini17is_tuple_propertyEPKNS0_8propertyE
libabigail.so.0:_ZN7abigail3ini17is_tuple_propertyESt10shared_ptrINS0_8propertyEE
libabigail.so.0:_ZN7abigail3ini18function_call_expr13get_argumentsB5cxx11Ev
libabigail.so.0:_ZN7abigail3ini18function_call_exprC1ERKNSt7__cxx1112basic_stringIcSt11char_traitsIcESaIcEEERKSt6vectorIS7_SaIS7_EE
libabigail.so.0:_ZN7abigail3ini18function_call_exprC2ERKNSt7__cxx1112basic_stringIcSt11char_traitsIcESaIcEEERKSt6vectorIS7_SaIS7_EE
libabigail.so.0:_ZN7abigail3ini18is_simple_propertyEPKNS0_8propertyE
libabigail.so.0:_ZN7abigail3ini18is_simple_propertyESt10shared_ptrINS0_8propertyEE
libabigail.so.0:_ZN7abigail3ini19list_property_value11set_contentERKSt6vectorINSt7__cxx1112basic_stringIcSt11char_traitsIcESaIcEEESaIS8_EE
libabigail.so.0:_ZN7abigail3ini19list_property_valueC1ERKSt6vectorINSt7__cxx1112basic_stringIcSt11char_traitsIcESaIcEEESaIS8_EE
libabigail.so.0:_ZN7abigail3ini19list_property_valueC1Ev
libabigail.so.0:_ZN7abigail3ini19list_property_valueC2ERKSt6vectorINSt7__cxx1112basic_stringIcSt11char_traitsIcESaIcEEESaIS8_EE
libabigail.so.0:_ZN7abigail3ini19list_property_valueC2Ev
libabigail.so.0:_ZN7abigail3ini20tuple_property_value15get_value_itemsEv
libabigail.so.0:_ZN7abigail3ini20tuple_property_valueC1ERKSt6vectorISt10shared_ptrINS0_14property_valueEESaIS5_EE
libabigail.so.0:_ZN7abigail3ini20tuple_property_valueC2ERKSt6vectorISt10shared_ptrINS0_14property_valueEESaIS5_EE
libabigail.so.0:_ZN7abigail3ini20tuple_property_valueD0Ev
libabigail.so.0:_ZN7abigail3ini20tuple_property_valueD1Ev
libabigail.so.0:_ZN7abigail3ini20tuple_property_valueD2Ev
libabigail.so.0:_ZN7abigail3ini21string_property_value11set_contentERKNSt7__cxx1112basic_stringIcSt11char_traitsIcESaIcEEE
libabigail.so.0:_ZN7abigail3ini21string_property_valueC1ERKNSt7__cxx1112basic_stringIcSt11char_traitsIcESaIcEEE
libabigail.so.0:_ZN7abigail3ini21string_property_valueC1Ev
libabigail.so.0:_ZN7abigail3ini21string_property_valueC2ERKNSt7__cxx1112basic_stringIcSt11char_traitsIcESaIcEEE
libabigail.so.0:_ZN7abigail3ini21string_property_valueC2Ev
libabigail.so.0:_ZN7abigail3ini21string_property_valueD0Ev
libabigail.so.0:_ZN7abigail3ini21string_property_valueD1Ev
libabigail.so.0:_ZN7abigail3ini21string_property_valueD2Ev
libabigail.so.0:_ZN7abigail3ini22is_list_property_valueEPKNS0_14property_valueE
libabigail.so.0:_ZN7abigail3ini22is_list_property_valueERKSt10shared_ptrINS0_14property_valueEE
libabigail.so.0:_ZN7abigail3ini23is_tuple_property_valueEPKNS0_14property_valueE
libabigail.so.0:_ZN7abigail3ini23is_tuple_property_valueESt10shared_ptrINS0_14property_valueEE
libabigail.so.0:_ZN7abigail3ini23read_function_call_exprERKNSt7__cxx1112basic_stringIcSt11char_traitsIcESaIcEEE
libabigail.so.0:_ZN7abigail3ini23read_function_call_exprERKNSt7__cxx1112basic_stringIcSt11char_traitsIcESaIcEEERSt10shared_ptrINS0_18function_call_exprEE
libabigail.so.0:_ZN7abigail3ini23read_function_call_exprERSiRSt10shared_ptrINS0_18function_call_exprEE
libabigail.so.0:_ZN7abigail3ini24is_string_property_valueEPKNS0_14property_valueE
libabigail.so.0:_ZN7abigail3ini24is_string_property_valueESt10shared_ptrINS0_14property_valueEE
libabigail.so.0:_ZN7abigail3ini6config12set_sectionsERKSt6vectorISt10shared_ptrINS1_7sectionEESaIS5_EE
libabigail.so.0:_ZN7abigail3ini6config7section12add_propertyESt10shared_ptrINS0_8propertyEE
libabigail.so.0:_ZN7abigail3ini6config7section14set_propertiesERKSt6vectorISt10shared_ptrINS0_8propertyEESaIS6_EE
libabigail.so.0:_ZN7abigail3ini6config7sectionC1ERKNSt7__cxx1112basic_stringIcSt11char_traitsIcESaIcEEE
libabigail.so.0:_ZN7abigail3ini6config7sectionC1ERKNSt7__cxx1112basic_stringIcSt11char_traitsIcESaIcEEERKSt6vectorISt10shared_ptrINS0_8propertyEESaISE_EE
libabigail.so.0:_ZN7abigail3ini6config7sectionC2ERKNSt7__cxx1112basic_stringIcSt11char_traitsIcESaIcEEE
libabigail.so.0:_ZN7abigail3ini6config7sectionC2ERKNSt7__cxx1112basic_stringIcSt11char_traitsIcESaIcEEERKSt6vectorISt10shared_ptrINS0_8propertyEESaISE_EE
libabigail.so.0:_ZN7abigail3ini6config7sectionD0Ev
libabigail.so.0:_ZN7abigail3ini6config7sectionD1Ev
libabigail.so.0:_ZN7abigail3ini6config7sectionD2Ev
libabigail.so.0:_ZN7abigail3ini6config8set_pathERKNSt7__cxx1112basic_stringIcSt11char_traitsIcESaIcEEE
libabigail.so.0:_ZN7abigail3ini6configC1ERKNSt7__cxx1112basic_stringIcSt11char_traitsIcESaIcEEERSt6vectorISt10shared_ptrINS1_7sectionEESaISD_EE
libabigail.so.0:_ZN7abigail3ini6configC1Ev
libabigail.so.0:_ZN7abigail3ini6configC2ERKNSt7__cxx1112basic_stringIcSt11char_traitsIcESaIcEEERSt6vectorISt10shared_ptrINS1_7sectionEESaISD_EE
libabigail.so.0:_ZN7abigail3ini6configC2Ev
libabigail.so.0:_ZN7abigail3ini6configD0Ev
libabigail.so.0:_ZN7abigail3ini6configD1Ev
libabigail.so.0:_ZN7abigail3ini6configD2Ev
libabigail.so.0:_ZN7abigail3ini8property8set_nameERKNSt7__cxx1112basic_stringIcSt11char_traitsIcESaIcEEE
libabigail.so.0:_ZN7abigail3ini8propertyC1ERKNSt7__cxx1112basic_stringIcSt11char_traitsIcESaIcEEE
libabigail.so.0:_ZN7abigail3ini8propertyC1Ev
libabigail.so.0:_ZN7abigail3ini8propertyC2ERKNSt7__cxx1112basic_stringIcSt11char_traitsIcESaIcEEE
libabigail.so.0:_ZN7abigail3ini8propertyC2Ev
libabigail.so.0:_ZN7abigail3ini8propertyD0Ev
libabigail.so.0:_ZN7abigail3ini8propertyD1Ev
libabigail.so.0:_ZN7abigail3ini8propertyD2Ev
libabigail.so.0:_ZN7abigail3svg11add_y_labelEv
libabigail.so.0:_ZN7abigail3svg11add_y_linesEv
libabigail.so.0:_ZN7abigail3svg13start_elementEv
libabigail.so.0:_ZN7abigail3svg14finish_elementEv
libabigail.so.0:_ZN7abigail3svg5writeEv
libabigail.so.0:_ZN7abigail3svg9add_titleEv
libabigail.so.0:_ZN7abigail3svg9add_y_rowERKNS_3rowE
libabigail.so.0:_ZN7abigail3xml17escape_xml_stringERKNSt7__cxx1112basic_stringIcSt11char_traitsIcESaIcEEE
libabigail.so.0:_ZN7abigail3xml17escape_xml_stringERKNSt7__cxx1112basic_stringIcSt11char_traitsIcESaIcEEERS6_
libabigail.so.0:_ZN7abigail3xml18escape_xml_commentERKNSt7__cxx1112basic_stringIcSt11char_traitsIcESaIcEEE
libabigail.so.0:_ZN7abigail3xml18escape_xml_commentERKNSt7__cxx1112basic_stringIcSt11char_traitsIcESaIcEEERS6_
libabigail.so.0:_ZN7abigail3xml18get_xml_node_depthEP8_xmlNode
libabigail.so.0:_ZN7abigail3xml19unescape_xml_stringERKNSt7__cxx1112basic_stringIcSt11char_traitsIcESaIcEEE
libabigail.so.0:_ZN7abigail3xml19unescape_xml_stringERKNSt7__cxx1112basic_stringIcSt11char_traitsIcESaIcEEERS6_
libabigail.so.0:_ZN7abigail3xml20new_reader_from_fileERKNSt7__cxx1112basic_stringIcSt11char_traitsIcESaIcEEE
libabigail.so.0:_ZN7abigail3xml20unescape_xml_commentERKNSt7__cxx1112basic_stringIcSt11char_traitsIcESaIcEEE
libabigail.so.0:_ZN7abigail3xml20unescape_xml_commentERKNSt7__cxx1112basic_stringIcSt11char_traitsIcESaIcEEERS6_
libabigail.so.0:_ZN7abigail3xml22new_reader_from_bufferERKNSt7__cxx1112basic_stringIcSt11char_traitsIcESaIcEEE
libabigail.so.0:_ZN7abigail3xml23new_reader_from_istreamEPSi
libabigail.so.0:_ZN7abigail3xml23xml_char_sptr_to_stringESt10shared_ptrIhERNSt7__cxx1112basic_stringIcSt11char_traitsIcESaIcEEE
libabigail.so.0:_ZN7abigail5regex21generate_from_stringsERKSt6vectorINSt7__cxx1112basic_stringIcSt11char_traitsIcESaIcEEESaIS7_EE
libabigail.so.0:_ZN7abigail5regex5matchERKSt10shared_ptrI17re_pattern_bufferERKNSt7__cxx1112basic_stringIcSt11char_traitsIcESaIcEEE
libabigail.so.0:_ZN7abigail5regex7compileERKNSt7__cxx1112basic_stringIcSt11char_traitsIcESaIcEEE
libabigail.so.0:_ZN7abigail5regexlsERSoRKNS0_6escapeE
libabigail.so.0:_ZN7abigail5suppr16file_suppression15suppresses_fileERKNSt7__cxx1112basic_stringIcSt11char_traitsIcESaIcEEE
libabigail.so.0:_ZN7abigail5suppr16file_suppressionC1ERKNSt7__cxx1112basic_stringIcSt11char_traitsIcESaIcEEES9_S9_
libabigail.so.0:_ZN7abigail5suppr16file_suppressionC2ERKNSt7__cxx1112basic_stringIcSt11char_traitsIcESaIcEEES9_S9_
libabigail.so.0:_ZN7abigail5suppr16file_suppressionD0Ev
libabigail.so.0:_ZN7abigail5suppr16file_suppressionD1Ev
libabigail.so.0:_ZN7abigail5suppr16file_suppressionD2Ev
libabigail.so.0:_ZN7abigail5suppr16suppression_base17set_is_artificialEb
libabigail.so.0:_ZN7abigail5suppr16suppression_base20set_soname_regex_strERKNSt7__cxx1112basic_stringIcSt11char_traitsIcESaIcEEE
libabigail.so.0:_ZN7abigail5suppr16suppression_base23set_file_name_regex_strERKNSt7__cxx1112basic_stringIcSt11char_traitsIcESaIcEEE
libabigail.so.0:_ZN7abigail5suppr16suppression_base24set_soname_not_regex_strERKNSt7__cxx1112basic_stringIcSt11char_traitsIcESaIcEEE
libabigail.so.0:_ZN7abigail5suppr16suppression_base26set_drops_artifact_from_irEb
libabigail.so.0:_ZN7abigail5suppr16suppression_base27set_file_name_not_regex_strERKNSt7__cxx1112basic_stringIcSt11char_traitsIcESaIcEEE
libabigail.so.0:_ZN7abigail5suppr16suppression_base9set_labelERKNSt7__cxx1112basic_stringIcSt11char_traitsIcESaIcEEE
libabigail.so.0:_ZN7abigail5suppr16suppression_baseC1ERKNSt7__cxx1112basic_stringIcSt11char_traitsIcESaIcEEE
libabigail.so.0:_ZN7abigail5suppr16suppression_baseC1ERKNSt7__cxx1112basic_stringIcSt11char_traitsIcESaIcEEES9_S9_
libabigail.so.0:_ZN7abigail5suppr16suppression_baseC2ERKNSt7__cxx1112basic_stringIcSt11char_traitsIcESaIcEEE
libabigail.so.0:_ZN7abigail5suppr16suppression_baseC2ERKNSt7__cxx1112basic_stringIcSt11char_traitsIcESaIcEEES9_S9_
libabigail.so.0:_ZN7abigail5suppr16suppression_baseD0Ev
libabigail.so.0:_ZN7abigail5suppr16suppression_baseD1Ev
libabigail.so.0:_ZN7abigail5suppr16suppression_baseD2Ev
libabigail.so.0:_ZN7abigail5suppr16type_suppression13set_type_kindENS1_9type_kindE
libabigail.so.0:_ZN7abigail5suppr16type_suppression13set_type_nameERKNSt7__cxx1112basic_stringIcSt11char_traitsIcESaIcEEE
libabigail.so.0:_ZN7abigail5suppr16type_suppression14set_reach_kindENS1_10reach_kindE
libabigail.so.0:_ZN7abigail5suppr16type_suppression15insertion_range13eval_boundaryESt10shared_ptrINS2_8boundaryEES3_INS_2ir10class_declEERl
libabigail.so.0:_ZN7abigail5suppr16type_suppression15insertion_range16integer_boundaryC1Ei
libabigail.so.0:_ZN7abigail5suppr16type_suppression15insertion_range16integer_boundaryC2Ei
libabigail.so.0:_ZN7abigail5suppr16type_suppression15insertion_range16integer_boundaryD0Ev
libabigail.so.0:_ZN7abigail5suppr16type_suppression15insertion_range16integer_boundaryD1Ev
libabigail.so.0:_ZN7abigail5suppr16type_suppression15insertion_range16integer_boundaryD2Ev
libabigail.so.0:_ZN7abigail5suppr16type_suppression15insertion_range21fn_call_expr_boundaryC1ESt10shared_ptrINS_3ini18function_call_exprEE
libabigail.so.0:_ZN7abigail5suppr16type_suppression15insertion_range21fn_call_expr_boundaryC2ESt10shared_ptrINS_3ini18function_call_exprEE
libabigail.so.0:_ZN7abigail5suppr16type_suppression15insertion_range21fn_call_expr_boundaryD0Ev
libabigail.so.0:_ZN7abigail5suppr16type_suppression15insertion_range21fn_call_expr_boundaryD1Ev
libabigail.so.0:_ZN7abigail5suppr16type_suppression15insertion_range21fn_call_expr_boundaryD2Ev
libabigail.so.0:_ZN7abigail5suppr16type_suppression15insertion_range23create_integer_boundaryEi
libabigail.so.0:_ZN7abigail5suppr16type_suppression15insertion_range28create_fn_call_expr_boundaryERKNSt7__cxx1112basic_stringIcSt11char_traitsIcESaIcEEE
libabigail.so.0:_ZN7abigail5suppr16type_suppression15insertion_range28create_fn_call_expr_boundaryESt10shared_ptrINS_3ini18function_call_exprEE
libabigail.so.0:_ZN7abigail5suppr16type_suppression15insertion_range8boundaryC1Ev
libabigail.so.0:_ZN7abigail5suppr16type_suppression15insertion_range8boundaryC2Ev
libabigail.so.0:_ZN7abigail5suppr16type_suppression15insertion_range8boundaryD0Ev
libabigail.so.0:_ZN7abigail5suppr16type_suppression15insertion_range8boundaryD1Ev
libabigail.so.0:_ZN7abigail5suppr16type_suppression15insertion_range8boundaryD2Ev
libabigail.so.0:_ZN7abigail5suppr16type_suppression15insertion_rangeC1ESt10shared_ptrINS2_8boundaryEES5_
libabigail.so.0:_ZN7abigail5suppr16type_suppression15insertion_rangeC1Ev
libabigail.so.0:_ZN7abigail5suppr16type_suppression15insertion_rangeC2ESt10shared_ptrINS2_8boundaryEES5_
libabigail.so.0:_ZN7abigail5suppr16type_suppression15insertion_rangeC2Ev
libabigail.so.0:_ZN7abigail5suppr16type_suppression22set_consider_type_kindEb
libabigail.so.0:_ZN7abigail5suppr16type_suppression23set_consider_reach_kindEb
libabigail.so.0:_ZN7abigail5suppr16type_suppression23set_type_name_regex_strERKNSt7__cxx1112basic_stringIcSt11char_traitsIcESaIcEEE
libabigail.so.0:_ZN7abigail5suppr16type_suppression27set_type_name_not_regex_strERKNSt7__cxx1112basic_stringIcSt11char_traitsIcESaIcEEE
libabigail.so.0:_ZN7abigail5suppr16type_suppression28get_source_locations_to_keepB5cxx11Ev
libabigail.so.0:_ZN7abigail5suppr16type_suppression28set_changed_enumerator_namesERKSt6vectorINSt7__cxx1112basic_stringIcSt11char_traitsIcESaIcEEESaIS8_EE
libabigail.so.0:_ZN7abigail5suppr16type_suppression28set_source_locations_to_keepERKSt13unordered_setINSt7__cxx1112basic_stringIcSt11char_traitsIcESaIcEEESt4hashIS8_ESt8equal_toIS8_ESaIS8_EE
libabigail.so.0:_ZN7abigail5suppr16type_suppression32get_data_member_insertion_rangesEv
libabigail.so.0:_ZN7abigail5suppr16type_suppression32set_data_member_insertion_rangesERKSt6vectorISt10shared_ptrINS1_15insertion_rangeEESaIS5_EE
libabigail.so.0:_ZN7abigail5suppr16type_suppression37set_source_location_to_keep_regex_strERKNSt7__cxx1112basic_stringIcSt11char_traitsIcESaIcEEE
libabigail.so.0:_ZN7abigail5suppr16type_suppressionC1ERKNSt7__cxx1112basic_stringIcSt11char_traitsIcESaIcEEES9_S9_
libabigail.so.0:_ZN7abigail5suppr16type_suppressionC2ERKNSt7__cxx1112basic_stringIcSt11char_traitsIcESaIcEEES9_S9_
libabigail.so.0:_ZN7abigail5suppr16type_suppressionD0Ev
libabigail.so.0:_ZN7abigail5suppr16type_suppressionD1Ev
libabigail.so.0:_ZN7abigail5suppr16type_suppressionD2Ev
libabigail.so.0:_ZN7abigail5suppr17read_suppressionsERKNSt7__cxx1112basic_stringIcSt11char_traitsIcESaIcEEERSt6vectorISt10shared_ptrINS0_16suppression_baseEESaISC_EE
libabigail.so.0:_ZN7abigail5suppr17read_suppressionsERSiRSt6vectorISt10shared_ptrINS0_16suppression_baseEESaIS5_EE
libabigail.so.0:_ZN7abigail5suppr18file_is_suppressedERKNSt7__cxx1112basic_stringIcSt11char_traitsIcESaIcEEERKSt6vectorISt10shared_ptrINS0_16suppression_baseEESaISC_EE
libabigail.so.0:_ZN7abigail5suppr19is_file_suppressionESt10shared_ptrINS0_16suppression_baseEE
libabigail.so.0:_ZN7abigail5suppr19is_integer_boundaryESt10shared_ptrINS0_16type_suppression15insertion_range8boundaryEE
libabigail.so.0:_ZN7abigail5suppr19is_type_suppressionESt10shared_ptrINS0_16suppression_baseEE
libabigail.so.0:_ZN7abigail5suppr20function_suppression14parameter_spec23set_parameter_type_nameERKNSt7__cxx1112basic_stringIcSt11char_traitsIcESaIcEEE
libabigail.so.0:_ZN7abigail5suppr20function_suppression14parameter_spec33set_parameter_type_name_regex_strERKNSt7__cxx1112basic_stringIcSt11char_traitsIcESaIcEEE
libabigail.so.0:_ZN7abigail5suppr20function_suppression14parameter_spec9set_indexEm
libabigail.so.0:_ZN7abigail5suppr20function_suppression14parameter_specC1EmRKNSt7__cxx1112basic_stringIcSt11char_traitsIcESaIcEEESA_
libabigail.so.0:_ZN7abigail5suppr20function_suppression14parameter_specC2EmRKNSt7__cxx1112basic_stringIcSt11char_traitsIcESaIcEEESA_
libabigail.so.0:_ZN7abigail5suppr20function_suppression15set_change_kindENS1_11change_kindE
libabigail.so.0:_ZN7abigail5suppr20function_suppression15set_symbol_nameERKNSt7__cxx1112basic_stringIcSt11char_traitsIcESaIcEEE
libabigail.so.0:_ZN7abigail5suppr20function_suppression17parse_change_kindERKNSt7__cxx1112basic_stringIcSt11char_traitsIcESaIcEEE
libabigail.so.0:_ZN7abigail5suppr20function_suppression18set_name_regex_strERKNSt7__cxx1112basic_stringIcSt11char_traitsIcESaIcEEE
libabigail.so.0:_ZN7abigail5suppr20function_suppression18set_symbol_versionERKNSt7__cxx1112basic_stringIcSt11char_traitsIcESaIcEEE
libabigail.so.0:_ZN7abigail5suppr20function_suppression19set_parameter_specsERSt6vectorISt10shared_ptrINS1_14parameter_specEESaIS5_EE
libabigail.so.0:_ZN7abigail5suppr20function_suppression20set_return_type_nameERKNSt7__cxx1112basic_stringIcSt11char_traitsIcESaIcEEE
libabigail.so.0:_ZN7abigail5suppr20function_suppression22append_parameter_specsESt10shared_ptrINS1_14parameter_specEE
libabigail.so.0:_ZN7abigail5suppr20function_suppression22set_name_not_regex_strERKNSt7__cxx1112basic_stringIcSt11char_traitsIcESaIcEEE
libabigail.so.0:_ZN7abigail5suppr20function_suppression23set_allow_other_aliasesEb
libabigail.so.0:_ZN7abigail5suppr20function_suppression25set_return_type_regex_strERKNSt7__cxx1112basic_stringIcSt11char_traitsIcESaIcEEE
libabigail.so.0:_ZN7abigail5suppr20function_suppression25set_symbol_name_regex_strERKNSt7__cxx1112basic_stringIcSt11char_traitsIcESaIcEEE
libabigail.so.0:_ZN7abigail5suppr20function_suppression26suppresses_function_symbolEPKNS_2ir10elf_symbolENS1_11change_kindESt10shared_ptrINS_10comparison12diff_contextEE
libabigail.so.0:_ZN7abigail5suppr20function_suppression26suppresses_function_symbolESt10shared_ptrINS_2ir10elf_symbolEENS1_11change_kindES2_INS_10comparison12diff_contextEE
libabigail.so.0:_ZN7abigail5suppr20function_suppression28set_symbol_version_regex_strERKNSt7__cxx1112basic_stringIcSt11char_traitsIcESaIcEEE
libabigail.so.0:_ZN7abigail5suppr20function_suppression29set_symbol_name_not_regex_strERKNSt7__cxx1112basic_stringIcSt11char_traitsIcESaIcEEE
libabigail.so.0:_ZN7abigail5suppr20function_suppression8set_nameERKNSt7__cxx1112basic_stringIcSt11char_traitsIcESaIcEEE
libabigail.so.0:_ZN7abigail5suppr20function_suppressionC1ERKNSt7__cxx1112basic_stringIcSt11char_traitsIcESaIcEEES9_S9_S9_S9_RSt6vectorISt10shared_ptrINS1_14parameter_specEESaISD_EES9_S9_S9_S9_
libabigail.so.0:_ZN7abigail5suppr20function_suppressionC1Ev
libabigail.so.0:_ZN7abigail5suppr20function_suppressionC2ERKNSt7__cxx1112basic_stringIcSt11char_traitsIcESaIcEEES9_S9_S9_S9_RSt6vectorISt10shared_ptrINS1_14parameter_specEESaISD_EES9_S9_S9_S9_
libabigail.so.0:_ZN7abigail5suppr20function_suppressionC2Ev
libabigail.so.0:_ZN7abigail5suppr20function_suppressionD0Ev
libabigail.so.0:_ZN7abigail5suppr20function_suppressionD1Ev
libabigail.so.0:_ZN7abigail5suppr20function_suppressionD2Ev
libabigail.so.0:_ZN7abigail5suppr20variable_suppression13set_type_nameERKNSt7__cxx1112basic_stringIcSt11char_traitsIcESaIcEEE
libabigail.so.0:_ZN7abigail5suppr20variable_suppression15set_change_kindENS1_11change_kindE
libabigail.so.0:_ZN7abigail5suppr20variable_suppression15set_symbol_nameERKNSt7__cxx1112basic_stringIcSt11char_traitsIcESaIcEEE
libabigail.so.0:_ZN7abigail5suppr20variable_suppression17parse_change_kindERKNSt7__cxx1112basic_stringIcSt11char_traitsIcESaIcEEE
libabigail.so.0:_ZN7abigail5suppr20variable_suppression18set_name_regex_strERKNSt7__cxx1112basic_stringIcSt11char_traitsIcESaIcEEE
libabigail.so.0:_ZN7abigail5suppr20variable_suppression18set_symbol_versionERKNSt7__cxx1112basic_stringIcSt11char_traitsIcESaIcEEE
libabigail.so.0:_ZN7abigail5suppr20variable_suppression22set_name_not_regex_strERKNSt7__cxx1112basic_stringIcSt11char_traitsIcESaIcEEE
libabigail.so.0:_ZN7abigail5suppr20variable_suppression23set_type_name_regex_strERKNSt7__cxx1112basic_stringIcSt11char_traitsIcESaIcEEE
libabigail.so.0:_ZN7abigail5suppr20variable_suppression25set_symbol_name_regex_strERKNSt7__cxx1112basic_stringIcSt11char_traitsIcESaIcEEE
libabigail.so.0:_ZN7abigail5suppr20variable_suppression28set_symbol_version_regex_strERKNSt7__cxx1112basic_stringIcSt11char_traitsIcESaIcEEE
libabigail.so.0:_ZN7abigail5suppr20variable_suppression29set_symbol_name_not_regex_strERKNSt7__cxx1112basic_stringIcSt11char_traitsIcESaIcEEE
libabigail.so.0:_ZN7abigail5suppr20variable_suppression8set_nameERKNSt7__cxx1112basic_stringIcSt11char_traitsIcESaIcEEE
libabigail.so.0:_ZN7abigail5suppr20variable_suppressionC1ERKNSt7__cxx1112basic_stringIcSt11char_traitsIcESaIcEEES9_S9_S9_S9_S9_S9_S9_S9_
libabigail.so.0:_ZN7abigail5suppr20variable_suppressionC2ERKNSt7__cxx1112basic_stringIcSt11char_traitsIcESaIcEEES9_S9_S9_S9_S9_S9_S9_S9_
libabigail.so.0:_ZN7abigail5suppr20variable_suppressionD0Ev
libabigail.so.0:_ZN7abigail5suppr20variable_suppressionD1Ev
libabigail.so.0:_ZN7abigail5suppr20variable_suppressionD2Ev
libabigail.so.0:_ZN7abigail5suppr23is_function_suppressionESt10shared_ptrINS0_16suppression_baseEE
libabigail.so.0:_ZN7abigail5suppr23is_variable_suppressionESt10shared_ptrINS0_16suppression_baseEE
libabigail.so.0:_ZN7abigail5suppr24is_fn_call_expr_boundaryESt10shared_ptrINS0_16type_suppression15insertion_range8boundaryEE
libabigail.so.0:_ZN7abigail5suppr26is_private_type_suppr_specERKNS0_16type_suppressionE
libabigail.so.0:_ZN7abigail5suppr26is_private_type_suppr_specERKSt10shared_ptrINS0_16suppression_baseEE
libabigail.so.0:_ZN7abigail5suppr26suppression_matches_sonameERKNSt7__cxx1112basic_stringIcSt11char_traitsIcESaIcEEERKNS0_16suppression_baseE
libabigail.so.0:_ZN7abigail5suppr34get_private_types_suppr_spec_labelEv
libabigail.so.0:_ZN7abigail5suppr38suppression_matches_soname_or_filenameERKNSt7__cxx1112basic_stringIcSt11char_traitsIcESaIcEEES8_RKNS0_16suppression_baseE
libabigail.so.0:_ZN7abigail5suppranENS0_20function_suppression11change_kindES2_
libabigail.so.0:_ZN7abigail5suppranENS0_20variable_suppression11change_kindES2_
libabigail.so.0:_ZN7abigail5supprorENS0_20function_suppression11change_kindES2_
libabigail.so.0:_ZN7abigail5supprorENS0_20variable_suppression11change_kindES2_
libabigail.so.0:_ZN7abigail6config19set_tu_instr_suffixERKNSt7__cxx1112basic_stringIcSt11char_traitsIcESaIcEEE
libabigail.so.0:_ZN7abigail6config22set_xml_element_indentEj
libabigail.so.0:_ZN7abigail6config27set_tu_instr_archive_suffixERKNSt7__cxx1112basic_stringIcSt11char_traitsIcESaIcEEE
libabigail.so.0:_ZN7abigail6config31set_format_major_version_numberERKNSt7__cxx1112basic_stringIcSt11char_traitsIcESaIcEEE
libabigail.so.0:_ZN7abigail6config31set_format_minor_version_numberERKNSt7__cxx1112basic_stringIcSt11char_traitsIcESaIcEEE
libabigail.so.0:_ZN7abigail6configC1Ev
libabigail.so.0:_ZN7abigail6configC2Ev
libabigail.so.0:_ZN7abigail7hashing14combine_hashesEmm
libabigail.so.0:_ZN7abigail7hashing8fnv_hashERKNSt7__cxx1112basic_stringIcSt11char_traitsIcESaIcEEE
libabigail.so.0:_ZN7abigail7workers21get_number_of_threadsEv
libabigail.so.0:_ZN7abigail7workers5queue13schedule_taskERKSt10shared_ptrINS0_4taskEE
libabigail.so.0:_ZN7abigail7workers5queue14schedule_tasksERKSt6vectorISt10shared_ptrINS0_4taskEESaIS5_EE
libabigail.so.0:_ZN7abigail7workers5queue16task_done_notifyclERKSt10shared_ptrINS0_4taskEE
libabigail.so.0:_ZN7abigail7workers5queue28wait_for_workers_to_completeEv
libabigail.so.0:_ZN7abigail7workers5queue4priv14default_notifyE
libabigail.so.0:_ZN7abigail7workers5queueC1Ej
libabigail.so.0:_ZN7abigail7workers5queueC1EjRNS1_16task_done_notifyE
libabigail.so.0:_ZN7abigail7workers5queueC1Ev
libabigail.so.0:_ZN7abigail7workers5queueC2Ej
libabigail.so.0:_ZN7abigail7workers5queueC2EjRNS1_16task_done_notifyE
libabigail.so.0:_ZN7abigail7workers5queueC2Ev
libabigail.so.0:_ZN7abigail7workers5queueD1Ev
libabigail.so.0:_ZN7abigail7workers5queueD2Ev
libabigail.so.0:_ZN7abigail9child_styE
libabigail.so.0:_ZN7abigail9node_base14_M_count_totalE
libabigail.so.0:_ZN7abigaileqERKNSt7__cxx1112basic_stringIcSt11char_traitsIcESaIcEEERKNS_15interned_stringE
libabigail.so.0:_ZN7abigaillsERSoRKNS_15interned_stringE
libabigail.so.0:_ZN7abigailneERKNSt7__cxx1112basic_stringIcSt11char_traitsIcESaIcEEERKNS_15interned_stringE
libabigail.so.0:_ZN7abigailplERKNS_15interned_stringERKNSt7__cxx1112basic_stringIcSt11char_traitsIcESaIcEEE
libabigail.so.0:_ZN7abigailplERKNSt7__cxx1112basic_stringIcSt11char_traitsIcESaIcEEERKNS_15interned_stringE
libabigail.so.0:_ZNK7abigail10comparison10array_diff11first_arrayEv
libabigail.so.0:_ZNK7abigail10comparison10array_diff11has_changesEv
libabigail.so.0:_ZNK7abigail10comparison10array_diff12second_arrayEv
libabigail.so.0:_ZNK7abigail10comparison10array_diff17element_type_diffEv
libabigail.so.0:_ZNK7abigail10comparison10array_diff17has_local_changesEv
libabigail.so.0:_ZNK7abigail10comparison10array_diff25get_pretty_representationB5cxx11Ev
libabigail.so.0:_ZNK7abigail10comparison10array_diff6reportERSoRKNSt7__cxx1112basic_stringIcSt11char_traitsIcESaIcEEE
libabigail.so.0:_ZNK7abigail10comparison10class_diff11has_changesEv
libabigail.so.0:_ZNK7abigail10comparison10class_diff12base_changesEv
libabigail.so.0:_ZNK7abigail10comparison10class_diff13deleted_basesB5cxx11Ev
libabigail.so.0:_ZNK7abigail10comparison10class_diff14inserted_basesB5cxx11Ev
libabigail.so.0:_ZNK7abigail10comparison10class_diff16first_class_declEv
libabigail.so.0:_ZNK7abigail10comparison10class_diff17has_local_changesEv
libabigail.so.0:_ZNK7abigail10comparison10class_diff17second_class_declEv
libabigail.so.0:_ZNK7abigail10comparison10class_diff19lookup_tables_emptyEv
libabigail.so.0:_ZNK7abigail10comparison10class_diff25get_pretty_representationB5cxx11Ev
libabigail.so.0:_ZNK7abigail10comparison10class_diff30ensure_lookup_tables_populatedEv
libabigail.so.0:_ZNK7abigail10comparison10class_diff4priv16base_has_changedESt10shared_ptrINS_2ir10class_decl9base_specEE
libabigail.so.0:_ZNK7abigail10comparison10class_diff6reportERSoRKNSt7__cxx1112basic_stringIcSt11char_traitsIcESaIcEEE
libabigail.so.0:_ZNK7abigail10comparison10class_diff8get_privEv
libabigail.so.0:_ZNK7abigail10comparison10scope_diff11added_declsB5cxx11Ev
libabigail.so.0:_ZNK7abigail10comparison10scope_diff11added_typesB5cxx11Ev
libabigail.so.0:_ZNK7abigail10comparison10scope_diff11first_scopeEv
libabigail.so.0:_ZNK7abigail10comparison10scope_diff11has_changesEv
libabigail.so.0:_ZNK7abigail10comparison10scope_diff12second_scopeEv
libabigail.so.0:_ZNK7abigail10comparison10scope_diff13changed_declsEv
libabigail.so.0:_ZNK7abigail10comparison10scope_diff13changed_typesEv
libabigail.so.0:_ZNK7abigail10comparison10scope_diff13removed_declsB5cxx11Ev
libabigail.so.0:_ZNK7abigail10comparison10scope_diff13removed_typesB5cxx11Ev
libabigail.so.0:_ZNK7abigail10comparison10scope_diff14member_changesEv
libabigail.so.0:_ZNK7abigail10comparison10scope_diff17deleted_member_atEN9__gnu_cxx17__normal_iteratorIPKNS_10diff_utils8deletionESt6vectorIS5_SaIS5_EEEE
libabigail.so.0:_ZNK7abigail10comparison10scope_diff17deleted_member_atEj
libabigail.so.0:_ZNK7abigail10comparison10scope_diff17has_local_changesEv
libabigail.so.0:_ZNK7abigail10comparison10scope_diff19lookup_tables_emptyEv
libabigail.so.0:_ZNK7abigail10comparison10scope_diff25get_pretty_representationB5cxx11Ev
libabigail.so.0:_ZNK7abigail10comparison10scope_diff6reportERSoRKNSt7__cxx1112basic_stringIcSt11char_traitsIcESaIcEEE
libabigail.so.0:_ZNK7abigail10comparison10union_diff16first_union_declEv
libabigail.so.0:_ZNK7abigail10comparison10union_diff17second_union_declEv
libabigail.so.0:_ZNK7abigail10comparison10union_diff19lookup_tables_emptyEv
libabigail.so.0:_ZNK7abigail10comparison10union_diff25get_pretty_representationB5cxx11Ev
libabigail.so.0:_ZNK7abigail10comparison10union_diff30ensure_lookup_tables_populatedEv
libabigail.so.0:_ZNK7abigail10comparison10union_diff6reportERSoRKNSt7__cxx1112basic_stringIcSt11char_traitsIcESaIcEEE
libabigail.so.0:_ZNK7abigail10comparison11corpus_diff10diff_stats14num_func_addedEv
libabigail.so.0:_ZNK7abigail10comparison11corpus_diff10diff_stats14num_vars_addedEv
libabigail.so.0:_ZNK7abigail10comparison11corpus_diff10diff_stats16num_func_changedEv
libabigail.so.0:_ZNK7abigail10comparison11corpus_diff10diff_stats16num_func_removedEv
libabigail.so.0:_ZNK7abigail10comparison11corpus_diff10diff_stats16num_leaf_changesEv
libabigail.so.0:_ZNK7abigail10comparison11corpus_diff10diff_stats16num_vars_changedEv
libabigail.so.0:_ZNK7abigail10comparison11corpus_diff10diff_stats16num_vars_removedEv
libabigail.so.0:_ZNK7abigail10comparison11corpus_diff10diff_stats18net_num_func_addedEv
libabigail.so.0:_ZNK7abigail10comparison11corpus_diff10diff_stats18net_num_vars_addedEv
libabigail.so.0:_ZNK7abigail10comparison11corpus_diff10diff_stats18num_var_syms_addedEv
libabigail.so.0:_ZNK7abigail10comparison11corpus_diff10diff_stats19num_func_syms_addedEv
libabigail.so.0:_ZNK7abigail10comparison11corpus_diff10diff_stats20net_num_func_changedEv
libabigail.so.0:_ZNK7abigail10comparison11corpus_diff10diff_stats20net_num_func_removedEv
libabigail.so.0:_ZNK7abigail10comparison11corpus_diff10diff_stats20net_num_leaf_changesEv
libabigail.so.0:_ZNK7abigail10comparison11corpus_diff10diff_stats20net_num_vars_changedEv
libabigail.so.0:_ZNK7abigail10comparison11corpus_diff10diff_stats20net_num_vars_removedEv
libabigail.so.0:_ZNK7abigail10comparison11corpus_diff10diff_stats20num_leaf_var_changesEv
libabigail.so.0:_ZNK7abigail10comparison11corpus_diff10diff_stats20num_var_syms_removedEv
libabigail.so.0:_ZNK7abigail10comparison11corpus_diff10diff_stats21num_func_syms_removedEv
libabigail.so.0:_ZNK7abigail10comparison11corpus_diff10diff_stats21num_leaf_func_changesEv
libabigail.so.0:_ZNK7abigail10comparison11corpus_diff10diff_stats21num_leaf_type_changesEv
libabigail.so.0:_ZNK7abigail10comparison11corpus_diff10diff_stats22net_num_added_var_symsEv
libabigail.so.0:_ZNK7abigail10comparison11corpus_diff10diff_stats23net_num_added_func_symsEv
libabigail.so.0:_ZNK7abigail10comparison11corpus_diff10diff_stats24net_num_leaf_var_changesEv
libabigail.so.0:_ZNK7abigail10comparison11corpus_diff10diff_stats24net_num_removed_var_symsEv
libabigail.so.0:_ZNK7abigail10comparison11corpus_diff10diff_stats25net_num_leaf_func_changesEv
libabigail.so.0:_ZNK7abigail10comparison11corpus_diff10diff_stats25net_num_leaf_type_changesEv
libabigail.so.0:_ZNK7abigail10comparison11corpus_diff10diff_stats25net_num_removed_func_symsEv
libabigail.so.0:_ZNK7abigail10comparison11corpus_diff10diff_stats27num_added_func_filtered_outEv
libabigail.so.0:_ZNK7abigail10comparison11corpus_diff10diff_stats27num_added_unreachable_typesEv
libabigail.so.0:_ZNK7abigail10comparison11corpus_diff10diff_stats27num_added_vars_filtered_outEv
libabigail.so.0:_ZNK7abigail10comparison11corpus_diff10diff_stats29num_changed_func_filtered_outEv
libabigail.so.0:_ZNK7abigail10comparison11corpus_diff10diff_stats29num_changed_unreachable_typesEv
libabigail.so.0:_ZNK7abigail10comparison11corpus_diff10diff_stats29num_changed_vars_filtered_outEv
libabigail.so.0:_ZNK7abigail10comparison11corpus_diff10diff_stats29num_leaf_changes_filtered_outEv
libabigail.so.0:_ZNK7abigail10comparison11corpus_diff10diff_stats29num_removed_func_filtered_outEv
libabigail.so.0:_ZNK7abigail10comparison11corpus_diff10diff_stats29num_removed_unreachable_typesEv
libabigail.so.0:_ZNK7abigail10comparison11corpus_diff10diff_stats29num_removed_vars_filtered_outEm
libabigail.so.0:_ZNK7abigail10comparison11corpus_diff10diff_stats29num_removed_vars_filtered_outEv
libabigail.so.0:_ZNK7abigail10comparison11corpus_diff10diff_stats31net_num_added_unreachable_typesEv
libabigail.so.0:_ZNK7abigail10comparison11corpus_diff10diff_stats31num_added_var_syms_filtered_outEv
libabigail.so.0:_ZNK7abigail10comparison11corpus_diff10diff_stats32num_added_func_syms_filtered_outEv
libabigail.so.0:_ZNK7abigail10comparison11corpus_diff10diff_stats33net_num_changed_unreachable_typesEv
libabigail.so.0:_ZNK7abigail10comparison11corpus_diff10diff_stats33net_num_removed_unreachable_typesEv
libabigail.so.0:_ZNK7abigail10comparison11corpus_diff10diff_stats33num_leaf_var_changes_filtered_outEv
libabigail.so.0:_ZNK7abigail10comparison11corpus_diff10diff_stats33num_removed_var_syms_filtered_outEv
libabigail.so.0:_ZNK7abigail10comparison11corpus_diff10diff_stats34num_leaf_func_changes_filtered_outEv
libabigail.so.0:_ZNK7abigail10comparison11corpus_diff10diff_stats34num_leaf_type_changes_filtered_outEv
libabigail.so.0:_ZNK7abigail10comparison11corpus_diff10diff_stats34num_removed_func_syms_filtered_outEv
libabigail.so.0:_ZNK7abigail10comparison11corpus_diff10diff_stats36num_func_with_virtual_offset_changesEv
libabigail.so.0:_ZNK7abigail10comparison11corpus_diff10diff_stats40num_added_unreachable_types_filtered_outEv
libabigail.so.0:_ZNK7abigail10comparison11corpus_diff10diff_stats42num_changed_unreachable_types_filtered_outEv
libabigail.so.0:_ZNK7abigail10comparison11corpus_diff10diff_stats42num_removed_unreachable_types_filtered_outEv
libabigail.so.0:_ZNK7abigail10comparison11corpus_diff11has_changesEv
libabigail.so.0:_ZNK7abigail10comparison11corpus_diff12first_corpusEv
libabigail.so.0:_ZNK7abigail10comparison11corpus_diff13second_corpusEv
libabigail.so.0:_ZNK7abigail10comparison11corpus_diff14children_nodesEv
libabigail.so.0:_ZNK7abigail10comparison11corpus_diff14get_leaf_diffsEv
libabigail.so.0:_ZNK7abigail10comparison11corpus_diff14soname_changedEv
libabigail.so.0:_ZNK7abigail10comparison11corpus_diff15added_variablesB5cxx11Ev
libabigail.so.0:_ZNK7abigail10comparison11corpus_diff15has_net_changesEv
libabigail.so.0:_ZNK7abigail10comparison11corpus_diff16function_changesEv
libabigail.so.0:_ZNK7abigail10comparison11corpus_diff16variable_changesEv
libabigail.so.0:_ZNK7abigail10comparison11corpus_diff17deleted_functionsB5cxx11Ev
libabigail.so.0:_ZNK7abigail10comparison11corpus_diff17deleted_variablesB5cxx11Ev
libabigail.so.0:_ZNK7abigail10comparison11corpus_diff20architecture_changedEv
libabigail.so.0:_ZNK7abigail10comparison11corpus_diff23added_unreachable_typesB5cxx11Ev
libabigail.so.0:_ZNK7abigail10comparison11corpus_diff23has_net_subtype_changesEv
libabigail.so.0:_ZNK7abigail10comparison11corpus_diff24has_incompatible_changesEv
libabigail.so.0:_ZNK7abigail10comparison11corpus_diff25changed_unreachable_typesB5cxx11Ev
libabigail.so.0:_ZNK7abigail10comparison11corpus_diff25deleted_unreachable_typesB5cxx11Ev
libabigail.so.0:_ZNK7abigail10comparison11corpus_diff25get_pretty_representationB5cxx11Ev
libabigail.so.0:_ZNK7abigail10comparison11corpus_diff30added_unreachable_types_sortedEv
libabigail.so.0:_ZNK7abigail10comparison11corpus_diff30added_unrefed_function_symbolsB5cxx11Ev
libabigail.so.0:_ZNK7abigail10comparison11corpus_diff30added_unrefed_variable_symbolsB5cxx11Ev
libabigail.so.0:_ZNK7abigail10comparison11corpus_diff32changed_unreachable_types_sortedEv
libabigail.so.0:_ZNK7abigail10comparison11corpus_diff32deleted_unreachable_types_sortedEv
libabigail.so.0:_ZNK7abigail10comparison11corpus_diff32deleted_unrefed_function_symbolsB5cxx11Ev
libabigail.so.0:_ZNK7abigail10comparison11corpus_diff32deleted_unrefed_variable_symbolsB5cxx11Ev
libabigail.so.0:_ZNK7abigail10comparison11corpus_diff4priv19lookup_tables_emptyEv
libabigail.so.0:_ZNK7abigail10comparison11corpus_diff4priv28added_function_is_suppressedEPKNS_2ir13function_declE
libabigail.so.0:_ZNK7abigail10comparison11corpus_diff4priv28added_variable_is_suppressedEPKNS_2ir8var_declE
libabigail.so.0:_ZNK7abigail10comparison11corpus_diff4priv30deleted_function_is_suppressedEPKNS_2ir13function_declE
libabigail.so.0:_ZNK7abigail10comparison11corpus_diff4priv30deleted_variable_is_suppressedEPKNS_2ir8var_declE
libabigail.so.0:_ZNK7abigail10comparison11corpus_diff4priv32changed_unreachable_types_sortedEv
libabigail.so.0:_ZNK7abigail10comparison11corpus_diff4priv34added_unrefed_fn_sym_is_suppressedEPKNS_2ir10elf_symbolE
libabigail.so.0:_ZNK7abigail10comparison11corpus_diff4priv35added_unrefed_var_sym_is_suppressedEPKNS_2ir10elf_symbolE
libabigail.so.0:_ZNK7abigail10comparison11corpus_diff4priv36added_unreachable_type_is_suppressedEPKNS_2ir9type_baseE
libabigail.so.0:_ZNK7abigail10comparison11corpus_diff4priv36deleted_unrefed_fn_sym_is_suppressedEPKNS_2ir10elf_symbolE
libabigail.so.0:_ZNK7abigail10comparison11corpus_diff4priv37deleted_unrefed_var_sym_is_suppressedEPKNS_2ir10elf_symbolE
libabigail.so.0:_ZNK7abigail10comparison11corpus_diff4priv38deleted_unreachable_type_is_suppressedEPKNS_2ir9type_baseE
libabigail.so.0:_ZNK7abigail10comparison11corpus_diff6reportERSoRKNSt7__cxx1112basic_stringIcSt11char_traitsIcESaIcEEE
libabigail.so.0:_ZNK7abigail10comparison11corpus_diff7contextEv
libabigail.so.0:_ZNK7abigail10comparison12diff_context12diff_filtersEv
libabigail.so.0:_ZNK7abigail10comparison12diff_context12get_reporterEv
libabigail.so.0:_ZNK7abigail10comparison12diff_context12has_diff_forEPKNS0_4diffE
libabigail.so.0:_ZNK7abigail10comparison12diff_context12has_diff_forESt10shared_ptrINS0_4diffEE
libabigail.so.0:_ZNK7abigail10comparison12diff_context12has_diff_forESt10shared_ptrINS_2ir17type_or_decl_baseEES5_
libabigail.so.0:_ZNK7abigail10comparison12diff_context12suppressionsEv
libabigail.so.0:_ZNK7abigail10comparison12diff_context14dump_diff_treeEv
libabigail.so.0:_ZNK7abigail10comparison12diff_context14show_added_fnsEv
libabigail.so.0:_ZNK7abigail10comparison12diff_context15get_corpus_diffEv
libabigail.so.0:_ZNK7abigail10comparison12diff_context15show_added_varsEv
libabigail.so.0:_ZNK7abigail10comparison12diff_context15show_hex_valuesEv
libabigail.so.0:_ZNK7abigail10comparison12diff_context15show_stats_onlyEv
libabigail.so.0:_ZNK7abigail10comparison12diff_context16get_first_corpusEv
libabigail.so.0:_ZNK7abigail10comparison12diff_context16show_changed_fnsEv
libabigail.so.0:_ZNK7abigail10comparison12diff_context16show_deleted_fnsEv
libabigail.so.0:_ZNK7abigail10comparison12diff_context17do_dump_diff_treeESt10shared_ptrINS0_11corpus_diffEE
libabigail.so.0:_ZNK7abigail10comparison12diff_context17do_dump_diff_treeESt10shared_ptrINS0_4diffEE
libabigail.so.0:_ZNK7abigail10comparison12diff_context17get_second_corpusEv
libabigail.so.0:_ZNK7abigail10comparison12diff_context17show_changed_varsEv
libabigail.so.0:_ZNK7abigail10comparison12diff_context17show_deleted_varsEv
libabigail.so.0:_ZNK7abigail10comparison12diff_context18has_diff_for_typesESt10shared_ptrINS_2ir9type_baseEES5_
libabigail.so.0:_ZNK7abigail10comparison12diff_context18show_linkage_namesEv
libabigail.so.0:_ZNK7abigail10comparison12diff_context18show_soname_changeEv
libabigail.so.0:_ZNK7abigail10comparison12diff_context19error_output_streamEv
libabigail.so.0:_ZNK7abigail10comparison12diff_context20get_allowed_categoryEv
libabigail.so.0:_ZNK7abigail10comparison12diff_context21diff_has_been_visitedEPKNS0_4diffE
libabigail.so.0:_ZNK7abigail10comparison12diff_context21diff_has_been_visitedESt10shared_ptrINS0_4diffEE
libabigail.so.0:_ZNK7abigail10comparison12diff_context22get_canonical_diff_forESt10shared_ptrINS0_4diffEE
libabigail.so.0:_ZNK7abigail10comparison12diff_context22get_canonical_diff_forESt10shared_ptrINS_2ir17type_or_decl_baseEES5_
libabigail.so.0:_ZNK7abigail10comparison12diff_context22show_leaf_changes_onlyEv
libabigail.so.0:_ZNK7abigail10comparison12diff_context22show_redundant_changesEv
libabigail.so.0:_ZNK7abigail10comparison12diff_context24show_architecture_changeEv
libabigail.so.0:_ZNK7abigail10comparison12diff_context24show_impacted_interfacesEv
libabigail.so.0:_ZNK7abigail10comparison12diff_context26show_offsets_sizes_in_bitsEv
libabigail.so.0:_ZNK7abigail10comparison12diff_context34visiting_a_node_twice_is_forbiddenEv
libabigail.so.0:_ZNK7abigail10comparison12diff_context39show_symbols_unreferenced_by_debug_infoEv
libabigail.so.0:_ZNK7abigail10comparison12diff_context45show_added_symbols_unreferenced_by_debug_infoEv
libabigail.so.0:_ZNK7abigail10comparison12diff_context48visiting_a_node_twice_is_forbidden_per_interfaceEv
libabigail.so.0:_ZNK7abigail10comparison12diff_context9show_locsEv
libabigail.so.0:_ZNK7abigail10comparison12fn_parm_diff11has_changesEv
libabigail.so.0:_ZNK7abigail10comparison12fn_parm_diff15first_parameterEv
libabigail.so.0:_ZNK7abigail10comparison12fn_parm_diff16second_parameterEv
libabigail.so.0:_ZNK7abigail10comparison12fn_parm_diff17has_local_changesEv
libabigail.so.0:_ZNK7abigail10comparison12fn_parm_diff25get_pretty_representationB5cxx11Ev
libabigail.so.0:_ZNK7abigail10comparison12fn_parm_diff6reportERSoRKNSt7__cxx1112basic_stringIcSt11char_traitsIcESaIcEEE
libabigail.so.0:_ZNK7abigail10comparison12fn_parm_diff9type_diffEv
libabigail.so.0:_ZNK7abigail10comparison12pointer_diff11has_changesEv
libabigail.so.0:_ZNK7abigail10comparison12pointer_diff13first_pointerEv
libabigail.so.0:_ZNK7abigail10comparison12pointer_diff14second_pointerEv
libabigail.so.0:_ZNK7abigail10comparison12pointer_diff17has_local_changesEv
libabigail.so.0:_ZNK7abigail10comparison12pointer_diff20underlying_type_diffEv
libabigail.so.0:_ZNK7abigail10comparison12pointer_diff25get_pretty_representationB5cxx11Ev
libabigail.so.0:_ZNK7abigail10comparison12pointer_diff6reportERSoRKNSt7__cxx1112basic_stringIcSt11char_traitsIcESaIcEEE
libabigail.so.0:_ZNK7abigail10comparison12typedef_diff11has_changesEv
libabigail.so.0:_ZNK7abigail10comparison12typedef_diff17has_local_changesEv
libabigail.so.0:_ZNK7abigail10comparison12typedef_diff18first_typedef_declEv
libabigail.so.0:_ZNK7abigail10comparison12typedef_diff19second_typedef_declEv
libabigail.so.0:_ZNK7abigail10comparison12typedef_diff20underlying_type_diffEv
libabigail.so.0:_ZNK7abigail10comparison12typedef_diff25get_pretty_representationB5cxx11Ev
libabigail.so.0:_ZNK7abigail10comparison12typedef_diff6reportERSoRKNSt7__cxx1112basic_stringIcSt11char_traitsIcESaIcEEE
libabigail.so.0:_ZNK7abigail10comparison13distinct_diff11has_changesEv
libabigail.so.0:_ZNK7abigail10comparison13distinct_diff17has_local_changesEv
libabigail.so.0:_ZNK7abigail10comparison13distinct_diff21compatible_child_diffEv
libabigail.so.0:_ZNK7abigail10comparison13distinct_diff25get_pretty_representationB5cxx11Ev
libabigail.so.0:_ZNK7abigail10comparison13distinct_diff5firstEv
libabigail.so.0:_ZNK7abigail10comparison13distinct_diff6reportERSoRKNSt7__cxx1112basic_stringIcSt11char_traitsIcESaIcEEE
libabigail.so.0:_ZNK7abigail10comparison13distinct_diff6secondEv
libabigail.so.0:_ZNK7abigail10comparison13leaf_reporter19diff_to_be_reportedEPKNS0_4diffE
libabigail.so.0:_ZNK7abigail10comparison13leaf_reporter20diff_has_net_changesEPKNS0_11corpus_diffE
libabigail.so.0:_ZNK7abigail10comparison13leaf_reporter29report_changes_from_diff_mapsERKNS0_9diff_mapsERSoRKNSt7__cxx1112basic_stringIcSt11char_traitsIcESaIcEEE
libabigail.so.0:_ZNK7abigail10comparison13leaf_reporter6reportERKNS0_10array_diffERSoRKNSt7__cxx1112basic_stringIcSt11char_traitsIcESaIcEEE
libabigail.so.0:_ZNK7abigail10comparison13leaf_reporter6reportERKNS0_10class_diffERSoRKNSt7__cxx1112basic_stringIcSt11char_traitsIcESaIcEEE
libabigail.so.0:_ZNK7abigail10comparison13leaf_reporter6reportERKNS0_10scope_diffERSoRKNSt7__cxx1112basic_stringIcSt11char_traitsIcESaIcEEE
libabigail.so.0:_ZNK7abigail10comparison13leaf_reporter6reportERKNS0_10union_diffERSoRKNSt7__cxx1112basic_stringIcSt11char_traitsIcESaIcEEE
libabigail.so.0:_ZNK7abigail10comparison13leaf_reporter6reportERKNS0_11corpus_diffERSoRKNSt7__cxx1112basic_stringIcSt11char_traitsIcESaIcEEE
libabigail.so.0:_ZNK7abigail10comparison13leaf_reporter6reportERKNS0_12fn_parm_diffERSoRKNSt7__cxx1112basic_stringIcSt11char_traitsIcESaIcEEE
libabigail.so.0:_ZNK7abigail10comparison13leaf_reporter6reportERKNS0_12pointer_diffERSoRKNSt7__cxx1112basic_stringIcSt11char_traitsIcESaIcEEE
libabigail.so.0:_ZNK7abigail10comparison13leaf_reporter6reportERKNS0_12typedef_diffERSoRKNSt7__cxx1112basic_stringIcSt11char_traitsIcESaIcEEE
libabigail.so.0:_ZNK7abigail10comparison13leaf_reporter6reportERKNS0_13distinct_diffERSoRKNSt7__cxx1112basic_stringIcSt11char_traitsIcESaIcEEE
libabigail.so.0:_ZNK7abigail10comparison13leaf_reporter6reportERKNS0_14reference_diffERSoRKNSt7__cxx1112basic_stringIcSt11char_traitsIcESaIcEEE
libabigail.so.0:_ZNK7abigail10comparison13leaf_reporter6reportERKNS0_18function_decl_diffERSoRKNSt7__cxx1112basic_stringIcSt11char_traitsIcESaIcEEE
libabigail.so.0:_ZNK7abigail10comparison13leaf_reporter6reportERKNS0_18function_type_diffERSoRKNSt7__cxx1112basic_stringIcSt11char_traitsIcESaIcEEE
libabigail.so.0:_ZNK7abigail10comparison13leaf_reporter6reportERKNS0_19class_or_union_diffERSoRKNSt7__cxx1112basic_stringIcSt11char_traitsIcESaIcEEE
libabigail.so.0:_ZNK7abigail10comparison13leaf_reporter6reportERKNS0_19qualified_type_diffERSoRKNSt7__cxx1112basic_stringIcSt11char_traitsIcESaIcEEE
libabigail.so.0:_ZNK7abigail10comparison13leaf_reporter6reportERKNS0_21translation_unit_diffERSoRKNSt7__cxx1112basic_stringIcSt11char_traitsIcESaIcEEE
libabigail.so.0:_ZNK7abigail10comparison13leaf_reporter6reportERKNS0_8var_diffERSoRKNSt7__cxx1112basic_stringIcSt11char_traitsIcESaIcEEE
libabigail.so.0:_ZNK7abigail10comparison13reporter_base19diff_to_be_reportedEPKNS0_4diffE
libabigail.so.0:_ZNK7abigail10comparison14reference_diff11has_changesEv
libabigail.so.0:_ZNK7abigail10comparison14reference_diff15first_referenceEv
libabigail.so.0:_ZNK7abigail10comparison14reference_diff16second_referenceEv
libabigail.so.0:_ZNK7abigail10comparison14reference_diff17has_local_changesEv
libabigail.so.0:_ZNK7abigail10comparison14reference_diff20underlying_type_diffEv
libabigail.so.0:_ZNK7abigail10comparison14reference_diff25get_pretty_representationB5cxx11Ev
libabigail.so.0:_ZNK7abigail10comparison14reference_diff6reportERSoRKNSt7__cxx1112basic_stringIcSt11char_traitsIcESaIcEEE
libabigail.so.0:_ZNK7abigail10comparison14type_decl_diff11has_changesEv
libabigail.so.0:_ZNK7abigail10comparison14type_decl_diff15first_type_declEv
libabigail.so.0:_ZNK7abigail10comparison14type_decl_diff16second_type_declEv
libabigail.so.0:_ZNK7abigail10comparison14type_decl_diff17has_local_changesEv
libabigail.so.0:_ZNK7abigail10comparison14type_decl_diff25get_pretty_representationB5cxx11Ev
libabigail.so.0:_ZNK7abigail10comparison14type_decl_diff6reportERSoRKNSt7__cxx1112basic_stringIcSt11char_traitsIcESaIcEEE
libabigail.so.0:_ZNK7abigail10comparison16default_reporter20diff_has_net_changesEPKNS0_11corpus_diffE
libabigail.so.0:_ZNK7abigail10comparison16default_reporter31report_non_type_typedef_changesERKNS0_12typedef_diffERSoRKNSt7__cxx1112basic_stringIcSt11char_traitsIcESaIcEEE
libabigail.so.0:_ZNK7abigail10comparison16default_reporter34report_local_function_type_changesERKNS0_18function_type_diffERSoRKNSt7__cxx1112basic_stringIcSt11char_traitsIcESaIcEEE
libabigail.so.0:_ZNK7abigail10comparison16default_reporter35report_local_qualified_type_changesERKNS0_19qualified_type_diffERSoRKNSt7__cxx1112basic_stringIcSt11char_traitsIcESaIcEEE
libabigail.so.0:_ZNK7abigail10comparison16default_reporter35report_local_reference_type_changesERKNS0_14reference_diffERSoRKNSt7__cxx1112basic_stringIcSt11char_traitsIcESaIcEEE
libabigail.so.0:_ZNK7abigail10comparison16default_reporter6reportERKNS0_10array_diffERSoRKNSt7__cxx1112basic_stringIcSt11char_traitsIcESaIcEEE
libabigail.so.0:_ZNK7abigail10comparison16default_reporter6reportERKNS0_10class_diffERSoRKNSt7__cxx1112basic_stringIcSt11char_traitsIcESaIcEEE
libabigail.so.0:_ZNK7abigail10comparison16default_reporter6reportERKNS0_10scope_diffERSoRKNSt7__cxx1112basic_stringIcSt11char_traitsIcESaIcEEE
libabigail.so.0:_ZNK7abigail10comparison16default_reporter6reportERKNS0_10union_diffERSoRKNSt7__cxx1112basic_stringIcSt11char_traitsIcESaIcEEE
libabigail.so.0:_ZNK7abigail10comparison16default_reporter6reportERKNS0_11corpus_diffERSoRKNSt7__cxx1112basic_stringIcSt11char_traitsIcESaIcEEE
libabigail.so.0:_ZNK7abigail10comparison16default_reporter6reportERKNS0_12fn_parm_diffERSoRKNSt7__cxx1112basic_stringIcSt11char_traitsIcESaIcEEE
libabigail.so.0:_ZNK7abigail10comparison16default_reporter6reportERKNS0_12pointer_diffERSoRKNSt7__cxx1112basic_stringIcSt11char_traitsIcESaIcEEE
libabigail.so.0:_ZNK7abigail10comparison16default_reporter6reportERKNS0_12typedef_diffERSoRKNSt7__cxx1112basic_stringIcSt11char_traitsIcESaIcEEE
libabigail.so.0:_ZNK7abigail10comparison16default_reporter6reportERKNS0_13distinct_diffERSoRKNSt7__cxx1112basic_stringIcSt11char_traitsIcESaIcEEE
libabigail.so.0:_ZNK7abigail10comparison16default_reporter6reportERKNS0_14reference_diffERSoRKNSt7__cxx1112basic_stringIcSt11char_traitsIcESaIcEEE
libabigail.so.0:_ZNK7abigail10comparison16default_reporter6reportERKNS0_14type_decl_diffERSoRKNSt7__cxx1112basic_stringIcSt11char_traitsIcESaIcEEE
libabigail.so.0:_ZNK7abigail10comparison16default_reporter6reportERKNS0_18function_decl_diffERSoRKNSt7__cxx1112basic_stringIcSt11char_traitsIcESaIcEEE
libabigail.so.0:_ZNK7abigail10comparison16default_reporter6reportERKNS0_18function_type_diffERSoRKNSt7__cxx1112basic_stringIcSt11char_traitsIcESaIcEEE
libabigail.so.0:_ZNK7abigail10comparison16default_reporter6reportERKNS0_19class_or_union_diffERSoRKNSt7__cxx1112basic_stringIcSt11char_traitsIcESaIcEEE
libabigail.so.0:_ZNK7abigail10comparison16default_reporter6reportERKNS0_19qualified_type_diffERSoRKNSt7__cxx1112basic_stringIcSt11char_traitsIcESaIcEEE
libabigail.so.0:_ZNK7abigail10comparison16default_reporter6reportERKNS0_21translation_unit_diffERSoRKNSt7__cxx1112basic_stringIcSt11char_traitsIcESaIcEEE
libabigail.so.0:_ZNK7abigail10comparison16default_reporter6reportERKNS0_8var_diffERSoRKNSt7__cxx1112basic_stringIcSt11char_traitsIcESaIcEEE
libabigail.so.0:_ZNK7abigail10comparison16default_reporter6reportERKNS0_9base_diffERSoRKNSt7__cxx1112basic_stringIcSt11char_traitsIcESaIcEEE
libabigail.so.0:_ZNK7abigail10comparison16default_reporter6reportERKNS0_9enum_diffERSoRKNSt7__cxx1112basic_stringIcSt11char_traitsIcESaIcEEE
libabigail.so.0:_ZNK7abigail10comparison17diff_node_visitor17get_visiting_kindEv
libabigail.so.0:_ZNK7abigail10comparison17diff_node_visitor30get_current_topmost_iface_diffEv
libabigail.so.0:_ZNK7abigail10comparison18function_decl_diff11has_changesEv
libabigail.so.0:_ZNK7abigail10comparison18function_decl_diff17has_local_changesEv
libabigail.so.0:_ZNK7abigail10comparison18function_decl_diff19first_function_declEv
libabigail.so.0:_ZNK7abigail10comparison18function_decl_diff20second_function_declEv
libabigail.so.0:_ZNK7abigail10comparison18function_decl_diff25get_pretty_representationB5cxx11Ev
libabigail.so.0:_ZNK7abigail10comparison18function_decl_diff6reportERSoRKNSt7__cxx1112basic_stringIcSt11char_traitsIcESaIcEEE
libabigail.so.0:_ZNK7abigail10comparison18function_decl_diff9type_diffEv
libabigail.so.0:_ZNK7abigail10comparison18function_type_diff11added_parmsB5cxx11Ev
libabigail.so.0:_ZNK7abigail10comparison18function_type_diff11has_changesEv
libabigail.so.0:_ZNK7abigail10comparison18function_type_diff13removed_parmsB5cxx11Ev
libabigail.so.0:_ZNK7abigail10comparison18function_type_diff16return_type_diffEv
libabigail.so.0:_ZNK7abigail10comparison18function_type_diff17has_local_changesEv
libabigail.so.0:_ZNK7abigail10comparison18function_type_diff18sorted_added_parmsEv
libabigail.so.0:_ZNK7abigail10comparison18function_type_diff19first_function_typeEv
libabigail.so.0:_ZNK7abigail10comparison18function_type_diff20deleted_parameter_atEi
libabigail.so.0:_ZNK7abigail10comparison18function_type_diff20second_function_typeEv
libabigail.so.0:_ZNK7abigail10comparison18function_type_diff20sorted_deleted_parmsEv
libabigail.so.0:_ZNK7abigail10comparison18function_type_diff21inserted_parameter_atEi
libabigail.so.0:_ZNK7abigail10comparison18function_type_diff21subtype_changed_parmsB5cxx11Ev
libabigail.so.0:_ZNK7abigail10comparison18function_type_diff25get_pretty_representationB5cxx11Ev
libabigail.so.0:_ZNK7abigail10comparison18function_type_diff6reportERSoRKNSt7__cxx1112basic_stringIcSt11char_traitsIcESaIcEEE
libabigail.so.0:_ZNK7abigail10comparison19class_or_union_diff11has_changesEv
libabigail.so.0:_ZNK7abigail10comparison19class_or_union_diff17has_local_changesEv
libabigail.so.0:_ZNK7abigail10comparison19class_or_union_diff18changed_member_fnsEv
libabigail.so.0:_ZNK7abigail10comparison19class_or_union_diff18deleted_member_fnsB5cxx11Ev
libabigail.so.0:_ZNK7abigail10comparison19class_or_union_diff18member_fns_changesEv
libabigail.so.0:_ZNK7abigail10comparison19class_or_union_diff19inserted_member_fnsB5cxx11Ev
libabigail.so.0:_ZNK7abigail10comparison19class_or_union_diff19lookup_tables_emptyEv
libabigail.so.0:_ZNK7abigail10comparison19class_or_union_diff20data_members_changesEv
libabigail.so.0:_ZNK7abigail10comparison19class_or_union_diff20deleted_data_membersB5cxx11Ev
libabigail.so.0:_ZNK7abigail10comparison19class_or_union_diff20first_class_or_unionEv
libabigail.so.0:_ZNK7abigail10comparison19class_or_union_diff20member_types_changesEv
libabigail.so.0:_ZNK7abigail10comparison19class_or_union_diff21inserted_data_membersB5cxx11Ev
libabigail.so.0:_ZNK7abigail10comparison19class_or_union_diff21second_class_or_unionEv
libabigail.so.0:_ZNK7abigail10comparison19class_or_union_diff23member_fn_tmpls_changesEv
libabigail.so.0:_ZNK7abigail10comparison19class_or_union_diff26member_class_tmpls_changesEv
libabigail.so.0:_ZNK7abigail10comparison19class_or_union_diff27sorted_changed_data_membersEv
libabigail.so.0:_ZNK7abigail10comparison19class_or_union_diff29data_members_replaced_by_admsB5cxx11Ev
libabigail.so.0:_ZNK7abigail10comparison19class_or_union_diff30ensure_lookup_tables_populatedEv
libabigail.so.0:_ZNK7abigail10comparison19class_or_union_diff35count_filtered_changed_data_membersEb
libabigail.so.0:_ZNK7abigail10comparison19class_or_union_diff35sorted_subtype_changed_data_membersEv
libabigail.so.0:_ZNK7abigail10comparison19class_or_union_diff37ordered_data_members_replaced_by_admsEv
libabigail.so.0:_ZNK7abigail10comparison19class_or_union_diff43count_filtered_subtype_changed_data_membersEb
libabigail.so.0:_ZNK7abigail10comparison19class_or_union_diff4priv18subtype_changed_dmESt10shared_ptrINS_2ir9decl_baseEE
libabigail.so.0:_ZNK7abigail10comparison19class_or_union_diff4priv23member_type_has_changedESt10shared_ptrINS_2ir9decl_baseEE
libabigail.so.0:_ZNK7abigail10comparison19class_or_union_diff4priv29member_class_tmpl_has_changedESt10shared_ptrINS_2ir9decl_baseEE
libabigail.so.0:_ZNK7abigail10comparison19class_or_union_diff4priv42get_deleted_non_static_data_members_numberEv
libabigail.so.0:_ZNK7abigail10comparison19class_or_union_diff4priv43get_inserted_non_static_data_members_numberEv
libabigail.so.0:_ZNK7abigail10comparison19class_or_union_diff6reportERSoRKNSt7__cxx1112basic_stringIcSt11char_traitsIcESaIcEEE
libabigail.so.0:_ZNK7abigail10comparison19class_or_union_diff8get_privEv
libabigail.so.0:_ZNK7abigail10comparison19qualified_type_diff11has_changesEv
libabigail.so.0:_ZNK7abigail10comparison19qualified_type_diff17has_local_changesEv
libabigail.so.0:_ZNK7abigail10comparison19qualified_type_diff20first_qualified_typeEv
libabigail.so.0:_ZNK7abigail10comparison19qualified_type_diff20underlying_type_diffEv
libabigail.so.0:_ZNK7abigail10comparison19qualified_type_diff21second_qualified_typeEv
libabigail.so.0:_ZNK7abigail10comparison19qualified_type_diff25get_pretty_representationB5cxx11Ev
libabigail.so.0:_ZNK7abigail10comparison19qualified_type_diff25leaf_underlying_type_diffEv
libabigail.so.0:_ZNK7abigail10comparison19qualified_type_diff6reportERSoRKNSt7__cxx1112basic_stringIcSt11char_traitsIcESaIcEEE
libabigail.so.0:_ZNK7abigail10comparison21translation_unit_diff11has_changesEv
libabigail.so.0:_ZNK7abigail10comparison21translation_unit_diff17has_local_changesEv
libabigail.so.0:_ZNK7abigail10comparison21translation_unit_diff22first_translation_unitEv
libabigail.so.0:_ZNK7abigail10comparison21translation_unit_diff23second_translation_unitEv
libabigail.so.0:_ZNK7abigail10comparison21translation_unit_diff6reportERSoRKNSt7__cxx1112basic_stringIcSt11char_traitsIcESaIcEEE
libabigail.so.0:_ZNK7abigail10comparison4diff11parent_nodeEv
libabigail.so.0:_ZNK7abigail10comparison4diff12get_categoryEv
libabigail.so.0:_ZNK7abigail10comparison4diff13first_subjectEv
libabigail.so.0:_ZNK7abigail10comparison4diff13is_suppressedERb
libabigail.so.0:_ZNK7abigail10comparison4diff13is_suppressedEv
libabigail.so.0:_ZNK7abigail10comparison4diff13is_traversingEv
libabigail.so.0:_ZNK7abigail10comparison4diff13reported_onceEb
libabigail.so.0:_ZNK7abigail10comparison4diff13reported_onceEv
libabigail.so.0:_ZNK7abigail10comparison4diff14children_nodesEv
libabigail.so.0:_ZNK7abigail10comparison4diff14second_subjectEv
libabigail.so.0:_ZNK7abigail10comparison4diff14to_be_reportedEv
libabigail.so.0:_ZNK7abigail10comparison4diff15is_filtered_outEv
libabigail.so.0:_ZNK7abigail10comparison4diff18get_canonical_diffEv
libabigail.so.0:_ZNK7abigail10comparison4diff18get_local_categoryEv
libabigail.so.0:_ZNK7abigail10comparison4diff19currently_reportingEb
libabigail.so.0:_ZNK7abigail10comparison4diff19currently_reportingEv
libabigail.so.0:_ZNK7abigail10comparison4diff25get_pretty_representationB5cxx11Ev
libabigail.so.0:_ZNK7abigail10comparison4diff27get_class_of_equiv_categoryEv
libabigail.so.0:_ZNK7abigail10comparison4diff32has_local_changes_to_be_reportedEv
libabigail.so.0:_ZNK7abigail10comparison4diff44is_filtered_out_wrt_non_inherited_categoriesEv
libabigail.so.0:_ZNK7abigail10comparison4diff7contextEv
libabigail.so.0:_ZNK7abigail10comparison8var_diff10second_varEv
libabigail.so.0:_ZNK7abigail10comparison8var_diff11has_changesEv
libabigail.so.0:_ZNK7abigail10comparison8var_diff17has_local_changesEv
libabigail.so.0:_ZNK7abigail10comparison8var_diff25get_pretty_representationB5cxx11Ev
libabigail.so.0:_ZNK7abigail10comparison8var_diff6reportERSoRKNSt7__cxx1112basic_stringIcSt11char_traitsIcESaIcEEE
libabigail.so.0:_ZNK7abigail10comparison8var_diff9first_varEv
libabigail.so.0:_ZNK7abigail10comparison8var_diff9type_diffEv
libabigail.so.0:_ZNK7abigail10comparison9base_diff10first_baseEv
libabigail.so.0:_ZNK7abigail10comparison9base_diff11has_changesEv
libabigail.so.0:_ZNK7abigail10comparison9base_diff11second_baseEv
libabigail.so.0:_ZNK7abigail10comparison9base_diff17has_local_changesEv
libabigail.so.0:_ZNK7abigail10comparison9base_diff25get_pretty_representationB5cxx11Ev
libabigail.so.0:_ZNK7abigail10comparison9base_diff25get_underlying_class_diffEv
libabigail.so.0:_ZNK7abigail10comparison9base_diff6reportERSoRKNSt7__cxx1112basic_stringIcSt11char_traitsIcESaIcEEE
libabigail.so.0:_ZNK7abigail10comparison9diff_maps17get_enum_diff_mapB5cxx11Ev
libabigail.so.0:_ZNK7abigail10comparison9diff_maps18get_array_diff_mapB5cxx11Ev
libabigail.so.0:_ZNK7abigail10comparison9diff_maps18get_class_diff_mapB5cxx11Ev
libabigail.so.0:_ZNK7abigail10comparison9diff_maps18get_union_diff_mapB5cxx11Ev
libabigail.so.0:_ZNK7abigail10comparison9diff_maps20get_fn_parm_diff_mapB5cxx11Ev
libabigail.so.0:_ZNK7abigail10comparison9diff_maps20get_typedef_diff_mapB5cxx11Ev
libabigail.so.0:_ZNK7abigail10comparison9diff_maps21get_distinct_diff_mapB5cxx11Ev
libabigail.so.0:_ZNK7abigail10comparison9diff_maps21get_var_decl_diff_mapB5cxx11Ev
libabigail.so.0:_ZNK7abigail10comparison9diff_maps22get_reference_diff_mapB5cxx11Ev
libabigail.so.0:_ZNK7abigail10comparison9diff_maps22get_type_decl_diff_mapB5cxx11Ev
libabigail.so.0:_ZNK7abigail10comparison9diff_maps26get_function_decl_diff_mapB5cxx11Ev
libabigail.so.0:_ZNK7abigail10comparison9diff_maps26get_function_type_diff_mapB5cxx11Ev
libabigail.so.0:_ZNK7abigail10comparison9diff_maps26lookup_impacted_interfacesEPKNS0_4diffE
libabigail.so.0:_ZNK7abigail10comparison9enum_diff10first_enumEv
libabigail.so.0:_ZNK7abigail10comparison9enum_diff11has_changesEv
libabigail.so.0:_ZNK7abigail10comparison9enum_diff11second_enumEv
libabigail.so.0:_ZNK7abigail10comparison9enum_diff17has_local_changesEv
libabigail.so.0:_ZNK7abigail10comparison9enum_diff19changed_enumeratorsB5cxx11Ev
libabigail.so.0:_ZNK7abigail10comparison9enum_diff19deleted_enumeratorsB5cxx11Ev
libabigail.so.0:_ZNK7abigail10comparison9enum_diff19lookup_tables_emptyEv
libabigail.so.0:_ZNK7abigail10comparison9enum_diff20inserted_enumeratorsB5cxx11Ev
libabigail.so.0:_ZNK7abigail10comparison9enum_diff20underlying_type_diffEv
libabigail.so.0:_ZNK7abigail10comparison9enum_diff25get_pretty_representationB5cxx11Ev
libabigail.so.0:_ZNK7abigail10comparison9enum_diff6reportERSoRKNSt7__cxx1112basic_stringIcSt11char_traitsIcESaIcEEE
libabigail.so.0:_ZNK7abigail10typography12to_attributeB5cxx11ENS0_6anchorE
libabigail.so.0:_ZNK7abigail10typography16anchor_to_stringB5cxx11ENS0_6anchorE
libabigail.so.0:_ZNK7abigail11tools_utils5timer15value_as_stringB5cxx11Ev
libabigail.so.0:_ZNK7abigail11tools_utils5timer16value_in_secondsEv
libabigail.so.0:_ZNK7abigail11tools_utils5timer5valueERlS2_S2_S2_
libabigail.so.0:_ZNK7abigail11tools_utils9temp_file7is_goodEv
libabigail.so.0:_ZNK7abigail11tools_utils9temp_file8get_pathEv
libabigail.so.0:_ZNK7abigail13symtab_reader13symtab_filter7matchesERKNS_2ir10elf_symbolE
libabigail.so.0:_ZNK7abigail20interned_string_pool10get_stringEPKc
libabigail.so.0:_ZNK7abigail20interned_string_pool10has_stringEPKc
libabigail.so.0:_ZNK7abigail2ir10class_decl10has_vtableEv
libabigail.so.0:_ZNK7abigail2ir10class_decl15find_base_classERKNSt7__cxx1112basic_stringIcSt11char_traitsIcESaIcEEE
libabigail.so.0:_ZNK7abigail2ir10class_decl17has_virtual_basesEv
libabigail.so.0:_ZNK7abigail2ir10class_decl19get_base_specifiersEv
libabigail.so.0:_ZNK7abigail2ir10class_decl19get_virtual_mem_fnsEv
libabigail.so.0:_ZNK7abigail2ir10class_decl22has_no_base_nor_memberEv
libabigail.so.0:_ZNK7abigail2ir10class_decl23get_virtual_mem_fns_mapEv
libabigail.so.0:_ZNK7abigail2ir10class_decl25get_biggest_vtable_offsetEv
libabigail.so.0:_ZNK7abigail2ir10class_decl25get_pretty_representationB5cxx11Ebb
libabigail.so.0:_ZNK7abigail2ir10class_decl28has_virtual_member_functionsEv
libabigail.so.0:_ZNK7abigail2ir10class_decl4hashclEPKS1_
libabigail.so.0:_ZNK7abigail2ir10class_decl4hashclERKS1_
libabigail.so.0:_ZNK7abigail2ir10class_decl8get_hashEv
libabigail.so.0:_ZNK7abigail2ir10class_decl9base_spec14get_base_classEv
libabigail.so.0:_ZNK7abigail2ir10class_decl9base_spec14get_is_virtualEv
libabigail.so.0:_ZNK7abigail2ir10class_decl9base_spec18get_offset_in_bitsEv
libabigail.so.0:_ZNK7abigail2ir10class_decl9base_spec4hashclERKS2_
libabigail.so.0:_ZNK7abigail2ir10class_decl9base_spec8get_hashEv
libabigail.so.0:_ZNK7abigail2ir10class_decl9base_speceqERKNS0_11member_baseE
libabigail.so.0:_ZNK7abigail2ir10class_decl9base_speceqERKNS0_9decl_baseE
libabigail.so.0:_ZNK7abigail2ir10class_decl9is_structEv
libabigail.so.0:_ZNK7abigail2ir10class_decleqERKNS0_9decl_baseE
libabigail.so.0:_ZNK7abigail2ir10class_decleqERKNS0_9type_baseE
libabigail.so.0:_ZNK7abigail2ir10class_decleqERKS1_
libabigail.so.0:_ZNK7abigail2ir10elf_symbol10does_aliasERKS1_
libabigail.so.0:_ZNK7abigail2ir10elf_symbol10is_definedEv
libabigail.so.0:_ZNK7abigail2ir10elf_symbol11get_bindingEv
libabigail.so.0:_ZNK7abigail2ir10elf_symbol11get_versionEv
libabigail.so.0:_ZNK7abigail2ir10elf_symbol11has_aliasesEv
libabigail.so.0:_ZNK7abigail2ir10elf_symbol11is_functionEv
libabigail.so.0:_ZNK7abigail2ir10elf_symbol11is_variableEv
libabigail.so.0:_ZNK7abigail2ir10elf_symbol13get_id_stringB5cxx11Ev
libabigail.so.0:_ZNK7abigail2ir10elf_symbol13is_in_ksymtabEv
libabigail.so.0:_ZNK7abigail2ir10elf_symbol13is_suppressedEv
libabigail.so.0:_ZNK7abigail2ir10elf_symbol14get_next_aliasEv
libabigail.so.0:_ZNK7abigail2ir10elf_symbol14get_visibilityEv
libabigail.so.0:_ZNK7abigail2ir10elf_symbol14is_main_symbolEv
libabigail.so.0:_ZNK7abigail2ir10elf_symbol15get_environmentEv
libabigail.so.0:_ZNK7abigail2ir10elf_symbol15get_main_symbolEv
libabigail.so.0:_ZNK7abigail2ir10elf_symbol15set_environmentEPKNS0_11environmentE
libabigail.so.0:_ZNK7abigail2ir10elf_symbol16is_common_symbolEv
libabigail.so.0:_ZNK7abigail2ir10elf_symbol19get_alias_from_nameERKNSt7__cxx1112basic_stringIcSt11char_traitsIcESaIcEEE
libabigail.so.0:_ZNK7abigail2ir10elf_symbol21get_aliases_id_stringB5cxx11Eb
libabigail.so.0:_ZNK7abigail2ir10elf_symbol21get_aliases_id_stringERKSt13unordered_mapINSt7__cxx1112basic_stringIcSt11char_traitsIcESaIcEEESt6vectorISt10shared_ptrIS1_ESaISB_EESt4hashIS8_ESt8equal_toIS8_ESaISt4pairIKS8_SD_EEEb
libabigail.so.0:_ZNK7abigail2ir10elf_symbol21get_number_of_aliasesEv
libabigail.so.0:_ZNK7abigail2ir10elf_symbol22get_alias_which_equalsERKS1_
libabigail.so.0:_ZNK7abigail2ir10elf_symbol24get_next_common_instanceEv
libabigail.so.0:_ZNK7abigail2ir10elf_symbol26has_other_common_instancesEv
libabigail.so.0:_ZNK7abigail2ir10elf_symbol7get_crcEv
libabigail.so.0:_ZNK7abigail2ir10elf_symbol7version10is_defaultEv
libabigail.so.0:_ZNK7abigail2ir10elf_symbol7version3strB5cxx11Ev
libabigail.so.0:_ZNK7abigail2ir10elf_symbol7version8is_emptyEv
libabigail.so.0:_ZNK7abigail2ir10elf_symbol7versioncvRKNSt7__cxx1112basic_stringIcSt11char_traitsIcESaIcEEEEv
libabigail.so.0:_ZNK7abigail2ir10elf_symbol7versioneqERKS2_
libabigail.so.0:_ZNK7abigail2ir10elf_symbol7versionneERKS2_
libabigail.so.0:_ZNK7abigail2ir10elf_symbol8get_nameB5cxx11Ev
libabigail.so.0:_ZNK7abigail2ir10elf_symbol8get_sizeEv
libabigail.so.0:_ZNK7abigail2ir10elf_symbol8get_typeEv
libabigail.so.0:_ZNK7abigail2ir10elf_symbol9get_indexEv
libabigail.so.0:_ZNK7abigail2ir10elf_symbol9is_publicEv
libabigail.so.0:_ZNK7abigail2ir10elf_symboleqERKS1_
libabigail.so.0:_ZNK7abigail2ir10scope_decl16get_member_declsEv
libabigail.so.0:_ZNK7abigail2ir10scope_decl17get_member_scopesEv
libabigail.so.0:_ZNK7abigail2ir10scope_decl19get_canonical_typesEv
libabigail.so.0:_ZNK7abigail2ir10scope_decl23get_sorted_member_declsEv
libabigail.so.0:_ZNK7abigail2ir10scope_decl26get_sorted_canonical_typesEv
libabigail.so.0:_ZNK7abigail2ir10scope_decl30get_num_anonymous_member_enumsEv
libabigail.so.0:_ZNK7abigail2ir10scope_decl31get_num_anonymous_member_unionsEv
libabigail.so.0:_ZNK7abigail2ir10scope_decl32get_num_anonymous_member_classesEv
libabigail.so.0:_ZNK7abigail2ir10scope_decl4hashclEPKS1_
libabigail.so.0:_ZNK7abigail2ir10scope_decl4hashclERKS1_
libabigail.so.0:_ZNK7abigail2ir10scope_decl8get_hashEv
libabigail.so.0:_ZNK7abigail2ir10scope_decl8is_emptyEv
libabigail.so.0:_ZNK7abigail2ir10scope_decleqERKNS0_9decl_baseE
libabigail.so.0:_ZNK7abigail2ir10union_decl25get_pretty_representationB5cxx11Ebb
libabigail.so.0:_ZNK7abigail2ir10union_decleqERKNS0_9decl_baseE
libabigail.so.0:_ZNK7abigail2ir10union_decleqERKNS0_9type_baseE
libabigail.so.0:_ZNK7abigail2ir10union_decleqERKS1_
libabigail.so.0:_ZNK7abigail2ir11class_tdecl11get_patternEv
libabigail.so.0:_ZNK7abigail2ir11class_tdecl15shared_ptr_hashclESt10shared_ptrIS1_E
libabigail.so.0:_ZNK7abigail2ir11class_tdecl4hashclERKS1_
libabigail.so.0:_ZNK7abigail2ir11class_tdecleqERKNS0_13template_declE
libabigail.so.0:_ZNK7abigail2ir11class_tdecleqERKNS0_9decl_baseE
libabigail.so.0:_ZNK7abigail2ir11class_tdecleqERKS1_
libabigail.so.0:_ZNK7abigail2ir11environment10get_configEv
libabigail.so.0:_ZNK7abigail2ir11environment12is_void_typeEPKNS0_9type_baseE
libabigail.so.0:_ZNK7abigail2ir11environment12is_void_typeERKSt10shared_ptrINS0_9type_baseEE
libabigail.so.0:_ZNK7abigail2ir11environment13get_void_typeEv
libabigail.so.0:_ZNK7abigail2ir11environment23get_canonical_types_mapB5cxx11Ev
libabigail.so.0:_ZNK7abigail2ir11environment24canonicalization_is_doneEv
libabigail.so.0:_ZNK7abigail2ir11environment26is_variadic_parameter_typeEPKNS0_9type_baseE
libabigail.so.0:_ZNK7abigail2ir11environment26is_variadic_parameter_typeERKSt10shared_ptrINS0_9type_baseEE
libabigail.so.0:_ZNK7abigail2ir11environment27get_variadic_parameter_typeEv
libabigail.so.0:_ZNK7abigail2ir11environment29use_enum_binary_only_equalityEb
libabigail.so.0:_ZNK7abigail2ir11environment29use_enum_binary_only_equalityEv
libabigail.so.0:_ZNK7abigail2ir11environment30do_on_the_fly_canonicalizationEv
libabigail.so.0:_ZNK7abigail2ir11environment33decl_only_class_equals_definitionEb
libabigail.so.0:_ZNK7abigail2ir11environment33decl_only_class_equals_definitionEv
libabigail.so.0:_ZNK7abigail2ir11environment6internERKNSt7__cxx1112basic_stringIcSt11char_traitsIcESaIcEEE
libabigail.so.0:_ZNK7abigail2ir11member_base4hashclERKS1_
libabigail.so.0:_ZNK7abigail2ir11member_baseeqERKS1_
libabigail.so.0:_ZNK7abigail2ir11method_decl8get_typeEv
libabigail.so.0:_ZNK7abigail2ir11method_type12get_is_constEv
libabigail.so.0:_ZNK7abigail2ir11method_type14get_class_typeEv
libabigail.so.0:_ZNK7abigail2ir11method_type25get_pretty_representationB5cxx11Ebb
libabigail.so.0:_ZNK7abigail2ir12corpus_group11get_corporaEv
libabigail.so.0:_ZNK7abigail2ir12corpus_group13get_functionsEv
libabigail.so.0:_ZNK7abigail2ir12corpus_group13get_variablesEv
libabigail.so.0:_ZNK7abigail2ir12corpus_group15get_main_corpusEv
libabigail.so.0:_ZNK7abigail2ir12corpus_group18get_fun_symbol_mapB5cxx11Ev
libabigail.so.0:_ZNK7abigail2ir12corpus_group18get_var_symbol_mapB5cxx11Ev
libabigail.so.0:_ZNK7abigail2ir12corpus_group22get_sorted_fun_symbolsEv
libabigail.so.0:_ZNK7abigail2ir12corpus_group22get_sorted_var_symbolsEv
libabigail.so.0:_ZNK7abigail2ir12corpus_group33get_unreferenced_function_symbolsEv
libabigail.so.0:_ZNK7abigail2ir12corpus_group33get_unreferenced_variable_symbolsEv
libabigail.so.0:_ZNK7abigail2ir12corpus_group8is_emptyEv
libabigail.so.0:_ZNK7abigail2ir12typedef_decl16get_size_in_bitsEv
libabigail.so.0:_ZNK7abigail2ir12typedef_decl19get_underlying_typeEv
libabigail.so.0:_ZNK7abigail2ir12typedef_decl21get_alignment_in_bitsEv
libabigail.so.0:_ZNK7abigail2ir12typedef_decl25get_pretty_representationB5cxx11Ebb
libabigail.so.0:_ZNK7abigail2ir12typedef_decleqERKNS0_9decl_baseE
libabigail.so.0:_ZNK7abigail2ir12typedef_decleqERKNS0_9type_baseE
libabigail.so.0:_ZNK7abigail2ir13function_decl10get_symbolEv
libabigail.so.0:_ZNK7abigail2ir13function_decl11get_bindingEv
libabigail.so.0:_ZNK7abigail2ir13function_decl11is_variadicEv
libabigail.so.0:_ZNK7abigail2ir13function_decl14get_naked_typeEv
libabigail.so.0:_ZNK7abigail2ir13function_decl14get_parametersEv
libabigail.so.0:_ZNK7abigail2ir13function_decl15get_return_typeEv
libabigail.so.0:_ZNK7abigail2ir13function_decl18is_declared_inlineEv
libabigail.so.0:_ZNK7abigail2ir13function_decl25get_pretty_representationB5cxx11Ebb
libabigail.so.0:_ZNK7abigail2ir13function_decl27get_first_non_implicit_parmEv
libabigail.so.0:_ZNK7abigail2ir13function_decl39get_pretty_representation_of_declaratorB5cxx11Eb
libabigail.so.0:_ZNK7abigail2ir13function_decl4hashclEPKS1_
libabigail.so.0:_ZNK7abigail2ir13function_decl4hashclERKS1_
libabigail.so.0:_ZNK7abigail2ir13function_decl5cloneEv
libabigail.so.0:_ZNK7abigail2ir13function_decl6get_idEv
libabigail.so.0:_ZNK7abigail2ir13function_decl8get_hashEv
libabigail.so.0:_ZNK7abigail2ir13function_decl8get_typeEv
libabigail.so.0:_ZNK7abigail2ir13function_decl9parameter11get_name_idEv
libabigail.so.0:_ZNK7abigail2ir13function_decl9parameter13get_type_nameEv
libabigail.so.0:_ZNK7abigail2ir13function_decl9parameter18get_qualified_nameERNS_15interned_stringEb
libabigail.so.0:_ZNK7abigail2ir13function_decl9parameter19get_variadic_markerEv
libabigail.so.0:_ZNK7abigail2ir13function_decl9parameter25get_pretty_representationB5cxx11Ebb
libabigail.so.0:_ZNK7abigail2ir13function_decl9parameter30get_type_pretty_representationB5cxx11Ev
libabigail.so.0:_ZNK7abigail2ir13function_decl9parameter4hashclEPKS2_
libabigail.so.0:_ZNK7abigail2ir13function_decl9parameter4hashclERKS2_
libabigail.so.0:_ZNK7abigail2ir13function_decl9parameter4hashclESt10shared_ptrIS2_E
libabigail.so.0:_ZNK7abigail2ir13function_decl9parameter8get_hashEv
libabigail.so.0:_ZNK7abigail2ir13function_decl9parameter8get_typeEv
libabigail.so.0:_ZNK7abigail2ir13function_decl9parameter9get_indexEv
libabigail.so.0:_ZNK7abigail2ir13function_decl9parametereqERKNS0_9decl_baseE
libabigail.so.0:_ZNK7abigail2ir13function_decl9parametereqERKS2_
libabigail.so.0:_ZNK7abigail2ir13function_decleqERKNS0_9decl_baseE
libabigail.so.0:_ZNK7abigail2ir13function_type11is_variadicEv
libabigail.so.0:_ZNK7abigail2ir13function_type14get_first_parmEv
libabigail.so.0:_ZNK7abigail2ir13function_type14get_parametersEv
libabigail.so.0:_ZNK7abigail2ir13function_type15get_cached_nameEb
libabigail.so.0:_ZNK7abigail2ir13function_type15get_return_typeEv
libabigail.so.0:_ZNK7abigail2ir13function_type25get_pretty_representationB5cxx11Ebb
libabigail.so.0:_ZNK7abigail2ir13function_type27get_first_non_implicit_parmEv
libabigail.so.0:_ZNK7abigail2ir13function_type46get_parm_at_index_from_first_non_implicit_parmEm
libabigail.so.0:_ZNK7abigail2ir13function_type4hashclEPKS1_
libabigail.so.0:_ZNK7abigail2ir13function_type4hashclERKS1_
libabigail.so.0:_ZNK7abigail2ir13function_type4hashclESt10shared_ptrIS1_E
libabigail.so.0:_ZNK7abigail2ir13function_typeeqERKNS0_9type_baseE
libabigail.so.0:_ZNK7abigail2ir13template_decl23get_template_parametersB5cxx11Ev
libabigail.so.0:_ZNK7abigail2ir13template_decl4hashclERKS1_
libabigail.so.0:_ZNK7abigail2ir13template_decleqERKS1_
libabigail.so.0:_ZNK7abigail2ir14array_type_def11is_infiniteEv
libabigail.so.0:_ZNK7abigail2ir14array_type_def12get_languageEv
libabigail.so.0:_ZNK7abigail2ir14array_type_def12get_locationEv
libabigail.so.0:_ZNK7abigail2ir14array_type_def13get_subrangesEv
libabigail.so.0:_ZNK7abigail2ir14array_type_def13subrange_type10get_lengthEv
libabigail.so.0:_ZNK7abigail2ir14array_type_def13subrange_type11bound_value14get_signednessEv
libabigail.so.0:_ZNK7abigail2ir14array_type_def13subrange_type11bound_value16get_signed_valueEv
libabigail.so.0:_ZNK7abigail2ir14array_type_def13subrange_type11bound_valueeqERKS3_
libabigail.so.0:_ZNK7abigail2ir14array_type_def13subrange_type11is_infiniteEv
libabigail.so.0:_ZNK7abigail2ir14array_type_def13subrange_type12get_languageEv
libabigail.so.0:_ZNK7abigail2ir14array_type_def13subrange_type15get_lower_boundEv
libabigail.so.0:_ZNK7abigail2ir14array_type_def13subrange_type15get_upper_boundEv
libabigail.so.0:_ZNK7abigail2ir14array_type_def13subrange_type19get_underlying_typeEv
libabigail.so.0:_ZNK7abigail2ir14array_type_def13subrange_type25get_pretty_representationB5cxx11Ebb
libabigail.so.0:_ZNK7abigail2ir14array_type_def13subrange_type9as_stringB5cxx11Ev
libabigail.so.0:_ZNK7abigail2ir14array_type_def13subrange_typeeqERKNS0_9decl_baseE
libabigail.so.0:_ZNK7abigail2ir14array_type_def13subrange_typeeqERKNS0_9type_baseE
libabigail.so.0:_ZNK7abigail2ir14array_type_def13subrange_typeeqERKS2_
libabigail.so.0:_ZNK7abigail2ir14array_type_def13subrange_typeneERKS2_
libabigail.so.0:_ZNK7abigail2ir14array_type_def16get_element_typeEv
libabigail.so.0:_ZNK7abigail2ir14array_type_def18get_qualified_nameERNS_15interned_stringEb
libabigail.so.0:_ZNK7abigail2ir14array_type_def18get_qualified_nameEb
libabigail.so.0:_ZNK7abigail2ir14array_type_def19get_dimension_countEv
libabigail.so.0:_ZNK7abigail2ir14array_type_def25get_pretty_representationB5cxx11Ebb
libabigail.so.0:_ZNK7abigail2ir14array_type_def27get_subrange_representationB5cxx11Ev
libabigail.so.0:_ZNK7abigail2ir14array_type_defeqERKNS0_9decl_baseE
libabigail.so.0:_ZNK7abigail2ir14array_type_defeqERKNS0_9type_baseE
libabigail.so.0:_ZNK7abigail2ir14class_or_union13has_no_memberEv
libabigail.so.0:_ZNK7abigail2ir14class_or_union16find_data_memberERKNSt7__cxx1112basic_stringIcSt11char_traitsIcESaIcEEE
libabigail.so.0:_ZNK7abigail2ir14class_or_union16find_data_memberERKSt10shared_ptrINS0_8var_declEE
libabigail.so.0:_ZNK7abigail2ir14class_or_union16find_member_typeERKNSt7__cxx1112basic_stringIcSt11char_traitsIcESaIcEEE
libabigail.so.0:_ZNK7abigail2ir14class_or_union16get_data_membersEv
libabigail.so.0:_ZNK7abigail2ir14class_or_union16get_member_typesEv
libabigail.so.0:_ZNK7abigail2ir14class_or_union16get_size_in_bitsEv
libabigail.so.0:_ZNK7abigail2ir14class_or_union20find_member_functionERKNSt7__cxx1112basic_stringIcSt11char_traitsIcESaIcEEE
libabigail.so.0:_ZNK7abigail2ir14class_or_union20get_member_functionsEv
libabigail.so.0:_ZNK7abigail2ir14class_or_union21get_alignment_in_bitsEv
libabigail.so.0:_ZNK7abigail2ir14class_or_union26find_anonymous_data_memberERKSt10shared_ptrINS0_8var_declEE
libabigail.so.0:_ZNK7abigail2ir14class_or_union26get_member_class_templatesEv
libabigail.so.0:_ZNK7abigail2ir14class_or_union27get_non_static_data_membersEv
libabigail.so.0:_ZNK7abigail2ir14class_or_union29get_member_function_templatesEv
libabigail.so.0:_ZNK7abigail2ir14class_or_union30get_num_anonymous_member_enumsEv
libabigail.so.0:_ZNK7abigail2ir14class_or_union31get_num_anonymous_member_unionsEv
libabigail.so.0:_ZNK7abigail2ir14class_or_union32get_num_anonymous_member_classesEv
libabigail.so.0:_ZNK7abigail2ir14class_or_union35find_member_function_from_signatureERKNSt7__cxx1112basic_stringIcSt11char_traitsIcESaIcEEE
libabigail.so.0:_ZNK7abigail2ir14class_or_union4hashclEPKS1_
libabigail.so.0:_ZNK7abigail2ir14class_or_union4hashclERKS1_
libabigail.so.0:_ZNK7abigail2ir14class_or_unioneqERKNS0_9decl_baseE
libabigail.so.0:_ZNK7abigail2ir14class_or_unioneqERKNS0_9type_baseE
libabigail.so.0:_ZNK7abigail2ir14class_or_unioneqERKS1_
libabigail.so.0:_ZNK7abigail2ir14dm_context_rel15get_is_laid_outEv
libabigail.so.0:_ZNK7abigail2ir14dm_context_rel18get_offset_in_bitsEv
libabigail.so.0:_ZNK7abigail2ir14dm_context_rel25get_anonymous_data_memberEv
libabigail.so.0:_ZNK7abigail2ir14dm_context_releqERKS1_
libabigail.so.0:_ZNK7abigail2ir14dm_context_relneERKS1_
libabigail.so.0:_ZNK7abigail2ir14enum_type_decl10enumerator13get_enum_typeEv
libabigail.so.0:_ZNK7abigail2ir14enum_type_decl10enumerator15get_environmentEv
libabigail.so.0:_ZNK7abigail2ir14enum_type_decl10enumerator18get_qualified_nameEb
libabigail.so.0:_ZNK7abigail2ir14enum_type_decl10enumerator8get_nameEv
libabigail.so.0:_ZNK7abigail2ir14enum_type_decl10enumerator9get_valueEv
libabigail.so.0:_ZNK7abigail2ir14enum_type_decl10enumeratoreqERKS2_
libabigail.so.0:_ZNK7abigail2ir14enum_type_decl10enumeratorneERKS2_
libabigail.so.0:_ZNK7abigail2ir14enum_type_decl15get_enumeratorsEv
libabigail.so.0:_ZNK7abigail2ir14enum_type_decl19get_underlying_typeEv
libabigail.so.0:_ZNK7abigail2ir14enum_type_decl25get_pretty_representationB5cxx11Ebb
libabigail.so.0:_ZNK7abigail2ir14enum_type_decleqERKNS0_9decl_baseE
libabigail.so.0:_ZNK7abigail2ir14enum_type_decleqERKNS0_9type_baseE
libabigail.so.0:_ZNK7abigail2ir14function_tdecl11get_bindingEv
libabigail.so.0:_ZNK7abigail2ir14function_tdecl11get_patternEv
libabigail.so.0:_ZNK7abigail2ir14function_tdecl15shared_ptr_hashclESt10shared_ptrIS1_E
libabigail.so.0:_ZNK7abigail2ir14function_tdecl4hashclERKS1_
libabigail.so.0:_ZNK7abigail2ir14function_tdecleqERKNS0_13template_declE
libabigail.so.0:_ZNK7abigail2ir14function_tdecleqERKNS0_9decl_baseE
libabigail.so.0:_ZNK7abigail2ir14function_tdecleqERKS1_
libabigail.so.0:_ZNK7abigail2ir14namespace_decl25get_pretty_representationB5cxx11Ebb
libabigail.so.0:_ZNK7abigail2ir14namespace_decl36is_empty_or_has_empty_sub_namespacesEv
libabigail.so.0:_ZNK7abigail2ir14namespace_decleqERKNS0_9decl_baseE
libabigail.so.0:_ZNK7abigail2ir15ir_node_visitor26type_node_has_been_visitedEPNS0_9type_baseE
libabigail.so.0:_ZNK7abigail2ir15ir_node_visitor40allow_visiting_already_visited_type_nodeEv
libabigail.so.0:_ZNK7abigail2ir15scope_type_decleqERKNS0_9decl_baseE
libabigail.so.0:_ZNK7abigail2ir15scope_type_decleqERKNS0_9type_baseE
libabigail.so.0:_ZNK7abigail2ir15type_tparametereqERKNS0_18template_parameterE
libabigail.so.0:_ZNK7abigail2ir15type_tparametereqERKNS0_9type_baseE
libabigail.so.0:_ZNK7abigail2ir15type_tparametereqERKS1_
libabigail.so.0:_ZNK7abigail2ir16location_manager15expand_locationERKNS0_8locationERNSt7__cxx1112basic_stringIcSt11char_traitsIcESaIcEEERjSC_
libabigail.so.0:_ZNK7abigail2ir16pointer_type_def18get_qualified_nameERNS_15interned_stringEb
libabigail.so.0:_ZNK7abigail2ir16pointer_type_def18get_qualified_nameEb
libabigail.so.0:_ZNK7abigail2ir16pointer_type_def19get_pointed_to_typeEv
libabigail.so.0:_ZNK7abigail2ir16pointer_type_def25get_naked_pointed_to_typeEv
libabigail.so.0:_ZNK7abigail2ir16pointer_type_defeqERKNS0_9decl_baseE
libabigail.so.0:_ZNK7abigail2ir16pointer_type_defeqERKNS0_9type_baseE
libabigail.so.0:_ZNK7abigail2ir16pointer_type_defeqERKS1_
libabigail.so.0:_ZNK7abigail2ir16translation_unit10get_corpusEv
libabigail.so.0:_ZNK7abigail2ir16translation_unit11get_loc_mgrEv
libabigail.so.0:_ZNK7abigail2ir16translation_unit12get_languageEv
libabigail.so.0:_ZNK7abigail2ir16translation_unit14is_constructedEv
libabigail.so.0:_ZNK7abigail2ir16translation_unit15get_environmentEv
libabigail.so.0:_ZNK7abigail2ir16translation_unit16get_address_sizeEv
libabigail.so.0:_ZNK7abigail2ir16translation_unit16get_global_scopeEv
libabigail.so.0:_ZNK7abigail2ir16translation_unit17get_absolute_pathB5cxx11Ev
libabigail.so.0:_ZNK7abigail2ir16translation_unit17get_live_fn_typesEv
libabigail.so.0:_ZNK7abigail2ir16translation_unit24get_compilation_dir_pathB5cxx11Ev
libabigail.so.0:_ZNK7abigail2ir16translation_unit28bind_function_type_life_timeESt10shared_ptrINS0_13function_typeEE
libabigail.so.0:_ZNK7abigail2ir16translation_unit8get_pathB5cxx11Ev
libabigail.so.0:_ZNK7abigail2ir16translation_unit8is_emptyEv
libabigail.so.0:_ZNK7abigail2ir16translation_unit9get_typesEv
libabigail.so.0:_ZNK7abigail2ir16translation_uniteqERKS1_
libabigail.so.0:_ZNK7abigail2ir16translation_unitneERKS1_
libabigail.so.0:_ZNK7abigail2ir16traversable_base8visitingEv
libabigail.so.0:_ZNK7abigail2ir16type_composition17get_composed_typeEv
libabigail.so.0:_ZNK7abigail2ir16type_composition4hashclEPKS1_
libabigail.so.0:_ZNK7abigail2ir16type_composition4hashclERKS1_
libabigail.so.0:_ZNK7abigail2ir16type_composition8get_hashEv
libabigail.so.0:_ZNK7abigail2ir17type_or_decl_base10get_corpusEv
libabigail.so.0:_ZNK7abigail2ir17type_or_decl_base15get_environmentEv
libabigail.so.0:_ZNK7abigail2ir17type_or_decl_base15hashing_startedEb
libabigail.so.0:_ZNK7abigail2ir17type_or_decl_base15hashing_startedEv
libabigail.so.0:_ZNK7abigail2ir17type_or_decl_base17get_is_artificialEv
libabigail.so.0:_ZNK7abigail2ir17type_or_decl_base20get_translation_unitEv
libabigail.so.0:_ZNK7abigail2ir17type_or_decl_base21runtime_type_instanceEv
libabigail.so.0:_ZNK7abigail2ir17type_or_decl_base23get_artificial_locationEv
libabigail.so.0:_ZNK7abigail2ir17type_or_decl_base23has_artificial_locationEv
libabigail.so.0:_ZNK7abigail2ir17type_or_decl_base25type_or_decl_base_pointerEv
libabigail.so.0:_ZNK7abigail2ir17type_or_decl_base4kindEv
libabigail.so.0:_ZNK7abigail2ir18qualified_type_def10build_nameB5cxx11Ebb
libabigail.so.0:_ZNK7abigail2ir18qualified_type_def12get_cv_qualsEv
libabigail.so.0:_ZNK7abigail2ir18qualified_type_def16get_size_in_bitsEv
libabigail.so.0:_ZNK7abigail2ir18qualified_type_def18get_qualified_nameERNS_15interned_stringEb
libabigail.so.0:_ZNK7abigail2ir18qualified_type_def18get_qualified_nameEb
libabigail.so.0:_ZNK7abigail2ir18qualified_type_def19get_underlying_typeEv
libabigail.so.0:_ZNK7abigail2ir18qualified_type_def26get_cv_quals_string_prefixB5cxx11Ev
libabigail.so.0:_ZNK7abigail2ir18qualified_type_defeqERKNS0_9decl_baseE
libabigail.so.0:_ZNK7abigail2ir18qualified_type_defeqERKNS0_9type_baseE
libabigail.so.0:_ZNK7abigail2ir18qualified_type_defeqERKS1_
libabigail.so.0:_ZNK7abigail2ir18reference_type_def18get_qualified_nameERNS_15interned_stringEb
libabigail.so.0:_ZNK7abigail2ir18reference_type_def18get_qualified_nameEb
libabigail.so.0:_ZNK7abigail2ir18reference_type_def19get_pointed_to_typeEv
libabigail.so.0:_ZNK7abigail2ir18reference_type_def9is_lvalueEv
libabigail.so.0:_ZNK7abigail2ir18reference_type_defeqERKNS0_9decl_baseE
libabigail.so.0:_ZNK7abigail2ir18reference_type_defeqERKNS0_9type_baseE
libabigail.so.0:_ZNK7abigail2ir18reference_type_defeqERKS1_
libabigail.so.0:_ZNK7abigail2ir18template_parameter12dynamic_hashclEPKS1_
libabigail.so.0:_ZNK7abigail2ir18template_parameter23get_hashing_has_startedEv
libabigail.so.0:_ZNK7abigail2ir18template_parameter23set_hashing_has_startedEb
libabigail.so.0:_ZNK7abigail2ir18template_parameter27get_enclosing_template_declEv
libabigail.so.0:_ZNK7abigail2ir18template_parameter9get_indexEv
libabigail.so.0:_ZNK7abigail2ir18template_parametereqERKS1_
libabigail.so.0:_ZNK7abigail2ir18template_parameterneERKS1_
libabigail.so.0:_ZNK7abigail2ir19canonical_type_hashclEPKNS0_9type_baseE
libabigail.so.0:_ZNK7abigail2ir19canonical_type_hashclERKSt10shared_ptrINS0_9type_baseEE
libabigail.so.0:_ZNK7abigail2ir19non_type_tparameter4hashclEPKS1_
libabigail.so.0:_ZNK7abigail2ir19non_type_tparameter4hashclERKS1_
libabigail.so.0:_ZNK7abigail2ir19non_type_tparameter8get_hashEv
libabigail.so.0:_ZNK7abigail2ir19non_type_tparameter8get_typeEv
libabigail.so.0:_ZNK7abigail2ir19non_type_tparametereqERKNS0_18template_parameterE
libabigail.so.0:_ZNK7abigail2ir19non_type_tparametereqERKNS0_9decl_baseE
libabigail.so.0:_ZNK7abigail2ir19template_tparametereqERKNS0_13template_declE
libabigail.so.0:_ZNK7abigail2ir19template_tparametereqERKNS0_18template_parameterE
libabigail.so.0:_ZNK7abigail2ir19template_tparametereqERKNS0_9type_baseE
libabigail.so.0:_ZNK7abigail2ir21member_class_template4hashclERKS1_
libabigail.so.0:_ZNK7abigail2ir21member_class_templateeqERKNS0_11member_baseE
libabigail.so.0:_ZNK7abigail2ir21member_class_templateeqERKS1_
libabigail.so.0:_ZNK7abigail2ir24member_function_template4hashclERKS1_
libabigail.so.0:_ZNK7abigail2ir24member_function_templateeqERKNS0_11member_baseE
libabigail.so.0:_ZNK7abigail2ir6corpus10get_neededB5cxx11Ev
libabigail.so.0:_ZNK7abigail2ir6corpus10get_originEv
libabigail.so.0:_ZNK7abigail2ir6corpus10get_symtabEv
libabigail.so.0:_ZNK7abigail2ir6corpus13get_functionsEv
libabigail.so.0:_ZNK7abigail2ir6corpus13get_variablesEv
libabigail.so.0:_ZNK7abigail2ir6corpus15get_environmentEv
libabigail.so.0:_ZNK7abigail2ir6corpus16lookup_functionsERKNSt7__cxx1112basic_stringIcSt11char_traitsIcESaIcEEE
libabigail.so.0:_ZNK7abigail2ir6corpus18get_fun_symbol_mapB5cxx11Ev
libabigail.so.0:_ZNK7abigail2ir6corpus18get_var_symbol_mapB5cxx11Ev
libabigail.so.0:_ZNK7abigail2ir6corpus20get_type_per_loc_mapEv
libabigail.so.0:_ZNK7abigail2ir6corpus21find_translation_unitERKNSt7__cxx1112basic_stringIcSt11char_traitsIcESaIcEEE
libabigail.so.0:_ZNK7abigail2ir6corpus21get_architecture_nameB5cxx11Ev
libabigail.so.0:_ZNK7abigail2ir6corpus21get_translation_unitsEv
libabigail.so.0:_ZNK7abigail2ir6corpus22exported_decls_builder18exported_functionsEv
libabigail.so.0:_ZNK7abigail2ir6corpus22exported_decls_builder18exported_variablesEv
libabigail.so.0:_ZNK7abigail2ir6corpus22get_sorted_fun_symbolsEv
libabigail.so.0:_ZNK7abigail2ir6corpus22get_sorted_var_symbolsEv
libabigail.so.0:_ZNK7abigail2ir6corpus22lookup_function_symbolERKNS0_10elf_symbolE
libabigail.so.0:_ZNK7abigail2ir6corpus22lookup_function_symbolERKNSt7__cxx1112basic_stringIcSt11char_traitsIcESaIcEEE
libabigail.so.0:_ZNK7abigail2ir6corpus22lookup_function_symbolERKNSt7__cxx1112basic_stringIcSt11char_traitsIcESaIcEEERKNS0_10elf_symbol7versionE
libabigail.so.0:_ZNK7abigail2ir6corpus22lookup_variable_symbolERKNS0_10elf_symbolE
libabigail.so.0:_ZNK7abigail2ir6corpus22lookup_variable_symbolERKNSt7__cxx1112basic_stringIcSt11char_traitsIcESaIcEEE
libabigail.so.0:_ZNK7abigail2ir6corpus22lookup_variable_symbolERKNSt7__cxx1112basic_stringIcSt11char_traitsIcESaIcEEERKNS0_10elf_symbol7versionE
libabigail.so.0:_ZNK7abigail2ir6corpus26get_exported_decls_builderEv
libabigail.so.0:_ZNK7abigail2ir6corpus26get_sym_ids_of_fns_to_keepB5cxx11Ev
libabigail.so.0:_ZNK7abigail2ir6corpus27get_sym_ids_of_vars_to_keepB5cxx11Ev
libabigail.so.0:_ZNK7abigail2ir6corpus28get_undefined_fun_symbol_mapB5cxx11Ev
libabigail.so.0:_ZNK7abigail2ir6corpus28get_undefined_var_symbol_mapB5cxx11Ev
libabigail.so.0:_ZNK7abigail2ir6corpus31get_format_major_version_numberB5cxx11Ev
libabigail.so.0:_ZNK7abigail2ir6corpus31get_format_minor_version_numberB5cxx11Ev
libabigail.so.0:_ZNK7abigail2ir6corpus32get_sorted_undefined_fun_symbolsEv
libabigail.so.0:_ZNK7abigail2ir6corpus32get_sorted_undefined_var_symbolsEv
libabigail.so.0:_ZNK7abigail2ir6corpus33get_regex_patterns_of_fns_to_keepB5cxx11Ev
libabigail.so.0:_ZNK7abigail2ir6corpus33get_unreferenced_function_symbolsEv
libabigail.so.0:_ZNK7abigail2ir6corpus33get_unreferenced_variable_symbolsEv
libabigail.so.0:_ZNK7abigail2ir6corpus34get_regex_patterns_of_vars_to_keepB5cxx11Ev
libabigail.so.0:_ZNK7abigail2ir6corpus37get_regex_patterns_of_fns_to_suppressB5cxx11Ev
libabigail.so.0:_ZNK7abigail2ir6corpus38get_regex_patterns_of_vars_to_suppressB5cxx11Ev
libabigail.so.0:_ZNK7abigail2ir6corpus40type_is_reachable_from_public_interfacesERKNS0_9type_baseE
libabigail.so.0:_ZNK7abigail2ir6corpus46get_types_not_reachable_from_public_interfacesEv
libabigail.so.0:_ZNK7abigail2ir6corpus4priv18get_fun_symbol_mapB5cxx11Ev
libabigail.so.0:_ZNK7abigail2ir6corpus4priv18get_var_symbol_mapB5cxx11Ev
libabigail.so.0:_ZNK7abigail2ir6corpus4priv22get_sorted_fun_symbolsEv
libabigail.so.0:_ZNK7abigail2ir6corpus4priv22get_sorted_var_symbolsEv
libabigail.so.0:_ZNK7abigail2ir6corpus4priv28get_undefined_fun_symbol_mapB5cxx11Ev
libabigail.so.0:_ZNK7abigail2ir6corpus4priv28get_undefined_var_symbol_mapB5cxx11Ev
libabigail.so.0:_ZNK7abigail2ir6corpus4priv32get_sorted_undefined_fun_symbolsEv
libabigail.so.0:_ZNK7abigail2ir6corpus4priv32get_sorted_undefined_var_symbolsEv
libabigail.so.0:_ZNK7abigail2ir6corpus4priv33get_unreferenced_function_symbolsEv
libabigail.so.0:_ZNK7abigail2ir6corpus4priv33get_unreferenced_variable_symbolsEv
libabigail.so.0:_ZNK7abigail2ir6corpus4priv9get_typesEv
libabigail.so.0:_ZNK7abigail2ir6corpus8get_pathB5cxx11Ev
libabigail.so.0:_ZNK7abigail2ir6corpus8is_emptyEv
libabigail.so.0:_ZNK7abigail2ir6corpus9get_groupEv
libabigail.so.0:_ZNK7abigail2ir6corpus9get_typesEv
libabigail.so.0:_ZNK7abigail2ir6corpuseqERKS1_
libabigail.so.0:_ZNK7abigail2ir8location6expandB5cxx11Ev
libabigail.so.0:_ZNK7abigail2ir8location6expandERNSt7__cxx1112basic_stringIcSt11char_traitsIcESaIcEEERjS9_
libabigail.so.0:_ZNK7abigail2ir8var_decl10get_symbolEv
libabigail.so.0:_ZNK7abigail2ir8var_decl11get_bindingEv
libabigail.so.0:_ZNK7abigail2ir8var_decl14get_naked_typeEv
libabigail.so.0:_ZNK7abigail2ir8var_decl18get_qualified_nameEb
libabigail.so.0:_ZNK7abigail2ir8var_decl25get_anon_dm_reliable_nameB5cxx11Eb
libabigail.so.0:_ZNK7abigail2ir8var_decl25get_pretty_representationB5cxx11Ebb
libabigail.so.0:_ZNK7abigail2ir8var_decl4hashclEPKS1_
libabigail.so.0:_ZNK7abigail2ir8var_decl4hashclERKS1_
libabigail.so.0:_ZNK7abigail2ir8var_decl5cloneEv
libabigail.so.0:_ZNK7abigail2ir8var_decl6get_idEv
libabigail.so.0:_ZNK7abigail2ir8var_decl8get_hashEv
libabigail.so.0:_ZNK7abigail2ir8var_decl8get_typeEv
libabigail.so.0:_ZNK7abigail2ir8var_decleqERKNS0_9decl_baseE
libabigail.so.0:_ZNK7abigail2ir9decl_base12get_locationEv
libabigail.so.0:_ZNK7abigail2ir9decl_base14get_visibilityEv
libabigail.so.0:_ZNK7abigail2ir9decl_base15get_context_relEv
libabigail.so.0:_ZNK7abigail2ir9decl_base15get_scoped_nameEv
libabigail.so.0:_ZNK7abigail2ir9decl_base16get_is_anonymousEv
libabigail.so.0:_ZNK7abigail2ir9decl_base16get_linkage_nameEv
libabigail.so.0:_ZNK7abigail2ir9decl_base18get_naming_typedefEv
libabigail.so.0:_ZNK7abigail2ir9decl_base18get_qualified_nameERNS_15interned_stringEb
libabigail.so.0:_ZNK7abigail2ir9decl_base18get_qualified_nameEb
libabigail.so.0:_ZNK7abigail2ir9decl_base18set_qualified_nameERKNS_15interned_stringE
libabigail.so.0:_ZNK7abigail2ir9decl_base19peek_qualified_nameEv
libabigail.so.0:_ZNK7abigail2ir9decl_base23get_earlier_declarationEv
libabigail.so.0:_ZNK7abigail2ir9decl_base23get_is_declaration_onlyEv
libabigail.so.0:_ZNK7abigail2ir9decl_base24get_has_anonymous_parentEv
libabigail.so.0:_ZNK7abigail2ir9decl_base25get_pretty_representationB5cxx11Ebb
libabigail.so.0:_ZNK7abigail2ir9decl_base25get_qualified_parent_nameEv
libabigail.so.0:_ZNK7abigail2ir9decl_base28set_temporary_qualified_nameERKNS_15interned_stringE
libabigail.so.0:_ZNK7abigail2ir9decl_base29get_definition_of_declarationEv
libabigail.so.0:_ZNK7abigail2ir9decl_base29get_is_in_public_symbol_tableEv
libabigail.so.0:_ZNK7abigail2ir9decl_base29peek_temporary_qualified_nameEv
libabigail.so.0:_ZNK7abigail2ir9decl_base35get_naked_definition_of_declarationEv
libabigail.so.0:_ZNK7abigail2ir9decl_base40get_is_anonymous_or_has_anonymous_parentEv
libabigail.so.0:_ZNK7abigail2ir9decl_base8get_hashEv
libabigail.so.0:_ZNK7abigail2ir9decl_base8get_nameEv
libabigail.so.0:_ZNK7abigail2ir9decl_base9get_scopeEv
libabigail.so.0:_ZNK7abigail2ir9decl_baseeqERKS1_
libabigail.so.0:_ZNK7abigail2ir9decl_baseneERKS1_
libabigail.so.0:_ZNK7abigail2ir9type_base12dynamic_hashclEPKS1_
libabigail.so.0:_ZNK7abigail2ir9type_base15shared_ptr_hashclESt10shared_ptrIS1_E
libabigail.so.0:_ZNK7abigail2ir9type_base16get_size_in_bitsEv
libabigail.so.0:_ZNK7abigail2ir9type_base18get_canonical_typeEv
libabigail.so.0:_ZNK7abigail2ir9type_base21get_alignment_in_bitsEv
libabigail.so.0:_ZNK7abigail2ir9type_base24get_naked_canonical_typeEv
libabigail.so.0:_ZNK7abigail2ir9type_base32get_cached_pretty_representationEb
libabigail.so.0:_ZNK7abigail2ir9type_base4hashclEPKS1_
libabigail.so.0:_ZNK7abigail2ir9type_base4hashclERKS1_
libabigail.so.0:_ZNK7abigail2ir9type_base4hashclESt10shared_ptrIS1_E
libabigail.so.0:_ZNK7abigail2ir9type_baseeqERKS1_
libabigail.so.0:_ZNK7abigail2ir9type_baseneERKS1_
libabigail.so.0:_ZNK7abigail2ir9type_decl25get_pretty_representationB5cxx11Ebb
libabigail.so.0:_ZNK7abigail2ir9type_decleqERKNS0_9decl_baseE
libabigail.so.0:_ZNK7abigail2ir9type_decleqERKNS0_9type_baseE
libabigail.so.0:_ZNK7abigail2ir9type_decleqERKS1_
libabigail.so.0:_ZNK7abigail2ir9type_declneERKS1_
libabigail.so.0:_ZNK7abigail2ir9type_maps10enum_typesEv
libabigail.so.0:_ZNK7abigail2ir9type_maps11array_typesEv
libabigail.so.0:_ZNK7abigail2ir9type_maps11basic_typesEv
libabigail.so.0:_ZNK7abigail2ir9type_maps11class_typesEv
libabigail.so.0:_ZNK7abigail2ir9type_maps11union_typesEv
libabigail.so.0:_ZNK7abigail2ir9type_maps13pointer_typesEv
libabigail.so.0:_ZNK7abigail2ir9type_maps13typedef_typesEv
libabigail.so.0:_ZNK7abigail2ir9type_maps14function_typesEv
libabigail.so.0:_ZNK7abigail2ir9type_maps14subrange_typesEv
libabigail.so.0:_ZNK7abigail2ir9type_maps15qualified_typesEv
libabigail.so.0:_ZNK7abigail2ir9type_maps15reference_typesEv
libabigail.so.0:_ZNK7abigail2ir9type_maps24get_types_sorted_by_nameEv
libabigail.so.0:_ZNK7abigail2ir9type_maps5emptyEv
libabigail.so.0:_ZNK7abigail3ini13list_property9get_valueEv
libabigail.so.0:_ZNK7abigail3ini14property_value8get_kindEv
libabigail.so.0:_ZNK7abigail3ini14property_valuecvRKNSt7__cxx1112basic_stringIcSt11char_traitsIcESaIcEEEEv
libabigail.so.0:_ZNK7abigail3ini14tuple_property9get_valueEv
libabigail.so.0:_ZNK7abigail3ini15simple_property15has_empty_valueEv
libabigail.so.0:_ZNK7abigail3ini15simple_property9get_valueEv
libabigail.so.0:_ZNK7abigail3ini18function_call_expr13get_argumentsB5cxx11Ev
libabigail.so.0:_ZNK7abigail3ini18function_call_expr8get_nameB5cxx11Ev
libabigail.so.0:_ZNK7abigail3ini19list_property_value11get_contentB5cxx11Ev
libabigail.so.0:_ZNK7abigail3ini19list_property_value9as_stringB5cxx11Ev
libabigail.so.0:_ZNK7abigail3ini20tuple_property_value15get_value_itemsEv
libabigail.so.0:_ZNK7abigail3ini20tuple_property_value9as_stringB5cxx11Ev
libabigail.so.0:_ZNK7abigail3ini21string_property_value9as_stringB5cxx11Ev
libabigail.so.0:_ZNK7abigail3ini21string_property_valuecvNSt7__cxx1112basic_stringIcSt11char_traitsIcESaIcEEEEv
libabigail.so.0:_ZNK7abigail3ini6config12get_sectionsEv
libabigail.so.0:_ZNK7abigail3ini6config7section13find_propertyERKNSt7__cxx1112basic_stringIcSt11char_traitsIcESaIcEEE
libabigail.so.0:_ZNK7abigail3ini6config7section14get_propertiesEv
libabigail.so.0:_ZNK7abigail3ini6config7section8get_nameB5cxx11Ev
libabigail.so.0:_ZNK7abigail3ini6config8get_pathB5cxx11Ev
libabigail.so.0:_ZNK7abigail3ini8property8get_nameB5cxx11Ev
libabigail.so.0:_ZNK7abigail5suppr16file_suppression15suppresses_diffEPKNS_10comparison4diffE
libabigail.so.0:_ZNK7abigail5suppr16suppression_base17get_is_artificialEv
libabigail.so.0:_ZNK7abigail5suppr16suppression_base20get_soname_regex_strB5cxx11Ev
libabigail.so.0:_ZNK7abigail5suppr16suppression_base23get_file_name_regex_strB5cxx11Ev
libabigail.so.0:_ZNK7abigail5suppr16suppression_base24get_soname_not_regex_strB5cxx11Ev
libabigail.so.0:_ZNK7abigail5suppr16suppression_base26get_drops_artifact_from_irEv
libabigail.so.0:_ZNK7abigail5suppr16suppression_base27get_file_name_not_regex_strB5cxx11Ev
libabigail.so.0:_ZNK7abigail5suppr16suppression_base27has_soname_related_propertyEv
libabigail.so.0:_ZNK7abigail5suppr16suppression_base30has_file_name_related_propertyEv
libabigail.so.0:_ZNK7abigail5suppr16suppression_base9get_labelB5cxx11Ev
libabigail.so.0:_ZNK7abigail5suppr16type_suppression13get_type_kindEv
libabigail.so.0:_ZNK7abigail5suppr16type_suppression13get_type_nameB5cxx11Ev
libabigail.so.0:_ZNK7abigail5suppr16type_suppression14get_reach_kindEv
libabigail.so.0:_ZNK7abigail5suppr16type_suppression15insertion_range16integer_boundary10as_integerEv
libabigail.so.0:_ZNK7abigail5suppr16type_suppression15insertion_range16integer_boundarycviEv
libabigail.so.0:_ZNK7abigail5suppr16type_suppression15insertion_range21fn_call_expr_boundary21as_function_call_exprEv
libabigail.so.0:_ZNK7abigail5suppr16type_suppression15insertion_range21fn_call_expr_boundarycvSt10shared_ptrINS_3ini18function_call_exprEEEv
libabigail.so.0:_ZNK7abigail5suppr16type_suppression15insertion_range3endEv
libabigail.so.0:_ZNK7abigail5suppr16type_suppression15insertion_range5beginEv
libabigail.so.0:_ZNK7abigail5suppr16type_suppression15suppresses_diffEPKNS_10comparison4diffE
libabigail.so.0:_ZNK7abigail5suppr16type_suppression15suppresses_typeERKSt10shared_ptrINS_2ir9type_baseEE
libabigail.so.0:_ZNK7abigail5suppr16type_suppression15suppresses_typeERKSt10shared_ptrINS_2ir9type_baseEEPKNS3_10scope_declE
libabigail.so.0:_ZNK7abigail5suppr16type_suppression15suppresses_typeERKSt10shared_ptrINS_2ir9type_baseEERKS2_INS_10comparison12diff_contextEE
libabigail.so.0:_ZNK7abigail5suppr16type_suppression22get_consider_type_kindEv
libabigail.so.0:_ZNK7abigail5suppr16type_suppression23get_consider_reach_kindEv
libabigail.so.0:_ZNK7abigail5suppr16type_suppression23get_type_name_regex_strB5cxx11Ev
libabigail.so.0:_ZNK7abigail5suppr16type_suppression27get_type_name_not_regex_strB5cxx11Ev
libabigail.so.0:_ZNK7abigail5suppr16type_suppression28get_changed_enumerator_namesB5cxx11Ev
libabigail.so.0:_ZNK7abigail5suppr16type_suppression28get_source_locations_to_keepB5cxx11Ev
libabigail.so.0:_ZNK7abigail5suppr16type_suppression32get_data_member_insertion_rangesEv
libabigail.so.0:_ZNK7abigail5suppr16type_suppression37get_source_location_to_keep_regex_strB5cxx11Ev
libabigail.so.0:_ZNK7abigail5suppr20function_suppression14parameter_spec23get_parameter_type_nameB5cxx11Ev
libabigail.so.0:_ZNK7abigail5suppr20function_suppression14parameter_spec33get_parameter_type_name_regex_strB5cxx11Ev
libabigail.so.0:_ZNK7abigail5suppr20function_suppression14parameter_spec9get_indexEv
libabigail.so.0:_ZNK7abigail5suppr20function_suppression15get_change_kindEv
libabigail.so.0:_ZNK7abigail5suppr20function_suppression15get_symbol_nameB5cxx11Ev
libabigail.so.0:_ZNK7abigail5suppr20function_suppression15suppresses_diffEPKNS_10comparison4diffE
libabigail.so.0:_ZNK7abigail5suppr20function_suppression18get_name_regex_strB5cxx11Ev
libabigail.so.0:_ZNK7abigail5suppr20function_suppression18get_symbol_versionB5cxx11Ev
libabigail.so.0:_ZNK7abigail5suppr20function_suppression19get_parameter_specsEv
libabigail.so.0:_ZNK7abigail5suppr20function_suppression19suppresses_functionEPKNS_2ir13function_declENS1_11change_kindESt10shared_ptrINS_10comparison12diff_contextEE
libabigail.so.0:_ZNK7abigail5suppr20function_suppression19suppresses_functionESt10shared_ptrINS_2ir13function_declEENS1_11change_kindES2_INS_10comparison12diff_contextEE
libabigail.so.0:_ZNK7abigail5suppr20function_suppression20get_return_type_nameB5cxx11Ev
libabigail.so.0:_ZNK7abigail5suppr20function_suppression22get_name_not_regex_strB5cxx11Ev
libabigail.so.0:_ZNK7abigail5suppr20function_suppression23get_allow_other_aliasesEv
libabigail.so.0:_ZNK7abigail5suppr20function_suppression25get_return_type_regex_strB5cxx11Ev
libabigail.so.0:_ZNK7abigail5suppr20function_suppression25get_symbol_name_regex_strB5cxx11Ev
libabigail.so.0:_ZNK7abigail5suppr20function_suppression28get_symbol_version_regex_strB5cxx11Ev
libabigail.so.0:_ZNK7abigail5suppr20function_suppression29get_symbol_name_not_regex_strB5cxx11Ev
libabigail.so.0:_ZNK7abigail5suppr20function_suppression8get_nameB5cxx11Ev
libabigail.so.0:_ZNK7abigail5suppr20variable_suppression13get_type_nameB5cxx11Ev
libabigail.so.0:_ZNK7abigail5suppr20variable_suppression15get_change_kindEv
libabigail.so.0:_ZNK7abigail5suppr20variable_suppression15get_symbol_nameB5cxx11Ev
libabigail.so.0:_ZNK7abigail5suppr20variable_suppression15suppresses_diffEPKNS_10comparison4diffE
libabigail.so.0:_ZNK7abigail5suppr20variable_suppression18get_name_regex_strB5cxx11Ev
libabigail.so.0:_ZNK7abigail5suppr20variable_suppression18get_symbol_versionB5cxx11Ev
libabigail.so.0:_ZNK7abigail5suppr20variable_suppression19suppresses_variableEPKNS_2ir8var_declENS1_11change_kindESt10shared_ptrINS_10comparison12diff_contextEE
libabigail.so.0:_ZNK7abigail5suppr20variable_suppression19suppresses_variableESt10shared_ptrINS_2ir8var_declEENS1_11change_kindES2_INS_10comparison12diff_contextEE
libabigail.so.0:_ZNK7abigail5suppr20variable_suppression22get_name_not_regex_strB5cxx11Ev
libabigail.so.0:_ZNK7abigail5suppr20variable_suppression23get_type_name_regex_strB5cxx11Ev
libabigail.so.0:_ZNK7abigail5suppr20variable_suppression25get_symbol_name_regex_strB5cxx11Ev
libabigail.so.0:_ZNK7abigail5suppr20variable_suppression26suppresses_variable_symbolEPKNS_2ir10elf_symbolENS1_11change_kindESt10shared_ptrINS_10comparison12diff_contextEE
libabigail.so.0:_ZNK7abigail5suppr20variable_suppression26suppresses_variable_symbolESt10shared_ptrINS_2ir10elf_symbolEENS1_11change_kindES2_INS_10comparison12diff_contextEE
libabigail.so.0:_ZNK7abigail5suppr20variable_suppression28get_symbol_version_regex_strB5cxx11Ev
libabigail.so.0:_ZNK7abigail5suppr20variable_suppression29get_symbol_name_not_regex_strB5cxx11Ev
libabigail.so.0:_ZNK7abigail5suppr20variable_suppression8get_nameB5cxx11Ev
libabigail.so.0:_ZNK7abigail6config19get_tu_instr_suffixB5cxx11Ev
libabigail.so.0:_ZNK7abigail6config22get_xml_element_indentEv
libabigail.so.0:_ZNK7abigail6config27get_tu_instr_archive_suffixB5cxx11Ev
libabigail.so.0:_ZNK7abigail6config31get_format_major_version_numberB5cxx11Ev
libabigail.so.0:_ZNK7abigail6config31get_format_minor_version_numberB5cxx11Ev
libabigail.so.0:_ZNK7abigail7workers5queue19get_completed_tasksEv
libabigail.so.0:_ZNK7abigail7workers5queue8get_sizeEv
libabigail.so.0:_ZThn16_N7abigail2ir11class_tdecl8traverseERNS0_15ir_node_visitorE
libabigail.so.0:_ZThn16_N7abigail2ir11class_tdeclD0Ev
libabigail.so.0:_ZThn16_N7abigail2ir11class_tdeclD1Ev
libabigail.so.0:_ZThn16_N7abigail2ir14function_tdecl8traverseERNS0_15ir_node_visitorE
libabigail.so.0:_ZThn16_N7abigail2ir14function_tdeclD0Ev
libabigail.so.0:_ZThn16_N7abigail2ir14function_tdeclD1Ev
libabigail.so.0:_ZThn16_NK7abigail2ir11class_tdecleqERKNS0_9decl_baseE
libabigail.so.0:_ZThn16_NK7abigail2ir14function_tdecleqERKNS0_9decl_baseE
libabigail.so.0:_ZThn24_N7abigail2ir19template_tparameterD0Ev
libabigail.so.0:_ZThn24_N7abigail2ir19template_tparameterD1Ev
libabigail.so.0:_ZThn24_NK7abigail2ir19template_tparametereqERKNS0_13template_declE
libabigail.so.0:_ZTv0_n112_N7abigail2ir11method_decl16set_linkage_nameERKNSt7__cxx1112basic_stringIcSt11char_traitsIcESaIcEEE
libabigail.so.0:_ZTv0_n24_N7abigail2ir10class_decl9base_specD0Ev
libabigail.so.0:_ZTv0_n24_N7abigail2ir10class_decl9base_specD1Ev
libabigail.so.0:_ZTv0_n24_N7abigail2ir10class_declD0Ev
libabigail.so.0:_ZTv0_n24_N7abigail2ir10class_declD1Ev
libabigail.so.0:_ZTv0_n24_N7abigail2ir10scope_declD0Ev
libabigail.so.0:_ZTv0_n24_N7abigail2ir10scope_declD1Ev
libabigail.so.0:_ZTv0_n24_N7abigail2ir10union_declD0Ev
libabigail.so.0:_ZTv0_n24_N7abigail2ir10union_declD1Ev
libabigail.so.0:_ZTv0_n24_N7abigail2ir11class_tdeclD0Ev
libabigail.so.0:_ZTv0_n24_N7abigail2ir11class_tdeclD1Ev
libabigail.so.0:_ZTv0_n24_N7abigail2ir11method_declD0Ev
libabigail.so.0:_ZTv0_n24_N7abigail2ir11method_declD1Ev
libabigail.so.0:_ZTv0_n24_N7abigail2ir11method_typeD0Ev
libabigail.so.0:_ZTv0_n24_N7abigail2ir11method_typeD1Ev
libabigail.so.0:_ZTv0_n24_N7abigail2ir12global_scopeD0Ev
libabigail.so.0:_ZTv0_n24_N7abigail2ir12global_scopeD1Ev
libabigail.so.0:_ZTv0_n24_N7abigail2ir12typedef_declD0Ev
libabigail.so.0:_ZTv0_n24_N7abigail2ir12typedef_declD1Ev
libabigail.so.0:_ZTv0_n24_N7abigail2ir13function_decl9parameterD0Ev
libabigail.so.0:_ZTv0_n24_N7abigail2ir13function_decl9parameterD1Ev
libabigail.so.0:_ZTv0_n24_N7abigail2ir13function_declD0Ev
libabigail.so.0:_ZTv0_n24_N7abigail2ir13function_declD1Ev
libabigail.so.0:_ZTv0_n24_N7abigail2ir13function_typeD0Ev
libabigail.so.0:_ZTv0_n24_N7abigail2ir13function_typeD1Ev
libabigail.so.0:_ZTv0_n24_N7abigail2ir13template_declD0Ev
libabigail.so.0:_ZTv0_n24_N7abigail2ir13template_declD1Ev
libabigail.so.0:_ZTv0_n24_N7abigail2ir14array_type_def13subrange_typeD0Ev
libabigail.so.0:_ZTv0_n24_N7abigail2ir14array_type_def13subrange_typeD1Ev
libabigail.so.0:_ZTv0_n24_N7abigail2ir14array_type_defD0Ev
libabigail.so.0:_ZTv0_n24_N7abigail2ir14array_type_defD1Ev
libabigail.so.0:_ZTv0_n24_N7abigail2ir14class_or_unionD0Ev
libabigail.so.0:_ZTv0_n24_N7abigail2ir14class_or_unionD1Ev
libabigail.so.0:_ZTv0_n24_N7abigail2ir14enum_type_declD0Ev
libabigail.so.0:_ZTv0_n24_N7abigail2ir14enum_type_declD1Ev
libabigail.so.0:_ZTv0_n24_N7abigail2ir14function_tdeclD0Ev
libabigail.so.0:_ZTv0_n24_N7abigail2ir14function_tdeclD1Ev
libabigail.so.0:_ZTv0_n24_N7abigail2ir14namespace_declD0Ev
libabigail.so.0:_ZTv0_n24_N7abigail2ir14namespace_declD1Ev
libabigail.so.0:_ZTv0_n24_N7abigail2ir15scope_type_declD0Ev
libabigail.so.0:_ZTv0_n24_N7abigail2ir15scope_type_declD1Ev
libabigail.so.0:_ZTv0_n24_N7abigail2ir15type_tparameterD0Ev
libabigail.so.0:_ZTv0_n24_N7abigail2ir15type_tparameterD1Ev
libabigail.so.0:_ZTv0_n24_N7abigail2ir16pointer_type_defD0Ev
libabigail.so.0:_ZTv0_n24_N7abigail2ir16pointer_type_defD1Ev
libabigail.so.0:_ZTv0_n24_N7abigail2ir16type_compositionD0Ev
libabigail.so.0:_ZTv0_n24_N7abigail2ir16type_compositionD1Ev
libabigail.so.0:_ZTv0_n24_N7abigail2ir18qualified_type_defD0Ev
libabigail.so.0:_ZTv0_n24_N7abigail2ir18qualified_type_defD1Ev
libabigail.so.0:_ZTv0_n24_N7abigail2ir18reference_type_defD0Ev
libabigail.so.0:_ZTv0_n24_N7abigail2ir18reference_type_defD1Ev
libabigail.so.0:_ZTv0_n24_N7abigail2ir19non_type_tparameterD0Ev
libabigail.so.0:_ZTv0_n24_N7abigail2ir19non_type_tparameterD1Ev
libabigail.so.0:_ZTv0_n24_N7abigail2ir19template_tparameterD0Ev
libabigail.so.0:_ZTv0_n24_N7abigail2ir19template_tparameterD1Ev
libabigail.so.0:_ZTv0_n24_N7abigail2ir8var_declD0Ev
libabigail.so.0:_ZTv0_n24_N7abigail2ir8var_declD1Ev
libabigail.so.0:_ZTv0_n24_N7abigail2ir9decl_baseD0Ev
libabigail.so.0:_ZTv0_n24_N7abigail2ir9decl_baseD1Ev
libabigail.so.0:_ZTv0_n24_N7abigail2ir9type_baseD0Ev
libabigail.so.0:_ZTv0_n24_N7abigail2ir9type_baseD1Ev
libabigail.so.0:_ZTv0_n24_N7abigail2ir9type_declD0Ev
libabigail.so.0:_ZTv0_n24_N7abigail2ir9type_declD1Ev
libabigail.so.0:_ZTv0_n32_N7abigail2ir10class_decl21on_canonical_type_setEv
libabigail.so.0:_ZTv0_n32_N7abigail2ir10class_decl8traverseERNS0_15ir_node_visitorE
libabigail.so.0:_ZTv0_n32_N7abigail2ir10class_decl9base_spec8traverseERNS0_15ir_node_visitorE
libabigail.so.0:_ZTv0_n32_N7abigail2ir10scope_decl8traverseERNS0_15ir_node_visitorE
libabigail.so.0:_ZTv0_n32_N7abigail2ir10union_decl8traverseERNS0_15ir_node_visitorE
libabigail.so.0:_ZTv0_n32_N7abigail2ir11class_tdecl8traverseERNS0_15ir_node_visitorE
libabigail.so.0:_ZTv0_n32_N7abigail2ir11method_decl9set_scopeEPNS0_10scope_declE
libabigail.so.0:_ZTv0_n32_N7abigail2ir12typedef_decl8traverseERNS0_15ir_node_visitorE
libabigail.so.0:_ZTv0_n32_N7abigail2ir13function_decl8traverseERNS0_15ir_node_visitorE
libabigail.so.0:_ZTv0_n32_N7abigail2ir13function_decl9parameter8traverseERNS0_15ir_node_visitorE
libabigail.so.0:_ZTv0_n32_N7abigail2ir13function_type21on_canonical_type_setEv
libabigail.so.0:_ZTv0_n32_N7abigail2ir13function_type8traverseERNS0_15ir_node_visitorE
libabigail.so.0:_ZTv0_n32_N7abigail2ir14array_type_def13subrange_type8traverseERNS0_15ir_node_visitorE
libabigail.so.0:_ZTv0_n32_N7abigail2ir14array_type_def8traverseERNS0_15ir_node_visitorE
libabigail.so.0:_ZTv0_n32_N7abigail2ir14class_or_union8traverseERNS0_15ir_node_visitorE
libabigail.so.0:_ZTv0_n32_N7abigail2ir14enum_type_decl8traverseERNS0_15ir_node_visitorE
libabigail.so.0:_ZTv0_n32_N7abigail2ir14function_tdecl8traverseERNS0_15ir_node_visitorE
libabigail.so.0:_ZTv0_n32_N7abigail2ir14namespace_decl8traverseERNS0_15ir_node_visitorE
libabigail.so.0:_ZTv0_n32_N7abigail2ir15scope_type_decl8traverseERNS0_15ir_node_visitorE
libabigail.so.0:_ZTv0_n32_N7abigail2ir16pointer_type_def21on_canonical_type_setEv
libabigail.so.0:_ZTv0_n32_N7abigail2ir16pointer_type_def8traverseERNS0_15ir_node_visitorE
libabigail.so.0:_ZTv0_n32_N7abigail2ir18qualified_type_def21on_canonical_type_setEv
libabigail.so.0:_ZTv0_n32_N7abigail2ir18qualified_type_def8traverseERNS0_15ir_node_visitorE
libabigail.so.0:_ZTv0_n32_N7abigail2ir18reference_type_def21on_canonical_type_setEv
libabigail.so.0:_ZTv0_n32_N7abigail2ir18reference_type_def8traverseERNS0_15ir_node_visitorE
libabigail.so.0:_ZTv0_n32_N7abigail2ir21member_class_template8traverseERNS0_15ir_node_visitorE
libabigail.so.0:_ZTv0_n32_N7abigail2ir24member_function_template8traverseERNS0_15ir_node_visitorE
libabigail.so.0:_ZTv0_n32_N7abigail2ir8var_decl8traverseERNS0_15ir_node_visitorE
libabigail.so.0:_ZTv0_n32_N7abigail2ir8var_decl9set_scopeEPNS0_10scope_declE
libabigail.so.0:_ZTv0_n32_N7abigail2ir9decl_base8traverseERNS0_15ir_node_visitorE
libabigail.so.0:_ZTv0_n32_N7abigail2ir9type_base8traverseERNS0_15ir_node_visitorE
libabigail.so.0:_ZTv0_n32_N7abigail2ir9type_decl8traverseERNS0_15ir_node_visitorE
libabigail.so.0:_ZTv0_n40_NK7abigail2ir10class_decl25get_pretty_representationB5cxx11Ebb
libabigail.so.0:_ZTv0_n40_NK7abigail2ir10class_decl9base_speceqERKNS0_9decl_baseE
libabigail.so.0:_ZTv0_n40_NK7abigail2ir10class_decleqERKNS0_9decl_baseE
libabigail.so.0:_ZTv0_n40_NK7abigail2ir10class_decleqERKNS0_9type_baseE
libabigail.so.0:_ZTv0_n40_NK7abigail2ir10scope_decleqERKNS0_9decl_baseE
libabigail.so.0:_ZTv0_n40_NK7abigail2ir10union_decl25get_pretty_representationB5cxx11Ebb
libabigail.so.0:_ZTv0_n40_NK7abigail2ir10union_decleqERKNS0_9decl_baseE
libabigail.so.0:_ZTv0_n40_NK7abigail2ir10union_decleqERKNS0_9type_baseE
libabigail.so.0:_ZTv0_n40_NK7abigail2ir11class_tdecleqERKNS0_9decl_baseE
libabigail.so.0:_ZTv0_n40_NK7abigail2ir11method_type25get_pretty_representationB5cxx11Ebb
libabigail.so.0:_ZTv0_n40_NK7abigail2ir12typedef_decl25get_pretty_representationB5cxx11Ebb
libabigail.so.0:_ZTv0_n40_NK7abigail2ir12typedef_decleqERKNS0_9decl_baseE
libabigail.so.0:_ZTv0_n40_NK7abigail2ir12typedef_decleqERKNS0_9type_baseE
libabigail.so.0:_ZTv0_n40_NK7abigail2ir13function_decl25get_pretty_representationB5cxx11Ebb
libabigail.so.0:_ZTv0_n40_NK7abigail2ir13function_decl9parameter25get_pretty_representationB5cxx11Ebb
libabigail.so.0:_ZTv0_n40_NK7abigail2ir13function_decleqERKNS0_9decl_baseE
libabigail.so.0:_ZTv0_n40_NK7abigail2ir13function_type25get_pretty_representationB5cxx11Ebb
libabigail.so.0:_ZTv0_n40_NK7abigail2ir13function_typeeqERKNS0_9type_baseE
libabigail.so.0:_ZTv0_n40_NK7abigail2ir14array_type_def13subrange_type25get_pretty_representationB5cxx11Ebb
libabigail.so.0:_ZTv0_n40_NK7abigail2ir14array_type_def13subrange_typeeqERKNS0_9decl_baseE
libabigail.so.0:_ZTv0_n40_NK7abigail2ir14array_type_def13subrange_typeeqERKNS0_9type_baseE
libabigail.so.0:_ZTv0_n40_NK7abigail2ir14array_type_def25get_pretty_representationB5cxx11Ebb
libabigail.so.0:_ZTv0_n40_NK7abigail2ir14array_type_defeqERKNS0_9decl_baseE
libabigail.so.0:_ZTv0_n40_NK7abigail2ir14array_type_defeqERKNS0_9type_baseE
libabigail.so.0:_ZTv0_n40_NK7abigail2ir14class_or_unioneqERKNS0_9decl_baseE
libabigail.so.0:_ZTv0_n40_NK7abigail2ir14class_or_unioneqERKNS0_9type_baseE
libabigail.so.0:_ZTv0_n40_NK7abigail2ir14enum_type_decl25get_pretty_representationB5cxx11Ebb
libabigail.so.0:_ZTv0_n40_NK7abigail2ir14enum_type_decleqERKNS0_9decl_baseE
libabigail.so.0:_ZTv0_n40_NK7abigail2ir14enum_type_decleqERKNS0_9type_baseE
libabigail.so.0:_ZTv0_n40_NK7abigail2ir14function_tdecleqERKNS0_9decl_baseE
libabigail.so.0:_ZTv0_n40_NK7abigail2ir14namespace_decl25get_pretty_representationB5cxx11Ebb
libabigail.so.0:_ZTv0_n40_NK7abigail2ir14namespace_decleqERKNS0_9decl_baseE
libabigail.so.0:_ZTv0_n40_NK7abigail2ir15scope_type_decleqERKNS0_9decl_baseE
libabigail.so.0:_ZTv0_n40_NK7abigail2ir15scope_type_decleqERKNS0_9type_baseE
libabigail.so.0:_ZTv0_n40_NK7abigail2ir15type_tparametereqERKNS0_9type_baseE
libabigail.so.0:_ZTv0_n40_NK7abigail2ir16pointer_type_defeqERKNS0_9decl_baseE
libabigail.so.0:_ZTv0_n40_NK7abigail2ir16pointer_type_defeqERKNS0_9type_baseE
libabigail.so.0:_ZTv0_n40_NK7abigail2ir18qualified_type_defeqERKNS0_9decl_baseE
libabigail.so.0:_ZTv0_n40_NK7abigail2ir18qualified_type_defeqERKNS0_9type_baseE
libabigail.so.0:_ZTv0_n40_NK7abigail2ir18reference_type_defeqERKNS0_9decl_baseE
libabigail.so.0:_ZTv0_n40_NK7abigail2ir18reference_type_defeqERKNS0_9type_baseE
libabigail.so.0:_ZTv0_n40_NK7abigail2ir19non_type_tparametereqERKNS0_9decl_baseE
libabigail.so.0:_ZTv0_n40_NK7abigail2ir19template_tparametereqERKNS0_9type_baseE
libabigail.so.0:_ZTv0_n40_NK7abigail2ir8var_decl25get_pretty_representationB5cxx11Ebb
libabigail.so.0:_ZTv0_n40_NK7abigail2ir8var_decleqERKNS0_9decl_baseE
libabigail.so.0:_ZTv0_n40_NK7abigail2ir9decl_base25get_pretty_representationB5cxx11Ebb
libabigail.so.0:_ZTv0_n40_NK7abigail2ir9type_decl25get_pretty_representationB5cxx11Ebb
libabigail.so.0:_ZTv0_n40_NK7abigail2ir9type_decleqERKNS0_9decl_baseE
libabigail.so.0:_ZTv0_n40_NK7abigail2ir9type_decleqERKNS0_9type_baseE
libabigail.so.0:_ZTv0_n48_NK7abigail2ir15type_tparametereqERKNS0_9type_baseE
libabigail.so.0:_ZTv0_n48_NK7abigail2ir19template_tparametereqERKNS0_9type_baseE
libabigail.so.0:_ZTv0_n56_N7abigail2ir10class_decl8traverseERNS0_15ir_node_visitorE
libabigail.so.0:_ZTv0_n56_N7abigail2ir10class_decl9base_spec8traverseERNS0_15ir_node_visitorE
libabigail.so.0:_ZTv0_n56_N7abigail2ir10scope_decl8traverseERNS0_15ir_node_visitorE
libabigail.so.0:_ZTv0_n56_N7abigail2ir10union_decl8traverseERNS0_15ir_node_visitorE
libabigail.so.0:_ZTv0_n56_N7abigail2ir11class_tdecl8traverseERNS0_15ir_node_visitorE
libabigail.so.0:_ZTv0_n56_N7abigail2ir12typedef_decl8traverseERNS0_15ir_node_visitorE
libabigail.so.0:_ZTv0_n56_N7abigail2ir13function_decl8traverseERNS0_15ir_node_visitorE
libabigail.so.0:_ZTv0_n56_N7abigail2ir13function_type8traverseERNS0_15ir_node_visitorE
libabigail.so.0:_ZTv0_n56_N7abigail2ir14array_type_def13subrange_type8traverseERNS0_15ir_node_visitorE
libabigail.so.0:_ZTv0_n56_N7abigail2ir14array_type_def8traverseERNS0_15ir_node_visitorE
libabigail.so.0:_ZTv0_n56_N7abigail2ir14class_or_union8traverseERNS0_15ir_node_visitorE
libabigail.so.0:_ZTv0_n56_N7abigail2ir14enum_type_decl8traverseERNS0_15ir_node_visitorE
libabigail.so.0:_ZTv0_n56_N7abigail2ir14function_tdecl8traverseERNS0_15ir_node_visitorE
libabigail.so.0:_ZTv0_n56_N7abigail2ir14namespace_decl8traverseERNS0_15ir_node_visitorE
libabigail.so.0:_ZTv0_n56_N7abigail2ir15scope_type_decl8traverseERNS0_15ir_node_visitorE
libabigail.so.0:_ZTv0_n56_N7abigail2ir16pointer_type_def8traverseERNS0_15ir_node_visitorE
libabigail.so.0:_ZTv0_n56_N7abigail2ir18qualified_type_def8traverseERNS0_15ir_node_visitorE
libabigail.so.0:_ZTv0_n56_N7abigail2ir18reference_type_def8traverseERNS0_15ir_node_visitorE
libabigail.so.0:_ZTv0_n56_N7abigail2ir21member_class_template8traverseERNS0_15ir_node_visitorE
libabigail.so.0:_ZTv0_n56_N7abigail2ir24member_function_template8traverseERNS0_15ir_node_visitorE
libabigail.so.0:_ZTv0_n56_N7abigail2ir8var_decl8traverseERNS0_15ir_node_visitorE
libabigail.so.0:_ZTv0_n56_N7abigail2ir9type_decl8traverseERNS0_15ir_node_visitorE
libabigail.so.0:_ZTv0_n64_N7abigail2ir10class_decl9base_specD0Ev
libabigail.so.0:_ZTv0_n64_N7abigail2ir10class_decl9base_specD1Ev
libabigail.so.0:_ZTv0_n64_N7abigail2ir10class_declD0Ev
libabigail.so.0:_ZTv0_n64_N7abigail2ir10class_declD1Ev
libabigail.so.0:_ZTv0_n64_N7abigail2ir10scope_declD0Ev
libabigail.so.0:_ZTv0_n64_N7abigail2ir10scope_declD1Ev
libabigail.so.0:_ZTv0_n64_N7abigail2ir10union_declD0Ev
libabigail.so.0:_ZTv0_n64_N7abigail2ir10union_declD1Ev
libabigail.so.0:_ZTv0_n64_N7abigail2ir11class_tdeclD0Ev
libabigail.so.0:_ZTv0_n64_N7abigail2ir11class_tdeclD1Ev
libabigail.so.0:_ZTv0_n64_N7abigail2ir11method_declD0Ev
libabigail.so.0:_ZTv0_n64_N7abigail2ir11method_declD1Ev
libabigail.so.0:_ZTv0_n64_N7abigail2ir11method_typeD0Ev
libabigail.so.0:_ZTv0_n64_N7abigail2ir11method_typeD1Ev
libabigail.so.0:_ZTv0_n64_N7abigail2ir12global_scopeD0Ev
libabigail.so.0:_ZTv0_n64_N7abigail2ir12global_scopeD1Ev
libabigail.so.0:_ZTv0_n64_N7abigail2ir12typedef_declD0Ev
libabigail.so.0:_ZTv0_n64_N7abigail2ir12typedef_declD1Ev
libabigail.so.0:_ZTv0_n64_N7abigail2ir13function_declD0Ev
libabigail.so.0:_ZTv0_n64_N7abigail2ir13function_declD1Ev
libabigail.so.0:_ZTv0_n64_N7abigail2ir13function_typeD0Ev
libabigail.so.0:_ZTv0_n64_N7abigail2ir13function_typeD1Ev
libabigail.so.0:_ZTv0_n64_N7abigail2ir13template_declD0Ev
libabigail.so.0:_ZTv0_n64_N7abigail2ir13template_declD1Ev
libabigail.so.0:_ZTv0_n64_N7abigail2ir14array_type_def13subrange_typeD0Ev
libabigail.so.0:_ZTv0_n64_N7abigail2ir14array_type_def13subrange_typeD1Ev
libabigail.so.0:_ZTv0_n64_N7abigail2ir14array_type_defD0Ev
libabigail.so.0:_ZTv0_n64_N7abigail2ir14array_type_defD1Ev
libabigail.so.0:_ZTv0_n64_N7abigail2ir14class_or_unionD0Ev
libabigail.so.0:_ZTv0_n64_N7abigail2ir14class_or_unionD1Ev
libabigail.so.0:_ZTv0_n64_N7abigail2ir14enum_type_declD0Ev
libabigail.so.0:_ZTv0_n64_N7abigail2ir14enum_type_declD1Ev
libabigail.so.0:_ZTv0_n64_N7abigail2ir14function_tdeclD0Ev
libabigail.so.0:_ZTv0_n64_N7abigail2ir14function_tdeclD1Ev
libabigail.so.0:_ZTv0_n64_N7abigail2ir14namespace_declD0Ev
libabigail.so.0:_ZTv0_n64_N7abigail2ir14namespace_declD1Ev
libabigail.so.0:_ZTv0_n64_N7abigail2ir15scope_type_declD0Ev
libabigail.so.0:_ZTv0_n64_N7abigail2ir15scope_type_declD1Ev
libabigail.so.0:_ZTv0_n64_N7abigail2ir15type_tparameterD0Ev
libabigail.so.0:_ZTv0_n64_N7abigail2ir15type_tparameterD1Ev
libabigail.so.0:_ZTv0_n64_N7abigail2ir16pointer_type_defD0Ev
libabigail.so.0:_ZTv0_n64_N7abigail2ir16pointer_type_defD1Ev
libabigail.so.0:_ZTv0_n64_N7abigail2ir16type_compositionD0Ev
libabigail.so.0:_ZTv0_n64_N7abigail2ir16type_compositionD1Ev
libabigail.so.0:_ZTv0_n64_N7abigail2ir18qualified_type_defD0Ev
libabigail.so.0:_ZTv0_n64_N7abigail2ir18qualified_type_defD1Ev
libabigail.so.0:_ZTv0_n64_N7abigail2ir18reference_type_defD0Ev
libabigail.so.0:_ZTv0_n64_N7abigail2ir18reference_type_defD1Ev
libabigail.so.0:_ZTv0_n64_N7abigail2ir19non_type_tparameterD0Ev
libabigail.so.0:_ZTv0_n64_N7abigail2ir19non_type_tparameterD1Ev
libabigail.so.0:_ZTv0_n64_N7abigail2ir19template_tparameterD0Ev
libabigail.so.0:_ZTv0_n64_N7abigail2ir19template_tparameterD1Ev
libabigail.so.0:_ZTv0_n64_N7abigail2ir8var_declD0Ev
libabigail.so.0:_ZTv0_n64_N7abigail2ir8var_declD1Ev
libabigail.so.0:_ZTv0_n64_N7abigail2ir9type_declD0Ev
libabigail.so.0:_ZTv0_n64_N7abigail2ir9type_declD1Ev
libabigail.so.0:_ZTv0_n72_N7abigail2ir14class_or_union16set_size_in_bitsEm
libabigail.so.0:_ZTv0_n72_NK7abigail2ir10class_decl8get_hashEv
libabigail.so.0:_ZTv0_n72_NK7abigail2ir10class_decl9base_spec8get_hashEv
libabigail.so.0:_ZTv0_n72_NK7abigail2ir10scope_decl8get_hashEv
libabigail.so.0:_ZTv0_n72_NK7abigail2ir13function_decl8get_hashEv
libabigail.so.0:_ZTv0_n72_NK7abigail2ir16type_composition8get_hashEv
libabigail.so.0:_ZTv0_n72_NK7abigail2ir19non_type_tparameter8get_hashEv
libabigail.so.0:_ZTv0_n72_NK7abigail2ir8var_decl8get_hashEv
libabigail.so.0:_ZTv0_n80_NK7abigail2ir10class_decl25get_pretty_representationB5cxx11Ebb
libabigail.so.0:_ZTv0_n80_NK7abigail2ir10union_decl25get_pretty_representationB5cxx11Ebb
libabigail.so.0:_ZTv0_n80_NK7abigail2ir12typedef_decl16get_size_in_bitsEv
libabigail.so.0:_ZTv0_n80_NK7abigail2ir12typedef_decl25get_pretty_representationB5cxx11Ebb
libabigail.so.0:_ZTv0_n80_NK7abigail2ir13function_decl25get_pretty_representationB5cxx11Ebb
libabigail.so.0:_ZTv0_n80_NK7abigail2ir14array_type_def13subrange_type25get_pretty_representationB5cxx11Ebb
libabigail.so.0:_ZTv0_n80_NK7abigail2ir14array_type_def25get_pretty_representationB5cxx11Ebb
libabigail.so.0:_ZTv0_n80_NK7abigail2ir14class_or_union16get_size_in_bitsEv
libabigail.so.0:_ZTv0_n80_NK7abigail2ir14enum_type_decl25get_pretty_representationB5cxx11Ebb
libabigail.so.0:_ZTv0_n80_NK7abigail2ir14namespace_decl25get_pretty_representationB5cxx11Ebb
libabigail.so.0:_ZTv0_n80_NK7abigail2ir18qualified_type_def16get_size_in_bitsEv
libabigail.so.0:_ZTv0_n80_NK7abigail2ir8var_decl25get_pretty_representationB5cxx11Ebb
libabigail.so.0:_ZTv0_n80_NK7abigail2ir9type_decl25get_pretty_representationB5cxx11Ebb
libabigail.so.0:_ZTv0_n88_N7abigail2ir14class_or_union21set_alignment_in_bitsEm
libabigail.so.0:_ZTv0_n88_N7abigail2ir15type_tparameterD0Ev
libabigail.so.0:_ZTv0_n88_N7abigail2ir15type_tparameterD1Ev
libabigail.so.0:_ZTv0_n88_N7abigail2ir19template_tparameterD0Ev
libabigail.so.0:_ZTv0_n88_N7abigail2ir19template_tparameterD1Ev
libabigail.so.0:_ZTv0_n88_NK7abigail2ir14array_type_def18get_qualified_nameERNS_15interned_stringEb
libabigail.so.0:_ZTv0_n88_NK7abigail2ir16pointer_type_def18get_qualified_nameERNS_15interned_stringEb
libabigail.so.0:_ZTv0_n88_NK7abigail2ir18qualified_type_def18get_qualified_nameERNS_15interned_stringEb
libabigail.so.0:_ZTv0_n88_NK7abigail2ir18reference_type_def18get_qualified_nameERNS_15interned_stringEb
libabigail.so.0:_ZTv0_n96_NK7abigail2ir12typedef_decl21get_alignment_in_bitsEv
libabigail.so.0:_ZTv0_n96_NK7abigail2ir14array_type_def18get_qualified_nameEb
libabigail.so.0:_ZTv0_n96_NK7abigail2ir14class_or_union21get_alignment_in_bitsEv
libabigail.so.0:_ZTv0_n96_NK7abigail2ir16pointer_type_def18get_qualified_nameEb
libabigail.so.0:_ZTv0_n96_NK7abigail2ir18qualified_type_def18get_qualified_nameEb
libabigail.so.0:_ZTv0_n96_NK7abigail2ir18reference_type_def18get_qualified_nameEb
libabigail.so.0:_ZTv0_n96_NK7abigail2ir8var_decl18get_qualified_nameEb
libabigail.so.0:abigail_get_library_version
