libQt6Charts.so.6:_ZN10ChartTitle11setGeometryERK6QRectF
libQt6Charts.so.6:_ZN10ChartTitle7setTextERK7QString
libQt6Charts.so.6:_ZN10ChartTitleC1EP13QGraphicsItem
libQt6Charts.so.6:_ZN10ChartTitleC2EP13QGraphicsItem
libQt6Charts.so.6:_ZN10ChartTitleD0Ev
libQt6Charts.so.6:_ZN10ChartTitleD1Ev
libQt6Charts.so.6:_ZN10ChartTitleD2Ev
libQt6Charts.so.6:_ZN10QBarSeries11qt_metacallEN11QMetaObject4CallEiPPv
libQt6Charts.so.6:_ZN10QBarSeries11qt_metacastEPKc
libQt6Charts.so.6:_ZN10QBarSeries16staticMetaObjectE
libQt6Charts.so.6:_ZN10QBarSeriesC1EP7QObject
libQt6Charts.so.6:_ZN10QBarSeriesC2EP7QObject
libQt6Charts.so.6:_ZN10QBarSeriesD0Ev
libQt6Charts.so.6:_ZN10QBarSeriesD1Ev
libQt6Charts.so.6:_ZN10QBarSeriesD2Ev
libQt6Charts.so.6:_ZN10QChartView11qt_metacallEN11QMetaObject4CallEiPPv
libQt6Charts.so.6:_ZN10QChartView11qt_metacastEPKc
libQt6Charts.so.6:_ZN10QChartView11resizeEventEP12QResizeEvent
libQt6Charts.so.6:_ZN10QChartView13setRubberBandERK6QFlagsINS_10RubberBandEE
libQt6Charts.so.6:_ZN10QChartView14mouseMoveEventEP11QMouseEvent
libQt6Charts.so.6:_ZN10QChartView15mousePressEventEP11QMouseEvent
libQt6Charts.so.6:_ZN10QChartView16staticMetaObjectE
libQt6Charts.so.6:_ZN10QChartView17mouseReleaseEventEP11QMouseEvent
libQt6Charts.so.6:_ZN10QChartView8setChartEP6QChart
libQt6Charts.so.6:_ZN10QChartViewC1EP6QChartP7QWidget
libQt6Charts.so.6:_ZN10QChartViewC1EP7QWidget
libQt6Charts.so.6:_ZN10QChartViewC2EP6QChartP7QWidget
libQt6Charts.so.6:_ZN10QChartViewC2EP7QWidget
libQt6Charts.so.6:_ZN10QChartViewD0Ev
libQt6Charts.so.6:_ZN10QChartViewD1Ev
libQt6Charts.so.6:_ZN10QChartViewD2Ev
libQt6Charts.so.6:_ZN10QColorAxis10maxChangedEd
libQt6Charts.so.6:_ZN10QColorAxis10minChangedEd
libQt6Charts.so.6:_ZN10QColorAxis11qt_metacallEN11QMetaObject4CallEiPPv
libQt6Charts.so.6:_ZN10QColorAxis11qt_metacastEPKc
libQt6Charts.so.6:_ZN10QColorAxis11setGradientERK15QLinearGradient
libQt6Charts.so.6:_ZN10QColorAxis11sizeChangedEd
libQt6Charts.so.6:_ZN10QColorAxis12rangeChangedEdd
libQt6Charts.so.6:_ZN10QColorAxis12setAutoRangeEb
libQt6Charts.so.6:_ZN10QColorAxis12setTickCountEi
libQt6Charts.so.6:_ZN10QColorAxis15gradientChangedERK15QLinearGradient
libQt6Charts.so.6:_ZN10QColorAxis16autoRangeChangedEb
libQt6Charts.so.6:_ZN10QColorAxis16staticMetaObjectE
libQt6Charts.so.6:_ZN10QColorAxis16tickCountChangedEi
libQt6Charts.so.6:_ZN10QColorAxis6setMaxEd
libQt6Charts.so.6:_ZN10QColorAxis6setMinEd
libQt6Charts.so.6:_ZN10QColorAxis7setSizeEd
libQt6Charts.so.6:_ZN10QColorAxis8setRangeEdd
libQt6Charts.so.6:_ZN10QColorAxisC1EP7QObject
libQt6Charts.so.6:_ZN10QColorAxisC1ER17QColorAxisPrivateP7QObject
libQt6Charts.so.6:_ZN10QColorAxisC2EP7QObject
libQt6Charts.so.6:_ZN10QColorAxisC2ER17QColorAxisPrivateP7QObject
libQt6Charts.so.6:_ZN10QColorAxisD0Ev
libQt6Charts.so.6:_ZN10QColorAxisD1Ev
libQt6Charts.so.6:_ZN10QColorAxisD2Ev
libQt6Charts.so.6:_ZN10QPieSeries10setPieSizeEd
libQt6Charts.so.6:_ZN10QPieSeries10sumChangedEv
libQt6Charts.so.6:_ZN10QPieSeries11qt_metacallEN11QMetaObject4CallEiPPv
libQt6Charts.so.6:_ZN10QPieSeries11qt_metacastEPKc
libQt6Charts.so.6:_ZN10QPieSeries11setHoleSizeEd
libQt6Charts.so.6:_ZN10QPieSeries12countChangedEv
libQt6Charts.so.6:_ZN10QPieSeries13doubleClickedEP9QPieSlice
libQt6Charts.so.6:_ZN10QPieSeries14setPieEndAngleEd
libQt6Charts.so.6:_ZN10QPieSeries16setLabelsVisibleEb
libQt6Charts.so.6:_ZN10QPieSeries16setPieStartAngleEd
libQt6Charts.so.6:_ZN10QPieSeries16staticMetaObjectE
libQt6Charts.so.6:_ZN10QPieSeries17setLabelsPositionEN9QPieSlice13LabelPositionE
libQt6Charts.so.6:_ZN10QPieSeries19setVerticalPositionEd
libQt6Charts.so.6:_ZN10QPieSeries21setHorizontalPositionEd
libQt6Charts.so.6:_ZN10QPieSeries4takeEP9QPieSlice
libQt6Charts.so.6:_ZN10QPieSeries5addedERK5QListIP9QPieSliceE
libQt6Charts.so.6:_ZN10QPieSeries5clearEv
libQt6Charts.so.6:_ZN10QPieSeries6appendEP9QPieSlice
libQt6Charts.so.6:_ZN10QPieSeries6appendERK5QListIP9QPieSliceE
libQt6Charts.so.6:_ZN10QPieSeries6appendERK7QStringd
libQt6Charts.so.6:_ZN10QPieSeries6insertEiP9QPieSlice
libQt6Charts.so.6:_ZN10QPieSeries6removeEP9QPieSlice
libQt6Charts.so.6:_ZN10QPieSeries7clickedEP9QPieSlice
libQt6Charts.so.6:_ZN10QPieSeries7hoveredEP9QPieSliceb
libQt6Charts.so.6:_ZN10QPieSeries7pressedEP9QPieSlice
libQt6Charts.so.6:_ZN10QPieSeries7removedERK5QListIP9QPieSliceE
libQt6Charts.so.6:_ZN10QPieSeries8releasedEP9QPieSlice
libQt6Charts.so.6:_ZN10QPieSeriesC1EP7QObject
libQt6Charts.so.6:_ZN10QPieSeriesC2EP7QObject
libQt6Charts.so.6:_ZN10QPieSeriesD0Ev
libQt6Charts.so.6:_ZN10QPieSeriesD1Ev
libQt6Charts.so.6:_ZN10QPieSeriesD2Ev
libQt6Charts.so.6:_ZN10QPieSerieslsEP9QPieSlice
libQt6Charts.so.6:_ZN10QValueAxis10maxChangedEd
libQt6Charts.so.6:_ZN10QValueAxis10minChangedEd
libQt6Charts.so.6:_ZN10QValueAxis11qt_metacallEN11QMetaObject4CallEiPPv
libQt6Charts.so.6:_ZN10QValueAxis11qt_metacastEPKc
libQt6Charts.so.6:_ZN10QValueAxis11setTickTypeENS_8TickTypeE
libQt6Charts.so.6:_ZN10QValueAxis12rangeChangedEdd
libQt6Charts.so.6:_ZN10QValueAxis12setTickCountEi
libQt6Charts.so.6:_ZN10QValueAxis13setTickAnchorEd
libQt6Charts.so.6:_ZN10QValueAxis14setLabelFormatERK7QString
libQt6Charts.so.6:_ZN10QValueAxis15setTickIntervalEd
libQt6Charts.so.6:_ZN10QValueAxis15tickTypeChangedENS_8TickTypeE
libQt6Charts.so.6:_ZN10QValueAxis16applyNiceNumbersEv
libQt6Charts.so.6:_ZN10QValueAxis16staticMetaObjectE
libQt6Charts.so.6:_ZN10QValueAxis16tickCountChangedEi
libQt6Charts.so.6:_ZN10QValueAxis17setMinorTickCountEi
libQt6Charts.so.6:_ZN10QValueAxis17tickAnchorChangedEd
libQt6Charts.so.6:_ZN10QValueAxis18labelFormatChangedERK7QString
libQt6Charts.so.6:_ZN10QValueAxis19tickIntervalChangedEd
libQt6Charts.so.6:_ZN10QValueAxis21minorTickCountChangedEi
libQt6Charts.so.6:_ZN10QValueAxis6setMaxEd
libQt6Charts.so.6:_ZN10QValueAxis6setMinEd
libQt6Charts.so.6:_ZN10QValueAxis8setRangeEdd
libQt6Charts.so.6:_ZN10QValueAxisC1EP7QObject
libQt6Charts.so.6:_ZN10QValueAxisC1ER17QValueAxisPrivateP7QObject
libQt6Charts.so.6:_ZN10QValueAxisC2EP7QObject
libQt6Charts.so.6:_ZN10QValueAxisC2ER17QValueAxisPrivateP7QObject
libQt6Charts.so.6:_ZN10QValueAxisD0Ev
libQt6Charts.so.6:_ZN10QValueAxisD1Ev
libQt6Charts.so.6:_ZN10QValueAxisD2Ev
libQt6Charts.so.6:_ZN10StarMarker7polygonEdddd
libQt6Charts.so.6:_ZN10StarMarkerC1EddddP16ScatterChartItem
libQt6Charts.so.6:_ZN10StarMarkerC2EddddP16ScatterChartItem
libQt6Charts.so.6:_ZN11BoxWhiskers11qt_metacallEN11QMetaObject4CallEiPPv
libQt6Charts.so.6:_ZN11BoxWhiskers11qt_metacastEPKc
libQt6Charts.so.6:_ZN11BoxWhiskers11setBoxWidthEd
libQt6Charts.so.6:_ZN11BoxWhiskers11setGeometryERK6QRectF
libQt6Charts.so.6:_ZN11BoxWhiskers13doubleClickedEP7QBoxSet
libQt6Charts.so.6:_ZN11BoxWhiskers14updateGeometryEP14AbstractDomain
libQt6Charts.so.6:_ZN11BoxWhiskers15hoverEnterEventEP24QGraphicsSceneHoverEvent
libQt6Charts.so.6:_ZN11BoxWhiskers15hoverLeaveEventEP24QGraphicsSceneHoverEvent
libQt6Charts.so.6:_ZN11BoxWhiskers15mousePressEventEP24QGraphicsSceneMouseEvent
libQt6Charts.so.6:_ZN11BoxWhiskers16staticMetaObjectE
libQt6Charts.so.6:_ZN11BoxWhiskers17mouseReleaseEventEP24QGraphicsSceneMouseEvent
libQt6Charts.so.6:_ZN11BoxWhiskers21mouseDoubleClickEventEP24QGraphicsSceneMouseEvent
libQt6Charts.so.6:_ZN11BoxWhiskers5paintEP8QPainterPK24QStyleOptionGraphicsItemP7QWidget
libQt6Charts.so.6:_ZN11BoxWhiskers6setPenERK4QPen
libQt6Charts.so.6:_ZN11BoxWhiskers7clickedEP7QBoxSet
libQt6Charts.so.6:_ZN11BoxWhiskers7hoveredEbP7QBoxSet
libQt6Charts.so.6:_ZN11BoxWhiskers7pressedEP7QBoxSet
libQt6Charts.so.6:_ZN11BoxWhiskers8releasedEP7QBoxSet
libQt6Charts.so.6:_ZN11BoxWhiskers8setBrushERK6QBrush
libQt6Charts.so.6:_ZN11BoxWhiskers9setLayoutERK15BoxWhiskersData
libQt6Charts.so.6:_ZN11BoxWhiskersC1EP7QBoxSetP14AbstractDomainP15QGraphicsObject
libQt6Charts.so.6:_ZN11BoxWhiskersC2EP7QBoxSetP14AbstractDomainP15QGraphicsObject
libQt6Charts.so.6:_ZN11BoxWhiskersD0Ev
libQt6Charts.so.6:_ZN11BoxWhiskersD1Ev
libQt6Charts.so.6:_ZN11BoxWhiskersD2Ev
libQt6Charts.so.6:_ZN11Candlestick11qt_metacallEN11QMetaObject4CallEiPPv
libQt6Charts.so.6:_ZN11Candlestick11qt_metacastEPKc
libQt6Charts.so.6:_ZN11Candlestick12setBodyWidthEd
libQt6Charts.so.6:_ZN11Candlestick12setCapsWidthEd
libQt6Charts.so.6:_ZN11Candlestick13doubleClickedEP15QCandlestickSet
libQt6Charts.so.6:_ZN11Candlestick13setTimePeriodEd
libQt6Charts.so.6:_ZN11Candlestick14setCapsVisibleEb
libQt6Charts.so.6:_ZN11Candlestick14updateGeometryEP14AbstractDomain
libQt6Charts.so.6:_ZN11Candlestick15hoverEnterEventEP24QGraphicsSceneHoverEvent
libQt6Charts.so.6:_ZN11Candlestick15hoverLeaveEventEP24QGraphicsSceneHoverEvent
libQt6Charts.so.6:_ZN11Candlestick15mousePressEventEP24QGraphicsSceneMouseEvent
libQt6Charts.so.6:_ZN11Candlestick16staticMetaObjectE
libQt6Charts.so.6:_ZN11Candlestick17mouseReleaseEventEP24QGraphicsSceneMouseEvent
libQt6Charts.so.6:_ZN11Candlestick18setDecreasingColorERK6QColor
libQt6Charts.so.6:_ZN11Candlestick18setIncreasingColorERK6QColor
libQt6Charts.so.6:_ZN11Candlestick21mouseDoubleClickEventEP24QGraphicsSceneMouseEvent
libQt6Charts.so.6:_ZN11Candlestick21setBodyOutlineVisibleEb
libQt6Charts.so.6:_ZN11Candlestick21setMaximumColumnWidthEd
libQt6Charts.so.6:_ZN11Candlestick21setMinimumColumnWidthEd
libQt6Charts.so.6:_ZN11Candlestick5paintEP8QPainterPK24QStyleOptionGraphicsItemP7QWidget
libQt6Charts.so.6:_ZN11Candlestick6setPenERK4QPen
libQt6Charts.so.6:_ZN11Candlestick7clickedEP15QCandlestickSet
libQt6Charts.so.6:_ZN11Candlestick7hoveredEbP15QCandlestickSet
libQt6Charts.so.6:_ZN11Candlestick7pressedEP15QCandlestickSet
libQt6Charts.so.6:_ZN11Candlestick8releasedEP15QCandlestickSet
libQt6Charts.so.6:_ZN11Candlestick8setBrushERK6QBrush
libQt6Charts.so.6:_ZN11Candlestick9setLayoutERK15CandlestickData
libQt6Charts.so.6:_ZN11CandlestickC1EP15QCandlestickSetP14AbstractDomainP15QGraphicsObject
libQt6Charts.so.6:_ZN11CandlestickC2EP15QCandlestickSetP14AbstractDomainP15QGraphicsObject
libQt6Charts.so.6:_ZN11CandlestickD0Ev
libQt6Charts.so.6:_ZN11CandlestickD1Ev
libQt6Charts.so.6:_ZN11CandlestickD2Ev
libQt6Charts.so.6:_ZN11ChartConfig10m_instanceE
libQt6Charts.so.6:_ZN11LogXYDomain10attachAxisEP13QAbstractAxis
libQt6Charts.so.6:_ZN11LogXYDomain10detachAxisEP13QAbstractAxis
libQt6Charts.so.6:_ZN11LogXYDomain11qt_metacallEN11QMetaObject4CallEiPPv
libQt6Charts.so.6:_ZN11LogXYDomain11qt_metacastEPKc
libQt6Charts.so.6:_ZN11LogXYDomain16staticMetaObjectE
libQt6Charts.so.6:_ZN11LogXYDomain31handleHorizontalAxisBaseChangedEd
libQt6Charts.so.6:_ZN11LogXYDomain4moveEdd
libQt6Charts.so.6:_ZN11LogXYDomain6zoomInERK6QRectF
libQt6Charts.so.6:_ZN11LogXYDomain7zoomOutERK6QRectF
libQt6Charts.so.6:_ZN11LogXYDomain8setRangeEdddd
libQt6Charts.so.6:_ZN11LogXYDomainC1EP7QObject
libQt6Charts.so.6:_ZN11LogXYDomainC2EP7QObject
libQt6Charts.so.6:_ZN11LogXYDomainD0Ev
libQt6Charts.so.6:_ZN11LogXYDomainD1Ev
libQt6Charts.so.6:_ZN11LogXYDomainD2Ev
libQt6Charts.so.6:_ZN11PolarDomain11qt_metacallEN11QMetaObject4CallEiPPv
libQt6Charts.so.6:_ZN11PolarDomain11qt_metacastEPKc
libQt6Charts.so.6:_ZN11PolarDomain16staticMetaObjectE
libQt6Charts.so.6:_ZN11PolarDomain7setSizeERK6QSizeF
libQt6Charts.so.6:_ZN11PolarDomainC1EP7QObject
libQt6Charts.so.6:_ZN11PolarDomainC2EP7QObject
libQt6Charts.so.6:_ZN11PolarDomainD0Ev
libQt6Charts.so.6:_ZN11PolarDomainD1Ev
libQt6Charts.so.6:_ZN11PolarDomainD2Ev
libQt6Charts.so.6:_ZN11QAreaSeries11qt_metacallEN11QMetaObject4CallEiPPv
libQt6Charts.so.6:_ZN11QAreaSeries11qt_metacastEPKc
libQt6Charts.so.6:_ZN11QAreaSeries12colorChangedE6QColor
libQt6Charts.so.6:_ZN11QAreaSeries13doubleClickedERK7QPointF
libQt6Charts.so.6:_ZN11QAreaSeries14setBorderColorERK6QColor
libQt6Charts.so.6:_ZN11QAreaSeries14setLowerSeriesEP11QLineSeries
libQt6Charts.so.6:_ZN11QAreaSeries14setUpperSeriesEP11QLineSeries
libQt6Charts.so.6:_ZN11QAreaSeries16setPointsVisibleEb
libQt6Charts.so.6:_ZN11QAreaSeries16staticMetaObjectE
libQt6Charts.so.6:_ZN11QAreaSeries18borderColorChangedE6QColor
libQt6Charts.so.6:_ZN11QAreaSeries18setPointLabelsFontERK5QFont
libQt6Charts.so.6:_ZN11QAreaSeries19setPointLabelsColorERK6QColor
libQt6Charts.so.6:_ZN11QAreaSeries20setPointLabelsFormatERK7QString
libQt6Charts.so.6:_ZN11QAreaSeries21setPointLabelsVisibleEb
libQt6Charts.so.6:_ZN11QAreaSeries22pointLabelsFontChangedERK5QFont
libQt6Charts.so.6:_ZN11QAreaSeries22setPointLabelsClippingEb
libQt6Charts.so.6:_ZN11QAreaSeries23pointLabelsColorChangedERK6QColor
libQt6Charts.so.6:_ZN11QAreaSeries24pointLabelsFormatChangedERK7QString
libQt6Charts.so.6:_ZN11QAreaSeries26pointLabelsClippingChangedEb
libQt6Charts.so.6:_ZN11QAreaSeries28pointLabelsVisibilityChangedEb
libQt6Charts.so.6:_ZN11QAreaSeries6setPenERK4QPen
libQt6Charts.so.6:_ZN11QAreaSeries7clickedERK7QPointF
libQt6Charts.so.6:_ZN11QAreaSeries7hoveredERK7QPointFb
libQt6Charts.so.6:_ZN11QAreaSeries7pressedERK7QPointF
libQt6Charts.so.6:_ZN11QAreaSeries8releasedERK7QPointF
libQt6Charts.so.6:_ZN11QAreaSeries8selectedEv
libQt6Charts.so.6:_ZN11QAreaSeries8setBrushERK6QBrush
libQt6Charts.so.6:_ZN11QAreaSeries8setColorERK6QColor
libQt6Charts.so.6:_ZN11QAreaSeriesC1EP11QLineSeriesS1_
libQt6Charts.so.6:_ZN11QAreaSeriesC1EP7QObject
libQt6Charts.so.6:_ZN11QAreaSeriesC2EP11QLineSeriesS1_
libQt6Charts.so.6:_ZN11QAreaSeriesC2EP7QObject
libQt6Charts.so.6:_ZN11QAreaSeriesD0Ev
libQt6Charts.so.6:_ZN11QAreaSeriesD1Ev
libQt6Charts.so.6:_ZN11QAreaSeriesD2Ev
libQt6Charts.so.6:_ZN11QLineSeries11qt_metacallEN11QMetaObject4CallEiPPv
libQt6Charts.so.6:_ZN11QLineSeries11qt_metacastEPKc
libQt6Charts.so.6:_ZN11QLineSeries16staticMetaObjectE
libQt6Charts.so.6:_ZN11QLineSeriesC1EP7QObject
libQt6Charts.so.6:_ZN11QLineSeriesC1ER18QLineSeriesPrivateP7QObject
libQt6Charts.so.6:_ZN11QLineSeriesC2EP7QObject
libQt6Charts.so.6:_ZN11QLineSeriesC2ER18QLineSeriesPrivateP7QObject
libQt6Charts.so.6:_ZN11QLineSeriesD0Ev
libQt6Charts.so.6:_ZN11QLineSeriesD1Ev
libQt6Charts.so.6:_ZN11QLineSeriesD2Ev
libQt6Charts.so.6:_ZN11QPolarChart11qt_metacallEN11QMetaObject4CallEiPPv
libQt6Charts.so.6:_ZN11QPolarChart11qt_metacastEPKc
libQt6Charts.so.6:_ZN11QPolarChart16staticMetaObjectE
libQt6Charts.so.6:_ZN11QPolarChart20axisPolarOrientationEP13QAbstractAxis
libQt6Charts.so.6:_ZN11QPolarChart7addAxisEP13QAbstractAxisNS_16PolarOrientationE
libQt6Charts.so.6:_ZN11QPolarChartC1EP13QGraphicsItem6QFlagsIN2Qt10WindowTypeEE
libQt6Charts.so.6:_ZN11QPolarChartC2EP13QGraphicsItem6QFlagsIN2Qt10WindowTypeEE
libQt6Charts.so.6:_ZN11QPolarChartD0Ev
libQt6Charts.so.6:_ZN11QPolarChartD1Ev
libQt6Charts.so.6:_ZN11QPolarChartD2Ev
libQt6Charts.so.6:_ZN11XLogYDomain10attachAxisEP13QAbstractAxis
libQt6Charts.so.6:_ZN11XLogYDomain10detachAxisEP13QAbstractAxis
libQt6Charts.so.6:_ZN11XLogYDomain11qt_metacallEN11QMetaObject4CallEiPPv
libQt6Charts.so.6:_ZN11XLogYDomain11qt_metacastEPKc
libQt6Charts.so.6:_ZN11XLogYDomain16staticMetaObjectE
libQt6Charts.so.6:_ZN11XLogYDomain29handleVerticalAxisBaseChangedEd
libQt6Charts.so.6:_ZN11XLogYDomain4moveEdd
libQt6Charts.so.6:_ZN11XLogYDomain6zoomInERK6QRectF
libQt6Charts.so.6:_ZN11XLogYDomain7zoomOutERK6QRectF
libQt6Charts.so.6:_ZN11XLogYDomain8setRangeEdddd
libQt6Charts.so.6:_ZN11XLogYDomainC1EP7QObject
libQt6Charts.so.6:_ZN11XLogYDomainC2EP7QObject
libQt6Charts.so.6:_ZN11XLogYDomainD0Ev
libQt6Charts.so.6:_ZN11XLogYDomainD1Ev
libQt6Charts.so.6:_ZN11XLogYDomainD2Ev
libQt6Charts.so.6:_ZN11XYAnimation11updateStateEN18QAbstractAnimation5StateES1_
libQt6Charts.so.6:_ZN11XYAnimation18updateCurrentValueERK8QVariant
libQt6Charts.so.6:_ZN11XYAnimation5setupERK5QListI7QPointFES4_i
libQt6Charts.so.6:_ZN11XYAnimationC1EP7XYChartiR12QEasingCurve
libQt6Charts.so.6:_ZN11XYAnimationC2EP7XYChartiR12QEasingCurve
libQt6Charts.so.6:_ZN11XYAnimationD0Ev
libQt6Charts.so.6:_ZN11XYAnimationD1Ev
libQt6Charts.so.6:_ZN11XYAnimationD2Ev
libQt6Charts.so.6:_ZN12BarAnimation11qt_metacallEN11QMetaObject4CallEiPPv
libQt6Charts.so.6:_ZN12BarAnimation11qt_metacastEPKc
libQt6Charts.so.6:_ZN12BarAnimation16staticMetaObjectE
libQt6Charts.so.6:_ZN12BarAnimation18updateCurrentValueERK8QVariant
libQt6Charts.so.6:_ZN12BarAnimation5setupERK5QListI6QRectFES4_
libQt6Charts.so.6:_ZN12BarAnimationC1EP20AbstractBarChartItemiR12QEasingCurve
libQt6Charts.so.6:_ZN12BarAnimationC2EP20AbstractBarChartItemiR12QEasingCurve
libQt6Charts.so.6:_ZN12BarAnimationD0Ev
libQt6Charts.so.6:_ZN12BarAnimationD1Ev
libQt6Charts.so.6:_ZN12BarAnimationD2Ev
libQt6Charts.so.6:_ZN12BarChartItem11qt_metacallEN11QMetaObject4CallEiPPv
libQt6Charts.so.6:_ZN12BarChartItem11qt_metacastEPKc
libQt6Charts.so.6:_ZN12BarChartItem12topLeftPointEiiidd
libQt6Charts.so.6:_ZN12BarChartItem14positionLabelsEv
libQt6Charts.so.6:_ZN12BarChartItem15calculateLayoutEv
libQt6Charts.so.6:_ZN12BarChartItem16bottomRightPointEiiidd
libQt6Charts.so.6:_ZN12BarChartItem16initializeLayoutEiiib
libQt6Charts.so.6:_ZN12BarChartItem16staticMetaObjectE
libQt6Charts.so.6:_ZN12BarChartItem27handleLabelsPositionChangedEv
libQt6Charts.so.6:_ZN12BarChartItemC1EP18QAbstractBarSeriesP13QGraphicsItem
libQt6Charts.so.6:_ZN12BarChartItemC2EP18QAbstractBarSeriesP13QGraphicsItem
libQt6Charts.so.6:_ZN12ChartDataSet10attachAxisEP15QAbstractSeriesP13QAbstractAxis
libQt6Charts.so.6:_ZN12ChartDataSet10createAxesE6QFlagsIN13QAbstractAxis8AxisTypeEEN2Qt11OrientationE
libQt6Charts.so.6:_ZN12ChartDataSet10detachAxisEP15QAbstractSeriesP13QAbstractAxis
libQt6Charts.so.6:_ZN12ChartDataSet10mapToValueERK7QPointFP15QAbstractSeries
libQt6Charts.so.6:_ZN12ChartDataSet10removeAxisEP13QAbstractAxis
libQt6Charts.so.6:_ZN12ChartDataSet11axisRemovedEP13QAbstractAxis
libQt6Charts.so.6:_ZN12ChartDataSet11qt_metacallEN11QMetaObject4CallEiPPv
libQt6Charts.so.6:_ZN12ChartDataSet11qt_metacastEPKc
libQt6Charts.so.6:_ZN12ChartDataSet11seriesAddedEP15QAbstractSeries
libQt6Charts.so.6:_ZN12ChartDataSet12createDomainEN14AbstractDomain10DomainTypeE
libQt6Charts.so.6:_ZN12ChartDataSet12removeSeriesEP15QAbstractSeries
libQt6Charts.so.6:_ZN12ChartDataSet12scrollDomainEdd
libQt6Charts.so.6:_ZN12ChartDataSet12selectDomainERK5QListIP13QAbstractAxisE
libQt6Charts.so.6:_ZN12ChartDataSet12zoomInDomainERK6QRectF
libQt6Charts.so.6:_ZN12ChartDataSet13deleteAllAxesEv
libQt6Charts.so.6:_ZN12ChartDataSet13mapToPositionERK7QPointFP15QAbstractSeries
libQt6Charts.so.6:_ZN12ChartDataSet13seriesRemovedEP15QAbstractSeries
libQt6Charts.so.6:_ZN12ChartDataSet13zoomOutDomainERK6QRectF
libQt6Charts.so.6:_ZN12ChartDataSet14isZoomedDomainEv
libQt6Charts.so.6:_ZN12ChartDataSet14reverseChangedEv
libQt6Charts.so.6:_ZN12ChartDataSet15deleteAllSeriesEv
libQt6Charts.so.6:_ZN12ChartDataSet15zoomResetDomainEv
libQt6Charts.so.6:_ZN12ChartDataSet16staticMetaObjectE
libQt6Charts.so.6:_ZN12ChartDataSet17createDefaultAxesEv
libQt6Charts.so.6:_ZN12ChartDataSet19findMinMaxForSeriesERK5QListIP15QAbstractSeriesE6QFlagsIN2Qt11OrientationEERdSA_
libQt6Charts.so.6:_ZN12ChartDataSet7addAxisEP13QAbstractAxis6QFlagsIN2Qt13AlignmentFlagEE
libQt6Charts.so.6:_ZN12ChartDataSet9addSeriesEP15QAbstractSeries
libQt6Charts.so.6:_ZN12ChartDataSet9axisAddedEP13QAbstractAxis
libQt6Charts.so.6:_ZN12ChartDataSetC1EP6QChart
libQt6Charts.so.6:_ZN12ChartDataSetC2EP6QChart
libQt6Charts.so.6:_ZN12ChartDataSetD0Ev
libQt6Charts.so.6:_ZN12ChartDataSetD1Ev
libQt6Charts.so.6:_ZN12ChartDataSetD2Ev
libQt6Charts.so.6:_ZN12ChartElement10setDataSetEP12ChartDataSet
libQt6Charts.so.6:_ZN12ChartElement12setPresenterEP14ChartPresenter
libQt6Charts.so.6:_ZN12ChartElement15setThemeManagerEP17ChartThemeManager
libQt6Charts.so.6:_ZN12ChartElementC1EP13QGraphicsItem
libQt6Charts.so.6:_ZN12ChartElementC2EP13QGraphicsItem
libQt6Charts.so.6:_ZN12LegendLayout10invalidateEv
libQt6Charts.so.6:_ZN12LegendLayout11setGeometryERK6QRectF
libQt6Charts.so.6:_ZN12LegendLayout15widthLongerThanEPKNS_17LegendWidthStructES2_
libQt6Charts.so.6:_ZN12LegendLayout19setAttachedGeometryERK6QRectF
libQt6Charts.so.6:_ZN12LegendLayout20setDettachedGeometryERK6QRectF
libQt6Charts.so.6:_ZN12LegendLayout9setOffsetEdd
libQt6Charts.so.6:_ZN12LegendLayoutC1EP7QLegend
libQt6Charts.so.6:_ZN12LegendLayoutC2EP7QLegend
libQt6Charts.so.6:_ZN12LegendLayoutD0Ev
libQt6Charts.so.6:_ZN12LegendLayoutD1Ev
libQt6Charts.so.6:_ZN12LegendLayoutD2Ev
libQt6Charts.so.6:_ZN12PieAnimation11qt_metacallEN11QMetaObject4CallEiPPv
libQt6Charts.so.6:_ZN12PieAnimation11qt_metacastEPKc
libQt6Charts.so.6:_ZN12PieAnimation11removeSliceEP12PieSliceItem
libQt6Charts.so.6:_ZN12PieAnimation11updateValueEP12PieSliceItemRK12PieSliceData
libQt6Charts.so.6:_ZN12PieAnimation16staticMetaObjectE
libQt6Charts.so.6:_ZN12PieAnimation18updateCurrentValueERK8QVariant
libQt6Charts.so.6:_ZN12PieAnimation8addSliceEP12PieSliceItemRK12PieSliceDatab
libQt6Charts.so.6:_ZN12PieAnimationC1EP12PieChartItemiR12QEasingCurve
libQt6Charts.so.6:_ZN12PieAnimationC2EP12PieChartItemiR12QEasingCurve
libQt6Charts.so.6:_ZN12PieAnimationD0Ev
libQt6Charts.so.6:_ZN12PieAnimationD1Ev
libQt6Charts.so.6:_ZN12PieAnimationD2Ev
libQt6Charts.so.6:_ZN12PieChartItem11qt_metacallEN11QMetaObject4CallEiPPv
libQt6Charts.so.6:_ZN12PieChartItem11qt_metacastEPKc
libQt6Charts.so.6:_ZN12PieChartItem12setAnimationEP12PieAnimation
libQt6Charts.so.6:_ZN12PieChartItem12updateLayoutEv
libQt6Charts.so.6:_ZN12PieChartItem15hoverEnterEventEP24QGraphicsSceneHoverEvent
libQt6Charts.so.6:_ZN12PieChartItem15hoverLeaveEventEP24QGraphicsSceneHoverEvent
libQt6Charts.so.6:_ZN12PieChartItem15mousePressEventEP24QGraphicsSceneMouseEvent
libQt6Charts.so.6:_ZN12PieChartItem16staticMetaObjectE
libQt6Charts.so.6:_ZN12PieChartItem17handleSlicesAddedERK5QListIP9QPieSliceE
libQt6Charts.so.6:_ZN12PieChartItem17mouseReleaseEventEP24QGraphicsSceneMouseEvent
libQt6Charts.so.6:_ZN12PieChartItem18handleSliceChangedEv
libQt6Charts.so.6:_ZN12PieChartItem19handleDomainUpdatedEv
libQt6Charts.so.6:_ZN12PieChartItem19handleSlicesRemovedERK5QListIP9QPieSliceE
libQt6Charts.so.6:_ZN12PieChartItem19updateSliceGeometryEP9QPieSlice
libQt6Charts.so.6:_ZN12PieChartItem20handleOpacityChangedEv
libQt6Charts.so.6:_ZN12PieChartItem21mouseDoubleClickEventEP24QGraphicsSceneMouseEvent
libQt6Charts.so.6:_ZN12PieChartItem26handleSeriesVisibleChangedEv
libQt6Charts.so.6:_ZN12PieChartItem7cleanupEv
libQt6Charts.so.6:_ZN12PieChartItemC1EP10QPieSeriesP13QGraphicsItem
libQt6Charts.so.6:_ZN12PieChartItemC2EP10QPieSeriesP13QGraphicsItem
libQt6Charts.so.6:_ZN12PieChartItemD0Ev
libQt6Charts.so.6:_ZN12PieChartItemD1Ev
libQt6Charts.so.6:_ZN12PieChartItemD2Ev
libQt6Charts.so.6:_ZN12PieSliceItem11qt_metacallEN11QMetaObject4CallEiPPv
libQt6Charts.so.6:_ZN12PieSliceItem11qt_metacastEPKc
libQt6Charts.so.6:_ZN12PieSliceItem11sliceCenterE7QPointFdP9QPieSlice
libQt6Charts.so.6:_ZN12PieSliceItem12labelArmPathE7QPointFdddPS0_
libQt6Charts.so.6:_ZN12PieSliceItem13doubleClickedE6QFlagsIN2Qt11MouseButtonEE
libQt6Charts.so.6:_ZN12PieSliceItem14updateGeometryEv
libQt6Charts.so.6:_ZN12PieSliceItem15hoverEnterEventEP24QGraphicsSceneHoverEvent
libQt6Charts.so.6:_ZN12PieSliceItem15hoverLeaveEventEP24QGraphicsSceneHoverEvent
libQt6Charts.so.6:_ZN12PieSliceItem15mousePressEventEP24QGraphicsSceneMouseEvent
libQt6Charts.so.6:_ZN12PieSliceItem16staticMetaObjectE
libQt6Charts.so.6:_ZN12PieSliceItem17mouseReleaseEventEP24QGraphicsSceneMouseEvent
libQt6Charts.so.6:_ZN12PieSliceItem21mouseDoubleClickEventEP24QGraphicsSceneMouseEvent
libQt6Charts.so.6:_ZN12PieSliceItem5paintEP8QPainterPK24QStyleOptionGraphicsItemP7QWidget
libQt6Charts.so.6:_ZN12PieSliceItem7clickedE6QFlagsIN2Qt11MouseButtonEE
libQt6Charts.so.6:_ZN12PieSliceItem7hoveredEb
libQt6Charts.so.6:_ZN12PieSliceItem7pressedE6QFlagsIN2Qt11MouseButtonEE
libQt6Charts.so.6:_ZN12PieSliceItem8releasedE6QFlagsIN2Qt11MouseButtonEE
libQt6Charts.so.6:_ZN12PieSliceItem9setLayoutERK12PieSliceData
libQt6Charts.so.6:_ZN12PieSliceItem9slicePathE7QPointFdddPdPS0_
libQt6Charts.so.6:_ZN12PieSliceItemC1EP13QGraphicsItem
libQt6Charts.so.6:_ZN12PieSliceItemC2EP13QGraphicsItem
libQt6Charts.so.6:_ZN12PieSliceItemD0Ev
libQt6Charts.so.6:_ZN12PieSliceItemD1Ev
libQt6Charts.so.6:_ZN12PieSliceItemD2Ev
libQt6Charts.so.6:_ZN12ScrollTicker10timerEventEP11QTimerEvent
libQt6Charts.so.6:_ZN12ScrollTicker11qt_metacallEN11QMetaObject4CallEiPPv
libQt6Charts.so.6:_ZN12ScrollTicker11qt_metacastEPKc
libQt6Charts.so.6:_ZN12ScrollTicker16staticMetaObjectE
libQt6Charts.so.6:_ZN12ScrollTicker4stopEv
libQt6Charts.so.6:_ZN12ScrollTicker5startEi
libQt6Charts.so.6:_ZN12ScrollTickerC1EP8ScrollerP7QObject
libQt6Charts.so.6:_ZN12ScrollTickerC2EP8ScrollerP7QObject
libQt6Charts.so.6:_ZN12VerticalAxis14updateGeometryEv
libQt6Charts.so.6:_ZN12VerticalAxis23updateMinorTickGeometryEv
libQt6Charts.so.6:_ZN12VerticalAxisC1EP13QAbstractAxisP13QGraphicsItemb
libQt6Charts.so.6:_ZN12VerticalAxisC2EP13QAbstractAxisP13QGraphicsItemb
libQt6Charts.so.6:_ZN12VerticalAxisD0Ev
libQt6Charts.so.6:_ZN12VerticalAxisD1Ev
libQt6Charts.so.6:_ZN12VerticalAxisD2Ev
libQt6Charts.so.6:_ZN13AreaChartItem10updatePathEv
libQt6Charts.so.6:_ZN13AreaChartItem11qt_metacallEN11QMetaObject4CallEiPPv
libQt6Charts.so.6:_ZN13AreaChartItem11qt_metacastEPKc
libQt6Charts.so.6:_ZN13AreaChartItem12setPresenterEP14ChartPresenter
libQt6Charts.so.6:_ZN13AreaChartItem13doubleClickedERK7QPointF
libQt6Charts.so.6:_ZN13AreaChartItem13handleUpdatedEv
libQt6Charts.so.6:_ZN13AreaChartItem14setLowerSeriesEP11QLineSeries
libQt6Charts.so.6:_ZN13AreaChartItem14setUpperSeriesEP11QLineSeries
libQt6Charts.so.6:_ZN13AreaChartItem15hoverEnterEventEP24QGraphicsSceneHoverEvent
libQt6Charts.so.6:_ZN13AreaChartItem15hoverLeaveEventEP24QGraphicsSceneHoverEvent
libQt6Charts.so.6:_ZN13AreaChartItem15mousePressEventEP24QGraphicsSceneMouseEvent
libQt6Charts.so.6:_ZN13AreaChartItem16staticMetaObjectE
libQt6Charts.so.6:_ZN13AreaChartItem17mouseReleaseEventEP24QGraphicsSceneMouseEvent
libQt6Charts.so.6:_ZN13AreaChartItem19fixEdgeSeriesDomainEP13LineChartItem
libQt6Charts.so.6:_ZN13AreaChartItem19handleDomainUpdatedEv
libQt6Charts.so.6:_ZN13AreaChartItem21mouseDoubleClickEventEP24QGraphicsSceneMouseEvent
libQt6Charts.so.6:_ZN13AreaChartItem5paintEP8QPainterPK24QStyleOptionGraphicsItemP7QWidget
libQt6Charts.so.6:_ZN13AreaChartItem7clickedERK7QPointF
libQt6Charts.so.6:_ZN13AreaChartItem7hoveredERK7QPointFb
libQt6Charts.so.6:_ZN13AreaChartItem7pressedERK7QPointF
libQt6Charts.so.6:_ZN13AreaChartItem8releasedERK7QPointF
libQt6Charts.so.6:_ZN13AreaChartItemC1EP11QAreaSeriesP13QGraphicsItem
libQt6Charts.so.6:_ZN13AreaChartItemC2EP11QAreaSeriesP13QGraphicsItem
libQt6Charts.so.6:_ZN13AreaChartItemD0Ev
libQt6Charts.so.6:_ZN13AreaChartItemD1Ev
libQt6Charts.so.6:_ZN13AreaChartItemD2Ev
libQt6Charts.so.6:_ZN13AxisAnimation16setAnimationTypeENS_9AnimationE
libQt6Charts.so.6:_ZN13AxisAnimation17setAnimationPointERK7QPointF
libQt6Charts.so.6:_ZN13AxisAnimation18updateCurrentValueERK8QVariant
libQt6Charts.so.6:_ZN13AxisAnimation9setValuesER5QListIdERKS1_
libQt6Charts.so.6:_ZN13AxisAnimationC1EP16ChartAxisElementiR12QEasingCurve
libQt6Charts.so.6:_ZN13AxisAnimationC2EP16ChartAxisElementiR12QEasingCurve
libQt6Charts.so.6:_ZN13AxisAnimationD0Ev
libQt6Charts.so.6:_ZN13AxisAnimationD1Ev
libQt6Charts.so.6:_ZN13AxisAnimationD2Ev
libQt6Charts.so.6:_ZN13LineChartItem11qt_metacallEN11QMetaObject4CallEiPPv
libQt6Charts.so.6:_ZN13LineChartItem11qt_metacastEPKc
libQt6Charts.so.6:_ZN13LineChartItem14updateGeometryEv
libQt6Charts.so.6:_ZN13LineChartItem15hoverEnterEventEP24QGraphicsSceneHoverEvent
libQt6Charts.so.6:_ZN13LineChartItem15hoverLeaveEventEP24QGraphicsSceneHoverEvent
libQt6Charts.so.6:_ZN13LineChartItem15mousePressEventEP24QGraphicsSceneMouseEvent
libQt6Charts.so.6:_ZN13LineChartItem16staticMetaObjectE
libQt6Charts.so.6:_ZN13LineChartItem17mouseReleaseEventEP24QGraphicsSceneMouseEvent
libQt6Charts.so.6:_ZN13LineChartItem19handleSeriesUpdatedEv
libQt6Charts.so.6:_ZN13LineChartItem21mouseDoubleClickEventEP24QGraphicsSceneMouseEvent
libQt6Charts.so.6:_ZN13LineChartItem5paintEP8QPainterPK24QStyleOptionGraphicsItemP7QWidget
libQt6Charts.so.6:_ZN13LineChartItemC1EP11QLineSeriesP13QGraphicsItem
libQt6Charts.so.6:_ZN13LineChartItemC2EP11QLineSeriesP13QGraphicsItem
libQt6Charts.so.6:_ZN13QAbstractAxis10setLinePenERK4QPen
libQt6Charts.so.6:_ZN13QAbstractAxis10setReverseEb
libQt6Charts.so.6:_ZN13QAbstractAxis10setVisibleEb
libQt6Charts.so.6:_ZN13QAbstractAxis11qt_metacallEN11QMetaObject4CallEiPPv
libQt6Charts.so.6:_ZN13QAbstractAxis11qt_metacastEPKc
libQt6Charts.so.6:_ZN13QAbstractAxis12colorChangedE6QColor
libQt6Charts.so.6:_ZN13QAbstractAxis12setShadesPenERK4QPen
libQt6Charts.so.6:_ZN13QAbstractAxis12setTitleFontERK5QFont
libQt6Charts.so.6:_ZN13QAbstractAxis12setTitleTextERK7QString
libQt6Charts.so.6:_ZN13QAbstractAxis13gridLineColorEv
libQt6Charts.so.6:_ZN13QAbstractAxis13setLabelsFontERK5QFont
libQt6Charts.so.6:_ZN13QAbstractAxis13setTitleBrushERK6QBrush
libQt6Charts.so.6:_ZN13QAbstractAxis14linePenChangedERK4QPen
libQt6Charts.so.6:_ZN13QAbstractAxis14reverseChangedEb
libQt6Charts.so.6:_ZN13QAbstractAxis14setGridLinePenERK4QPen
libQt6Charts.so.6:_ZN13QAbstractAxis14setLabelsAngleEi
libQt6Charts.so.6:_ZN13QAbstractAxis14setLabelsBrushERK6QBrush
libQt6Charts.so.6:_ZN13QAbstractAxis14setLabelsColorE6QColor
libQt6Charts.so.6:_ZN13QAbstractAxis14setLineVisibleEb
libQt6Charts.so.6:_ZN13QAbstractAxis14setShadesBrushERK6QBrush
libQt6Charts.so.6:_ZN13QAbstractAxis14setShadesColorE6QColor
libQt6Charts.so.6:_ZN13QAbstractAxis14visibleChangedEb
libQt6Charts.so.6:_ZN13QAbstractAxis15setLinePenColorE6QColor
libQt6Charts.so.6:_ZN13QAbstractAxis15setTitleVisibleEb
libQt6Charts.so.6:_ZN13QAbstractAxis16setGridLineColorERK6QColor
libQt6Charts.so.6:_ZN13QAbstractAxis16setLabelsVisibleEb
libQt6Charts.so.6:_ZN13QAbstractAxis16setShadesVisibleEb
libQt6Charts.so.6:_ZN13QAbstractAxis16shadesPenChangedERK4QPen
libQt6Charts.so.6:_ZN13QAbstractAxis16staticMetaObjectE
libQt6Charts.so.6:_ZN13QAbstractAxis16titleFontChangedERK5QFont
libQt6Charts.so.6:_ZN13QAbstractAxis16titleTextChangedERK7QString
libQt6Charts.so.6:_ZN13QAbstractAxis17labelsFontChangedERK5QFont
libQt6Charts.so.6:_ZN13QAbstractAxis17setLabelsEditableEb
libQt6Charts.so.6:_ZN13QAbstractAxis17setTruncateLabelsEb
libQt6Charts.so.6:_ZN13QAbstractAxis17titleBrushChangedERK6QBrush
libQt6Charts.so.6:_ZN13QAbstractAxis18gridLinePenChangedERK4QPen
libQt6Charts.so.6:_ZN13QAbstractAxis18gridVisibleChangedEb
libQt6Charts.so.6:_ZN13QAbstractAxis18labelsAngleChangedEi
libQt6Charts.so.6:_ZN13QAbstractAxis18labelsBrushChangedERK6QBrush
libQt6Charts.so.6:_ZN13QAbstractAxis18labelsColorChangedE6QColor
libQt6Charts.so.6:_ZN13QAbstractAxis18lineVisibleChangedEb
libQt6Charts.so.6:_ZN13QAbstractAxis18minorGridLineColorEv
libQt6Charts.so.6:_ZN13QAbstractAxis18setGridLineVisibleEb
libQt6Charts.so.6:_ZN13QAbstractAxis18shadesBrushChangedERK6QBrush
libQt6Charts.so.6:_ZN13QAbstractAxis18shadesColorChangedE6QColor
libQt6Charts.so.6:_ZN13QAbstractAxis19setMinorGridLinePenERK4QPen
libQt6Charts.so.6:_ZN13QAbstractAxis19titleVisibleChangedEb
libQt6Charts.so.6:_ZN13QAbstractAxis20gridLineColorChangedERK6QColor
libQt6Charts.so.6:_ZN13QAbstractAxis20labelsVisibleChangedEb
libQt6Charts.so.6:_ZN13QAbstractAxis20setShadesBorderColorE6QColor
libQt6Charts.so.6:_ZN13QAbstractAxis20shadesVisibleChangedEb
libQt6Charts.so.6:_ZN13QAbstractAxis21labelsEditableChangedEb
libQt6Charts.so.6:_ZN13QAbstractAxis21setMinorGridLineColorERK6QColor
libQt6Charts.so.6:_ZN13QAbstractAxis21truncateLabelsChangedEb
libQt6Charts.so.6:_ZN13QAbstractAxis22labelsTruncatedChangedEb
libQt6Charts.so.6:_ZN13QAbstractAxis23minorGridLinePenChangedERK4QPen
libQt6Charts.so.6:_ZN13QAbstractAxis23minorGridVisibleChangedEb
libQt6Charts.so.6:_ZN13QAbstractAxis23setMinorGridLineVisibleEb
libQt6Charts.so.6:_ZN13QAbstractAxis24shadesBorderColorChangedE6QColor
libQt6Charts.so.6:_ZN13QAbstractAxis25minorGridLineColorChangedERK6QColor
libQt6Charts.so.6:_ZN13QAbstractAxis4hideEv
libQt6Charts.so.6:_ZN13QAbstractAxis4showEv
libQt6Charts.so.6:_ZN13QAbstractAxis6setMaxERK8QVariant
libQt6Charts.so.6:_ZN13QAbstractAxis6setMinERK8QVariant
libQt6Charts.so.6:_ZN13QAbstractAxis8setRangeERK8QVariantS2_
libQt6Charts.so.6:_ZN13QAbstractAxisC1ER20QAbstractAxisPrivateP7QObject
libQt6Charts.so.6:_ZN13QAbstractAxisC2ER20QAbstractAxisPrivateP7QObject
libQt6Charts.so.6:_ZN13QAbstractAxisD0Ev
libQt6Charts.so.6:_ZN13QAbstractAxisD1Ev
libQt6Charts.so.6:_ZN13QAbstractAxisD2Ev
libQt6Charts.so.6:_ZN13QCategoryAxis11qt_metacallEN11QMetaObject4CallEiPPv
libQt6Charts.so.6:_ZN13QCategoryAxis11qt_metacastEPKc
libQt6Charts.so.6:_ZN13QCategoryAxis12replaceLabelERK7QStringS2_
libQt6Charts.so.6:_ZN13QCategoryAxis13setStartValueEd
libQt6Charts.so.6:_ZN13QCategoryAxis16categoriesLabelsEv
libQt6Charts.so.6:_ZN13QCategoryAxis16staticMetaObjectE
libQt6Charts.so.6:_ZN13QCategoryAxis17categoriesChangedEv
libQt6Charts.so.6:_ZN13QCategoryAxis17setLabelsPositionENS_18AxisLabelsPositionE
libQt6Charts.so.6:_ZN13QCategoryAxis21labelsPositionChangedENS_18AxisLabelsPositionE
libQt6Charts.so.6:_ZN13QCategoryAxis6appendERK7QStringd
libQt6Charts.so.6:_ZN13QCategoryAxis6removeERK7QString
libQt6Charts.so.6:_ZN13QCategoryAxisC1EP7QObject
libQt6Charts.so.6:_ZN13QCategoryAxisC1ER20QCategoryAxisPrivateP7QObject
libQt6Charts.so.6:_ZN13QCategoryAxisC2EP7QObject
libQt6Charts.so.6:_ZN13QCategoryAxisC2ER20QCategoryAxisPrivateP7QObject
libQt6Charts.so.6:_ZN13QCategoryAxisD0Ev
libQt6Charts.so.6:_ZN13QCategoryAxisD1Ev
libQt6Charts.so.6:_ZN13QCategoryAxisD2Ev
libQt6Charts.so.6:_ZN13QChartPrivate10defaultPenEv
libQt6Charts.so.6:_ZN13QChartPrivate11defaultFontEv
libQt6Charts.so.6:_ZN13QChartPrivate12defaultBrushEv
libQt6Charts.so.6:_ZN13QChartPrivate4initEv
libQt6Charts.so.6:_ZN13QChartPrivate6scrollEdd
libQt6Charts.so.6:_ZN13QChartPrivate6zoomInERK6QRectF
libQt6Charts.so.6:_ZN13QChartPrivate6zoomInEd
libQt6Charts.so.6:_ZN13QChartPrivate7zoomOutEd
libQt6Charts.so.6:_ZN13QChartPrivate8isZoomedEv
libQt6Charts.so.6:_ZN13QChartPrivate9zoomResetEv
libQt6Charts.so.6:_ZN13QChartPrivateC1EP6QChartNS0_9ChartTypeE
libQt6Charts.so.6:_ZN13QChartPrivateC2EP6QChartNS0_9ChartTypeE
libQt6Charts.so.6:_ZN13QChartPrivateD1Ev
libQt6Charts.so.6:_ZN13QChartPrivateD2Ev
libQt6Charts.so.6:_ZN13QDateTimeAxis10maxChangedE9QDateTime
libQt6Charts.so.6:_ZN13QDateTimeAxis10minChangedE9QDateTime
libQt6Charts.so.6:_ZN13QDateTimeAxis11qt_metacallEN11QMetaObject4CallEiPPv
libQt6Charts.so.6:_ZN13QDateTimeAxis11qt_metacastEPKc
libQt6Charts.so.6:_ZN13QDateTimeAxis12rangeChangedE9QDateTimeS0_
libQt6Charts.so.6:_ZN13QDateTimeAxis12setTickCountEi
libQt6Charts.so.6:_ZN13QDateTimeAxis13formatChangedE7QString
libQt6Charts.so.6:_ZN13QDateTimeAxis16staticMetaObjectE
libQt6Charts.so.6:_ZN13QDateTimeAxis16tickCountChangedEi
libQt6Charts.so.6:_ZN13QDateTimeAxis6setMaxE9QDateTime
libQt6Charts.so.6:_ZN13QDateTimeAxis6setMinE9QDateTime
libQt6Charts.so.6:_ZN13QDateTimeAxis8setRangeE9QDateTimeS0_
libQt6Charts.so.6:_ZN13QDateTimeAxis9setFormatE7QString
libQt6Charts.so.6:_ZN13QDateTimeAxisC1EP7QObject
libQt6Charts.so.6:_ZN13QDateTimeAxisC1ER20QDateTimeAxisPrivateP7QObject
libQt6Charts.so.6:_ZN13QDateTimeAxisC2EP7QObject
libQt6Charts.so.6:_ZN13QDateTimeAxisC2ER20QDateTimeAxisPrivateP7QObject
libQt6Charts.so.6:_ZN13QDateTimeAxisD0Ev
libQt6Charts.so.6:_ZN13QDateTimeAxisD1Ev
libQt6Charts.so.6:_ZN13QDateTimeAxisD2Ev
libQt6Charts.so.6:_ZN13QLegendMarker10penChangedEv
libQt6Charts.so.6:_ZN13QLegendMarker10setVisibleEb
libQt6Charts.so.6:_ZN13QLegendMarker11fontChangedEv
libQt6Charts.so.6:_ZN13QLegendMarker11qt_metacallEN11QMetaObject4CallEiPPv
libQt6Charts.so.6:_ZN13QLegendMarker11qt_metacastEPKc
libQt6Charts.so.6:_ZN13QLegendMarker12brushChangedEv
libQt6Charts.so.6:_ZN13QLegendMarker12labelChangedEv
libQt6Charts.so.6:_ZN13QLegendMarker12shapeChangedEv
libQt6Charts.so.6:_ZN13QLegendMarker13setLabelBrushERK6QBrush
libQt6Charts.so.6:_ZN13QLegendMarker14visibleChangedEv
libQt6Charts.so.6:_ZN13QLegendMarker16staticMetaObjectE
libQt6Charts.so.6:_ZN13QLegendMarker17labelBrushChangedEv
libQt6Charts.so.6:_ZN13QLegendMarker6setPenERK4QPen
libQt6Charts.so.6:_ZN13QLegendMarker7clickedEv
libQt6Charts.so.6:_ZN13QLegendMarker7hoveredEb
libQt6Charts.so.6:_ZN13QLegendMarker7setFontERK5QFont
libQt6Charts.so.6:_ZN13QLegendMarker8setBrushERK6QBrush
libQt6Charts.so.6:_ZN13QLegendMarker8setLabelERK7QString
libQt6Charts.so.6:_ZN13QLegendMarker8setShapeEN7QLegend11MarkerShapeE
libQt6Charts.so.6:_ZN13QLegendMarkerC1ER20QLegendMarkerPrivateP7QObject
libQt6Charts.so.6:_ZN13QLegendMarkerC2ER20QLegendMarkerPrivateP7QObject
libQt6Charts.so.6:_ZN13QLegendMarkerD0Ev
libQt6Charts.so.6:_ZN13QLegendMarkerD1Ev
libQt6Charts.so.6:_ZN13QLegendMarkerD2Ev
libQt6Charts.so.6:_ZN13QLogValueAxis10maxChangedEd
libQt6Charts.so.6:_ZN13QLogValueAxis10minChangedEd
libQt6Charts.so.6:_ZN13QLogValueAxis11baseChangedEd
libQt6Charts.so.6:_ZN13QLogValueAxis11qt_metacallEN11QMetaObject4CallEiPPv
libQt6Charts.so.6:_ZN13QLogValueAxis11qt_metacastEPKc
libQt6Charts.so.6:_ZN13QLogValueAxis12rangeChangedEdd
libQt6Charts.so.6:_ZN13QLogValueAxis14setLabelFormatERK7QString
libQt6Charts.so.6:_ZN13QLogValueAxis16staticMetaObjectE
libQt6Charts.so.6:_ZN13QLogValueAxis16tickCountChangedEi
libQt6Charts.so.6:_ZN13QLogValueAxis17setMinorTickCountEi
libQt6Charts.so.6:_ZN13QLogValueAxis18labelFormatChangedERK7QString
libQt6Charts.so.6:_ZN13QLogValueAxis21minorTickCountChangedEi
libQt6Charts.so.6:_ZN13QLogValueAxis6setMaxEd
libQt6Charts.so.6:_ZN13QLogValueAxis6setMinEd
libQt6Charts.so.6:_ZN13QLogValueAxis7setBaseEd
libQt6Charts.so.6:_ZN13QLogValueAxis8setRangeEdd
libQt6Charts.so.6:_ZN13QLogValueAxisC1EP7QObject
libQt6Charts.so.6:_ZN13QLogValueAxisC1ER20QLogValueAxisPrivateP7QObject
libQt6Charts.so.6:_ZN13QLogValueAxisC2EP7QObject
libQt6Charts.so.6:_ZN13QLogValueAxisC2ER20QLogValueAxisPrivateP7QObject
libQt6Charts.so.6:_ZN13QLogValueAxisD0Ev
libQt6Charts.so.6:_ZN13QLogValueAxisD1Ev
libQt6Charts.so.6:_ZN13QLogValueAxisD2Ev
libQt6Charts.so.6:_ZN13QSplineSeries11qt_metacallEN11QMetaObject4CallEiPPv
libQt6Charts.so.6:_ZN13QSplineSeries11qt_metacastEPKc
libQt6Charts.so.6:_ZN13QSplineSeries16staticMetaObjectE
libQt6Charts.so.6:_ZN13QSplineSeriesC1EP7QObject
libQt6Charts.so.6:_ZN13QSplineSeriesC2EP7QObject
libQt6Charts.so.6:_ZN13QSplineSeriesD0Ev
libQt6Charts.so.6:_ZN13QSplineSeriesD1Ev
libQt6Charts.so.6:_ZN13QSplineSeriesD2Ev
libQt6Charts.so.6:_ZN13XYPolarDomain11qt_metacallEN11QMetaObject4CallEiPPv
libQt6Charts.so.6:_ZN13XYPolarDomain11qt_metacastEPKc
libQt6Charts.so.6:_ZN13XYPolarDomain16staticMetaObjectE
libQt6Charts.so.6:_ZN13XYPolarDomain4moveEdd
libQt6Charts.so.6:_ZN13XYPolarDomain6zoomInERK6QRectF
libQt6Charts.so.6:_ZN13XYPolarDomain7zoomOutERK6QRectF
libQt6Charts.so.6:_ZN13XYPolarDomain8setRangeEdddd
libQt6Charts.so.6:_ZN13XYPolarDomainC1EP7QObject
libQt6Charts.so.6:_ZN13XYPolarDomainC2EP7QObject
libQt6Charts.so.6:_ZN13XYPolarDomainD0Ev
libQt6Charts.so.6:_ZN13XYPolarDomainD1Ev
libQt6Charts.so.6:_ZN13XYPolarDomainD2Ev
libQt6Charts.so.6:_ZN14AbstractDomain10attachAxisEP13QAbstractAxis
libQt6Charts.so.6:_ZN14AbstractDomain10detachAxisEP13QAbstractAxis
libQt6Charts.so.6:_ZN14AbstractDomain10niceNumberEdb
libQt6Charts.so.6:_ZN14AbstractDomain11fixZoomRectERK6QRectF
libQt6Charts.so.6:_ZN14AbstractDomain11qt_metacallEN11QMetaObject4CallEiPPv
libQt6Charts.so.6:_ZN14AbstractDomain11qt_metacastEPKc
libQt6Charts.so.6:_ZN14AbstractDomain14storeZoomResetEv
libQt6Charts.so.6:_ZN14AbstractDomain16looseNiceNumbersERdS0_Ri
libQt6Charts.so.6:_ZN14AbstractDomain16staticMetaObjectE
libQt6Charts.so.6:_ZN14AbstractDomain17blockRangeSignalsEb
libQt6Charts.so.6:_ZN14AbstractDomain20rangeVerticalChangedEdd
libQt6Charts.so.6:_ZN14AbstractDomain21adjustLogDomainRangesERdS0_
libQt6Charts.so.6:_ZN14AbstractDomain21handleReverseXChangedEb
libQt6Charts.so.6:_ZN14AbstractDomain21handleReverseYChangedEb
libQt6Charts.so.6:_ZN14AbstractDomain22rangeHorizontalChangedEdd
libQt6Charts.so.6:_ZN14AbstractDomain30handleVerticalAxisRangeChangedEdd
libQt6Charts.so.6:_ZN14AbstractDomain32handleHorizontalAxisRangeChangedEdd
libQt6Charts.so.6:_ZN14AbstractDomain7setMaxXEd
libQt6Charts.so.6:_ZN14AbstractDomain7setMaxYEd
libQt6Charts.so.6:_ZN14AbstractDomain7setMinXEd
libQt6Charts.so.6:_ZN14AbstractDomain7setMinYEd
libQt6Charts.so.6:_ZN14AbstractDomain7setSizeERK6QSizeF
libQt6Charts.so.6:_ZN14AbstractDomain7updatedEv
libQt6Charts.so.6:_ZN14AbstractDomain9setRangeXEdd
libQt6Charts.so.6:_ZN14AbstractDomain9setRangeYEdd
libQt6Charts.so.6:_ZN14AbstractDomain9zoomResetEv
libQt6Charts.so.6:_ZN14AbstractDomainC1EP7QObject
libQt6Charts.so.6:_ZN14AbstractDomainC2EP7QObject
libQt6Charts.so.6:_ZN14AbstractDomainD0Ev
libQt6Charts.so.6:_ZN14AbstractDomainD1Ev
libQt6Charts.so.6:_ZN14AbstractDomainD2Ev
libQt6Charts.so.6:_ZN14ChartAnimation11qt_metacallEN11QMetaObject4CallEiPPv
libQt6Charts.so.6:_ZN14ChartAnimation11qt_metacastEPKc
libQt6Charts.so.6:_ZN14ChartAnimation16staticMetaObjectE
libQt6Charts.so.6:_ZN14ChartAnimation19startChartAnimationEv
libQt6Charts.so.6:_ZN14ChartAnimation19stopAndDestroyLaterEv
libQt6Charts.so.6:_ZN14ChartAnimationC1EP7QObject
libQt6Charts.so.6:_ZN14ChartAnimationC2EP7QObject
libQt6Charts.so.6:_ZN14ChartPresenter10setVisibleEb
libQt6Charts.so.6:_ZN14ChartPresenter11qt_metacallEN11QMetaObject4CallEiPPv
libQt6Charts.so.6:_ZN14ChartPresenter11qt_metacastEPKc
libQt6Charts.so.6:_ZN14ChartPresenter11setGeometryE6QRectF
libQt6Charts.so.6:_ZN14ChartPresenter12setTitleFontERK5QFont
libQt6Charts.so.6:_ZN14ChartPresenter12titleElementEv
libQt6Charts.so.6:_ZN14ChartPresenter13setTitleBrushERK6QBrush
libQt6Charts.so.6:_ZN14ChartPresenter13truncatedTextERK5QFontRK7QStringdddR6QRectF
libQt6Charts.so.6:_ZN14ChartPresenter14numberToStringEdci
libQt6Charts.so.6:_ZN14ChartPresenter14numberToStringEi
libQt6Charts.so.6:_ZN14ChartPresenter14startAnimationEP14ChartAnimation
libQt6Charts.so.6:_ZN14ChartPresenter14updateGLWidgetEv
libQt6Charts.so.6:_ZN14ChartPresenter14updateGeometryERK6QRectF
libQt6Charts.so.6:_ZN14ChartPresenter15createTitleItemEv
libQt6Charts.so.6:_ZN14ChartPresenter15handleAxisAddedEP13QAbstractAxis
libQt6Charts.so.6:_ZN14ChartPresenter15plotAreaChangedERK6QRectF
libQt6Charts.so.6:_ZN14ChartPresenter15plotAreaElementEv
libQt6Charts.so.6:_ZN14ChartPresenter16setBackgroundPenERK4QPen
libQt6Charts.so.6:_ZN14ChartPresenter16setFixedGeometryERK6QRectF
libQt6Charts.so.6:_ZN14ChartPresenter16staticMetaObjectE
libQt6Charts.so.6:_ZN14ChartPresenter16textBoundingRectERK5QFontRK7QStringd
libQt6Charts.so.6:_ZN14ChartPresenter17backgroundElementEv
libQt6Charts.so.6:_ZN14ChartPresenter17handleAxisRemovedEP13QAbstractAxis
libQt6Charts.so.6:_ZN14ChartPresenter17handleSeriesAddedEP15QAbstractSeries
libQt6Charts.so.6:_ZN14ChartPresenter18setBackgroundBrushERK6QBrush
libQt6Charts.so.6:_ZN14ChartPresenter18setLocalizeNumbersEb
libQt6Charts.so.6:_ZN14ChartPresenter19handleSeriesRemovedEP15QAbstractSeries
libQt6Charts.so.6:_ZN14ChartPresenter19setAnimationOptionsE6QFlagsIN6QChart15AnimationOptionEE
libQt6Charts.so.6:_ZN14ChartPresenter20createBackgroundItemEv
libQt6Charts.so.6:_ZN14ChartPresenter20setAnimationDurationEi
libQt6Charts.so.6:_ZN14ChartPresenter20setBackgroundVisibleEb
libQt6Charts.so.6:_ZN14ChartPresenter22setBackgroundRoundnessEd
libQt6Charts.so.6:_ZN14ChartPresenter23setAnimationEasingCurveERK12QEasingCurve
libQt6Charts.so.6:_ZN14ChartPresenter24setPlotAreaBackgroundPenERK4QPen
libQt6Charts.so.6:_ZN14ChartPresenter26setPlotAreaBackgroundBrushERK6QBrush
libQt6Charts.so.6:_ZN14ChartPresenter28createPlotAreaBackgroundItemEv
libQt6Charts.so.6:_ZN14ChartPresenter28setPlotAreaBackgroundVisibleEb
libQt6Charts.so.6:_ZN14ChartPresenter30setBackgroundDropShadowEnabledEb
libQt6Charts.so.6:_ZN14ChartPresenter6layoutEv
libQt6Charts.so.6:_ZN14ChartPresenter6legendEv
libQt6Charts.so.6:_ZN14ChartPresenter8setStateENS_5StateE7QPointF
libQt6Charts.so.6:_ZN14ChartPresenter8setTitleERK7QString
libQt6Charts.so.6:_ZN14ChartPresenter9setLocaleERK7QLocale
libQt6Charts.so.6:_ZN14ChartPresenterC1EP6QChartNS0_9ChartTypeE
libQt6Charts.so.6:_ZN14ChartPresenterC2EP6QChartNS0_9ChartTypeE
libQt6Charts.so.6:_ZN14ChartPresenterD0Ev
libQt6Charts.so.6:_ZN14ChartPresenterD1Ev
libQt6Charts.so.6:_ZN14ChartPresenterD2Ev
libQt6Charts.so.6:_ZN14HorizontalAxis14updateGeometryEv
libQt6Charts.so.6:_ZN14HorizontalAxis23updateMinorTickGeometryEv
libQt6Charts.so.6:_ZN14HorizontalAxisC1EP13QAbstractAxisP13QGraphicsItemb
libQt6Charts.so.6:_ZN14HorizontalAxisC2EP13QAbstractAxisP13QGraphicsItemb
libQt6Charts.so.6:_ZN14HorizontalAxisD0Ev
libQt6Charts.so.6:_ZN14HorizontalAxisD1Ev
libQt6Charts.so.6:_ZN14HorizontalAxisD2Ev
libQt6Charts.so.6:_ZN14LegendScroller11qt_metacallEN11QMetaObject4CallEiPPv
libQt6Charts.so.6:_ZN14LegendScroller11qt_metacastEPKc
libQt6Charts.so.6:_ZN14LegendScroller14handleDetachedEb
libQt6Charts.so.6:_ZN14LegendScroller14hoverMoveEventEP24QGraphicsSceneHoverEvent
libQt6Charts.so.6:_ZN14LegendScroller14mouseMoveEventEP24QGraphicsSceneMouseEvent
libQt6Charts.so.6:_ZN14LegendScroller15hoverEnterEventEP24QGraphicsSceneHoverEvent
libQt6Charts.so.6:_ZN14LegendScroller15hoverLeaveEventEP24QGraphicsSceneHoverEvent
libQt6Charts.so.6:_ZN14LegendScroller15mousePressEventEP24QGraphicsSceneMouseEvent
libQt6Charts.so.6:_ZN14LegendScroller16staticMetaObjectE
libQt6Charts.so.6:_ZN14LegendScroller17mouseReleaseEventEP24QGraphicsSceneMouseEvent
libQt6Charts.so.6:_ZN14LegendScroller21mouseDoubleClickEventEP24QGraphicsSceneMouseEvent
libQt6Charts.so.6:_ZN14LegendScroller22updateForResizerChangeEv
libQt6Charts.so.6:_ZN14LegendScroller24handleInteractiveChangedEb
libQt6Charts.so.6:_ZN14LegendScroller5paintEP8QPainterPK24QStyleOptionGraphicsItemP7QWidget
libQt6Charts.so.6:_ZN14LegendScroller9setOffsetERK7QPointF
libQt6Charts.so.6:_ZN14LegendScrollerC1EP6QChart
libQt6Charts.so.6:_ZN14LegendScrollerC2EP6QChart
libQt6Charts.so.6:_ZN14LogXLogYDomain10attachAxisEP13QAbstractAxis
libQt6Charts.so.6:_ZN14LogXLogYDomain10detachAxisEP13QAbstractAxis
libQt6Charts.so.6:_ZN14LogXLogYDomain11qt_metacallEN11QMetaObject4CallEiPPv
libQt6Charts.so.6:_ZN14LogXLogYDomain11qt_metacastEPKc
libQt6Charts.so.6:_ZN14LogXLogYDomain16staticMetaObjectE
libQt6Charts.so.6:_ZN14LogXLogYDomain29handleVerticalAxisBaseChangedEd
libQt6Charts.so.6:_ZN14LogXLogYDomain31handleHorizontalAxisBaseChangedEd
libQt6Charts.so.6:_ZN14LogXLogYDomain4moveEdd
libQt6Charts.so.6:_ZN14LogXLogYDomain6zoomInERK6QRectF
libQt6Charts.so.6:_ZN14LogXLogYDomain7zoomOutERK6QRectF
libQt6Charts.so.6:_ZN14LogXLogYDomain8setRangeEdddd
libQt6Charts.so.6:_ZN14LogXLogYDomainC1EP7QObject
libQt6Charts.so.6:_ZN14LogXLogYDomainC2EP7QObject
libQt6Charts.so.6:_ZN14LogXLogYDomainD0Ev
libQt6Charts.so.6:_ZN14LogXLogYDomainD1Ev
libQt6Charts.so.6:_ZN14LogXLogYDomainD2Ev
libQt6Charts.so.6:_ZN14PentagonMarker7polygonEdddd
libQt6Charts.so.6:_ZN14PentagonMarkerC1EddddP16ScatterChartItem
libQt6Charts.so.6:_ZN14PentagonMarkerC2EddddP16ScatterChartItem
libQt6Charts.so.6:_ZN14PolarChartAxis11deleteItemsEi
libQt6Charts.so.6:_ZN14PolarChartAxis11qt_metacallEN11QMetaObject4CallEiPPv
libQt6Charts.so.6:_ZN14PolarChartAxis11qt_metacastEPKc
libQt6Charts.so.6:_ZN14PolarChartAxis11setGeometryERK6QRectFS2_
libQt6Charts.so.6:_ZN14PolarChartAxis12updateLayoutERK5QListIdE
libQt6Charts.so.6:_ZN14PolarChartAxis16staticMetaObjectE
libQt6Charts.so.6:_ZN14PolarChartAxis22handleShadesPenChangedERK4QPen
libQt6Charts.so.6:_ZN14PolarChartAxis24handleShadesBrushChangedERK6QBrush
libQt6Charts.so.6:_ZN14PolarChartAxisC1EP13QAbstractAxisP13QGraphicsItemb
libQt6Charts.so.6:_ZN14PolarChartAxisC2EP13QAbstractAxisP13QGraphicsItemb
libQt6Charts.so.6:_ZN14PolarChartAxisD0Ev
libQt6Charts.so.6:_ZN14PolarChartAxisD1Ev
libQt6Charts.so.6:_ZN14PolarChartAxisD2Ev
libQt6Charts.so.6:_ZN14QBarSetPrivate10valueAddedEii
libQt6Charts.so.6:_ZN14QBarSetPrivate11qt_metacallEN11QMetaObject4CallEiPPv
libQt6Charts.so.6:_ZN14QBarSetPrivate11qt_metacastEPKc
libQt6Charts.so.6:_ZN14QBarSetPrivate11updatedBarsEv
libQt6Charts.so.6:_ZN14QBarSetPrivate12valueChangedEi
libQt6Charts.so.6:_ZN14QBarSetPrivate12valueRemovedEii
libQt6Charts.so.6:_ZN14QBarSetPrivate14setBarSelectedEibRb
libQt6Charts.so.6:_ZN14QBarSetPrivate16staticMetaObjectE
libQt6Charts.so.6:_ZN14QBarSetPrivate3posEi
libQt6Charts.so.6:_ZN14QBarSetPrivate5valueEi
libQt6Charts.so.6:_ZN14QBarSetPrivate6appendE7QPointF
libQt6Charts.so.6:_ZN14QBarSetPrivate6appendERK5QListI7QPointFE
libQt6Charts.so.6:_ZN14QBarSetPrivate6appendERK5QListIdE
libQt6Charts.so.6:_ZN14QBarSetPrivate6insertEi7QPointF
libQt6Charts.so.6:_ZN14QBarSetPrivate6insertEid
libQt6Charts.so.6:_ZN14QBarSetPrivate6removeEii
libQt6Charts.so.6:_ZN14QBarSetPrivate7replaceEid
libQt6Charts.so.6:_ZN14QBarSetPrivateC1E7QStringP7QBarSet
libQt6Charts.so.6:_ZN14QBarSetPrivateC2E7QStringP7QBarSet
libQt6Charts.so.6:_ZN14QBarSetPrivateD0Ev
libQt6Charts.so.6:_ZN14QBarSetPrivateD1Ev
libQt6Charts.so.6:_ZN14QBarSetPrivateD2Ev
libQt6Charts.so.6:_ZN14QBoxPlotSeries10penChangedEv
libQt6Charts.so.6:_ZN14QBoxPlotSeries11qt_metacallEN11QMetaObject4CallEiPPv
libQt6Charts.so.6:_ZN14QBoxPlotSeries11qt_metacastEPKc
libQt6Charts.so.6:_ZN14QBoxPlotSeries11setBoxWidthEd
libQt6Charts.so.6:_ZN14QBoxPlotSeries12boxsetsAddedERK5QListIP7QBoxSetE
libQt6Charts.so.6:_ZN14QBoxPlotSeries12brushChangedEv
libQt6Charts.so.6:_ZN14QBoxPlotSeries12countChangedEv
libQt6Charts.so.6:_ZN14QBoxPlotSeries13doubleClickedEP7QBoxSet
libQt6Charts.so.6:_ZN14QBoxPlotSeries14boxsetsRemovedERK5QListIP7QBoxSetE
libQt6Charts.so.6:_ZN14QBoxPlotSeries15boxWidthChangedEv
libQt6Charts.so.6:_ZN14QBoxPlotSeries16staticMetaObjectE
libQt6Charts.so.6:_ZN14QBoxPlotSeries17boxOutlineVisibleEv
libQt6Charts.so.6:_ZN14QBoxPlotSeries20setBoxOutlineVisibleEb
libQt6Charts.so.6:_ZN14QBoxPlotSeries27boxOutlineVisibilityChangedEv
libQt6Charts.so.6:_ZN14QBoxPlotSeries4takeEP7QBoxSet
libQt6Charts.so.6:_ZN14QBoxPlotSeries5clearEv
libQt6Charts.so.6:_ZN14QBoxPlotSeries6appendEP7QBoxSet
libQt6Charts.so.6:_ZN14QBoxPlotSeries6appendERK5QListIP7QBoxSetE
libQt6Charts.so.6:_ZN14QBoxPlotSeries6insertEiP7QBoxSet
libQt6Charts.so.6:_ZN14QBoxPlotSeries6removeEP7QBoxSet
libQt6Charts.so.6:_ZN14QBoxPlotSeries6setPenERK4QPen
libQt6Charts.so.6:_ZN14QBoxPlotSeries7clickedEP7QBoxSet
libQt6Charts.so.6:_ZN14QBoxPlotSeries7hoveredEbP7QBoxSet
libQt6Charts.so.6:_ZN14QBoxPlotSeries7pressedEP7QBoxSet
libQt6Charts.so.6:_ZN14QBoxPlotSeries8boxWidthEv
libQt6Charts.so.6:_ZN14QBoxPlotSeries8releasedEP7QBoxSet
libQt6Charts.so.6:_ZN14QBoxPlotSeries8setBrushERK6QBrush
libQt6Charts.so.6:_ZN14QBoxPlotSeriesC1EP7QObject
libQt6Charts.so.6:_ZN14QBoxPlotSeriesC2EP7QObject
libQt6Charts.so.6:_ZN14QBoxPlotSeriesD0Ev
libQt6Charts.so.6:_ZN14QBoxPlotSeriesD1Ev
libQt6Charts.so.6:_ZN14QBoxPlotSeriesD2Ev
libQt6Charts.so.6:_ZN14QBoxSetPrivate10updatedBoxEv
libQt6Charts.so.6:_ZN14QBoxSetPrivate11qt_metacallEN11QMetaObject4CallEiPPv
libQt6Charts.so.6:_ZN14QBoxSetPrivate11qt_metacastEPKc
libQt6Charts.so.6:_ZN14QBoxSetPrivate13updatedLayoutEv
libQt6Charts.so.6:_ZN14QBoxSetPrivate15restructuredBoxEv
libQt6Charts.so.6:_ZN14QBoxSetPrivate16staticMetaObjectE
libQt6Charts.so.6:_ZN14QBoxSetPrivate5clearEv
libQt6Charts.so.6:_ZN14QBoxSetPrivate5valueEi
libQt6Charts.so.6:_ZN14QBoxSetPrivate6appendERK5QListIdE
libQt6Charts.so.6:_ZN14QBoxSetPrivate6appendEd
libQt6Charts.so.6:_ZN14QBoxSetPrivate8setValueEid
libQt6Charts.so.6:_ZN14QBoxSetPrivateC1E7QStringP7QBoxSet
libQt6Charts.so.6:_ZN14QBoxSetPrivateC2E7QStringP7QBoxSet
libQt6Charts.so.6:_ZN14QBoxSetPrivateD0Ev
libQt6Charts.so.6:_ZN14QBoxSetPrivateD1Ev
libQt6Charts.so.6:_ZN14QBoxSetPrivateD2Ev
libQt6Charts.so.6:_ZN14QLegendPrivate10addMarkersERK5QListIP13QLegendMarkerE
libQt6Charts.so.6:_ZN14QLegendPrivate11qt_metacallEN11QMetaObject4CallEiPPv
libQt6Charts.so.6:_ZN14QLegendPrivate11qt_metacastEPKc
libQt6Charts.so.6:_ZN14QLegendPrivate13relatedObjectEPK13QLegendMarker
libQt6Charts.so.6:_ZN14QLegendPrivate13removeMarkersERK5QListIP13QLegendMarkerE
libQt6Charts.so.6:_ZN14QLegendPrivate14decorateMarkerEP13QLegendMarker
libQt6Charts.so.6:_ZN14QLegendPrivate14updateToolTipsEv
libQt6Charts.so.6:_ZN14QLegendPrivate15decorateMarkersERK5QListIP13QLegendMarkerE
libQt6Charts.so.6:_ZN14QLegendPrivate16staticMetaObjectE
libQt6Charts.so.6:_ZN14QLegendPrivate17handleSeriesAddedEP15QAbstractSeries
libQt6Charts.so.6:_ZN14QLegendPrivate18handleCountChangedEv
libQt6Charts.so.6:_ZN14QLegendPrivate18insertMarkerHelperEP13QLegendMarker
libQt6Charts.so.6:_ZN14QLegendPrivate18removeMarkerHelperEP13QLegendMarker
libQt6Charts.so.6:_ZN14QLegendPrivate19handleSeriesRemovedEP15QAbstractSeries
libQt6Charts.so.6:_ZN14QLegendPrivate26handleSeriesVisibleChangedEv
libQt6Charts.so.6:_ZN14QLegendPrivate7markersEP15QAbstractSeries
libQt6Charts.so.6:_ZN14QLegendPrivate9roundnessEd
libQt6Charts.so.6:_ZN14QLegendPrivate9setOffsetERK7QPointF
libQt6Charts.so.6:_ZN14QLegendPrivateC1EP14ChartPresenterP6QChartP7QLegend
libQt6Charts.so.6:_ZN14QLegendPrivateC2EP14ChartPresenterP6QChartP7QLegend
libQt6Charts.so.6:_ZN14QLegendPrivateD0Ev
libQt6Charts.so.6:_ZN14QLegendPrivateD1Ev
libQt6Charts.so.6:_ZN14QLegendPrivateD2Ev
libQt6Charts.so.6:_ZN14QScatterSeries11qt_metacallEN11QMetaObject4CallEiPPv
libQt6Charts.so.6:_ZN14QScatterSeries11qt_metacastEPKc
libQt6Charts.so.6:_ZN14QScatterSeries12colorChangedE6QColor
libQt6Charts.so.6:_ZN14QScatterSeries13setMarkerSizeEd
libQt6Charts.so.6:_ZN14QScatterSeries14setBorderColorERK6QColor
libQt6Charts.so.6:_ZN14QScatterSeries14setMarkerShapeENS_11MarkerShapeE
libQt6Charts.so.6:_ZN14QScatterSeries16staticMetaObjectE
libQt6Charts.so.6:_ZN14QScatterSeries17markerSizeChangedEd
libQt6Charts.so.6:_ZN14QScatterSeries18borderColorChangedE6QColor
libQt6Charts.so.6:_ZN14QScatterSeries18markerShapeChangedENS_11MarkerShapeE
libQt6Charts.so.6:_ZN14QScatterSeries6setPenERK4QPen
libQt6Charts.so.6:_ZN14QScatterSeries8setBrushERK6QBrush
libQt6Charts.so.6:_ZN14QScatterSeries8setColorERK6QColor
libQt6Charts.so.6:_ZN14QScatterSeriesC1EP7QObject
libQt6Charts.so.6:_ZN14QScatterSeriesC2EP7QObject
libQt6Charts.so.6:_ZN14QScatterSeriesD0Ev
libQt6Charts.so.6:_ZN14QScatterSeriesD1Ev
libQt6Charts.so.6:_ZN14QScatterSeriesD2Ev
libQt6Charts.so.6:_ZN14QXYModelMapper11qt_metacallEN11QMetaObject4CallEiPPv
libQt6Charts.so.6:_ZN14QXYModelMapper11qt_metacastEPKc
libQt6Charts.so.6:_ZN14QXYModelMapper11setXSectionEi
libQt6Charts.so.6:_ZN14QXYModelMapper11setYSectionEi
libQt6Charts.so.6:_ZN14QXYModelMapper14setOrientationEN2Qt11OrientationE
libQt6Charts.so.6:_ZN14QXYModelMapper16staticMetaObjectE
libQt6Charts.so.6:_ZN14QXYModelMapper8setCountEi
libQt6Charts.so.6:_ZN14QXYModelMapper8setFirstEi
libQt6Charts.so.6:_ZN14QXYModelMapper8setModelEP18QAbstractItemModel
libQt6Charts.so.6:_ZN14QXYModelMapper9setSeriesEP9QXYSeries
libQt6Charts.so.6:_ZN14QXYModelMapperC1EP7QObject
libQt6Charts.so.6:_ZN14QXYModelMapperC2EP7QObject
libQt6Charts.so.6:_ZN14TriangleMarker7polygonEdddd
libQt6Charts.so.6:_ZN14TriangleMarkerC1EddddP16ScatterChartItem
libQt6Charts.so.6:_ZN14TriangleMarkerC2EddddP16ScatterChartItem
libQt6Charts.so.6:_ZN14ValueAxisLabel11qt_metacallEN11QMetaObject4CallEiPPv
libQt6Charts.so.6:_ZN14ValueAxisLabel11qt_metacastEPKc
libQt6Charts.so.6:_ZN14ValueAxisLabel12valueChangedEdd
libQt6Charts.so.6:_ZN14ValueAxisLabel13finishEditingEv
libQt6Charts.so.6:_ZN14ValueAxisLabel13keyPressEventEP9QKeyEvent
libQt6Charts.so.6:_ZN14ValueAxisLabel16staticMetaObjectE
libQt6Charts.so.6:_ZN14ValueAxisLabel19setInitialEditValueEv
libQt6Charts.so.6:_ZN14ValueAxisLabel20resetBeforeEditValueEv
libQt6Charts.so.6:_ZN14ValueAxisLabel8setValueERKd
libQt6Charts.so.6:_ZN14ValueAxisLabelC1EP13QGraphicsItem
libQt6Charts.so.6:_ZN14ValueAxisLabelC2EP13QGraphicsItem
libQt6Charts.so.6:_ZN15ChartBackground11setDiameterEd
libQt6Charts.so.6:_ZN15ChartBackground20setDropShadowEnabledEb
libQt6Charts.so.6:_ZN15ChartBackground5paintEP8QPainterPK24QStyleOptionGraphicsItemP7QWidget
libQt6Charts.so.6:_ZN15ChartBackgroundC1EP13QGraphicsItem
libQt6Charts.so.6:_ZN15ChartBackgroundC2EP13QGraphicsItem
libQt6Charts.so.6:_ZN15ChartBackgroundD0Ev
libQt6Charts.so.6:_ZN15ChartBackgroundD1Ev
libQt6Charts.so.6:_ZN15ChartBackgroundD2Ev
libQt6Charts.so.6:_ZN15ChartColorAxisX11qt_metacallEN11QMetaObject4CallEiPPv
libQt6Charts.so.6:_ZN15ChartColorAxisX11qt_metacastEPKc
libQt6Charts.so.6:_ZN15ChartColorAxisX14updateGeometryEv
libQt6Charts.so.6:_ZN15ChartColorAxisX16staticMetaObjectE
libQt6Charts.so.6:_ZN15ChartColorAxisXC1EP10QColorAxisP13QGraphicsItem
libQt6Charts.so.6:_ZN15ChartColorAxisXC2EP10QColorAxisP13QGraphicsItem
libQt6Charts.so.6:_ZN15ChartColorAxisXD0Ev
libQt6Charts.so.6:_ZN15ChartColorAxisXD1Ev
libQt6Charts.so.6:_ZN15ChartColorAxisXD2Ev
libQt6Charts.so.6:_ZN15ChartColorAxisY11qt_metacallEN11QMetaObject4CallEiPPv
libQt6Charts.so.6:_ZN15ChartColorAxisY11qt_metacastEPKc
libQt6Charts.so.6:_ZN15ChartColorAxisY14updateGeometryEv
libQt6Charts.so.6:_ZN15ChartColorAxisY16staticMetaObjectE
libQt6Charts.so.6:_ZN15ChartColorAxisYC1EP10QColorAxisP13QGraphicsItem
libQt6Charts.so.6:_ZN15ChartColorAxisYC2EP10QColorAxisP13QGraphicsItem
libQt6Charts.so.6:_ZN15ChartColorAxisYD0Ev
libQt6Charts.so.6:_ZN15ChartColorAxisYD1Ev
libQt6Charts.so.6:_ZN15ChartColorAxisYD2Ev
libQt6Charts.so.6:_ZN15ChartValueAxisX11qt_metacallEN11QMetaObject4CallEiPPv
libQt6Charts.so.6:_ZN15ChartValueAxisX11qt_metacastEPKc
libQt6Charts.so.6:_ZN15ChartValueAxisX14updateGeometryEv
libQt6Charts.so.6:_ZN15ChartValueAxisX16staticMetaObjectE
libQt6Charts.so.6:_ZN15ChartValueAxisX21handleTickTypeChangedEN10QValueAxis8TickTypeE
libQt6Charts.so.6:_ZN15ChartValueAxisX22handleTickCountChangedEi
libQt6Charts.so.6:_ZN15ChartValueAxisX23handleTickAnchorChangedEd
libQt6Charts.so.6:_ZN15ChartValueAxisX24handleLabelFormatChangedERK7QString
libQt6Charts.so.6:_ZN15ChartValueAxisX25handleTickIntervalChangedEd
libQt6Charts.so.6:_ZN15ChartValueAxisX27handleMinorTickCountChangedEi
libQt6Charts.so.6:_ZN15ChartValueAxisXC1EP10QValueAxisP13QGraphicsItem
libQt6Charts.so.6:_ZN15ChartValueAxisXC2EP10QValueAxisP13QGraphicsItem
libQt6Charts.so.6:_ZN15ChartValueAxisXD0Ev
libQt6Charts.so.6:_ZN15ChartValueAxisXD1Ev
libQt6Charts.so.6:_ZN15ChartValueAxisXD2Ev
libQt6Charts.so.6:_ZN15ChartValueAxisY11qt_metacallEN11QMetaObject4CallEiPPv
libQt6Charts.so.6:_ZN15ChartValueAxisY11qt_metacastEPKc
libQt6Charts.so.6:_ZN15ChartValueAxisY14updateGeometryEv
libQt6Charts.so.6:_ZN15ChartValueAxisY16staticMetaObjectE
libQt6Charts.so.6:_ZN15ChartValueAxisY21handleTickTypeChangedEN10QValueAxis8TickTypeE
libQt6Charts.so.6:_ZN15ChartValueAxisY22handleTickCountChangedEi
libQt6Charts.so.6:_ZN15ChartValueAxisY23handleTickAnchorChangedEd
libQt6Charts.so.6:_ZN15ChartValueAxisY24handleLabelFormatChangedERK7QString
libQt6Charts.so.6:_ZN15ChartValueAxisY25handleTickIntervalChangedEd
libQt6Charts.so.6:_ZN15ChartValueAxisY27handleMinorTickCountChangedEi
libQt6Charts.so.6:_ZN15ChartValueAxisYC1EP10QValueAxisP13QGraphicsItem
libQt6Charts.so.6:_ZN15ChartValueAxisYC2EP10QValueAxisP13QGraphicsItem
libQt6Charts.so.6:_ZN15ChartValueAxisYD0Ev
libQt6Charts.so.6:_ZN15ChartValueAxisYD1Ev
libQt6Charts.so.6:_ZN15ChartValueAxisYD2Ev
libQt6Charts.so.6:_ZN15QAbstractSeries10attachAxisEP13QAbstractAxis
libQt6Charts.so.6:_ZN15QAbstractSeries10detachAxisEP13QAbstractAxis
libQt6Charts.so.6:_ZN15QAbstractSeries10setOpacityEd
libQt6Charts.so.6:_ZN15QAbstractSeries10setVisibleEb
libQt6Charts.so.6:_ZN15QAbstractSeries11nameChangedEv
libQt6Charts.so.6:_ZN15QAbstractSeries11qt_metacallEN11QMetaObject4CallEiPPv
libQt6Charts.so.6:_ZN15QAbstractSeries11qt_metacastEPKc
libQt6Charts.so.6:_ZN15QAbstractSeries12attachedAxesEv
libQt6Charts.so.6:_ZN15QAbstractSeries12setUseOpenGLEb
libQt6Charts.so.6:_ZN15QAbstractSeries14opacityChangedEv
libQt6Charts.so.6:_ZN15QAbstractSeries14visibleChangedEv
libQt6Charts.so.6:_ZN15QAbstractSeries16staticMetaObjectE
libQt6Charts.so.6:_ZN15QAbstractSeries16useOpenGLChangedEv
libQt6Charts.so.6:_ZN15QAbstractSeries4hideEv
libQt6Charts.so.6:_ZN15QAbstractSeries4showEv
libQt6Charts.so.6:_ZN15QAbstractSeries7setNameERK7QString
libQt6Charts.so.6:_ZN15QAbstractSeriesC1ER22QAbstractSeriesPrivateP7QObject
libQt6Charts.so.6:_ZN15QAbstractSeriesC2ER22QAbstractSeriesPrivateP7QObject
libQt6Charts.so.6:_ZN15QAbstractSeriesD0Ev
libQt6Charts.so.6:_ZN15QAbstractSeriesD1Ev
libQt6Charts.so.6:_ZN15QAbstractSeriesD2Ev
libQt6Charts.so.6:_ZN15QBarModelMapper11qt_metacallEN11QMetaObject4CallEiPPv
libQt6Charts.so.6:_ZN15QBarModelMapper11qt_metacastEPKc
libQt6Charts.so.6:_ZN15QBarModelMapper14setOrientationEN2Qt11OrientationE
libQt6Charts.so.6:_ZN15QBarModelMapper16staticMetaObjectE
libQt6Charts.so.6:_ZN15QBarModelMapper20setLastBarSetSectionEi
libQt6Charts.so.6:_ZN15QBarModelMapper21setFirstBarSetSectionEi
libQt6Charts.so.6:_ZN15QBarModelMapper8setCountEi
libQt6Charts.so.6:_ZN15QBarModelMapper8setFirstEi
libQt6Charts.so.6:_ZN15QBarModelMapper8setModelEP18QAbstractItemModel
libQt6Charts.so.6:_ZN15QBarModelMapper9setSeriesEP18QAbstractBarSeries
libQt6Charts.so.6:_ZN15QBarModelMapperC1EP7QObject
libQt6Charts.so.6:_ZN15QBarModelMapperC2EP7QObject
libQt6Charts.so.6:_ZN15QCandlestickSet10lowChangedEv
libQt6Charts.so.6:_ZN15QCandlestickSet10penChangedEv
libQt6Charts.so.6:_ZN15QCandlestickSet11highChangedEv
libQt6Charts.so.6:_ZN15QCandlestickSet11openChangedEv
libQt6Charts.so.6:_ZN15QCandlestickSet11qt_metacallEN11QMetaObject4CallEiPPv
libQt6Charts.so.6:_ZN15QCandlestickSet11qt_metacastEPKc
libQt6Charts.so.6:_ZN15QCandlestickSet12brushChangedEv
libQt6Charts.so.6:_ZN15QCandlestickSet12closeChangedEv
libQt6Charts.so.6:_ZN15QCandlestickSet12setTimestampEd
libQt6Charts.so.6:_ZN15QCandlestickSet13doubleClickedEv
libQt6Charts.so.6:_ZN15QCandlestickSet16staticMetaObjectE
libQt6Charts.so.6:_ZN15QCandlestickSet16timestampChangedEv
libQt6Charts.so.6:_ZN15QCandlestickSet6setLowEd
libQt6Charts.so.6:_ZN15QCandlestickSet6setPenERK4QPen
libQt6Charts.so.6:_ZN15QCandlestickSet7clickedEv
libQt6Charts.so.6:_ZN15QCandlestickSet7hoveredEb
libQt6Charts.so.6:_ZN15QCandlestickSet7pressedEv
libQt6Charts.so.6:_ZN15QCandlestickSet7setHighEd
libQt6Charts.so.6:_ZN15QCandlestickSet7setOpenEd
libQt6Charts.so.6:_ZN15QCandlestickSet8releasedEv
libQt6Charts.so.6:_ZN15QCandlestickSet8setBrushERK6QBrush
libQt6Charts.so.6:_ZN15QCandlestickSet8setCloseEd
libQt6Charts.so.6:_ZN15QCandlestickSetC1EdP7QObject
libQt6Charts.so.6:_ZN15QCandlestickSetC1EdddddP7QObject
libQt6Charts.so.6:_ZN15QCandlestickSetC2EdP7QObject
libQt6Charts.so.6:_ZN15QCandlestickSetC2EdddddP7QObject
libQt6Charts.so.6:_ZN15QCandlestickSetD0Ev
libQt6Charts.so.6:_ZN15QCandlestickSetD1Ev
libQt6Charts.so.6:_ZN15QCandlestickSetD2Ev
libQt6Charts.so.6:_ZN15QHXYModelMapper11qt_metacallEN11QMetaObject4CallEiPPv
libQt6Charts.so.6:_ZN15QHXYModelMapper11qt_metacastEPKc
libQt6Charts.so.6:_ZN15QHXYModelMapper11xRowChangedEv
libQt6Charts.so.6:_ZN15QHXYModelMapper11yRowChangedEv
libQt6Charts.so.6:_ZN15QHXYModelMapper13modelReplacedEv
libQt6Charts.so.6:_ZN15QHXYModelMapper14seriesReplacedEv
libQt6Charts.so.6:_ZN15QHXYModelMapper14setColumnCountEi
libQt6Charts.so.6:_ZN15QHXYModelMapper14setFirstColumnEi
libQt6Charts.so.6:_ZN15QHXYModelMapper16staticMetaObjectE
libQt6Charts.so.6:_ZN15QHXYModelMapper18columnCountChangedEv
libQt6Charts.so.6:_ZN15QHXYModelMapper18firstColumnChangedEv
libQt6Charts.so.6:_ZN15QHXYModelMapper7setXRowEi
libQt6Charts.so.6:_ZN15QHXYModelMapper7setYRowEi
libQt6Charts.so.6:_ZN15QHXYModelMapper8setModelEP18QAbstractItemModel
libQt6Charts.so.6:_ZN15QHXYModelMapper9setSeriesEP9QXYSeries
libQt6Charts.so.6:_ZN15QHXYModelMapperC1EP7QObject
libQt6Charts.so.6:_ZN15QHXYModelMapperC2EP7QObject
libQt6Charts.so.6:_ZN15QPieModelMapper11qt_metacallEN11QMetaObject4CallEiPPv
libQt6Charts.so.6:_ZN15QPieModelMapper11qt_metacastEPKc
libQt6Charts.so.6:_ZN15QPieModelMapper14setOrientationEN2Qt11OrientationE
libQt6Charts.so.6:_ZN15QPieModelMapper16setLabelsSectionEi
libQt6Charts.so.6:_ZN15QPieModelMapper16setValuesSectionEi
libQt6Charts.so.6:_ZN15QPieModelMapper16staticMetaObjectE
libQt6Charts.so.6:_ZN15QPieModelMapper8setCountEi
libQt6Charts.so.6:_ZN15QPieModelMapper8setFirstEi
libQt6Charts.so.6:_ZN15QPieModelMapper8setModelEP18QAbstractItemModel
libQt6Charts.so.6:_ZN15QPieModelMapper9setSeriesEP10QPieSeries
libQt6Charts.so.6:_ZN15QPieModelMapperC1EP7QObject
libQt6Charts.so.6:_ZN15QPieModelMapperC2EP7QObject
libQt6Charts.so.6:_ZN15QVXYModelMapper10setXColumnEi
libQt6Charts.so.6:_ZN15QVXYModelMapper10setYColumnEi
libQt6Charts.so.6:_ZN15QVXYModelMapper11qt_metacallEN11QMetaObject4CallEiPPv
libQt6Charts.so.6:_ZN15QVXYModelMapper11qt_metacastEPKc
libQt6Charts.so.6:_ZN15QVXYModelMapper11setFirstRowEi
libQt6Charts.so.6:_ZN15QVXYModelMapper11setRowCountEi
libQt6Charts.so.6:_ZN15QVXYModelMapper13modelReplacedEv
libQt6Charts.so.6:_ZN15QVXYModelMapper14seriesReplacedEv
libQt6Charts.so.6:_ZN15QVXYModelMapper14xColumnChangedEv
libQt6Charts.so.6:_ZN15QVXYModelMapper14yColumnChangedEv
libQt6Charts.so.6:_ZN15QVXYModelMapper15firstRowChangedEv
libQt6Charts.so.6:_ZN15QVXYModelMapper15rowCountChangedEv
libQt6Charts.so.6:_ZN15QVXYModelMapper16staticMetaObjectE
libQt6Charts.so.6:_ZN15QVXYModelMapper8setModelEP18QAbstractItemModel
libQt6Charts.so.6:_ZN15QVXYModelMapper9setSeriesEP9QXYSeries
libQt6Charts.so.6:_ZN15QVXYModelMapperC1EP7QObject
libQt6Charts.so.6:_ZN15QVXYModelMapperC2EP7QObject
libQt6Charts.so.6:_ZN15QXYLegendMarker11qt_metacallEN11QMetaObject4CallEiPPv
libQt6Charts.so.6:_ZN15QXYLegendMarker11qt_metacastEPKc
libQt6Charts.so.6:_ZN15QXYLegendMarker16staticMetaObjectE
libQt6Charts.so.6:_ZN15QXYLegendMarker6seriesEv
libQt6Charts.so.6:_ZN15QXYLegendMarkerC1EP9QXYSeriesP7QLegendP7QObject
libQt6Charts.so.6:_ZN15QXYLegendMarkerC1ER22QXYLegendMarkerPrivateP7QObject
libQt6Charts.so.6:_ZN15QXYLegendMarkerC2EP9QXYSeriesP7QLegendP7QObject
libQt6Charts.so.6:_ZN15QXYLegendMarkerC2ER22QXYLegendMarkerPrivateP7QObject
libQt6Charts.so.6:_ZN15QXYLegendMarkerD0Ev
libQt6Charts.so.6:_ZN15QXYLegendMarkerD1Ev
libQt6Charts.so.6:_ZN15QXYLegendMarkerD2Ev
libQt6Charts.so.6:_ZN15SplineAnimation11updateStateEN18QAbstractAnimation5StateES1_
libQt6Charts.so.6:_ZN15SplineAnimation18updateCurrentValueERK8QVariant
libQt6Charts.so.6:_ZN15SplineAnimation5setupERK5QListI7QPointFES4_S4_S4_i
libQt6Charts.so.6:_ZN15SplineAnimationC1EP15SplineChartItemiR12QEasingCurve
libQt6Charts.so.6:_ZN15SplineAnimationC2EP15SplineChartItemiR12QEasingCurve
libQt6Charts.so.6:_ZN15SplineAnimationD0Ev
libQt6Charts.so.6:_ZN15SplineAnimationD1Ev
libQt6Charts.so.6:_ZN15SplineAnimationD2Ev
libQt6Charts.so.6:_ZN15SplineChartItem11qt_metacallEN11QMetaObject4CallEiPPv
libQt6Charts.so.6:_ZN15SplineChartItem11qt_metacastEPKc
libQt6Charts.so.6:_ZN15SplineChartItem11updateChartERK5QListI7QPointFES4_i
libQt6Charts.so.6:_ZN15SplineChartItem12setAnimationEP15SplineAnimation
libQt6Charts.so.6:_ZN15SplineChartItem14updateGeometryEv
libQt6Charts.so.6:_ZN15SplineChartItem15hoverEnterEventEP24QGraphicsSceneHoverEvent
libQt6Charts.so.6:_ZN15SplineChartItem15hoverLeaveEventEP24QGraphicsSceneHoverEvent
libQt6Charts.so.6:_ZN15SplineChartItem15mousePressEventEP24QGraphicsSceneMouseEvent
libQt6Charts.so.6:_ZN15SplineChartItem16staticMetaObjectE
libQt6Charts.so.6:_ZN15SplineChartItem17mouseReleaseEventEP24QGraphicsSceneMouseEvent
libQt6Charts.so.6:_ZN15SplineChartItem18firstControlPointsERK5QListIdE
libQt6Charts.so.6:_ZN15SplineChartItem19handleSeriesUpdatedEv
libQt6Charts.so.6:_ZN15SplineChartItem21mouseDoubleClickEventEP24QGraphicsSceneMouseEvent
libQt6Charts.so.6:_ZN15SplineChartItem22calculateControlPointsERK5QListI7QPointFE
libQt6Charts.so.6:_ZN15SplineChartItem24setControlGeometryPointsERK5QListI7QPointFE
libQt6Charts.so.6:_ZN15SplineChartItem5paintEP8QPainterPK24QStyleOptionGraphicsItemP7QWidget
libQt6Charts.so.6:_ZN15SplineChartItemC1EP13QSplineSeriesP13QGraphicsItem
libQt6Charts.so.6:_ZN15SplineChartItemC2EP13QSplineSeriesP13QGraphicsItem
libQt6Charts.so.6:_ZN16BoxPlotAnimation11qt_metacallEN11QMetaObject4CallEiPPv
libQt6Charts.so.6:_ZN16BoxPlotAnimation11qt_metacastEPKc
libQt6Charts.so.6:_ZN16BoxPlotAnimation12boxAnimationEP11BoxWhiskers
libQt6Charts.so.6:_ZN16BoxPlotAnimation16staticMetaObjectE
libQt6Charts.so.6:_ZN16BoxPlotAnimation17setAnimationStartEP11BoxWhiskers
libQt6Charts.so.6:_ZN16BoxPlotAnimation18boxChangeAnimationEP11BoxWhiskers
libQt6Charts.so.6:_ZN16BoxPlotAnimation18removeBoxAnimationEP11BoxWhiskers
libQt6Charts.so.6:_ZN16BoxPlotAnimation6addBoxEP11BoxWhiskers
libQt6Charts.so.6:_ZN16BoxPlotAnimation7stopAllEv
libQt6Charts.so.6:_ZN16BoxPlotAnimationC1EP16BoxPlotChartItemiR12QEasingCurve
libQt6Charts.so.6:_ZN16BoxPlotAnimationC2EP16BoxPlotChartItemiR12QEasingCurve
libQt6Charts.so.6:_ZN16BoxPlotAnimationD0Ev
libQt6Charts.so.6:_ZN16BoxPlotAnimationD1Ev
libQt6Charts.so.6:_ZN16BoxPlotAnimationD2Ev
libQt6Charts.so.6:_ZN16BoxPlotChartItem11qt_metacallEN11QMetaObject4CallEiPPv
libQt6Charts.so.6:_ZN16BoxPlotChartItem11qt_metacastEPKc
libQt6Charts.so.6:_ZN16BoxPlotChartItem12setAnimationEP16BoxPlotAnimation
libQt6Charts.so.6:_ZN16BoxPlotChartItem15calculateLayoutEv
libQt6Charts.so.6:_ZN16BoxPlotChartItem16initializeLayoutEv
libQt6Charts.so.6:_ZN16BoxPlotChartItem16staticMetaObjectE
libQt6Charts.so.6:_ZN16BoxPlotChartItem17handleUpdatedBarsEv
libQt6Charts.so.6:_ZN16BoxPlotChartItem17updateBoxGeometryEP11BoxWhiskersi
libQt6Charts.so.6:_ZN16BoxPlotChartItem18handleBoxsetRemoveERK5QListIP7QBoxSetE
libQt6Charts.so.6:_ZN16BoxPlotChartItem19handleDomainUpdatedEv
libQt6Charts.so.6:_ZN16BoxPlotChartItem19handleLayoutChangedEv
libQt6Charts.so.6:_ZN16BoxPlotChartItem20handleOpacityChangedEv
libQt6Charts.so.6:_ZN16BoxPlotChartItem26handleDataStructureChangedEv
libQt6Charts.so.6:_ZN16BoxPlotChartItem26handleSeriesVisibleChangedEv
libQt6Charts.so.6:_ZN16BoxPlotChartItem5paintEP8QPainterPK24QStyleOptionGraphicsItemP7QWidget
libQt6Charts.so.6:_ZN16BoxPlotChartItemC1EP14QBoxPlotSeriesP13QGraphicsItem
libQt6Charts.so.6:_ZN16BoxPlotChartItemC2EP14QBoxPlotSeriesP13QGraphicsItem
libQt6Charts.so.6:_ZN16BoxPlotChartItemD0Ev
libQt6Charts.so.6:_ZN16BoxPlotChartItemD1Ev
libQt6Charts.so.6:_ZN16BoxPlotChartItemD2Ev
libQt6Charts.so.6:_ZN16ChartAxisElement11qt_metacallEN11QMetaObject4CallEiPPv
libQt6Charts.so.6:_ZN16ChartAxisElement11qt_metacastEPKc
libQt6Charts.so.6:_ZN16ChartAxisElement12axisSelectedEv
libQt6Charts.so.6:_ZN16ChartAxisElement12connectSlotsEv
libQt6Charts.so.6:_ZN16ChartAxisElement16staticMetaObjectE
libQt6Charts.so.6:_ZN16ChartAxisElement16valueLabelEditedEdd
libQt6Charts.so.6:_ZN16ChartAxisElement17prepareColorScaleEdd
libQt6Charts.so.6:_ZN16ChartAxisElement17setLabelsEditableEb
libQt6Charts.so.6:_ZN16ChartAxisElement18handleRangeChangedEdd
libQt6Charts.so.6:_ZN16ChartAxisElement19dateTimeLabelEditedERK9QDateTimeS2_
libQt6Charts.so.6:_ZN16ChartAxisElement20handleReverseChangedEb
libQt6Charts.so.6:_ZN16ChartAxisElement20handleVisibleChangedEb
libQt6Charts.so.6:_ZN16ChartAxisElement22handleTitleFontChangedERK5QFont
libQt6Charts.so.6:_ZN16ChartAxisElement22handleTitleTextChangedERK7QString
libQt6Charts.so.6:_ZN16ChartAxisElement23handleLabelsFontChangedERK5QFont
libQt6Charts.so.6:_ZN16ChartAxisElement23handleTitleBrushChangedERK6QBrush
libQt6Charts.so.6:_ZN16ChartAxisElement24handleGridVisibleChangedEb
libQt6Charts.so.6:_ZN16ChartAxisElement24handleLabelsAngleChangedEi
libQt6Charts.so.6:_ZN16ChartAxisElement24handleLabelsBrushChangedERK6QBrush
libQt6Charts.so.6:_ZN16ChartAxisElement25handleArrowVisibleChangedEb
libQt6Charts.so.6:_ZN16ChartAxisElement25handleTitleVisibleChangedEb
libQt6Charts.so.6:_ZN16ChartAxisElement26handleLabelsVisibleChangedEb
libQt6Charts.so.6:_ZN16ChartAxisElement26handleShadesVisibleChangedEb
libQt6Charts.so.6:_ZN16ChartAxisElement27handleColorScaleSizeChangedEv
libQt6Charts.so.6:_ZN16ChartAxisElement27handleLabelsPositionChangedEv
libQt6Charts.so.6:_ZN16ChartAxisElement27handleTruncateLabelsChangedEv
libQt6Charts.so.6:_ZN16ChartAxisElement29handleMinorGridVisibleChangedEb
libQt6Charts.so.6:_ZN16ChartAxisElement30handleMinorArrowVisibleChangedEb
libQt6Charts.so.6:_ZN16ChartAxisElement31handleColorScaleGradientChangedEv
libQt6Charts.so.6:_ZN16ChartAxisElement7clickedEv
libQt6Charts.so.6:_ZN16ChartAxisElementC1EP13QAbstractAxisP13QGraphicsItemb
libQt6Charts.so.6:_ZN16ChartAxisElementC2EP13QAbstractAxisP13QGraphicsItemb
libQt6Charts.so.6:_ZN16ChartAxisElementD0Ev
libQt6Charts.so.6:_ZN16ChartAxisElementD1Ev
libQt6Charts.so.6:_ZN16ChartAxisElementD2Ev
libQt6Charts.so.6:_ZN16LegendMarkerItem10setToolTipERK7QString
libQt6Charts.so.6:_ZN16LegendMarkerItem11qt_metacallEN11QMetaObject4CallEiPPv
libQt6Charts.so.6:_ZN16LegendMarkerItem11qt_metacastEPKc
libQt6Charts.so.6:_ZN16LegendMarkerItem11setGeometryERK6QRectF
libQt6Charts.so.6:_ZN16LegendMarkerItem11setItemRectEv
libQt6Charts.so.6:_ZN16LegendMarkerItem12setSeriesPenERK4QPen
libQt6Charts.so.6:_ZN16LegendMarkerItem13setLabelBrushERK6QBrush
libQt6Charts.so.6:_ZN16LegendMarkerItem14setMarkerShapeEN7QLegend11MarkerShapeE
libQt6Charts.so.6:_ZN16LegendMarkerItem14setSeriesBrushERK6QBrush
libQt6Charts.so.6:_ZN16LegendMarkerItem15hoverEnterEventEP24QGraphicsSceneHoverEvent
libQt6Charts.so.6:_ZN16LegendMarkerItem15hoverLeaveEventEP24QGraphicsSceneHoverEvent
libQt6Charts.so.6:_ZN16LegendMarkerItem16staticMetaObjectE
libQt6Charts.so.6:_ZN16LegendMarkerItem17markerRectChangedEv
libQt6Charts.so.6:_ZN16LegendMarkerItem18setItemBrushAndPenEv
libQt6Charts.so.6:_ZN16LegendMarkerItem20setSeriesLightMarkerERK6QImage
libQt6Charts.so.6:_ZN16LegendMarkerItem24updateMarkerShapeAndSizeEv
libQt6Charts.so.6:_ZN16LegendMarkerItem5paintEP8QPainterPK24QStyleOptionGraphicsItemP7QWidget
libQt6Charts.so.6:_ZN16LegendMarkerItem6setPenERK4QPen
libQt6Charts.so.6:_ZN16LegendMarkerItem7setFontERK5QFont
libQt6Charts.so.6:_ZN16LegendMarkerItem8setBrushERK6QBrush
libQt6Charts.so.6:_ZN16LegendMarkerItem8setLabelE7QString
libQt6Charts.so.6:_ZN16LegendMarkerItemC1EP20QLegendMarkerPrivateP15QGraphicsObject
libQt6Charts.so.6:_ZN16LegendMarkerItemC2EP20QLegendMarkerPrivateP15QGraphicsObject
libQt6Charts.so.6:_ZN16LegendMarkerItemD0Ev
libQt6Charts.so.6:_ZN16LegendMarkerItemD1Ev
libQt6Charts.so.6:_ZN16LegendMarkerItemD2Ev
libQt6Charts.so.6:_ZN16LogXYPolarDomain10attachAxisEP13QAbstractAxis
libQt6Charts.so.6:_ZN16LogXYPolarDomain10detachAxisEP13QAbstractAxis
libQt6Charts.so.6:_ZN16LogXYPolarDomain11qt_metacallEN11QMetaObject4CallEiPPv
libQt6Charts.so.6:_ZN16LogXYPolarDomain11qt_metacastEPKc
libQt6Charts.so.6:_ZN16LogXYPolarDomain16staticMetaObjectE
libQt6Charts.so.6:_ZN16LogXYPolarDomain31handleHorizontalAxisBaseChangedEd
libQt6Charts.so.6:_ZN16LogXYPolarDomain4moveEdd
libQt6Charts.so.6:_ZN16LogXYPolarDomain6zoomInERK6QRectF
libQt6Charts.so.6:_ZN16LogXYPolarDomain7zoomOutERK6QRectF
libQt6Charts.so.6:_ZN16LogXYPolarDomain8setRangeEdddd
libQt6Charts.so.6:_ZN16LogXYPolarDomainC1EP7QObject
libQt6Charts.so.6:_ZN16LogXYPolarDomainC2EP7QObject
libQt6Charts.so.6:_ZN16LogXYPolarDomainD0Ev
libQt6Charts.so.6:_ZN16LogXYPolarDomainD1Ev
libQt6Charts.so.6:_ZN16LogXYPolarDomainD2Ev
libQt6Charts.so.6:_ZN16PolarChartLayoutC1EP14ChartPresenter
libQt6Charts.so.6:_ZN16PolarChartLayoutC2EP14ChartPresenter
libQt6Charts.so.6:_ZN16PolarChartLayoutD0Ev
libQt6Charts.so.6:_ZN16PolarChartLayoutD1Ev
libQt6Charts.so.6:_ZN16PolarChartLayoutD2Ev
libQt6Charts.so.6:_ZN16QBarCategoryAxis10categoriesEv
libQt6Charts.so.6:_ZN16QBarCategoryAxis10maxChangedERK7QString
libQt6Charts.so.6:_ZN16QBarCategoryAxis10minChangedERK7QString
libQt6Charts.so.6:_ZN16QBarCategoryAxis11qt_metacallEN11QMetaObject4CallEiPPv
libQt6Charts.so.6:_ZN16QBarCategoryAxis11qt_metacastEPKc
libQt6Charts.so.6:_ZN16QBarCategoryAxis12countChangedEv
libQt6Charts.so.6:_ZN16QBarCategoryAxis12rangeChangedERK7QStringS2_
libQt6Charts.so.6:_ZN16QBarCategoryAxis13setCategoriesERK5QListI7QStringE
libQt6Charts.so.6:_ZN16QBarCategoryAxis16staticMetaObjectE
libQt6Charts.so.6:_ZN16QBarCategoryAxis17categoriesChangedEv
libQt6Charts.so.6:_ZN16QBarCategoryAxis5clearEv
libQt6Charts.so.6:_ZN16QBarCategoryAxis6appendERK5QListI7QStringE
libQt6Charts.so.6:_ZN16QBarCategoryAxis6appendERK7QString
libQt6Charts.so.6:_ZN16QBarCategoryAxis6insertEiRK7QString
libQt6Charts.so.6:_ZN16QBarCategoryAxis6removeERK7QString
libQt6Charts.so.6:_ZN16QBarCategoryAxis6setMaxERK7QString
libQt6Charts.so.6:_ZN16QBarCategoryAxis6setMinERK7QString
libQt6Charts.so.6:_ZN16QBarCategoryAxis7replaceERK7QStringS2_
libQt6Charts.so.6:_ZN16QBarCategoryAxis8setRangeERK7QStringS2_
libQt6Charts.so.6:_ZN16QBarCategoryAxisC1EP7QObject
libQt6Charts.so.6:_ZN16QBarCategoryAxisC1ER23QBarCategoryAxisPrivateP7QObject
libQt6Charts.so.6:_ZN16QBarCategoryAxisC2EP7QObject
libQt6Charts.so.6:_ZN16QBarCategoryAxisC2ER23QBarCategoryAxisPrivateP7QObject
libQt6Charts.so.6:_ZN16QBarCategoryAxisD0Ev
libQt6Charts.so.6:_ZN16QBarCategoryAxisD1Ev
libQt6Charts.so.6:_ZN16QBarCategoryAxisD2Ev
libQt6Charts.so.6:_ZN16QBarLegendMarker11qt_metacallEN11QMetaObject4CallEiPPv
libQt6Charts.so.6:_ZN16QBarLegendMarker11qt_metacastEPKc
libQt6Charts.so.6:_ZN16QBarLegendMarker16staticMetaObjectE
libQt6Charts.so.6:_ZN16QBarLegendMarker6barsetEv
libQt6Charts.so.6:_ZN16QBarLegendMarker6seriesEv
libQt6Charts.so.6:_ZN16QBarLegendMarkerC1EP18QAbstractBarSeriesP7QBarSetP7QLegendP7QObject
libQt6Charts.so.6:_ZN16QBarLegendMarkerC1ER23QBarLegendMarkerPrivateP7QObject
libQt6Charts.so.6:_ZN16QBarLegendMarkerC2EP18QAbstractBarSeriesP7QBarSetP7QLegendP7QObject
libQt6Charts.so.6:_ZN16QBarLegendMarkerC2ER23QBarLegendMarkerPrivateP7QObject
libQt6Charts.so.6:_ZN16QBarLegendMarkerD0Ev
libQt6Charts.so.6:_ZN16QBarLegendMarkerD1Ev
libQt6Charts.so.6:_ZN16QBarLegendMarkerD2Ev
libQt6Charts.so.6:_ZN16QHBarModelMapper11qt_metacallEN11QMetaObject4CallEiPPv
libQt6Charts.so.6:_ZN16QHBarModelMapper11qt_metacastEPKc
libQt6Charts.so.6:_ZN16QHBarModelMapper13modelReplacedEv
libQt6Charts.so.6:_ZN16QHBarModelMapper14seriesReplacedEv
libQt6Charts.so.6:_ZN16QHBarModelMapper14setColumnCountEi
libQt6Charts.so.6:_ZN16QHBarModelMapper14setFirstColumnEi
libQt6Charts.so.6:_ZN16QHBarModelMapper16setLastBarSetRowEi
libQt6Charts.so.6:_ZN16QHBarModelMapper16staticMetaObjectE
libQt6Charts.so.6:_ZN16QHBarModelMapper17setFirstBarSetRowEi
libQt6Charts.so.6:_ZN16QHBarModelMapper18columnCountChangedEv
libQt6Charts.so.6:_ZN16QHBarModelMapper18firstColumnChangedEv
libQt6Charts.so.6:_ZN16QHBarModelMapper20lastBarSetRowChangedEv
libQt6Charts.so.6:_ZN16QHBarModelMapper21firstBarSetRowChangedEv
libQt6Charts.so.6:_ZN16QHBarModelMapper8setModelEP18QAbstractItemModel
libQt6Charts.so.6:_ZN16QHBarModelMapper9setSeriesEP18QAbstractBarSeries
libQt6Charts.so.6:_ZN16QHBarModelMapperC1EP7QObject
libQt6Charts.so.6:_ZN16QHBarModelMapperC2EP7QObject
libQt6Charts.so.6:_ZN16QHPieModelMapper11qt_metacallEN11QMetaObject4CallEiPPv
libQt6Charts.so.6:_ZN16QHPieModelMapper11qt_metacastEPKc
libQt6Charts.so.6:_ZN16QHPieModelMapper12setLabelsRowEi
libQt6Charts.so.6:_ZN16QHPieModelMapper12setValuesRowEi
libQt6Charts.so.6:_ZN16QHPieModelMapper13modelReplacedEv
libQt6Charts.so.6:_ZN16QHPieModelMapper14seriesReplacedEv
libQt6Charts.so.6:_ZN16QHPieModelMapper14setColumnCountEi
libQt6Charts.so.6:_ZN16QHPieModelMapper14setFirstColumnEi
libQt6Charts.so.6:_ZN16QHPieModelMapper16labelsRowChangedEv
libQt6Charts.so.6:_ZN16QHPieModelMapper16staticMetaObjectE
libQt6Charts.so.6:_ZN16QHPieModelMapper16valuesRowChangedEv
libQt6Charts.so.6:_ZN16QHPieModelMapper18columnCountChangedEv
libQt6Charts.so.6:_ZN16QHPieModelMapper18firstColumnChangedEv
libQt6Charts.so.6:_ZN16QHPieModelMapper8setModelEP18QAbstractItemModel
libQt6Charts.so.6:_ZN16QHPieModelMapper9setSeriesEP10QPieSeries
libQt6Charts.so.6:_ZN16QHPieModelMapperC1EP7QObject
libQt6Charts.so.6:_ZN16QHPieModelMapperC2EP7QObject
libQt6Charts.so.6:_ZN16QPieLegendMarker11qt_metacallEN11QMetaObject4CallEiPPv
libQt6Charts.so.6:_ZN16QPieLegendMarker11qt_metacastEPKc
libQt6Charts.so.6:_ZN16QPieLegendMarker16staticMetaObjectE
libQt6Charts.so.6:_ZN16QPieLegendMarker5sliceEv
libQt6Charts.so.6:_ZN16QPieLegendMarker6seriesEv
libQt6Charts.so.6:_ZN16QPieLegendMarkerC1EP10QPieSeriesP9QPieSliceP7QLegendP7QObject
libQt6Charts.so.6:_ZN16QPieLegendMarkerC1ER23QPieLegendMarkerPrivateP7QObject
libQt6Charts.so.6:_ZN16QPieLegendMarkerC2EP10QPieSeriesP9QPieSliceP7QLegendP7QObject
libQt6Charts.so.6:_ZN16QPieLegendMarkerC2ER23QPieLegendMarkerPrivateP7QObject
libQt6Charts.so.6:_ZN16QPieLegendMarkerD0Ev
libQt6Charts.so.6:_ZN16QPieLegendMarkerD1Ev
libQt6Charts.so.6:_ZN16QPieLegendMarkerD2Ev
libQt6Charts.so.6:_ZN16QPieSlicePrivate11qt_metacallEN11QMetaObject4CallEiPPv
libQt6Charts.so.6:_ZN16QPieSlicePrivate11qt_metacastEPKc
libQt6Charts.so.6:_ZN16QPieSlicePrivate12setAngleSpanEd
libQt6Charts.so.6:_ZN16QPieSlicePrivate12setLabelFontERK5QFontb
libQt6Charts.so.6:_ZN16QPieSlicePrivate13setLabelBrushERK6QBrushb
libQt6Charts.so.6:_ZN16QPieSlicePrivate13setPercentageEd
libQt6Charts.so.6:_ZN16QPieSlicePrivate13setStartAngleEd
libQt6Charts.so.6:_ZN16QPieSlicePrivate15explodedChangedEv
libQt6Charts.so.6:_ZN16QPieSlicePrivate16staticMetaObjectE
libQt6Charts.so.6:_ZN16QPieSlicePrivate20labelPositionChangedEv
libQt6Charts.so.6:_ZN16QPieSlicePrivate27labelArmLengthFactorChangedEv
libQt6Charts.so.6:_ZN16QPieSlicePrivate28explodeDistanceFactorChangedEv
libQt6Charts.so.6:_ZN16QPieSlicePrivate6setPenERK4QPenb
libQt6Charts.so.6:_ZN16QPieSlicePrivate8setBrushERK6QBrushb
libQt6Charts.so.6:_ZN16QPieSlicePrivate9fromSliceEP9QPieSlice
libQt6Charts.so.6:_ZN16QPieSlicePrivateC1EP9QPieSlice
libQt6Charts.so.6:_ZN16QPieSlicePrivateC2EP9QPieSlice
libQt6Charts.so.6:_ZN16QPieSlicePrivateD0Ev
libQt6Charts.so.6:_ZN16QPieSlicePrivateD1Ev
libQt6Charts.so.6:_ZN16QPieSlicePrivateD2Ev
libQt6Charts.so.6:_ZN16QVBarModelMapper11qt_metacallEN11QMetaObject4CallEiPPv
libQt6Charts.so.6:_ZN16QVBarModelMapper11qt_metacastEPKc
libQt6Charts.so.6:_ZN16QVBarModelMapper11setFirstRowEi
libQt6Charts.so.6:_ZN16QVBarModelMapper11setRowCountEi
libQt6Charts.so.6:_ZN16QVBarModelMapper13modelReplacedEv
libQt6Charts.so.6:_ZN16QVBarModelMapper14seriesReplacedEv
libQt6Charts.so.6:_ZN16QVBarModelMapper15firstRowChangedEv
libQt6Charts.so.6:_ZN16QVBarModelMapper15rowCountChangedEv
libQt6Charts.so.6:_ZN16QVBarModelMapper16staticMetaObjectE
libQt6Charts.so.6:_ZN16QVBarModelMapper19setLastBarSetColumnEi
libQt6Charts.so.6:_ZN16QVBarModelMapper20setFirstBarSetColumnEi
libQt6Charts.so.6:_ZN16QVBarModelMapper23lastBarSetColumnChangedEv
libQt6Charts.so.6:_ZN16QVBarModelMapper24firstBarSetColumnChangedEv
libQt6Charts.so.6:_ZN16QVBarModelMapper8setModelEP18QAbstractItemModel
libQt6Charts.so.6:_ZN16QVBarModelMapper9setSeriesEP18QAbstractBarSeries
libQt6Charts.so.6:_ZN16QVBarModelMapperC1EP7QObject
libQt6Charts.so.6:_ZN16QVBarModelMapperC2EP7QObject
libQt6Charts.so.6:_ZN16QVPieModelMapper11qt_metacallEN11QMetaObject4CallEiPPv
libQt6Charts.so.6:_ZN16QVPieModelMapper11qt_metacastEPKc
libQt6Charts.so.6:_ZN16QVPieModelMapper11setFirstRowEi
libQt6Charts.so.6:_ZN16QVPieModelMapper11setRowCountEi
libQt6Charts.so.6:_ZN16QVPieModelMapper13modelReplacedEv
libQt6Charts.so.6:_ZN16QVPieModelMapper14seriesReplacedEv
libQt6Charts.so.6:_ZN16QVPieModelMapper15firstRowChangedEv
libQt6Charts.so.6:_ZN16QVPieModelMapper15rowCountChangedEv
libQt6Charts.so.6:_ZN16QVPieModelMapper15setLabelsColumnEi
libQt6Charts.so.6:_ZN16QVPieModelMapper15setValuesColumnEi
libQt6Charts.so.6:_ZN16QVPieModelMapper16staticMetaObjectE
libQt6Charts.so.6:_ZN16QVPieModelMapper19labelsColumnChangedEv
libQt6Charts.so.6:_ZN16QVPieModelMapper19valuesColumnChangedEv
libQt6Charts.so.6:_ZN16QVPieModelMapper8setModelEP18QAbstractItemModel
libQt6Charts.so.6:_ZN16QVPieModelMapper9setSeriesEP10QPieSeries
libQt6Charts.so.6:_ZN16QVPieModelMapperC1EP7QObject
libQt6Charts.so.6:_ZN16QVPieModelMapperC2EP7QObject
libQt6Charts.so.6:_ZN16QXYSeriesPrivate11qt_metacallEN11QMetaObject4CallEiPPv
libQt6Charts.so.6:_ZN16QXYSeriesPrivate11qt_metacastEPKc
libQt6Charts.so.6:_ZN16QXYSeriesPrivate13seriesUpdatedEv
libQt6Charts.so.6:_ZN16QXYSeriesPrivate13setMarkerSizeEd
libQt6Charts.so.6:_ZN16QXYSeriesPrivate14initializeAxesEv
libQt6Charts.so.6:_ZN16QXYSeriesPrivate15drawBestFitLineEP8QPainterRK6QRectF
libQt6Charts.so.6:_ZN16QXYSeriesPrivate15drawPointLabelsEP8QPainterRK5QListI7QPointFEi
libQt6Charts.so.6:_ZN16QXYSeriesPrivate15isPointSelectedEi
libQt6Charts.so.6:_ZN16QXYSeriesPrivate16initializeDomainEv
libQt6Charts.so.6:_ZN16QXYSeriesPrivate16setPointSelectedEibRb
libQt6Charts.so.6:_ZN16QXYSeriesPrivate16staticMetaObjectE
libQt6Charts.so.6:_ZN16QXYSeriesPrivate19createLegendMarkersEP7QLegend
libQt6Charts.so.6:_ZN16QXYSeriesPrivate19isMarkerSizeDefaultEv
libQt6Charts.so.6:_ZN16QXYSeriesPrivate20initializeAnimationsE6QFlagsIN6QChart15AnimationOptionEEiR12QEasingCurve
libQt6Charts.so.6:_ZN16QXYSeriesPrivate21drawSeriesPointLabelsEP8QPainterRK5QListI7QPointFEiRK5QHashIiiERKS2_IiE
libQt6Charts.so.6:_ZN16QXYSeriesPrivateC1EP9QXYSeries
libQt6Charts.so.6:_ZN16QXYSeriesPrivateC2EP9QXYSeries
libQt6Charts.so.6:_ZN16ScatterAnimation11updateStateEN18QAbstractAnimation5StateES1_
libQt6Charts.so.6:_ZN16ScatterAnimationC1EP16ScatterChartItemiR12QEasingCurve
libQt6Charts.so.6:_ZN16ScatterAnimationC2EP16ScatterChartItemiR12QEasingCurve
libQt6Charts.so.6:_ZN16ScatterAnimationD0Ev
libQt6Charts.so.6:_ZN16ScatterAnimationD1Ev
libQt6Charts.so.6:_ZN16ScatterAnimationD2Ev
libQt6Charts.so.6:_ZN16ScatterChartItem11qt_metacallEN11QMetaObject4CallEiPPv
libQt6Charts.so.6:_ZN16ScatterChartItem11qt_metacastEPKc
libQt6Charts.so.6:_ZN16ScatterChartItem12createPointsEi
libQt6Charts.so.6:_ZN16ScatterChartItem12deletePointsEi
libQt6Charts.so.6:_ZN16ScatterChartItem12resizeMarkerEP13QGraphicsItemi
libQt6Charts.so.6:_ZN16ScatterChartItem13markerHoveredEP13QGraphicsItemb
libQt6Charts.so.6:_ZN16ScatterChartItem13markerPressedEP13QGraphicsItem
libQt6Charts.so.6:_ZN16ScatterChartItem14hoverMoveEventEP24QGraphicsSceneHoverEvent
libQt6Charts.so.6:_ZN16ScatterChartItem14markerReleasedEP13QGraphicsItem
libQt6Charts.so.6:_ZN16ScatterChartItem14markerSelectedEP13QGraphicsItem
libQt6Charts.so.6:_ZN16ScatterChartItem14updateGeometryEv
libQt6Charts.so.6:_ZN16ScatterChartItem15mousePressEventEP24QGraphicsSceneMouseEvent
libQt6Charts.so.6:_ZN16ScatterChartItem16staticMetaObjectE
libQt6Charts.so.6:_ZN16ScatterChartItem17mouseReleaseEventEP24QGraphicsSceneMouseEvent
libQt6Charts.so.6:_ZN16ScatterChartItem19handleSeriesUpdatedEv
libQt6Charts.so.6:_ZN16ScatterChartItem19markerDoubleClickedEP13QGraphicsItem
libQt6Charts.so.6:_ZN16ScatterChartItem21mouseDoubleClickEventEP24QGraphicsSceneMouseEvent
libQt6Charts.so.6:_ZN16ScatterChartItem5paintEP8QPainterPK24QStyleOptionGraphicsItemP7QWidget
libQt6Charts.so.6:_ZN16ScatterChartItem6setPenERK4QPen
libQt6Charts.so.6:_ZN16ScatterChartItem8setBrushERK6QBrush
libQt6Charts.so.6:_ZN16ScatterChartItemC1EP14QScatterSeriesP13QGraphicsItem
libQt6Charts.so.6:_ZN16ScatterChartItemC2EP14QScatterSeriesP13QGraphicsItem
libQt6Charts.so.6:_ZN16XLogYPolarDomain10attachAxisEP13QAbstractAxis
libQt6Charts.so.6:_ZN16XLogYPolarDomain10detachAxisEP13QAbstractAxis
libQt6Charts.so.6:_ZN16XLogYPolarDomain11qt_metacallEN11QMetaObject4CallEiPPv
libQt6Charts.so.6:_ZN16XLogYPolarDomain11qt_metacastEPKc
libQt6Charts.so.6:_ZN16XLogYPolarDomain16staticMetaObjectE
libQt6Charts.so.6:_ZN16XLogYPolarDomain29handleVerticalAxisBaseChangedEd
libQt6Charts.so.6:_ZN16XLogYPolarDomain4moveEdd
libQt6Charts.so.6:_ZN16XLogYPolarDomain6zoomInERK6QRectF
libQt6Charts.so.6:_ZN16XLogYPolarDomain7zoomOutERK6QRectF
libQt6Charts.so.6:_ZN16XLogYPolarDomain8setRangeEdddd
libQt6Charts.so.6:_ZN16XLogYPolarDomainC1EP7QObject
libQt6Charts.so.6:_ZN16XLogYPolarDomainC2EP7QObject
libQt6Charts.so.6:_ZN16XLogYPolarDomainD0Ev
libQt6Charts.so.6:_ZN16XLogYPolarDomainD1Ev
libQt6Charts.so.6:_ZN16XLogYPolarDomainD2Ev
libQt6Charts.so.6:_ZN17ChartThemeManager11qt_metacallEN11QMetaObject4CallEiPPv
libQt6Charts.so.6:_ZN17ChartThemeManager11qt_metacastEPKc
libQt6Charts.so.6:_ZN17ChartThemeManager12updateSeriesEP15QAbstractSeries
libQt6Charts.so.6:_ZN17ChartThemeManager15handleAxisAddedEP13QAbstractAxis
libQt6Charts.so.6:_ZN17ChartThemeManager16staticMetaObjectE
libQt6Charts.so.6:_ZN17ChartThemeManager17handleAxisRemovedEP13QAbstractAxis
libQt6Charts.so.6:_ZN17ChartThemeManager17handleSeriesAddedEP15QAbstractSeries
libQt6Charts.so.6:_ZN17ChartThemeManager19handleSeriesRemovedEP15QAbstractSeries
libQt6Charts.so.6:_ZN17ChartThemeManager23generateSeriesGradientsERK5QListI6QColorE
libQt6Charts.so.6:_ZN17ChartThemeManager7colorAtERK6QColorS2_d
libQt6Charts.so.6:_ZN17ChartThemeManager7colorAtERK9QGradientd
libQt6Charts.so.6:_ZN17ChartThemeManager8setThemeEN6QChart10ChartThemeE
libQt6Charts.so.6:_ZN17ChartThemeManagerC1EP6QChart
libQt6Charts.so.6:_ZN17ChartThemeManagerC2EP6QChart
libQt6Charts.so.6:_ZN17DateTimeAxisLabel11qt_metacallEN11QMetaObject4CallEiPPv
libQt6Charts.so.6:_ZN17DateTimeAxisLabel11qt_metacastEPKc
libQt6Charts.so.6:_ZN17DateTimeAxisLabel13finishEditingEv
libQt6Charts.so.6:_ZN17DateTimeAxisLabel13keyPressEventEP9QKeyEvent
libQt6Charts.so.6:_ZN17DateTimeAxisLabel15dateTimeChangedERK9QDateTimeS2_
libQt6Charts.so.6:_ZN17DateTimeAxisLabel16staticMetaObjectE
libQt6Charts.so.6:_ZN17DateTimeAxisLabel19setInitialEditValueEv
libQt6Charts.so.6:_ZN17DateTimeAxisLabel20resetBeforeEditValueEv
libQt6Charts.so.6:_ZN17DateTimeAxisLabel8setValueERK9QDateTime
libQt6Charts.so.6:_ZN17DateTimeAxisLabel9setFormatERK7QString
libQt6Charts.so.6:_ZN17DateTimeAxisLabelC1EP13QGraphicsItem
libQt6Charts.so.6:_ZN17DateTimeAxisLabelC2EP13QGraphicsItem
libQt6Charts.so.6:_ZN17EditableAxisLabel10sceneEventEP6QEvent
libQt6Charts.so.6:_ZN17EditableAxisLabel11qt_metacallEN11QMetaObject4CallEiPPv
libQt6Charts.so.6:_ZN17EditableAxisLabel11qt_metacastEPKc
libQt6Charts.so.6:_ZN17EditableAxisLabel11setEditableEb
libQt6Charts.so.6:_ZN17EditableAxisLabel12focusInEventEP11QFocusEvent
libQt6Charts.so.6:_ZN17EditableAxisLabel13focusOutEventEP11QFocusEvent
libQt6Charts.so.6:_ZN17EditableAxisLabel16staticMetaObjectE
libQt6Charts.so.6:_ZN17EditableAxisLabel20isEditEndingKeyPressEP9QKeyEvent
libQt6Charts.so.6:_ZN17EditableAxisLabel23reloadBeforeEditContentEv
libQt6Charts.so.6:_ZN17EditableAxisLabelC1EP13QGraphicsItem
libQt6Charts.so.6:_ZN17EditableAxisLabelC2EP13QGraphicsItem
libQt6Charts.so.6:_ZN17PieSliceAnimation11updateValueERK12PieSliceData
libQt6Charts.so.6:_ZN17PieSliceAnimation17currentSliceValueEv
libQt6Charts.so.6:_ZN17PieSliceAnimation18updateCurrentValueERK8QVariant
libQt6Charts.so.6:_ZN17PieSliceAnimation8setValueERK12PieSliceDataS2_
libQt6Charts.so.6:_ZN17PieSliceAnimationC1EP12PieSliceItem
libQt6Charts.so.6:_ZN17PieSliceAnimationC2EP12PieSliceItem
libQt6Charts.so.6:_ZN17PieSliceAnimationD0Ev
libQt6Charts.so.6:_ZN17PieSliceAnimationD1Ev
libQt6Charts.so.6:_ZN17PieSliceAnimationD2Ev
libQt6Charts.so.6:_ZN17QAreaLegendMarker11qt_metacallEN11QMetaObject4CallEiPPv
libQt6Charts.so.6:_ZN17QAreaLegendMarker11qt_metacastEPKc
libQt6Charts.so.6:_ZN17QAreaLegendMarker16staticMetaObjectE
libQt6Charts.so.6:_ZN17QAreaLegendMarker6seriesEv
libQt6Charts.so.6:_ZN17QAreaLegendMarkerC1EP11QAreaSeriesP7QLegendP7QObject
libQt6Charts.so.6:_ZN17QAreaLegendMarkerC1ER24QAreaLegendMarkerPrivateP7QObject
libQt6Charts.so.6:_ZN17QAreaLegendMarkerC2EP11QAreaSeriesP7QLegendP7QObject
libQt6Charts.so.6:_ZN17QAreaLegendMarkerC2ER24QAreaLegendMarkerPrivateP7QObject
libQt6Charts.so.6:_ZN17QAreaLegendMarkerD0Ev
libQt6Charts.so.6:_ZN17QAreaLegendMarkerD1Ev
libQt6Charts.so.6:_ZN17QAreaLegendMarkerD2Ev
libQt6Charts.so.6:_ZN17QBarSeriesPrivate16initializeDomainEv
libQt6Charts.so.6:_ZN17QBarSeriesPrivate18initializeGraphicsEP13QGraphicsItem
libQt6Charts.so.6:_ZN17QBarSeriesPrivateC1EP10QBarSeries
libQt6Charts.so.6:_ZN17QBarSeriesPrivateC2EP10QBarSeries
libQt6Charts.so.6:_ZN17QChartViewPrivate6resizeEv
libQt6Charts.so.6:_ZN17QChartViewPrivate8setChartEP6QChart
libQt6Charts.so.6:_ZN17QChartViewPrivateC1EP10QChartViewP6QChart
libQt6Charts.so.6:_ZN17QChartViewPrivateC2EP10QChartViewP6QChart
libQt6Charts.so.6:_ZN17QChartViewPrivateD1Ev
libQt6Charts.so.6:_ZN17QChartViewPrivateD2Ev
libQt6Charts.so.6:_ZN17QColorAxisPrivate11qt_metacallEN11QMetaObject4CallEiPPv
libQt6Charts.so.6:_ZN17QColorAxisPrivate11qt_metacastEPKc
libQt6Charts.so.6:_ZN17QColorAxisPrivate12updateSeriesEv
libQt6Charts.so.6:_ZN17QColorAxisPrivate16initializeDomainEP14AbstractDomain
libQt6Charts.so.6:_ZN17QColorAxisPrivate16staticMetaObjectE
libQt6Charts.so.6:_ZN17QColorAxisPrivate18initializeGraphicsEP13QGraphicsItem
libQt6Charts.so.6:_ZN17QColorAxisPrivate6setMaxERK8QVariant
libQt6Charts.so.6:_ZN17QColorAxisPrivate6setMinERK8QVariant
libQt6Charts.so.6:_ZN17QColorAxisPrivate8setRangeERK8QVariantS2_
libQt6Charts.so.6:_ZN17QColorAxisPrivate8setRangeEdd
libQt6Charts.so.6:_ZN17QColorAxisPrivateC1EP10QColorAxis
libQt6Charts.so.6:_ZN17QColorAxisPrivateC2EP10QColorAxis
libQt6Charts.so.6:_ZN17QColorAxisPrivateD0Ev
libQt6Charts.so.6:_ZN17QColorAxisPrivateD1Ev
libQt6Charts.so.6:_ZN17QColorAxisPrivateD2Ev
libQt6Charts.so.6:_ZN17QPercentBarSeries11qt_metacallEN11QMetaObject4CallEiPPv
libQt6Charts.so.6:_ZN17QPercentBarSeries11qt_metacastEPKc
libQt6Charts.so.6:_ZN17QPercentBarSeries16staticMetaObjectE
libQt6Charts.so.6:_ZN17QPercentBarSeriesC1EP7QObject
libQt6Charts.so.6:_ZN17QPercentBarSeriesC2EP7QObject
libQt6Charts.so.6:_ZN17QPercentBarSeriesD0Ev
libQt6Charts.so.6:_ZN17QPercentBarSeriesD1Ev
libQt6Charts.so.6:_ZN17QPercentBarSeriesD2Ev
libQt6Charts.so.6:_ZN17QPieSeriesPrivate10fromSeriesEP10QPieSeries
libQt6Charts.so.6:_ZN17QPieSeriesPrivate11qt_metacallEN11QMetaObject4CallEiPPv
libQt6Charts.so.6:_ZN17QPieSeriesPrivate11qt_metacastEPKc
libQt6Charts.so.6:_ZN17QPieSeriesPrivate12sliceClickedEv
libQt6Charts.so.6:_ZN17QPieSeriesPrivate12sliceHoveredEb
libQt6Charts.so.6:_ZN17QPieSeriesPrivate12slicePressedEv
libQt6Charts.so.6:_ZN17QPieSeriesPrivate13sliceReleasedEv
libQt6Charts.so.6:_ZN17QPieSeriesPrivate14initializeAxesEv
libQt6Charts.so.6:_ZN17QPieSeriesPrivate14pieSizeChangedEv
libQt6Charts.so.6:_ZN17QPieSeriesPrivate15initializeThemeEiP10ChartThemeb
libQt6Charts.so.6:_ZN17QPieSeriesPrivate16initializeDomainEv
libQt6Charts.so.6:_ZN17QPieSeriesPrivate16staticMetaObjectE
libQt6Charts.so.6:_ZN17QPieSeriesPrivate17sliceValueChangedEv
libQt6Charts.so.6:_ZN17QPieSeriesPrivate18initializeGraphicsEP13QGraphicsItem
libQt6Charts.so.6:_ZN17QPieSeriesPrivate18pieEndAngleChangedEv
libQt6Charts.so.6:_ZN17QPieSeriesPrivate18sliceDoubleClickedEv
libQt6Charts.so.6:_ZN17QPieSeriesPrivate19createLegendMarkersEP7QLegend
libQt6Charts.so.6:_ZN17QPieSeriesPrivate20initializeAnimationsE6QFlagsIN6QChart15AnimationOptionEEiR12QEasingCurve
libQt6Charts.so.6:_ZN17QPieSeriesPrivate20pieStartAngleChangedEv
libQt6Charts.so.6:_ZN17QPieSeriesPrivate20updateDerivativeDataEv
libQt6Charts.so.6:_ZN17QPieSeriesPrivate21calculatedDataChangedEv
libQt6Charts.so.6:_ZN17QPieSeriesPrivate23verticalPositionChangedEv
libQt6Charts.so.6:_ZN17QPieSeriesPrivate25horizontalPositionChangedEv
libQt6Charts.so.6:_ZN17QPieSeriesPrivate8setSizesEdd
libQt6Charts.so.6:_ZN17QPieSeriesPrivateC1EP10QPieSeries
libQt6Charts.so.6:_ZN17QPieSeriesPrivateC2EP10QPieSeries
libQt6Charts.so.6:_ZN17QPieSeriesPrivateD0Ev
libQt6Charts.so.6:_ZN17QPieSeriesPrivateD1Ev
libQt6Charts.so.6:_ZN17QPieSeriesPrivateD2Ev
libQt6Charts.so.6:_ZN17QStackedBarSeries11qt_metacallEN11QMetaObject4CallEiPPv
libQt6Charts.so.6:_ZN17QStackedBarSeries11qt_metacastEPKc
libQt6Charts.so.6:_ZN17QStackedBarSeries16staticMetaObjectE
libQt6Charts.so.6:_ZN17QStackedBarSeriesC1EP7QObject
libQt6Charts.so.6:_ZN17QStackedBarSeriesC2EP7QObject
libQt6Charts.so.6:_ZN17QStackedBarSeriesD0Ev
libQt6Charts.so.6:_ZN17QStackedBarSeriesD1Ev
libQt6Charts.so.6:_ZN17QStackedBarSeriesD2Ev
libQt6Charts.so.6:_ZN17QValueAxisPrivate11qt_metacallEN11QMetaObject4CallEiPPv
libQt6Charts.so.6:_ZN17QValueAxisPrivate11qt_metacastEPKc
libQt6Charts.so.6:_ZN17QValueAxisPrivate16initializeDomainEP14AbstractDomain
libQt6Charts.so.6:_ZN17QValueAxisPrivate16staticMetaObjectE
libQt6Charts.so.6:_ZN17QValueAxisPrivate18initializeGraphicsEP13QGraphicsItem
libQt6Charts.so.6:_ZN17QValueAxisPrivate6setMaxERK8QVariant
libQt6Charts.so.6:_ZN17QValueAxisPrivate6setMinERK8QVariant
libQt6Charts.so.6:_ZN17QValueAxisPrivate8setRangeERK8QVariantS2_
libQt6Charts.so.6:_ZN17QValueAxisPrivate8setRangeEdd
libQt6Charts.so.6:_ZN17QValueAxisPrivateC1EP10QValueAxis
libQt6Charts.so.6:_ZN17QValueAxisPrivateC2EP10QValueAxis
libQt6Charts.so.6:_ZN17QValueAxisPrivateD0Ev
libQt6Charts.so.6:_ZN17QValueAxisPrivateD1Ev
libQt6Charts.so.6:_ZN17QValueAxisPrivateD2Ev
libQt6Charts.so.6:_ZN18CartesianChartAxis11createItemsEi
libQt6Charts.so.6:_ZN18CartesianChartAxis11deleteItemsEi
libQt6Charts.so.6:_ZN18CartesianChartAxis11qt_metacallEN11QMetaObject4CallEiPPv
libQt6Charts.so.6:_ZN18CartesianChartAxis11qt_metacastEPKc
libQt6Charts.so.6:_ZN18CartesianChartAxis11setGeometryERK6QRectFS2_
libQt6Charts.so.6:_ZN18CartesianChartAxis12updateLayoutERK5QListIdE
libQt6Charts.so.6:_ZN18CartesianChartAxis16staticMetaObjectE
libQt6Charts.so.6:_ZN18CartesianChartAxis18updateLabelsValuesEP10QValueAxis
libQt6Charts.so.6:_ZN18CartesianChartAxis20handleGridPenChangedERK4QPen
libQt6Charts.so.6:_ZN18CartesianChartAxis20updateMinorTickItemsEv
libQt6Charts.so.6:_ZN18CartesianChartAxis21handleArrowPenChangedERK4QPen
libQt6Charts.so.6:_ZN18CartesianChartAxis21updateLabelsDateTimesEv
libQt6Charts.so.6:_ZN18CartesianChartAxis22handleShadesPenChangedERK4QPen
libQt6Charts.so.6:_ZN18CartesianChartAxis23setDateTimeLabelsFormatERK7QString
libQt6Charts.so.6:_ZN18CartesianChartAxis24handleShadesBrushChangedERK6QBrush
libQt6Charts.so.6:_ZN18CartesianChartAxis25handleMinorGridPenChangedERK4QPen
libQt6Charts.so.6:_ZN18CartesianChartAxis26handleGridLineColorChangedERK6QColor
libQt6Charts.so.6:_ZN18CartesianChartAxis26handleMinorArrowPenChangedERK4QPen
libQt6Charts.so.6:_ZN18CartesianChartAxis31handleMinorGridLineColorChangedERK6QColor
libQt6Charts.so.6:_ZN18CartesianChartAxisC1EP13QAbstractAxisP13QGraphicsItemb
libQt6Charts.so.6:_ZN18CartesianChartAxisC2EP13QAbstractAxisP13QGraphicsItemb
libQt6Charts.so.6:_ZN18CartesianChartAxisD0Ev
libQt6Charts.so.6:_ZN18CartesianChartAxisD1Ev
libQt6Charts.so.6:_ZN18CartesianChartAxisD2Ev
libQt6Charts.so.6:_ZN18ChartCategoryAxisX11qt_metacallEN11QMetaObject4CallEiPPv
libQt6Charts.so.6:_ZN18ChartCategoryAxisX11qt_metacastEPKc
libQt6Charts.so.6:_ZN18ChartCategoryAxisX14updateGeometryEv
libQt6Charts.so.6:_ZN18ChartCategoryAxisX16staticMetaObjectE
libQt6Charts.so.6:_ZN18ChartCategoryAxisX23handleCategoriesChangedEv
libQt6Charts.so.6:_ZN18ChartCategoryAxisXC1EP13QCategoryAxisP13QGraphicsItem
libQt6Charts.so.6:_ZN18ChartCategoryAxisXC2EP13QCategoryAxisP13QGraphicsItem
libQt6Charts.so.6:_ZN18ChartCategoryAxisXD0Ev
libQt6Charts.so.6:_ZN18ChartCategoryAxisXD1Ev
libQt6Charts.so.6:_ZN18ChartCategoryAxisXD2Ev
libQt6Charts.so.6:_ZN18ChartCategoryAxisY11qt_metacallEN11QMetaObject4CallEiPPv
libQt6Charts.so.6:_ZN18ChartCategoryAxisY11qt_metacastEPKc
libQt6Charts.so.6:_ZN18ChartCategoryAxisY14updateGeometryEv
libQt6Charts.so.6:_ZN18ChartCategoryAxisY16staticMetaObjectE
libQt6Charts.so.6:_ZN18ChartCategoryAxisY23handleCategoriesChangedEv
libQt6Charts.so.6:_ZN18ChartCategoryAxisYC1EP13QCategoryAxisP13QGraphicsItem
libQt6Charts.so.6:_ZN18ChartCategoryAxisYC2EP13QCategoryAxisP13QGraphicsItem
libQt6Charts.so.6:_ZN18ChartCategoryAxisYD0Ev
libQt6Charts.so.6:_ZN18ChartCategoryAxisYD1Ev
libQt6Charts.so.6:_ZN18ChartCategoryAxisYD2Ev
libQt6Charts.so.6:_ZN18ChartDateTimeAxisX11qt_metacallEN11QMetaObject4CallEiPPv
libQt6Charts.so.6:_ZN18ChartDateTimeAxisX11qt_metacastEPKc
libQt6Charts.so.6:_ZN18ChartDateTimeAxisX14updateGeometryEv
libQt6Charts.so.6:_ZN18ChartDateTimeAxisX16staticMetaObjectE
libQt6Charts.so.6:_ZN18ChartDateTimeAxisX19handleFormatChangedERK7QString
libQt6Charts.so.6:_ZN18ChartDateTimeAxisX22handleTickCountChangedEi
libQt6Charts.so.6:_ZN18ChartDateTimeAxisXC1EP13QDateTimeAxisP13QGraphicsItem
libQt6Charts.so.6:_ZN18ChartDateTimeAxisXC2EP13QDateTimeAxisP13QGraphicsItem
libQt6Charts.so.6:_ZN18ChartDateTimeAxisXD0Ev
libQt6Charts.so.6:_ZN18ChartDateTimeAxisXD1Ev
libQt6Charts.so.6:_ZN18ChartDateTimeAxisXD2Ev
libQt6Charts.so.6:_ZN18ChartDateTimeAxisY11qt_metacallEN11QMetaObject4CallEiPPv
libQt6Charts.so.6:_ZN18ChartDateTimeAxisY11qt_metacastEPKc
libQt6Charts.so.6:_ZN18ChartDateTimeAxisY14updateGeometryEv
libQt6Charts.so.6:_ZN18ChartDateTimeAxisY16staticMetaObjectE
libQt6Charts.so.6:_ZN18ChartDateTimeAxisY19handleFormatChangedERK7QString
libQt6Charts.so.6:_ZN18ChartDateTimeAxisY22handleTickCountChangedEi
libQt6Charts.so.6:_ZN18ChartDateTimeAxisYC1EP13QDateTimeAxisP13QGraphicsItem
libQt6Charts.so.6:_ZN18ChartDateTimeAxisYC2EP13QDateTimeAxisP13QGraphicsItem
libQt6Charts.so.6:_ZN18ChartDateTimeAxisYD0Ev
libQt6Charts.so.6:_ZN18ChartDateTimeAxisYD1Ev
libQt6Charts.so.6:_ZN18ChartDateTimeAxisYD2Ev
libQt6Charts.so.6:_ZN18ChartLogValueAxisX11qt_metacallEN11QMetaObject4CallEiPPv
libQt6Charts.so.6:_ZN18ChartLogValueAxisX11qt_metacastEPKc
libQt6Charts.so.6:_ZN18ChartLogValueAxisX14updateGeometryEv
libQt6Charts.so.6:_ZN18ChartLogValueAxisX16staticMetaObjectE
libQt6Charts.so.6:_ZN18ChartLogValueAxisX17handleBaseChangedEd
libQt6Charts.so.6:_ZN18ChartLogValueAxisX24handleLabelFormatChangedERK7QString
libQt6Charts.so.6:_ZN18ChartLogValueAxisXC1EP13QLogValueAxisP13QGraphicsItem
libQt6Charts.so.6:_ZN18ChartLogValueAxisXC2EP13QLogValueAxisP13QGraphicsItem
libQt6Charts.so.6:_ZN18ChartLogValueAxisXD0Ev
libQt6Charts.so.6:_ZN18ChartLogValueAxisXD1Ev
libQt6Charts.so.6:_ZN18ChartLogValueAxisXD2Ev
libQt6Charts.so.6:_ZN18ChartLogValueAxisY11qt_metacallEN11QMetaObject4CallEiPPv
libQt6Charts.so.6:_ZN18ChartLogValueAxisY11qt_metacastEPKc
libQt6Charts.so.6:_ZN18ChartLogValueAxisY14updateGeometryEv
libQt6Charts.so.6:_ZN18ChartLogValueAxisY16staticMetaObjectE
libQt6Charts.so.6:_ZN18ChartLogValueAxisY17handleBaseChangedEd
libQt6Charts.so.6:_ZN18ChartLogValueAxisY24handleLabelFormatChangedERK7QString
libQt6Charts.so.6:_ZN18ChartLogValueAxisYC1EP13QLogValueAxisP13QGraphicsItem
libQt6Charts.so.6:_ZN18ChartLogValueAxisYC2EP13QLogValueAxisP13QGraphicsItem
libQt6Charts.so.6:_ZN18ChartLogValueAxisYD0Ev
libQt6Charts.so.6:_ZN18ChartLogValueAxisYD1Ev
libQt6Charts.so.6:_ZN18ChartLogValueAxisYD2Ev
libQt6Charts.so.6:_ZN18QAbstractBarSeries11qt_metacallEN11QMetaObject4CallEiPPv
libQt6Charts.so.6:_ZN18QAbstractBarSeries11qt_metacastEPKc
libQt6Charts.so.6:_ZN18QAbstractBarSeries11setBarWidthEd
libQt6Charts.so.6:_ZN18QAbstractBarSeries12barsetsAddedERK5QListIP7QBarSetE
libQt6Charts.so.6:_ZN18QAbstractBarSeries12countChangedEv
libQt6Charts.so.6:_ZN18QAbstractBarSeries13doubleClickedEiP7QBarSet
libQt6Charts.so.6:_ZN18QAbstractBarSeries14barsetsRemovedERK5QListIP7QBarSetE
libQt6Charts.so.6:_ZN18QAbstractBarSeries14setLabelsAngleEd
libQt6Charts.so.6:_ZN18QAbstractBarSeries15setLabelsFormatERK7QString
libQt6Charts.so.6:_ZN18QAbstractBarSeries16setLabelsVisibleEb
libQt6Charts.so.6:_ZN18QAbstractBarSeries16staticMetaObjectE
libQt6Charts.so.6:_ZN18QAbstractBarSeries17setLabelsPositionENS_14LabelsPositionE
libQt6Charts.so.6:_ZN18QAbstractBarSeries18labelsAngleChangedEd
libQt6Charts.so.6:_ZN18QAbstractBarSeries18setLabelsPrecisionEi
libQt6Charts.so.6:_ZN18QAbstractBarSeries19labelsFormatChangedERK7QString
libQt6Charts.so.6:_ZN18QAbstractBarSeries20labelsVisibleChangedEv
libQt6Charts.so.6:_ZN18QAbstractBarSeries21labelsPositionChangedENS_14LabelsPositionE
libQt6Charts.so.6:_ZN18QAbstractBarSeries22labelsPrecisionChangedEi
libQt6Charts.so.6:_ZN18QAbstractBarSeries4takeEP7QBarSet
libQt6Charts.so.6:_ZN18QAbstractBarSeries5clearEv
libQt6Charts.so.6:_ZN18QAbstractBarSeries6appendEP7QBarSet
libQt6Charts.so.6:_ZN18QAbstractBarSeries6appendERK5QListIP7QBarSetE
libQt6Charts.so.6:_ZN18QAbstractBarSeries6insertEiP7QBarSet
libQt6Charts.so.6:_ZN18QAbstractBarSeries6removeEP7QBarSet
libQt6Charts.so.6:_ZN18QAbstractBarSeries7clickedEiP7QBarSet
libQt6Charts.so.6:_ZN18QAbstractBarSeries7hoveredEbiP7QBarSet
libQt6Charts.so.6:_ZN18QAbstractBarSeries7pressedEiP7QBarSet
libQt6Charts.so.6:_ZN18QAbstractBarSeries8releasedEiP7QBarSet
libQt6Charts.so.6:_ZN18QAbstractBarSeriesC1ER25QAbstractBarSeriesPrivateP7QObject
libQt6Charts.so.6:_ZN18QAbstractBarSeriesC2ER25QAbstractBarSeriesPrivateP7QObject
libQt6Charts.so.6:_ZN18QAbstractBarSeriesD0Ev
libQt6Charts.so.6:_ZN18QAbstractBarSeriesD1Ev
libQt6Charts.so.6:_ZN18QAbstractBarSeriesD2Ev
libQt6Charts.so.6:_ZN18QAreaSeriesPrivate11qt_metacallEN11QMetaObject4CallEiPPv
libQt6Charts.so.6:_ZN18QAreaSeriesPrivate11qt_metacastEPKc
libQt6Charts.so.6:_ZN18QAreaSeriesPrivate14initializeAxesEv
libQt6Charts.so.6:_ZN18QAreaSeriesPrivate15initializeThemeEiP10ChartThemeb
libQt6Charts.so.6:_ZN18QAreaSeriesPrivate16initializeDomainEv
libQt6Charts.so.6:_ZN18QAreaSeriesPrivate16staticMetaObjectE
libQt6Charts.so.6:_ZN18QAreaSeriesPrivate18initializeGraphicsEP13QGraphicsItem
libQt6Charts.so.6:_ZN18QAreaSeriesPrivate19createLegendMarkersEP7QLegend
libQt6Charts.so.6:_ZN18QAreaSeriesPrivate20initializeAnimationsE6QFlagsIN6QChart15AnimationOptionEEiR12QEasingCurve
libQt6Charts.so.6:_ZN18QAreaSeriesPrivate7updatedEv
libQt6Charts.so.6:_ZN18QAreaSeriesPrivateC1EP11QLineSeriesS1_P11QAreaSeries
libQt6Charts.so.6:_ZN18QAreaSeriesPrivateC2EP11QLineSeriesS1_P11QAreaSeries
libQt6Charts.so.6:_ZN18QCandlestickSeries10penChangedEv
libQt6Charts.so.6:_ZN18QCandlestickSeries11qt_metacallEN11QMetaObject4CallEiPPv
libQt6Charts.so.6:_ZN18QCandlestickSeries11qt_metacastEPKc
libQt6Charts.so.6:_ZN18QCandlestickSeries12brushChangedEv
libQt6Charts.so.6:_ZN18QCandlestickSeries12countChangedEv
libQt6Charts.so.6:_ZN18QCandlestickSeries12setBodyWidthEd
libQt6Charts.so.6:_ZN18QCandlestickSeries12setCapsWidthEd
libQt6Charts.so.6:_ZN18QCandlestickSeries13doubleClickedEP15QCandlestickSet
libQt6Charts.so.6:_ZN18QCandlestickSeries14setCapsVisibleEb
libQt6Charts.so.6:_ZN18QCandlestickSeries16bodyWidthChangedEv
libQt6Charts.so.6:_ZN18QCandlestickSeries16capsWidthChangedEv
libQt6Charts.so.6:_ZN18QCandlestickSeries16staticMetaObjectE
libQt6Charts.so.6:_ZN18QCandlestickSeries18setDecreasingColorERK6QColor
libQt6Charts.so.6:_ZN18QCandlestickSeries18setIncreasingColorERK6QColor
libQt6Charts.so.6:_ZN18QCandlestickSeries20candlestickSetsAddedERK5QListIP15QCandlestickSetE
libQt6Charts.so.6:_ZN18QCandlestickSeries21capsVisibilityChangedEv
libQt6Charts.so.6:_ZN18QCandlestickSeries21setBodyOutlineVisibleEb
libQt6Charts.so.6:_ZN18QCandlestickSeries21setMaximumColumnWidthEd
libQt6Charts.so.6:_ZN18QCandlestickSeries21setMinimumColumnWidthEd
libQt6Charts.so.6:_ZN18QCandlestickSeries22candlestickSetsRemovedERK5QListIP15QCandlestickSetE
libQt6Charts.so.6:_ZN18QCandlestickSeries22decreasingColorChangedEv
libQt6Charts.so.6:_ZN18QCandlestickSeries22increasingColorChangedEv
libQt6Charts.so.6:_ZN18QCandlestickSeries25maximumColumnWidthChangedEv
libQt6Charts.so.6:_ZN18QCandlestickSeries25minimumColumnWidthChangedEv
libQt6Charts.so.6:_ZN18QCandlestickSeries28bodyOutlineVisibilityChangedEv
libQt6Charts.so.6:_ZN18QCandlestickSeries4takeEP15QCandlestickSet
libQt6Charts.so.6:_ZN18QCandlestickSeries5clearEv
libQt6Charts.so.6:_ZN18QCandlestickSeries6appendEP15QCandlestickSet
libQt6Charts.so.6:_ZN18QCandlestickSeries6appendERK5QListIP15QCandlestickSetE
libQt6Charts.so.6:_ZN18QCandlestickSeries6insertEiP15QCandlestickSet
libQt6Charts.so.6:_ZN18QCandlestickSeries6removeEP15QCandlestickSet
libQt6Charts.so.6:_ZN18QCandlestickSeries6removeERK5QListIP15QCandlestickSetE
libQt6Charts.so.6:_ZN18QCandlestickSeries6setPenERK4QPen
libQt6Charts.so.6:_ZN18QCandlestickSeries7clickedEP15QCandlestickSet
libQt6Charts.so.6:_ZN18QCandlestickSeries7hoveredEbP15QCandlestickSet
libQt6Charts.so.6:_ZN18QCandlestickSeries7pressedEP15QCandlestickSet
libQt6Charts.so.6:_ZN18QCandlestickSeries8releasedEP15QCandlestickSet
libQt6Charts.so.6:_ZN18QCandlestickSeries8setBrushERK6QBrush
libQt6Charts.so.6:_ZN18QCandlestickSeriesC1EP7QObject
libQt6Charts.so.6:_ZN18QCandlestickSeriesC2EP7QObject
libQt6Charts.so.6:_ZN18QCandlestickSeriesD0Ev
libQt6Charts.so.6:_ZN18QCandlestickSeriesD1Ev
libQt6Charts.so.6:_ZN18QCandlestickSeriesD2Ev
libQt6Charts.so.6:_ZN18QLineSeriesPrivate15initializeThemeEiP10ChartThemeb
libQt6Charts.so.6:_ZN18QLineSeriesPrivate18initializeGraphicsEP13QGraphicsItem
libQt6Charts.so.6:_ZN18QLineSeriesPrivateC1EP11QLineSeries
libQt6Charts.so.6:_ZN18QLineSeriesPrivateC2EP11QLineSeries
libQt6Charts.so.6:_ZN19AbstractChartLayout10setMarginsERK8QMargins
libQt6Charts.so.6:_ZN19AbstractChartLayout11setGeometryERK6QRectF
libQt6Charts.so.6:_ZN19AbstractChartLayoutC1EP14ChartPresenter
libQt6Charts.so.6:_ZN19AbstractChartLayoutC2EP14ChartPresenter
libQt6Charts.so.6:_ZN19AbstractChartLayoutD0Ev
libQt6Charts.so.6:_ZN19AbstractChartLayoutD1Ev
libQt6Charts.so.6:_ZN19AbstractChartLayoutD2Ev
libQt6Charts.so.6:_ZN19LogXLogYPolarDomain10attachAxisEP13QAbstractAxis
libQt6Charts.so.6:_ZN19LogXLogYPolarDomain10detachAxisEP13QAbstractAxis
libQt6Charts.so.6:_ZN19LogXLogYPolarDomain11qt_metacallEN11QMetaObject4CallEiPPv
libQt6Charts.so.6:_ZN19LogXLogYPolarDomain11qt_metacastEPKc
libQt6Charts.so.6:_ZN19LogXLogYPolarDomain16staticMetaObjectE
libQt6Charts.so.6:_ZN19LogXLogYPolarDomain29handleVerticalAxisBaseChangedEd
libQt6Charts.so.6:_ZN19LogXLogYPolarDomain31handleHorizontalAxisBaseChangedEd
libQt6Charts.so.6:_ZN19LogXLogYPolarDomain4moveEdd
libQt6Charts.so.6:_ZN19LogXLogYPolarDomain6zoomInERK6QRectF
libQt6Charts.so.6:_ZN19LogXLogYPolarDomain7zoomOutERK6QRectF
libQt6Charts.so.6:_ZN19LogXLogYPolarDomain8setRangeEdddd
libQt6Charts.so.6:_ZN19LogXLogYPolarDomainC1EP7QObject
libQt6Charts.so.6:_ZN19LogXLogYPolarDomainC2EP7QObject
libQt6Charts.so.6:_ZN19LogXLogYPolarDomainD0Ev
libQt6Charts.so.6:_ZN19LogXLogYPolarDomainD1Ev
libQt6Charts.so.6:_ZN19LogXLogYPolarDomainD2Ev
libQt6Charts.so.6:_ZN19PercentBarChartItem11qt_metacallEN11QMetaObject4CallEiPPv
libQt6Charts.so.6:_ZN19PercentBarChartItem11qt_metacastEPKc
libQt6Charts.so.6:_ZN19PercentBarChartItem12topLeftPointEidd
libQt6Charts.so.6:_ZN19PercentBarChartItem14positionLabelsEv
libQt6Charts.so.6:_ZN19PercentBarChartItem15calculateLayoutEv
libQt6Charts.so.6:_ZN19PercentBarChartItem15markLabelsDirtyEP7QBarSetii
libQt6Charts.so.6:_ZN19PercentBarChartItem16bottomRightPointEidd
libQt6Charts.so.6:_ZN19PercentBarChartItem16initializeLayoutEiiib
libQt6Charts.so.6:_ZN19PercentBarChartItem16staticMetaObjectE
libQt6Charts.so.6:_ZN19PercentBarChartItem17generateLabelTextEiid
libQt6Charts.so.6:_ZN19PercentBarChartItem27handleLabelsPositionChangedEv
libQt6Charts.so.6:_ZN19PercentBarChartItemC1EP18QAbstractBarSeriesP13QGraphicsItem
libQt6Charts.so.6:_ZN19PercentBarChartItemC2EP18QAbstractBarSeriesP13QGraphicsItem
libQt6Charts.so.6:_ZN19QBoxPlotModelMapper11qt_metacallEN11QMetaObject4CallEiPPv
libQt6Charts.so.6:_ZN19QBoxPlotModelMapper11qt_metacastEPKc
libQt6Charts.so.6:_ZN19QBoxPlotModelMapper14setOrientationEN2Qt11OrientationE
libQt6Charts.so.6:_ZN19QBoxPlotModelMapper16staticMetaObjectE
libQt6Charts.so.6:_ZN19QBoxPlotModelMapper20setLastBoxSetSectionEi
libQt6Charts.so.6:_ZN19QBoxPlotModelMapper21setFirstBoxSetSectionEi
libQt6Charts.so.6:_ZN19QBoxPlotModelMapper8setCountEi
libQt6Charts.so.6:_ZN19QBoxPlotModelMapper8setFirstEi
libQt6Charts.so.6:_ZN19QBoxPlotModelMapper8setModelEP18QAbstractItemModel
libQt6Charts.so.6:_ZN19QBoxPlotModelMapper9setSeriesEP14QBoxPlotSeries
libQt6Charts.so.6:_ZN19QBoxPlotModelMapperC1EP7QObject
libQt6Charts.so.6:_ZN19QBoxPlotModelMapperC2EP7QObject
libQt6Charts.so.6:_ZN19StackedBarChartItem11qt_metacallEN11QMetaObject4CallEiPPv
libQt6Charts.so.6:_ZN19StackedBarChartItem11qt_metacastEPKc
libQt6Charts.so.6:_ZN19StackedBarChartItem12topLeftPointEidd
libQt6Charts.so.6:_ZN19StackedBarChartItem14positionLabelsEv
libQt6Charts.so.6:_ZN19StackedBarChartItem15calculateLayoutEv
libQt6Charts.so.6:_ZN19StackedBarChartItem16bottomRightPointEidd
libQt6Charts.so.6:_ZN19StackedBarChartItem16initializeLayoutEiiib
libQt6Charts.so.6:_ZN19StackedBarChartItem16staticMetaObjectE
libQt6Charts.so.6:_ZN19StackedBarChartItem27handleLabelsPositionChangedEv
libQt6Charts.so.6:_ZN19StackedBarChartItemC1EP18QAbstractBarSeriesP13QGraphicsItem
libQt6Charts.so.6:_ZN19StackedBarChartItemC2EP18QAbstractBarSeriesP13QGraphicsItem
libQt6Charts.so.6:_ZN20AbstractBarChartItem11applyLayoutERK5QListI6QRectFE
libQt6Charts.so.6:_ZN20AbstractBarChartItem11qt_metacallEN11QMetaObject4CallEiPPv
libQt6Charts.so.6:_ZN20AbstractBarChartItem11qt_metacastEPKc
libQt6Charts.so.6:_ZN20AbstractBarChartItem12setAnimationEP12BarAnimation
libQt6Charts.so.6:_ZN20AbstractBarChartItem14positionLabelsEv
libQt6Charts.so.6:_ZN20AbstractBarChartItem14resetAnimationEv
libQt6Charts.so.6:_ZN20AbstractBarChartItem14updateBarItemsEv
libQt6Charts.so.6:_ZN20AbstractBarChartItem15markLabelsDirtyEP7QBarSetii
libQt6Charts.so.6:_ZN20AbstractBarChartItem16createLabelItemsEv
libQt6Charts.so.6:_ZN20AbstractBarChartItem16staticMetaObjectE
libQt6Charts.so.6:_ZN20AbstractBarChartItem17generateLabelTextEiid
libQt6Charts.so.6:_ZN20AbstractBarChartItem17handleBarValueAddEiiP7QBarSet
libQt6Charts.so.6:_ZN20AbstractBarChartItem17handleSeriesAddedEP15QAbstractSeries
libQt6Charts.so.6:_ZN20AbstractBarChartItem17handleUpdatedBarsEv
libQt6Charts.so.6:_ZN20AbstractBarChartItem19handleDomainUpdatedEv
libQt6Charts.so.6:_ZN20AbstractBarChartItem19handleLayoutChangedEv
libQt6Charts.so.6:_ZN20AbstractBarChartItem19handleSeriesRemovedEP15QAbstractSeries
libQt6Charts.so.6:_ZN20AbstractBarChartItem20handleBarValueChangeEiP7QBarSet
libQt6Charts.so.6:_ZN20AbstractBarChartItem20handleBarValueRemoveEiiP7QBarSet
libQt6Charts.so.6:_ZN20AbstractBarChartItem20handleOpacityChangedEv
libQt6Charts.so.6:_ZN20AbstractBarChartItem20handleVisibleChangedEv
libQt6Charts.so.6:_ZN20AbstractBarChartItem20initializeFullLayoutEv
libQt6Charts.so.6:_ZN20AbstractBarChartItem22positionLabelsVerticalEv
libQt6Charts.so.6:_ZN20AbstractBarChartItem24handleSetStructureChangeEv
libQt6Charts.so.6:_ZN20AbstractBarChartItem26handleDataStructureChangedEv
libQt6Charts.so.6:_ZN20AbstractBarChartItem26handleLabelsVisibleChangedEb
libQt6Charts.so.6:_ZN20AbstractBarChartItem27handleLabelsPositionChangedEv
libQt6Charts.so.6:_ZN20AbstractBarChartItem41calculateSeriesPositionAdjustmentAndWidthEv
libQt6Charts.so.6:_ZN20AbstractBarChartItem5paintEP8QPainterPK24QStyleOptionGraphicsItemP7QWidget
libQt6Charts.so.6:_ZN20AbstractBarChartItem9setLayoutERK5QListI6QRectFE
libQt6Charts.so.6:_ZN20AbstractBarChartItemC1EP18QAbstractBarSeriesP13QGraphicsItem
libQt6Charts.so.6:_ZN20AbstractBarChartItemC2EP18QAbstractBarSeriesP13QGraphicsItem
libQt6Charts.so.6:_ZN20AbstractBarChartItemD0Ev
libQt6Charts.so.6:_ZN20AbstractBarChartItemD1Ev
libQt6Charts.so.6:_ZN20AbstractBarChartItemD2Ev
libQt6Charts.so.6:_ZN20BoxWhiskersAnimation10setEndDataERK15BoxWhiskersData
libQt6Charts.so.6:_ZN20BoxWhiskersAnimation11qt_metacallEN11QMetaObject4CallEiPPv
libQt6Charts.so.6:_ZN20BoxWhiskersAnimation11qt_metacastEPKc
libQt6Charts.so.6:_ZN20BoxWhiskersAnimation12setStartDataERK15BoxWhiskersData
libQt6Charts.so.6:_ZN20BoxWhiskersAnimation16staticMetaObjectE
libQt6Charts.so.6:_ZN20BoxWhiskersAnimation18updateCurrentValueERK8QVariant
libQt6Charts.so.6:_ZN20BoxWhiskersAnimation5setupERK15BoxWhiskersDataS2_
libQt6Charts.so.6:_ZN20BoxWhiskersAnimationC1EP11BoxWhiskersP16BoxPlotAnimationiR12QEasingCurve
libQt6Charts.so.6:_ZN20BoxWhiskersAnimationC2EP11BoxWhiskersP16BoxPlotAnimationiR12QEasingCurve
libQt6Charts.so.6:_ZN20BoxWhiskersAnimationD0Ev
libQt6Charts.so.6:_ZN20BoxWhiskersAnimationD1Ev
libQt6Charts.so.6:_ZN20BoxWhiskersAnimationD2Ev
libQt6Charts.so.6:_ZN20CandlestickAnimation11qt_metacallEN11QMetaObject4CallEiPPv
libQt6Charts.so.6:_ZN20CandlestickAnimation11qt_metacastEPKc
libQt6Charts.so.6:_ZN20CandlestickAnimation14addCandlestickEP11Candlestick
libQt6Charts.so.6:_ZN20CandlestickAnimation16staticMetaObjectE
libQt6Charts.so.6:_ZN20CandlestickAnimation17setAnimationStartEP11Candlestick
libQt6Charts.so.6:_ZN20CandlestickAnimation20candlestickAnimationEP11Candlestick
libQt6Charts.so.6:_ZN20CandlestickAnimation26candlestickChangeAnimationEP11Candlestick
libQt6Charts.so.6:_ZN20CandlestickAnimation26removeCandlestickAnimationEP11Candlestick
libQt6Charts.so.6:_ZN20CandlestickAnimation7stopAllEv
libQt6Charts.so.6:_ZN20CandlestickAnimationC1EP20CandlestickChartItemiR12QEasingCurve
libQt6Charts.so.6:_ZN20CandlestickAnimationC2EP20CandlestickChartItemiR12QEasingCurve
libQt6Charts.so.6:_ZN20CandlestickAnimationD0Ev
libQt6Charts.so.6:_ZN20CandlestickAnimationD1Ev
libQt6Charts.so.6:_ZN20CandlestickAnimationD2Ev
libQt6Charts.so.6:_ZN20CandlestickChartItem11qt_metacallEN11QMetaObject4CallEiPPv
libQt6Charts.so.6:_ZN20CandlestickChartItem11qt_metacastEPKc
libQt6Charts.so.6:_ZN20CandlestickChartItem12addTimestampEd
libQt6Charts.so.6:_ZN20CandlestickChartItem12setAnimationEP20CandlestickAnimation
libQt6Charts.so.6:_ZN20CandlestickChartItem15removeTimestampEd
libQt6Charts.so.6:_ZN20CandlestickChartItem16staticMetaObjectE
libQt6Charts.so.6:_ZN20CandlestickChartItem16updateTimePeriodEv
libQt6Charts.so.6:_ZN20CandlestickChartItem19handleDomainUpdatedEv
libQt6Charts.so.6:_ZN20CandlestickChartItem19handleLayoutUpdatedEv
libQt6Charts.so.6:_ZN20CandlestickChartItem24handleCandlestickSetsAddERK5QListIP15QCandlestickSetE
libQt6Charts.so.6:_ZN20CandlestickChartItem25handleCandlesticksUpdatedEv
libQt6Charts.so.6:_ZN20CandlestickChartItem25updateCandlestickGeometryEP11Candlesticki
libQt6Charts.so.6:_ZN20CandlestickChartItem26handleDataStructureChangedEv
libQt6Charts.so.6:_ZN20CandlestickChartItem27handleCandlestickSetsRemoveERK5QListIP15QCandlestickSetE
libQt6Charts.so.6:_ZN20CandlestickChartItem27updateCandlestickAppearanceEP11CandlestickP15QCandlestickSet
libQt6Charts.so.6:_ZN20CandlestickChartItem29handleCandlestickSeriesChangeEv
libQt6Charts.so.6:_ZN20CandlestickChartItem5paintEP8QPainterPK24QStyleOptionGraphicsItemP7QWidget
libQt6Charts.so.6:_ZN20CandlestickChartItemC1EP18QCandlestickSeriesP13QGraphicsItem
libQt6Charts.so.6:_ZN20CandlestickChartItemC2EP18QCandlestickSeriesP13QGraphicsItem
libQt6Charts.so.6:_ZN20CandlestickChartItemD0Ev
libQt6Charts.so.6:_ZN20CandlestickChartItemD1Ev
libQt6Charts.so.6:_ZN20CandlestickChartItemD2Ev
libQt6Charts.so.6:_ZN20CartesianChartLayoutC1EP14ChartPresenter
libQt6Charts.so.6:_ZN20CartesianChartLayoutC2EP14ChartPresenter
libQt6Charts.so.6:_ZN20CartesianChartLayoutD0Ev
libQt6Charts.so.6:_ZN20CartesianChartLayoutD1Ev
libQt6Charts.so.6:_ZN20CartesianChartLayoutD2Ev
libQt6Charts.so.6:_ZN20PolarChartAxisRadial11createItemsEi
libQt6Charts.so.6:_ZN20PolarChartAxisRadial11qt_metacallEN11QMetaObject4CallEiPPv
libQt6Charts.so.6:_ZN20PolarChartAxisRadial11qt_metacastEPKc
libQt6Charts.so.6:_ZN20PolarChartAxisRadial14updateGeometryEv
libQt6Charts.so.6:_ZN20PolarChartAxisRadial16staticMetaObjectE
libQt6Charts.so.6:_ZN20PolarChartAxisRadial19preferredAxisRadiusERK6QSizeF
libQt6Charts.so.6:_ZN20PolarChartAxisRadial20handleGridPenChangedERK4QPen
libQt6Charts.so.6:_ZN20PolarChartAxisRadial20updateMinorTickItemsEv
libQt6Charts.so.6:_ZN20PolarChartAxisRadial21handleArrowPenChangedERK4QPen
libQt6Charts.so.6:_ZN20PolarChartAxisRadial23updateMinorTickGeometryEv
libQt6Charts.so.6:_ZN20PolarChartAxisRadial25handleMinorGridPenChangedERK4QPen
libQt6Charts.so.6:_ZN20PolarChartAxisRadial26handleGridLineColorChangedERK6QColor
libQt6Charts.so.6:_ZN20PolarChartAxisRadial26handleMinorArrowPenChangedERK4QPen
libQt6Charts.so.6:_ZN20PolarChartAxisRadial31handleMinorGridLineColorChangedERK6QColor
libQt6Charts.so.6:_ZN20PolarChartAxisRadialC1EP13QAbstractAxisP13QGraphicsItemb
libQt6Charts.so.6:_ZN20PolarChartAxisRadialC2EP13QAbstractAxisP13QGraphicsItemb
libQt6Charts.so.6:_ZN20PolarChartAxisRadialD0Ev
libQt6Charts.so.6:_ZN20PolarChartAxisRadialD1Ev
libQt6Charts.so.6:_ZN20PolarChartAxisRadialD2Ev
libQt6Charts.so.6:_ZN20QAbstractAxisPrivate11qt_metacallEN11QMetaObject4CallEiPPv
libQt6Charts.so.6:_ZN20QAbstractAxisPrivate11qt_metacastEPKc
libQt6Charts.so.6:_ZN20QAbstractAxisPrivate12rangeChangedEdd
libQt6Charts.so.6:_ZN20QAbstractAxisPrivate12setAlignmentE6QFlagsIN2Qt13AlignmentFlagEE
libQt6Charts.so.6:_ZN20QAbstractAxisPrivate15initializeThemeEP10ChartThemeb
libQt6Charts.so.6:_ZN20QAbstractAxisPrivate16staticMetaObjectE
libQt6Charts.so.6:_ZN20QAbstractAxisPrivate18handleRangeChangedEdd
libQt6Charts.so.6:_ZN20QAbstractAxisPrivate18initializeGraphicsEP13QGraphicsItem
libQt6Charts.so.6:_ZN20QAbstractAxisPrivate18setLabelsTruncatedEb
libQt6Charts.so.6:_ZN20QAbstractAxisPrivate20initializeAnimationsE6QFlagsIN6QChart15AnimationOptionEEiR12QEasingCurve
libQt6Charts.so.6:_ZN20QAbstractAxisPrivateC1EP13QAbstractAxis
libQt6Charts.so.6:_ZN20QAbstractAxisPrivateC2EP13QAbstractAxis
libQt6Charts.so.6:_ZN20QAbstractAxisPrivateD0Ev
libQt6Charts.so.6:_ZN20QAbstractAxisPrivateD1Ev
libQt6Charts.so.6:_ZN20QAbstractAxisPrivateD2Ev
libQt6Charts.so.6:_ZN20QBoxPlotLegendMarker11qt_metacallEN11QMetaObject4CallEiPPv
libQt6Charts.so.6:_ZN20QBoxPlotLegendMarker11qt_metacastEPKc
libQt6Charts.so.6:_ZN20QBoxPlotLegendMarker16staticMetaObjectE
libQt6Charts.so.6:_ZN20QBoxPlotLegendMarker6seriesEv
libQt6Charts.so.6:_ZN20QBoxPlotLegendMarkerC1EP14QBoxPlotSeriesP7QLegendP7QObject
libQt6Charts.so.6:_ZN20QBoxPlotLegendMarkerC1ER27QBoxPlotLegendMarkerPrivateP7QObject
libQt6Charts.so.6:_ZN20QBoxPlotLegendMarkerC2EP14QBoxPlotSeriesP7QLegendP7QObject
libQt6Charts.so.6:_ZN20QBoxPlotLegendMarkerC2ER27QBoxPlotLegendMarkerPrivateP7QObject
libQt6Charts.so.6:_ZN20QBoxPlotLegendMarkerD0Ev
libQt6Charts.so.6:_ZN20QBoxPlotLegendMarkerD1Ev
libQt6Charts.so.6:_ZN20QBoxPlotLegendMarkerD2Ev
libQt6Charts.so.6:_ZN20QCategoryAxisPrivate11qt_metacallEN11QMetaObject4CallEiPPv
libQt6Charts.so.6:_ZN20QCategoryAxisPrivate11qt_metacastEPKc
libQt6Charts.so.6:_ZN20QCategoryAxisPrivate16staticMetaObjectE
libQt6Charts.so.6:_ZN20QCategoryAxisPrivate18initializeGraphicsEP13QGraphicsItem
libQt6Charts.so.6:_ZN20QCategoryAxisPrivateC1EP13QCategoryAxis
libQt6Charts.so.6:_ZN20QCategoryAxisPrivateC2EP13QCategoryAxis
libQt6Charts.so.6:_ZN20QCategoryAxisPrivateD0Ev
libQt6Charts.so.6:_ZN20QCategoryAxisPrivateD1Ev
libQt6Charts.so.6:_ZN20QCategoryAxisPrivateD2Ev
libQt6Charts.so.6:_ZN20QDateTimeAxisPrivate11qt_metacallEN11QMetaObject4CallEiPPv
libQt6Charts.so.6:_ZN20QDateTimeAxisPrivate11qt_metacastEPKc
libQt6Charts.so.6:_ZN20QDateTimeAxisPrivate16initializeDomainEP14AbstractDomain
libQt6Charts.so.6:_ZN20QDateTimeAxisPrivate16staticMetaObjectE
libQt6Charts.so.6:_ZN20QDateTimeAxisPrivate18initializeGraphicsEP13QGraphicsItem
libQt6Charts.so.6:_ZN20QDateTimeAxisPrivate6setMaxERK8QVariant
libQt6Charts.so.6:_ZN20QDateTimeAxisPrivate6setMinERK8QVariant
libQt6Charts.so.6:_ZN20QDateTimeAxisPrivate8setRangeERK8QVariantS2_
libQt6Charts.so.6:_ZN20QDateTimeAxisPrivate8setRangeEdd
libQt6Charts.so.6:_ZN20QDateTimeAxisPrivateC1EP13QDateTimeAxis
libQt6Charts.so.6:_ZN20QDateTimeAxisPrivateC2EP13QDateTimeAxis
libQt6Charts.so.6:_ZN20QDateTimeAxisPrivateD0Ev
libQt6Charts.so.6:_ZN20QDateTimeAxisPrivateD1Ev
libQt6Charts.so.6:_ZN20QDateTimeAxisPrivateD2Ev
libQt6Charts.so.6:_ZN20QHBoxPlotModelMapper11qt_metacallEN11QMetaObject4CallEiPPv
libQt6Charts.so.6:_ZN20QHBoxPlotModelMapper11qt_metacastEPKc
libQt6Charts.so.6:_ZN20QHBoxPlotModelMapper13modelReplacedEv
libQt6Charts.so.6:_ZN20QHBoxPlotModelMapper14seriesReplacedEv
libQt6Charts.so.6:_ZN20QHBoxPlotModelMapper14setColumnCountEi
libQt6Charts.so.6:_ZN20QHBoxPlotModelMapper14setFirstColumnEi
libQt6Charts.so.6:_ZN20QHBoxPlotModelMapper16setLastBoxSetRowEi
libQt6Charts.so.6:_ZN20QHBoxPlotModelMapper16staticMetaObjectE
libQt6Charts.so.6:_ZN20QHBoxPlotModelMapper17setFirstBoxSetRowEi
libQt6Charts.so.6:_ZN20QHBoxPlotModelMapper18columnCountChangedEv
libQt6Charts.so.6:_ZN20QHBoxPlotModelMapper18firstColumnChangedEv
libQt6Charts.so.6:_ZN20QHBoxPlotModelMapper20lastBoxSetRowChangedEv
libQt6Charts.so.6:_ZN20QHBoxPlotModelMapper21firstBoxSetRowChangedEv
libQt6Charts.so.6:_ZN20QHBoxPlotModelMapper8setModelEP18QAbstractItemModel
libQt6Charts.so.6:_ZN20QHBoxPlotModelMapper9setSeriesEP14QBoxPlotSeries
libQt6Charts.so.6:_ZN20QHBoxPlotModelMapperC1EP7QObject
libQt6Charts.so.6:_ZN20QHBoxPlotModelMapperC2EP7QObject
libQt6Charts.so.6:_ZN20QHorizontalBarSeries11qt_metacallEN11QMetaObject4CallEiPPv
libQt6Charts.so.6:_ZN20QHorizontalBarSeries11qt_metacastEPKc
libQt6Charts.so.6:_ZN20QHorizontalBarSeries16staticMetaObjectE
libQt6Charts.so.6:_ZN20QHorizontalBarSeriesC1EP7QObject
libQt6Charts.so.6:_ZN20QHorizontalBarSeriesC2EP7QObject
libQt6Charts.so.6:_ZN20QHorizontalBarSeriesD0Ev
libQt6Charts.so.6:_ZN20QHorizontalBarSeriesD1Ev
libQt6Charts.so.6:_ZN20QHorizontalBarSeriesD2Ev
libQt6Charts.so.6:_ZN20QLegendMarkerPrivate11qt_metacallEN11QMetaObject4CallEiPPv
libQt6Charts.so.6:_ZN20QLegendMarkerPrivate11qt_metacastEPKc
libQt6Charts.so.6:_ZN20QLegendMarkerPrivate16invalidateLegendEv
libQt6Charts.so.6:_ZN20QLegendMarkerPrivate16staticMetaObjectE
libQt6Charts.so.6:_ZN20QLegendMarkerPrivate17handleShapeChangeEv
libQt6Charts.so.6:_ZN20QLegendMarkerPrivate18invalidateAllItemsEv
libQt6Charts.so.6:_ZN20QLegendMarkerPrivateC1EP13QLegendMarkerP7QLegend
libQt6Charts.so.6:_ZN20QLegendMarkerPrivateC2EP13QLegendMarkerP7QLegend
libQt6Charts.so.6:_ZN20QLegendMarkerPrivateD0Ev
libQt6Charts.so.6:_ZN20QLegendMarkerPrivateD1Ev
libQt6Charts.so.6:_ZN20QLegendMarkerPrivateD2Ev
libQt6Charts.so.6:_ZN20QLogValueAxisPrivate11qt_metacallEN11QMetaObject4CallEiPPv
libQt6Charts.so.6:_ZN20QLogValueAxisPrivate11qt_metacastEPKc
libQt6Charts.so.6:_ZN20QLogValueAxisPrivate15updateTickCountEv
libQt6Charts.so.6:_ZN20QLogValueAxisPrivate16initializeDomainEP14AbstractDomain
libQt6Charts.so.6:_ZN20QLogValueAxisPrivate16staticMetaObjectE
libQt6Charts.so.6:_ZN20QLogValueAxisPrivate18initializeGraphicsEP13QGraphicsItem
libQt6Charts.so.6:_ZN20QLogValueAxisPrivate6setMaxERK8QVariant
libQt6Charts.so.6:_ZN20QLogValueAxisPrivate6setMinERK8QVariant
libQt6Charts.so.6:_ZN20QLogValueAxisPrivate8setRangeERK8QVariantS2_
libQt6Charts.so.6:_ZN20QLogValueAxisPrivate8setRangeEdd
libQt6Charts.so.6:_ZN20QLogValueAxisPrivateC1EP13QLogValueAxis
libQt6Charts.so.6:_ZN20QLogValueAxisPrivateC2EP13QLogValueAxis
libQt6Charts.so.6:_ZN20QLogValueAxisPrivateD0Ev
libQt6Charts.so.6:_ZN20QLogValueAxisPrivateD1Ev
libQt6Charts.so.6:_ZN20QLogValueAxisPrivateD2Ev
libQt6Charts.so.6:_ZN20QSplineSeriesPrivate11qt_metacallEN11QMetaObject4CallEiPPv
libQt6Charts.so.6:_ZN20QSplineSeriesPrivate11qt_metacastEPKc
libQt6Charts.so.6:_ZN20QSplineSeriesPrivate15initializeThemeEiP10ChartThemeb
libQt6Charts.so.6:_ZN20QSplineSeriesPrivate16staticMetaObjectE
libQt6Charts.so.6:_ZN20QSplineSeriesPrivate18initializeGraphicsEP13QGraphicsItem
libQt6Charts.so.6:_ZN20QSplineSeriesPrivate20initializeAnimationsE6QFlagsIN6QChart15AnimationOptionEEiR12QEasingCurve
libQt6Charts.so.6:_ZN20QSplineSeriesPrivateC1EP13QSplineSeries
libQt6Charts.so.6:_ZN20QSplineSeriesPrivateC2EP13QSplineSeries
libQt6Charts.so.6:_ZN20QVBoxPlotModelMapper11qt_metacallEN11QMetaObject4CallEiPPv
libQt6Charts.so.6:_ZN20QVBoxPlotModelMapper11qt_metacastEPKc
libQt6Charts.so.6:_ZN20QVBoxPlotModelMapper11setFirstRowEi
libQt6Charts.so.6:_ZN20QVBoxPlotModelMapper11setRowCountEi
libQt6Charts.so.6:_ZN20QVBoxPlotModelMapper13modelReplacedEv
libQt6Charts.so.6:_ZN20QVBoxPlotModelMapper14seriesReplacedEv
libQt6Charts.so.6:_ZN20QVBoxPlotModelMapper15firstRowChangedEv
libQt6Charts.so.6:_ZN20QVBoxPlotModelMapper15rowCountChangedEv
libQt6Charts.so.6:_ZN20QVBoxPlotModelMapper16staticMetaObjectE
libQt6Charts.so.6:_ZN20QVBoxPlotModelMapper19setLastBoxSetColumnEi
libQt6Charts.so.6:_ZN20QVBoxPlotModelMapper20setFirstBoxSetColumnEi
libQt6Charts.so.6:_ZN20QVBoxPlotModelMapper23lastBoxSetColumnChangedEv
libQt6Charts.so.6:_ZN20QVBoxPlotModelMapper24firstBoxSetColumnChangedEv
libQt6Charts.so.6:_ZN20QVBoxPlotModelMapper8setModelEP18QAbstractItemModel
libQt6Charts.so.6:_ZN20QVBoxPlotModelMapper9setSeriesEP14QBoxPlotSeries
libQt6Charts.so.6:_ZN20QVBoxPlotModelMapperC1EP7QObject
libQt6Charts.so.6:_ZN20QVBoxPlotModelMapperC2EP7QObject
libQt6Charts.so.6:_ZN21ChartBarCategoryAxisX11qt_metacallEN11QMetaObject4CallEiPPv
libQt6Charts.so.6:_ZN21ChartBarCategoryAxisX11qt_metacastEPKc
libQt6Charts.so.6:_ZN21ChartBarCategoryAxisX14updateGeometryEv
libQt6Charts.so.6:_ZN21ChartBarCategoryAxisX16staticMetaObjectE
libQt6Charts.so.6:_ZN21ChartBarCategoryAxisX23handleCategoriesChangedEv
libQt6Charts.so.6:_ZN21ChartBarCategoryAxisXC1EP16QBarCategoryAxisP13QGraphicsItem
libQt6Charts.so.6:_ZN21ChartBarCategoryAxisXC2EP16QBarCategoryAxisP13QGraphicsItem
libQt6Charts.so.6:_ZN21ChartBarCategoryAxisXD0Ev
libQt6Charts.so.6:_ZN21ChartBarCategoryAxisXD1Ev
libQt6Charts.so.6:_ZN21ChartBarCategoryAxisXD2Ev
libQt6Charts.so.6:_ZN21ChartBarCategoryAxisY11qt_metacallEN11QMetaObject4CallEiPPv
libQt6Charts.so.6:_ZN21ChartBarCategoryAxisY11qt_metacastEPKc
libQt6Charts.so.6:_ZN21ChartBarCategoryAxisY14updateGeometryEv
libQt6Charts.so.6:_ZN21ChartBarCategoryAxisY16staticMetaObjectE
libQt6Charts.so.6:_ZN21ChartBarCategoryAxisY23handleCategoriesChangedEv
libQt6Charts.so.6:_ZN21ChartBarCategoryAxisYC1EP16QBarCategoryAxisP13QGraphicsItem
libQt6Charts.so.6:_ZN21ChartBarCategoryAxisYC2EP16QBarCategoryAxisP13QGraphicsItem
libQt6Charts.so.6:_ZN21ChartBarCategoryAxisYD0Ev
libQt6Charts.so.6:_ZN21ChartBarCategoryAxisYD1Ev
libQt6Charts.so.6:_ZN21ChartBarCategoryAxisYD2Ev
libQt6Charts.so.6:_ZN21GLXYSeriesDataManager11qt_metacallEN11QMetaObject4CallEiPPv
libQt6Charts.so.6:_ZN21GLXYSeriesDataManager11qt_metacastEPKc
libQt6Charts.so.6:_ZN21GLXYSeriesDataManager12removeSeriesEPK9QXYSeries
libQt6Charts.so.6:_ZN21GLXYSeriesDataManager13seriesRemovedEPK9QXYSeries
libQt6Charts.so.6:_ZN21GLXYSeriesDataManager16staticMetaObjectE
libQt6Charts.so.6:_ZN21GLXYSeriesDataManager21handleSeriesPenChangeEv
libQt6Charts.so.6:_ZN21GLXYSeriesDataManager24handleAxisReverseChangedERK5QListIP15QAbstractSeriesE
libQt6Charts.so.6:_ZN21GLXYSeriesDataManager24handleScatterColorChangeEv
libQt6Charts.so.6:_ZN21GLXYSeriesDataManager24handleSeriesOpenGLChangeEv
libQt6Charts.so.6:_ZN21GLXYSeriesDataManager28handleSeriesVisibilityChangeEv
libQt6Charts.so.6:_ZN21GLXYSeriesDataManager29handleScatterMarkerSizeChangeEv
libQt6Charts.so.6:_ZN21GLXYSeriesDataManager7cleanupEv
libQt6Charts.so.6:_ZN21GLXYSeriesDataManager9setPointsEP9QXYSeriesPK14AbstractDomain
libQt6Charts.so.6:_ZN21GLXYSeriesDataManagerC1EP7QObject
libQt6Charts.so.6:_ZN21GLXYSeriesDataManagerC2EP7QObject
libQt6Charts.so.6:_ZN21GLXYSeriesDataManagerD0Ev
libQt6Charts.so.6:_ZN21GLXYSeriesDataManagerD1Ev
libQt6Charts.so.6:_ZN21GLXYSeriesDataManagerD2Ev
libQt6Charts.so.6:_ZN21PolarChartAxisAngular11createItemsEi
libQt6Charts.so.6:_ZN21PolarChartAxisAngular11qt_metacallEN11QMetaObject4CallEiPPv
libQt6Charts.so.6:_ZN21PolarChartAxisAngular11qt_metacastEPKc
libQt6Charts.so.6:_ZN21PolarChartAxisAngular14updateGeometryEv
libQt6Charts.so.6:_ZN21PolarChartAxisAngular16staticMetaObjectE
libQt6Charts.so.6:_ZN21PolarChartAxisAngular19preferredAxisRadiusERK6QSizeF
libQt6Charts.so.6:_ZN21PolarChartAxisAngular20handleGridPenChangedERK4QPen
libQt6Charts.so.6:_ZN21PolarChartAxisAngular20updateMinorTickItemsEv
libQt6Charts.so.6:_ZN21PolarChartAxisAngular21handleArrowPenChangedERK4QPen
libQt6Charts.so.6:_ZN21PolarChartAxisAngular23updateMinorTickGeometryEv
libQt6Charts.so.6:_ZN21PolarChartAxisAngular25handleMinorGridPenChangedERK4QPen
libQt6Charts.so.6:_ZN21PolarChartAxisAngular26handleGridLineColorChangedERK6QColor
libQt6Charts.so.6:_ZN21PolarChartAxisAngular26handleMinorArrowPenChangedERK4QPen
libQt6Charts.so.6:_ZN21PolarChartAxisAngular31handleMinorGridLineColorChangedERK6QColor
libQt6Charts.so.6:_ZN21PolarChartAxisAngularC1EP13QAbstractAxisP13QGraphicsItemb
libQt6Charts.so.6:_ZN21PolarChartAxisAngularC2EP13QAbstractAxisP13QGraphicsItemb
libQt6Charts.so.6:_ZN21PolarChartAxisAngularD0Ev
libQt6Charts.so.6:_ZN21PolarChartAxisAngularD1Ev
libQt6Charts.so.6:_ZN21PolarChartAxisAngularD2Ev
libQt6Charts.so.6:_ZN21QBoxPlotSeriesPrivate11qt_metacallEN11QMetaObject4CallEiPPv
libQt6Charts.so.6:_ZN21QBoxPlotSeriesPrivate11qt_metacastEPKc
libQt6Charts.so.6:_ZN21QBoxPlotSeriesPrivate12updatedBoxesEv
libQt6Charts.so.6:_ZN21QBoxPlotSeriesPrivate13doubleClickedEiP7QBoxSet
libQt6Charts.so.6:_ZN21QBoxPlotSeriesPrivate13updatedLayoutEv
libQt6Charts.so.6:_ZN21QBoxPlotSeriesPrivate14initializeAxesEv
libQt6Charts.so.6:_ZN21QBoxPlotSeriesPrivate15initializeThemeEiP10ChartThemeb
libQt6Charts.so.6:_ZN21QBoxPlotSeriesPrivate16initializeDomainEv
libQt6Charts.so.6:_ZN21QBoxPlotSeriesPrivate16staticMetaObjectE
libQt6Charts.so.6:_ZN21QBoxPlotSeriesPrivate17restructuredBoxesEv
libQt6Charts.so.6:_ZN21QBoxPlotSeriesPrivate18handleSeriesChangeEP15QAbstractSeries
libQt6Charts.so.6:_ZN21QBoxPlotSeriesPrivate18handleSeriesRemoveEP15QAbstractSeries
libQt6Charts.so.6:_ZN21QBoxPlotSeriesPrivate18initializeGraphicsEP13QGraphicsItem
libQt6Charts.so.6:_ZN21QBoxPlotSeriesPrivate18populateCategoriesEP16QBarCategoryAxis
libQt6Charts.so.6:_ZN21QBoxPlotSeriesPrivate19createLegendMarkersEP7QLegend
libQt6Charts.so.6:_ZN21QBoxPlotSeriesPrivate20initializeAnimationsE6QFlagsIN6QChart15AnimationOptionEEiR12QEasingCurve
libQt6Charts.so.6:_ZN21QBoxPlotSeriesPrivate3maxEv
libQt6Charts.so.6:_ZN21QBoxPlotSeriesPrivate3minEv
libQt6Charts.so.6:_ZN21QBoxPlotSeriesPrivate6appendEP7QBoxSet
libQt6Charts.so.6:_ZN21QBoxPlotSeriesPrivate6appendERK5QListIP7QBoxSetE
libQt6Charts.so.6:_ZN21QBoxPlotSeriesPrivate6insertEiP7QBoxSet
libQt6Charts.so.6:_ZN21QBoxPlotSeriesPrivate6removeEP7QBoxSet
libQt6Charts.so.6:_ZN21QBoxPlotSeriesPrivate6removeERK5QListIP7QBoxSetE
libQt6Charts.so.6:_ZN21QBoxPlotSeriesPrivate7clickedEiP7QBoxSet
libQt6Charts.so.6:_ZN21QBoxPlotSeriesPrivate7pressedEiP7QBoxSet
libQt6Charts.so.6:_ZN21QBoxPlotSeriesPrivate7updatedEv
libQt6Charts.so.6:_ZN21QBoxPlotSeriesPrivate8boxSetAtEi
libQt6Charts.so.6:_ZN21QBoxPlotSeriesPrivate8releasedEiP7QBoxSet
libQt6Charts.so.6:_ZN21QBoxPlotSeriesPrivateC1EP14QBoxPlotSeries
libQt6Charts.so.6:_ZN21QBoxPlotSeriesPrivateC2EP14QBoxPlotSeries
libQt6Charts.so.6:_ZN21QBoxPlotSeriesPrivateD0Ev
libQt6Charts.so.6:_ZN21QBoxPlotSeriesPrivateD1Ev
libQt6Charts.so.6:_ZN21QBoxPlotSeriesPrivateD2Ev
libQt6Charts.so.6:_ZN21QScatterSeriesPrivate15initializeThemeEiP10ChartThemeb
libQt6Charts.so.6:_ZN21QScatterSeriesPrivate18initializeGraphicsEP13QGraphicsItem
libQt6Charts.so.6:_ZN21QScatterSeriesPrivate20initializeAnimationsE6QFlagsIN6QChart15AnimationOptionEEiR12QEasingCurve
libQt6Charts.so.6:_ZN21QScatterSeriesPrivateC1EP14QScatterSeries
libQt6Charts.so.6:_ZN21QScatterSeriesPrivateC2EP14QScatterSeries
libQt6Charts.so.6:_ZN21QXYModelMapperPrivate10insertDataEii
libQt6Charts.so.6:_ZN21QXYModelMapperPrivate10removeDataEii
libQt6Charts.so.6:_ZN21QXYModelMapperPrivate11qt_metacallEN11QMetaObject4CallEiPPv
libQt6Charts.so.6:_ZN21QXYModelMapperPrivate11qt_metacastEPKc
libQt6Charts.so.6:_ZN21QXYModelMapperPrivate11xModelIndexEi
libQt6Charts.so.6:_ZN21QXYModelMapperPrivate11yModelIndexEi
libQt6Charts.so.6:_ZN21QXYModelMapperPrivate12modelUpdatedE11QModelIndexS0_
libQt6Charts.so.6:_ZN21QXYModelMapperPrivate14modelRowsAddedE11QModelIndexii
libQt6Charts.so.6:_ZN21QXYModelMapperPrivate14valueFromModelE11QModelIndex
libQt6Charts.so.6:_ZN21QXYModelMapperPrivate15setValueToModelE11QModelIndexd
libQt6Charts.so.6:_ZN21QXYModelMapperPrivate16handlePointAddedEi
libQt6Charts.so.6:_ZN21QXYModelMapperPrivate16modelRowsRemovedE11QModelIndexii
libQt6Charts.so.6:_ZN21QXYModelMapperPrivate16staticMetaObjectE
libQt6Charts.so.6:_ZN21QXYModelMapperPrivate17blockModelSignalsEb
libQt6Charts.so.6:_ZN21QXYModelMapperPrivate17modelColumnsAddedE11QModelIndexii
libQt6Charts.so.6:_ZN21QXYModelMapperPrivate18blockSeriesSignalsEb
libQt6Charts.so.6:_ZN21QXYModelMapperPrivate18handlePointRemovedEi
libQt6Charts.so.6:_ZN21QXYModelMapperPrivate19handlePointReplacedEi
libQt6Charts.so.6:_ZN21QXYModelMapperPrivate19handlePointsRemovedEii
libQt6Charts.so.6:_ZN21QXYModelMapperPrivate19modelColumnsRemovedE11QModelIndexii
libQt6Charts.so.6:_ZN21QXYModelMapperPrivate20handleModelDestroyedEv
libQt6Charts.so.6:_ZN21QXYModelMapperPrivate21handleSeriesDestroyedEv
libQt6Charts.so.6:_ZN21QXYModelMapperPrivate21initializeXYFromModelEv
libQt6Charts.so.6:_ZN21QXYModelMapperPrivateC1EP14QXYModelMapper
libQt6Charts.so.6:_ZN21QXYModelMapperPrivateC2EP14QXYModelMapper
libQt6Charts.so.6:_ZN22HorizontalBarChartItem11qt_metacallEN11QMetaObject4CallEiPPv
libQt6Charts.so.6:_ZN22HorizontalBarChartItem11qt_metacastEPKc
libQt6Charts.so.6:_ZN22HorizontalBarChartItem12topLeftPointEiiidd
libQt6Charts.so.6:_ZN22HorizontalBarChartItem15calculateLayoutEv
libQt6Charts.so.6:_ZN22HorizontalBarChartItem16bottomRightPointEiiidd
libQt6Charts.so.6:_ZN22HorizontalBarChartItem16initializeLayoutEiiib
libQt6Charts.so.6:_ZN22HorizontalBarChartItem16staticMetaObjectE
libQt6Charts.so.6:_ZN22HorizontalBarChartItemC1EP18QAbstractBarSeriesP13QGraphicsItem
libQt6Charts.so.6:_ZN22HorizontalBarChartItemC2EP18QAbstractBarSeriesP13QGraphicsItem
libQt6Charts.so.6:_ZN22QAbstractSeriesPrivate11qt_metacallEN11QMetaObject4CallEiPPv
libQt6Charts.so.6:_ZN22QAbstractSeriesPrivate11qt_metacastEPKc
libQt6Charts.so.6:_ZN22QAbstractSeriesPrivate12countChangedEv
libQt6Charts.so.6:_ZN22QAbstractSeriesPrivate12setPresenterEP14ChartPresenter
libQt6Charts.so.6:_ZN22QAbstractSeriesPrivate14setBlockOpenGLEb
libQt6Charts.so.6:_ZN22QAbstractSeriesPrivate16staticMetaObjectE
libQt6Charts.so.6:_ZN22QAbstractSeriesPrivate18initializeGraphicsEP13QGraphicsItem
libQt6Charts.so.6:_ZN22QAbstractSeriesPrivate20initializeAnimationsE6QFlagsIN6QChart15AnimationOptionEEiR12QEasingCurve
libQt6Charts.so.6:_ZN22QAbstractSeriesPrivate9setDomainEP14AbstractDomain
libQt6Charts.so.6:_ZN22QAbstractSeriesPrivateC1EP15QAbstractSeries
libQt6Charts.so.6:_ZN22QAbstractSeriesPrivateC2EP15QAbstractSeries
libQt6Charts.so.6:_ZN22QAbstractSeriesPrivateD0Ev
libQt6Charts.so.6:_ZN22QAbstractSeriesPrivateD1Ev
libQt6Charts.so.6:_ZN22QAbstractSeriesPrivateD2Ev
libQt6Charts.so.6:_ZN22QBarModelMapperPrivate10insertDataEii
libQt6Charts.so.6:_ZN22QBarModelMapperPrivate10removeDataEii
libQt6Charts.so.6:_ZN22QBarModelMapperPrivate11qt_metacallEN11QMetaObject4CallEiPPv
libQt6Charts.so.6:_ZN22QBarModelMapperPrivate11qt_metacastEPKc
libQt6Charts.so.6:_ZN22QBarModelMapperPrivate11valuesAddedEii
libQt6Charts.so.6:_ZN22QBarModelMapperPrivate12barSetsAddedERK5QListIP7QBarSetE
libQt6Charts.so.6:_ZN22QBarModelMapperPrivate12modelUpdatedE11QModelIndexS0_
libQt6Charts.so.6:_ZN22QBarModelMapperPrivate13barModelIndexEii
libQt6Charts.so.6:_ZN22QBarModelMapperPrivate13valuesRemovedEii
libQt6Charts.so.6:_ZN22QBarModelMapperPrivate14barSetsRemovedERK5QListIP7QBarSetE
libQt6Charts.so.6:_ZN22QBarModelMapperPrivate14modelRowsAddedE11QModelIndexii
libQt6Charts.so.6:_ZN22QBarModelMapperPrivate15barLabelChangedEv
libQt6Charts.so.6:_ZN22QBarModelMapperPrivate15barValueChangedEi
libQt6Charts.so.6:_ZN22QBarModelMapperPrivate16modelRowsRemovedE11QModelIndexii
libQt6Charts.so.6:_ZN22QBarModelMapperPrivate16staticMetaObjectE
libQt6Charts.so.6:_ZN22QBarModelMapperPrivate17blockModelSignalsEb
libQt6Charts.so.6:_ZN22QBarModelMapperPrivate17modelColumnsAddedE11QModelIndexii
libQt6Charts.so.6:_ZN22QBarModelMapperPrivate18blockSeriesSignalsEb
libQt6Charts.so.6:_ZN22QBarModelMapperPrivate19modelColumnsRemovedE11QModelIndexii
libQt6Charts.so.6:_ZN22QBarModelMapperPrivate20handleModelDestroyedEv
libQt6Charts.so.6:_ZN22QBarModelMapperPrivate21handleSeriesDestroyedEv
libQt6Charts.so.6:_ZN22QBarModelMapperPrivate22initializeBarFromModelEv
libQt6Charts.so.6:_ZN22QBarModelMapperPrivate22modelHeaderDataUpdatedEN2Qt11OrientationEii
libQt6Charts.so.6:_ZN22QBarModelMapperPrivate6barSetE11QModelIndex
libQt6Charts.so.6:_ZN22QBarModelMapperPrivateC1EP15QBarModelMapper
libQt6Charts.so.6:_ZN22QBarModelMapperPrivateC2EP15QBarModelMapper
libQt6Charts.so.6:_ZN22QCandlestickSetPrivate11qt_metacallEN11QMetaObject4CallEiPPv
libQt6Charts.so.6:_ZN22QCandlestickSetPrivate11qt_metacastEPKc
libQt6Charts.so.6:_ZN22QCandlestickSetPrivate12setTimestampEd
libQt6Charts.so.6:_ZN22QCandlestickSetPrivate13updatedLayoutEv
libQt6Charts.so.6:_ZN22QCandlestickSetPrivate16staticMetaObjectE
libQt6Charts.so.6:_ZN22QCandlestickSetPrivate18updatedCandlestickEv
libQt6Charts.so.6:_ZN22QCandlestickSetPrivateC1EdP15QCandlestickSet
libQt6Charts.so.6:_ZN22QCandlestickSetPrivateC2EdP15QCandlestickSet
libQt6Charts.so.6:_ZN22QCandlestickSetPrivateD0Ev
libQt6Charts.so.6:_ZN22QCandlestickSetPrivateD1Ev
libQt6Charts.so.6:_ZN22QCandlestickSetPrivateD2Ev
libQt6Charts.so.6:_ZN22QPieModelMapperPrivate10insertDataEii
libQt6Charts.so.6:_ZN22QPieModelMapperPrivate10removeDataEii
libQt6Charts.so.6:_ZN22QPieModelMapperPrivate11qt_metacallEN11QMetaObject4CallEiPPv
libQt6Charts.so.6:_ZN22QPieModelMapperPrivate11qt_metacastEPKc
libQt6Charts.so.6:_ZN22QPieModelMapperPrivate11slicesAddedERK5QListIP9QPieSliceE
libQt6Charts.so.6:_ZN22QPieModelMapperPrivate12modelUpdatedE11QModelIndexS0_
libQt6Charts.so.6:_ZN22QPieModelMapperPrivate13slicesRemovedERK5QListIP9QPieSliceE
libQt6Charts.so.6:_ZN22QPieModelMapperPrivate14modelRowsAddedE11QModelIndexii
libQt6Charts.so.6:_ZN22QPieModelMapperPrivate15labelModelIndexEi
libQt6Charts.so.6:_ZN22QPieModelMapperPrivate15valueModelIndexEi
libQt6Charts.so.6:_ZN22QPieModelMapperPrivate16modelRowsRemovedE11QModelIndexii
libQt6Charts.so.6:_ZN22QPieModelMapperPrivate16staticMetaObjectE
libQt6Charts.so.6:_ZN22QPieModelMapperPrivate17blockModelSignalsEb
libQt6Charts.so.6:_ZN22QPieModelMapperPrivate17modelColumnsAddedE11QModelIndexii
libQt6Charts.so.6:_ZN22QPieModelMapperPrivate17sliceLabelChangedEv
libQt6Charts.so.6:_ZN22QPieModelMapperPrivate17sliceValueChangedEv
libQt6Charts.so.6:_ZN22QPieModelMapperPrivate18blockSeriesSignalsEb
libQt6Charts.so.6:_ZN22QPieModelMapperPrivate19modelColumnsRemovedE11QModelIndexii
libQt6Charts.so.6:_ZN22QPieModelMapperPrivate20handleModelDestroyedEv
libQt6Charts.so.6:_ZN22QPieModelMapperPrivate21handleSeriesDestroyedEv
libQt6Charts.so.6:_ZN22QPieModelMapperPrivate22initializePieFromModelEv
libQt6Charts.so.6:_ZN22QPieModelMapperPrivateC1EP15QPieModelMapper
libQt6Charts.so.6:_ZN22QPieModelMapperPrivateC2EP15QPieModelMapper
libQt6Charts.so.6:_ZN22QXYLegendMarkerPrivate11qt_metacallEN11QMetaObject4CallEiPPv
libQt6Charts.so.6:_ZN22QXYLegendMarkerPrivate11qt_metacastEPKc
libQt6Charts.so.6:_ZN22QXYLegendMarkerPrivate13relatedObjectEv
libQt6Charts.so.6:_ZN22QXYLegendMarkerPrivate16staticMetaObjectE
libQt6Charts.so.6:_ZN22QXYLegendMarkerPrivate6seriesEv
libQt6Charts.so.6:_ZN22QXYLegendMarkerPrivate7updatedEv
libQt6Charts.so.6:_ZN22QXYLegendMarkerPrivateC1EP15QXYLegendMarkerP9QXYSeriesP7QLegend
libQt6Charts.so.6:_ZN22QXYLegendMarkerPrivateC2EP15QXYLegendMarkerP9QXYSeriesP7QLegend
libQt6Charts.so.6:_ZN22QXYLegendMarkerPrivateD0Ev
libQt6Charts.so.6:_ZN22QXYLegendMarkerPrivateD1Ev
libQt6Charts.so.6:_ZN22QXYLegendMarkerPrivateD2Ev
libQt6Charts.so.6:_ZN22RotatedRectangleMarker7polygonEdddd
libQt6Charts.so.6:_ZN22RotatedRectangleMarkerC1EddddP16ScatterChartItem
libQt6Charts.so.6:_ZN22RotatedRectangleMarkerC2EddddP16ScatterChartItem
libQt6Charts.so.6:_ZN23LegendMoveResizeHandler14setMouseCursorENS_13MousePositionE
libQt6Charts.so.6:_ZN23LegendMoveResizeHandler14setMouseCursorEv
libQt6Charts.so.6:_ZN23LegendMoveResizeHandler20handleHoverMoveEventEP24QGraphicsSceneHoverEvent
libQt6Charts.so.6:_ZN23LegendMoveResizeHandler20handleMouseMoveEventEP24QGraphicsSceneMouseEvent
libQt6Charts.so.6:_ZN23LegendMoveResizeHandler21handleHoverEnterEventEP24QGraphicsSceneHoverEvent
libQt6Charts.so.6:_ZN23LegendMoveResizeHandler21handleHoverLeaveEventEP24QGraphicsSceneHoverEvent
libQt6Charts.so.6:_ZN23LegendMoveResizeHandler21handleMousePressEventEP24QGraphicsSceneMouseEvent
libQt6Charts.so.6:_ZN23LegendMoveResizeHandler22determineMousePositionE7QPointF
libQt6Charts.so.6:_ZN23LegendMoveResizeHandler23handleMouseReleaseEventEP24QGraphicsSceneMouseEvent
libQt6Charts.so.6:_ZN23LegendMoveResizeHandler5resetEv
libQt6Charts.so.6:_ZN23LegendMoveResizeHandlerC1EP7QLegend
libQt6Charts.so.6:_ZN23LegendMoveResizeHandlerC2EP7QLegend
libQt6Charts.so.6:_ZN23LegendMoveResizeHandlerD1Ev
libQt6Charts.so.6:_ZN23LegendMoveResizeHandlerD2Ev
libQt6Charts.so.6:_ZN23QBarCategoryAxisPrivate11qt_metacallEN11QMetaObject4CallEiPPv
libQt6Charts.so.6:_ZN23QBarCategoryAxisPrivate11qt_metacastEPKc
libQt6Charts.so.6:_ZN23QBarCategoryAxisPrivate16initializeDomainEP14AbstractDomain
libQt6Charts.so.6:_ZN23QBarCategoryAxisPrivate16staticMetaObjectE
libQt6Charts.so.6:_ZN23QBarCategoryAxisPrivate18initializeGraphicsEP13QGraphicsItem
libQt6Charts.so.6:_ZN23QBarCategoryAxisPrivate20updateCategoryDomainEv
libQt6Charts.so.6:_ZN23QBarCategoryAxisPrivate6setMaxERK8QVariant
libQt6Charts.so.6:_ZN23QBarCategoryAxisPrivate6setMinERK8QVariant
libQt6Charts.so.6:_ZN23QBarCategoryAxisPrivate8setRangeERK7QStringS2_
libQt6Charts.so.6:_ZN23QBarCategoryAxisPrivate8setRangeERK8QVariantS2_
libQt6Charts.so.6:_ZN23QBarCategoryAxisPrivate8setRangeEdd
libQt6Charts.so.6:_ZN23QBarCategoryAxisPrivateC1EP16QBarCategoryAxis
libQt6Charts.so.6:_ZN23QBarCategoryAxisPrivateC2EP16QBarCategoryAxis
libQt6Charts.so.6:_ZN23QBarCategoryAxisPrivateD0Ev
libQt6Charts.so.6:_ZN23QBarCategoryAxisPrivateD1Ev
libQt6Charts.so.6:_ZN23QBarCategoryAxisPrivateD2Ev
libQt6Charts.so.6:_ZN23QBarLegendMarkerPrivate11qt_metacallEN11QMetaObject4CallEiPPv
libQt6Charts.so.6:_ZN23QBarLegendMarkerPrivate11qt_metacastEPKc
libQt6Charts.so.6:_ZN23QBarLegendMarkerPrivate13relatedObjectEv
libQt6Charts.so.6:_ZN23QBarLegendMarkerPrivate16staticMetaObjectE
libQt6Charts.so.6:_ZN23QBarLegendMarkerPrivate6seriesEv
libQt6Charts.so.6:_ZN23QBarLegendMarkerPrivate7updatedEv
libQt6Charts.so.6:_ZN23QBarLegendMarkerPrivateC1EP16QBarLegendMarkerP18QAbstractBarSeriesP7QBarSetP7QLegend
libQt6Charts.so.6:_ZN23QBarLegendMarkerPrivateC2EP16QBarLegendMarkerP18QAbstractBarSeriesP7QBarSetP7QLegend
libQt6Charts.so.6:_ZN23QBarLegendMarkerPrivateD0Ev
libQt6Charts.so.6:_ZN23QBarLegendMarkerPrivateD1Ev
libQt6Charts.so.6:_ZN23QBarLegendMarkerPrivateD2Ev
libQt6Charts.so.6:_ZN23QCandlestickModelMapper11qt_metacallEN11QMetaObject4CallEiPPv
libQt6Charts.so.6:_ZN23QCandlestickModelMapper11qt_metacastEPKc
libQt6Charts.so.6:_ZN23QCandlestickModelMapper12setTimestampEi
libQt6Charts.so.6:_ZN23QCandlestickModelMapper13modelReplacedEv
libQt6Charts.so.6:_ZN23QCandlestickModelMapper14seriesReplacedEv
libQt6Charts.so.6:_ZN23QCandlestickModelMapper16staticMetaObjectE
libQt6Charts.so.6:_ZN23QCandlestickModelMapper17setLastSetSectionEi
libQt6Charts.so.6:_ZN23QCandlestickModelMapper18setFirstSetSectionEi
libQt6Charts.so.6:_ZN23QCandlestickModelMapper6setLowEi
libQt6Charts.so.6:_ZN23QCandlestickModelMapper7setHighEi
libQt6Charts.so.6:_ZN23QCandlestickModelMapper7setOpenEi
libQt6Charts.so.6:_ZN23QCandlestickModelMapper8setCloseEi
libQt6Charts.so.6:_ZN23QCandlestickModelMapper8setModelEP18QAbstractItemModel
libQt6Charts.so.6:_ZN23QCandlestickModelMapper9setSeriesEP18QCandlestickSeries
libQt6Charts.so.6:_ZN23QCandlestickModelMapperC1EP7QObject
libQt6Charts.so.6:_ZN23QCandlestickModelMapperC2EP7QObject
libQt6Charts.so.6:_ZN23QPieLegendMarkerPrivate11qt_metacallEN11QMetaObject4CallEiPPv
libQt6Charts.so.6:_ZN23QPieLegendMarkerPrivate11qt_metacastEPKc
libQt6Charts.so.6:_ZN23QPieLegendMarkerPrivate13relatedObjectEv
libQt6Charts.so.6:_ZN23QPieLegendMarkerPrivate16staticMetaObjectE
libQt6Charts.so.6:_ZN23QPieLegendMarkerPrivate6seriesEv
libQt6Charts.so.6:_ZN23QPieLegendMarkerPrivate7updatedEv
libQt6Charts.so.6:_ZN23QPieLegendMarkerPrivateC1EP16QPieLegendMarkerP10QPieSeriesP9QPieSliceP7QLegend
libQt6Charts.so.6:_ZN23QPieLegendMarkerPrivateC2EP16QPieLegendMarkerP10QPieSeriesP9QPieSliceP7QLegend
libQt6Charts.so.6:_ZN23QPieLegendMarkerPrivateD0Ev
libQt6Charts.so.6:_ZN23QPieLegendMarkerPrivateD1Ev
libQt6Charts.so.6:_ZN23QPieLegendMarkerPrivateD2Ev
libQt6Charts.so.6:_ZN24QAreaLegendMarkerPrivate11qt_metacallEN11QMetaObject4CallEiPPv
libQt6Charts.so.6:_ZN24QAreaLegendMarkerPrivate11qt_metacastEPKc
libQt6Charts.so.6:_ZN24QAreaLegendMarkerPrivate13relatedObjectEv
libQt6Charts.so.6:_ZN24QAreaLegendMarkerPrivate16staticMetaObjectE
libQt6Charts.so.6:_ZN24QAreaLegendMarkerPrivate6seriesEv
libQt6Charts.so.6:_ZN24QAreaLegendMarkerPrivate7updatedEv
libQt6Charts.so.6:_ZN24QAreaLegendMarkerPrivateC1EP17QAreaLegendMarkerP11QAreaSeriesP7QLegend
libQt6Charts.so.6:_ZN24QAreaLegendMarkerPrivateC2EP17QAreaLegendMarkerP11QAreaSeriesP7QLegend
libQt6Charts.so.6:_ZN24QAreaLegendMarkerPrivateD0Ev
libQt6Charts.so.6:_ZN24QAreaLegendMarkerPrivateD1Ev
libQt6Charts.so.6:_ZN24QAreaLegendMarkerPrivateD2Ev
libQt6Charts.so.6:_ZN24QCandlestickLegendMarker11qt_metacallEN11QMetaObject4CallEiPPv
libQt6Charts.so.6:_ZN24QCandlestickLegendMarker11qt_metacastEPKc
libQt6Charts.so.6:_ZN24QCandlestickLegendMarker16staticMetaObjectE
libQt6Charts.so.6:_ZN24QCandlestickLegendMarker4typeEv
libQt6Charts.so.6:_ZN24QCandlestickLegendMarker6seriesEv
libQt6Charts.so.6:_ZN24QCandlestickLegendMarkerC1EP18QCandlestickSeriesP7QLegendP7QObject
libQt6Charts.so.6:_ZN24QCandlestickLegendMarkerC2EP18QCandlestickSeriesP7QLegendP7QObject
libQt6Charts.so.6:_ZN24QCandlestickLegendMarkerD0Ev
libQt6Charts.so.6:_ZN24QCandlestickLegendMarkerD1Ev
libQt6Charts.so.6:_ZN24QCandlestickLegendMarkerD2Ev
libQt6Charts.so.6:_ZN24QHCandlestickModelMapper11qt_metacallEN11QMetaObject4CallEiPPv
libQt6Charts.so.6:_ZN24QHCandlestickModelMapper11qt_metacastEPKc
libQt6Charts.so.6:_ZN24QHCandlestickModelMapper12setLowColumnEi
libQt6Charts.so.6:_ZN24QHCandlestickModelMapper13setHighColumnEi
libQt6Charts.so.6:_ZN24QHCandlestickModelMapper13setLastSetRowEi
libQt6Charts.so.6:_ZN24QHCandlestickModelMapper13setOpenColumnEi
libQt6Charts.so.6:_ZN24QHCandlestickModelMapper14setCloseColumnEi
libQt6Charts.so.6:_ZN24QHCandlestickModelMapper14setFirstSetRowEi
libQt6Charts.so.6:_ZN24QHCandlestickModelMapper16lowColumnChangedEv
libQt6Charts.so.6:_ZN24QHCandlestickModelMapper16staticMetaObjectE
libQt6Charts.so.6:_ZN24QHCandlestickModelMapper17highColumnChangedEv
libQt6Charts.so.6:_ZN24QHCandlestickModelMapper17lastSetRowChangedEv
libQt6Charts.so.6:_ZN24QHCandlestickModelMapper17openColumnChangedEv
libQt6Charts.so.6:_ZN24QHCandlestickModelMapper18closeColumnChangedEv
libQt6Charts.so.6:_ZN24QHCandlestickModelMapper18firstSetRowChangedEv
libQt6Charts.so.6:_ZN24QHCandlestickModelMapper18setTimestampColumnEi
libQt6Charts.so.6:_ZN24QHCandlestickModelMapper22timestampColumnChangedEv
libQt6Charts.so.6:_ZN24QHCandlestickModelMapperC1EP7QObject
libQt6Charts.so.6:_ZN24QHCandlestickModelMapperC2EP7QObject
libQt6Charts.so.6:_ZN24QPercentBarSeriesPrivate16initializeDomainEv
libQt6Charts.so.6:_ZN24QPercentBarSeriesPrivate18initializeGraphicsEP13QGraphicsItem
libQt6Charts.so.6:_ZN24QPercentBarSeriesPrivateC1EP17QPercentBarSeries
libQt6Charts.so.6:_ZN24QPercentBarSeriesPrivateC2EP17QPercentBarSeries
libQt6Charts.so.6:_ZN24QStackedBarSeriesPrivate16initializeDomainEv
libQt6Charts.so.6:_ZN24QStackedBarSeriesPrivate18initializeGraphicsEP13QGraphicsItem
libQt6Charts.so.6:_ZN24QStackedBarSeriesPrivateC1EP17QStackedBarSeries
libQt6Charts.so.6:_ZN24QStackedBarSeriesPrivateC2EP17QStackedBarSeries
libQt6Charts.so.6:_ZN24QVCandlestickModelMapper10setHighRowEi
libQt6Charts.so.6:_ZN24QVCandlestickModelMapper10setOpenRowEi
libQt6Charts.so.6:_ZN24QVCandlestickModelMapper11qt_metacallEN11QMetaObject4CallEiPPv
libQt6Charts.so.6:_ZN24QVCandlestickModelMapper11qt_metacastEPKc
libQt6Charts.so.6:_ZN24QVCandlestickModelMapper11setCloseRowEi
libQt6Charts.so.6:_ZN24QVCandlestickModelMapper13lowRowChangedEv
libQt6Charts.so.6:_ZN24QVCandlestickModelMapper14highRowChangedEv
libQt6Charts.so.6:_ZN24QVCandlestickModelMapper14openRowChangedEv
libQt6Charts.so.6:_ZN24QVCandlestickModelMapper15closeRowChangedEv
libQt6Charts.so.6:_ZN24QVCandlestickModelMapper15setTimestampRowEi
libQt6Charts.so.6:_ZN24QVCandlestickModelMapper16setLastSetColumnEi
libQt6Charts.so.6:_ZN24QVCandlestickModelMapper16staticMetaObjectE
libQt6Charts.so.6:_ZN24QVCandlestickModelMapper17setFirstSetColumnEi
libQt6Charts.so.6:_ZN24QVCandlestickModelMapper19timestampRowChangedEv
libQt6Charts.so.6:_ZN24QVCandlestickModelMapper20lastSetColumnChangedEv
libQt6Charts.so.6:_ZN24QVCandlestickModelMapper21firstSetColumnChangedEv
libQt6Charts.so.6:_ZN24QVCandlestickModelMapper9setLowRowEi
libQt6Charts.so.6:_ZN24QVCandlestickModelMapperC1EP7QObject
libQt6Charts.so.6:_ZN24QVCandlestickModelMapperC2EP7QObject
libQt6Charts.so.6:_ZN25PolarChartValueAxisRadial11qt_metacallEN11QMetaObject4CallEiPPv
libQt6Charts.so.6:_ZN25PolarChartValueAxisRadial11qt_metacastEPKc
libQt6Charts.so.6:_ZN25PolarChartValueAxisRadial16createAxisLabelsERK5QListIdE
libQt6Charts.so.6:_ZN25PolarChartValueAxisRadial16staticMetaObjectE
libQt6Charts.so.6:_ZN25PolarChartValueAxisRadial22handleTickCountChangedEi
libQt6Charts.so.6:_ZN25PolarChartValueAxisRadial24handleLabelFormatChangedERK7QString
libQt6Charts.so.6:_ZN25PolarChartValueAxisRadial27handleMinorTickCountChangedEi
libQt6Charts.so.6:_ZN25PolarChartValueAxisRadialC1EP10QValueAxisP13QGraphicsItem
libQt6Charts.so.6:_ZN25PolarChartValueAxisRadialC2EP10QValueAxisP13QGraphicsItem
libQt6Charts.so.6:_ZN25PolarChartValueAxisRadialD0Ev
libQt6Charts.so.6:_ZN25PolarChartValueAxisRadialD1Ev
libQt6Charts.so.6:_ZN25PolarChartValueAxisRadialD2Ev
libQt6Charts.so.6:_ZN25QAbstractBarSeriesPrivate10setVisibleEb
libQt6Charts.so.6:_ZN25QAbstractBarSeriesPrivate11categorySumEi
libQt6Charts.so.6:_ZN25QAbstractBarSeriesPrivate11categoryTopEi
libQt6Charts.so.6:_ZN25QAbstractBarSeriesPrivate11qt_metacallEN11QMetaObject4CallEiPPv
libQt6Charts.so.6:_ZN25QAbstractBarSeriesPrivate11qt_metacastEPKc
libQt6Charts.so.6:_ZN25QAbstractBarSeriesPrivate11setBarWidthEd
libQt6Charts.so.6:_ZN25QAbstractBarSeriesPrivate11updatedBarsEv
libQt6Charts.so.6:_ZN25QAbstractBarSeriesPrivate12percentageAtEii
libQt6Charts.so.6:_ZN25QAbstractBarSeriesPrivate13doubleClickedEiP7QBarSet
libQt6Charts.so.6:_ZN25QAbstractBarSeriesPrivate13setValueAddedEiiP7QBarSet
libQt6Charts.so.6:_ZN25QAbstractBarSeriesPrivate13updatedLayoutEv
libQt6Charts.so.6:_ZN25QAbstractBarSeriesPrivate14blockBarUpdateEv
libQt6Charts.so.6:_ZN25QAbstractBarSeriesPrivate14categoryBottomEi
libQt6Charts.so.6:_ZN25QAbstractBarSeriesPrivate14initializeAxesEv
libQt6Charts.so.6:_ZN25QAbstractBarSeriesPrivate14maxCategorySumEv
libQt6Charts.so.6:_ZN25QAbstractBarSeriesPrivate14visibleChangedEv
libQt6Charts.so.6:_ZN25QAbstractBarSeriesPrivate15initializeThemeEiP10ChartThemeb
libQt6Charts.so.6:_ZN25QAbstractBarSeriesPrivate15setValueChangedEiP7QBarSet
libQt6Charts.so.6:_ZN25QAbstractBarSeriesPrivate15setValueRemovedEiiP7QBarSet
libQt6Charts.so.6:_ZN25QAbstractBarSeriesPrivate16initializeDomainEv
libQt6Charts.so.6:_ZN25QAbstractBarSeriesPrivate16restructuredBarsEv
libQt6Charts.so.6:_ZN25QAbstractBarSeriesPrivate16setLabelsVisibleEb
libQt6Charts.so.6:_ZN25QAbstractBarSeriesPrivate16staticMetaObjectE
libQt6Charts.so.6:_ZN25QAbstractBarSeriesPrivate17handleSetValueAddEii
libQt6Charts.so.6:_ZN25QAbstractBarSeriesPrivate18populateCategoriesEP16QBarCategoryAxis
libQt6Charts.so.6:_ZN25QAbstractBarSeriesPrivate19absoluteCategorySumEi
libQt6Charts.so.6:_ZN25QAbstractBarSeriesPrivate19createLegendMarkersEP7QLegend
libQt6Charts.so.6:_ZN25QAbstractBarSeriesPrivate20handleSetValueChangeEi
libQt6Charts.so.6:_ZN25QAbstractBarSeriesPrivate20handleSetValueRemoveEii
libQt6Charts.so.6:_ZN25QAbstractBarSeriesPrivate20initializeAnimationsE6QFlagsIN6QChart15AnimationOptionEEiR12QEasingCurve
libQt6Charts.so.6:_ZN25QAbstractBarSeriesPrivate20labelsVisibleChangedEb
libQt6Charts.so.6:_ZN25QAbstractBarSeriesPrivate3maxEv
libQt6Charts.so.6:_ZN25QAbstractBarSeriesPrivate3minEv
libQt6Charts.so.6:_ZN25QAbstractBarSeriesPrivate3topEv
libQt6Charts.so.6:_ZN25QAbstractBarSeriesPrivate4maxXEv
libQt6Charts.so.6:_ZN25QAbstractBarSeriesPrivate4minXEv
libQt6Charts.so.6:_ZN25QAbstractBarSeriesPrivate6appendEP7QBarSet
libQt6Charts.so.6:_ZN25QAbstractBarSeriesPrivate6appendERK5QListIP7QBarSetE
libQt6Charts.so.6:_ZN25QAbstractBarSeriesPrivate6bottomEv
libQt6Charts.so.6:_ZN25QAbstractBarSeriesPrivate6insertEiP7QBarSet
libQt6Charts.so.6:_ZN25QAbstractBarSeriesPrivate6removeEP7QBarSet
libQt6Charts.so.6:_ZN25QAbstractBarSeriesPrivate6removeERK5QListIP7QBarSetE
libQt6Charts.so.6:_ZN25QAbstractBarSeriesPrivate7clickedEiP7QBarSet
libQt6Charts.so.6:_ZN25QAbstractBarSeriesPrivate7pressedEiP7QBarSet
libQt6Charts.so.6:_ZN25QAbstractBarSeriesPrivate7valueAtEii
libQt6Charts.so.6:_ZN25QAbstractBarSeriesPrivate8barsetAtEi
libQt6Charts.so.6:_ZN25QAbstractBarSeriesPrivate8releasedEiP7QBarSet
libQt6Charts.so.6:_ZN25QAbstractBarSeriesPrivateC1EP18QAbstractBarSeries
libQt6Charts.so.6:_ZN25QAbstractBarSeriesPrivateC2EP18QAbstractBarSeries
libQt6Charts.so.6:_ZN25QCandlestickSeriesPrivate11qt_metacallEN11QMetaObject4CallEiPPv
libQt6Charts.so.6:_ZN25QCandlestickSeriesPrivate11qt_metacastEPKc
libQt6Charts.so.6:_ZN25QCandlestickSeriesPrivate13doubleClickedEiP15QCandlestickSet
libQt6Charts.so.6:_ZN25QCandlestickSeriesPrivate13updatedLayoutEv
libQt6Charts.so.6:_ZN25QCandlestickSeriesPrivate14initializeAxesEv
libQt6Charts.so.6:_ZN25QCandlestickSeriesPrivate15initializeThemeEiP10ChartThemeb
libQt6Charts.so.6:_ZN25QCandlestickSeriesPrivate16initializeDomainEv
libQt6Charts.so.6:_ZN25QCandlestickSeriesPrivate16staticMetaObjectE
libQt6Charts.so.6:_ZN25QCandlestickSeriesPrivate18handleSeriesChangeEP15QAbstractSeries
libQt6Charts.so.6:_ZN25QCandlestickSeriesPrivate18handleSeriesRemoveEP15QAbstractSeries
libQt6Charts.so.6:_ZN25QCandlestickSeriesPrivate18initializeGraphicsEP13QGraphicsItem
libQt6Charts.so.6:_ZN25QCandlestickSeriesPrivate19createLegendMarkersEP7QLegend
libQt6Charts.so.6:_ZN25QCandlestickSeriesPrivate19updatedCandlesticksEv
libQt6Charts.so.6:_ZN25QCandlestickSeriesPrivate20initializeAnimationsE6QFlagsIN6QChart15AnimationOptionEEiR12QEasingCurve
libQt6Charts.so.6:_ZN25QCandlestickSeriesPrivate21populateBarCategoriesEP16QBarCategoryAxis
libQt6Charts.so.6:_ZN25QCandlestickSeriesPrivate6appendERK5QListIP15QCandlestickSetE
libQt6Charts.so.6:_ZN25QCandlestickSeriesPrivate6insertEiP15QCandlestickSet
libQt6Charts.so.6:_ZN25QCandlestickSeriesPrivate6removeERK5QListIP15QCandlestickSetE
libQt6Charts.so.6:_ZN25QCandlestickSeriesPrivate7clickedEiP15QCandlestickSet
libQt6Charts.so.6:_ZN25QCandlestickSeriesPrivate7pressedEiP15QCandlestickSet
libQt6Charts.so.6:_ZN25QCandlestickSeriesPrivate7updatedEv
libQt6Charts.so.6:_ZN25QCandlestickSeriesPrivate8releasedEiP15QCandlestickSet
libQt6Charts.so.6:_ZN25QCandlestickSeriesPrivateC1EP18QCandlestickSeries
libQt6Charts.so.6:_ZN25QCandlestickSeriesPrivateC2EP18QCandlestickSeries
libQt6Charts.so.6:_ZN25QCandlestickSeriesPrivateD0Ev
libQt6Charts.so.6:_ZN25QCandlestickSeriesPrivateD1Ev
libQt6Charts.so.6:_ZN25QCandlestickSeriesPrivateD2Ev
libQt6Charts.so.6:_ZN26PolarChartValueAxisAngular11qt_metacallEN11QMetaObject4CallEiPPv
libQt6Charts.so.6:_ZN26PolarChartValueAxisAngular11qt_metacastEPKc
libQt6Charts.so.6:_ZN26PolarChartValueAxisAngular16createAxisLabelsERK5QListIdE
libQt6Charts.so.6:_ZN26PolarChartValueAxisAngular16staticMetaObjectE
libQt6Charts.so.6:_ZN26PolarChartValueAxisAngular22handleTickCountChangedEi
libQt6Charts.so.6:_ZN26PolarChartValueAxisAngular24handleLabelFormatChangedERK7QString
libQt6Charts.so.6:_ZN26PolarChartValueAxisAngular27handleMinorTickCountChangedEi
libQt6Charts.so.6:_ZN26PolarChartValueAxisAngularC1EP10QValueAxisP13QGraphicsItem
libQt6Charts.so.6:_ZN26PolarChartValueAxisAngularC2EP10QValueAxisP13QGraphicsItem
libQt6Charts.so.6:_ZN26PolarChartValueAxisAngularD0Ev
libQt6Charts.so.6:_ZN26PolarChartValueAxisAngularD1Ev
libQt6Charts.so.6:_ZN26PolarChartValueAxisAngularD2Ev
libQt6Charts.so.6:_ZN27QBoxPlotLegendMarkerPrivate11qt_metacallEN11QMetaObject4CallEiPPv
libQt6Charts.so.6:_ZN27QBoxPlotLegendMarkerPrivate11qt_metacastEPKc
libQt6Charts.so.6:_ZN27QBoxPlotLegendMarkerPrivate13relatedObjectEv
libQt6Charts.so.6:_ZN27QBoxPlotLegendMarkerPrivate16staticMetaObjectE
libQt6Charts.so.6:_ZN27QBoxPlotLegendMarkerPrivate6seriesEv
libQt6Charts.so.6:_ZN27QBoxPlotLegendMarkerPrivate7updatedEv
libQt6Charts.so.6:_ZN27QBoxPlotLegendMarkerPrivateC1EP20QBoxPlotLegendMarkerP14QBoxPlotSeriesP7QLegend
libQt6Charts.so.6:_ZN27QBoxPlotLegendMarkerPrivateC2EP20QBoxPlotLegendMarkerP14QBoxPlotSeriesP7QLegend
libQt6Charts.so.6:_ZN27QBoxPlotLegendMarkerPrivateD0Ev
libQt6Charts.so.6:_ZN27QBoxPlotLegendMarkerPrivateD1Ev
libQt6Charts.so.6:_ZN27QBoxPlotLegendMarkerPrivateD2Ev
libQt6Charts.so.6:_ZN27QHorizontalBarSeriesPrivate16initializeDomainEv
libQt6Charts.so.6:_ZN27QHorizontalBarSeriesPrivate18initializeGraphicsEP13QGraphicsItem
libQt6Charts.so.6:_ZN27QHorizontalBarSeriesPrivateC1EP20QHorizontalBarSeries
libQt6Charts.so.6:_ZN27QHorizontalBarSeriesPrivateC2EP20QHorizontalBarSeries
libQt6Charts.so.6:_ZN27QHorizontalPercentBarSeries11qt_metacallEN11QMetaObject4CallEiPPv
libQt6Charts.so.6:_ZN27QHorizontalPercentBarSeries11qt_metacastEPKc
libQt6Charts.so.6:_ZN27QHorizontalPercentBarSeries16staticMetaObjectE
libQt6Charts.so.6:_ZN27QHorizontalPercentBarSeriesC1EP7QObject
libQt6Charts.so.6:_ZN27QHorizontalPercentBarSeriesC2EP7QObject
libQt6Charts.so.6:_ZN27QHorizontalPercentBarSeriesD0Ev
libQt6Charts.so.6:_ZN27QHorizontalPercentBarSeriesD1Ev
libQt6Charts.so.6:_ZN27QHorizontalPercentBarSeriesD2Ev
libQt6Charts.so.6:_ZN27QHorizontalStackedBarSeries11qt_metacallEN11QMetaObject4CallEiPPv
libQt6Charts.so.6:_ZN27QHorizontalStackedBarSeries11qt_metacastEPKc
libQt6Charts.so.6:_ZN27QHorizontalStackedBarSeries16staticMetaObjectE
libQt6Charts.so.6:_ZN27QHorizontalStackedBarSeriesC1EP7QObject
libQt6Charts.so.6:_ZN27QHorizontalStackedBarSeriesC2EP7QObject
libQt6Charts.so.6:_ZN27QHorizontalStackedBarSeriesD0Ev
libQt6Charts.so.6:_ZN27QHorizontalStackedBarSeriesD1Ev
libQt6Charts.so.6:_ZN27QHorizontalStackedBarSeriesD2Ev
libQt6Charts.so.6:_ZN28PolarChartCategoryAxisRadial11qt_metacallEN11QMetaObject4CallEiPPv
libQt6Charts.so.6:_ZN28PolarChartCategoryAxisRadial11qt_metacastEPKc
libQt6Charts.so.6:_ZN28PolarChartCategoryAxisRadial16createAxisLabelsERK5QListIdE
libQt6Charts.so.6:_ZN28PolarChartCategoryAxisRadial16staticMetaObjectE
libQt6Charts.so.6:_ZN28PolarChartCategoryAxisRadial23handleCategoriesChangedEv
libQt6Charts.so.6:_ZN28PolarChartCategoryAxisRadialC1EP13QCategoryAxisP13QGraphicsItem
libQt6Charts.so.6:_ZN28PolarChartCategoryAxisRadialC2EP13QCategoryAxisP13QGraphicsItem
libQt6Charts.so.6:_ZN28PolarChartCategoryAxisRadialD0Ev
libQt6Charts.so.6:_ZN28PolarChartCategoryAxisRadialD1Ev
libQt6Charts.so.6:_ZN28PolarChartCategoryAxisRadialD2Ev
libQt6Charts.so.6:_ZN28PolarChartDateTimeAxisRadial11qt_metacallEN11QMetaObject4CallEiPPv
libQt6Charts.so.6:_ZN28PolarChartDateTimeAxisRadial11qt_metacastEPKc
libQt6Charts.so.6:_ZN28PolarChartDateTimeAxisRadial16createAxisLabelsERK5QListIdE
libQt6Charts.so.6:_ZN28PolarChartDateTimeAxisRadial16staticMetaObjectE
libQt6Charts.so.6:_ZN28PolarChartDateTimeAxisRadial19handleFormatChangedERK7QString
libQt6Charts.so.6:_ZN28PolarChartDateTimeAxisRadial22handleTickCountChangedEi
libQt6Charts.so.6:_ZN28PolarChartDateTimeAxisRadialC1EP13QDateTimeAxisP13QGraphicsItem
libQt6Charts.so.6:_ZN28PolarChartDateTimeAxisRadialC2EP13QDateTimeAxisP13QGraphicsItem
libQt6Charts.so.6:_ZN28PolarChartDateTimeAxisRadialD0Ev
libQt6Charts.so.6:_ZN28PolarChartDateTimeAxisRadialD1Ev
libQt6Charts.so.6:_ZN28PolarChartDateTimeAxisRadialD2Ev
libQt6Charts.so.6:_ZN28PolarChartLogValueAxisRadial11qt_metacallEN11QMetaObject4CallEiPPv
libQt6Charts.so.6:_ZN28PolarChartLogValueAxisRadial11qt_metacastEPKc
libQt6Charts.so.6:_ZN28PolarChartLogValueAxisRadial16createAxisLabelsERK5QListIdE
libQt6Charts.so.6:_ZN28PolarChartLogValueAxisRadial16staticMetaObjectE
libQt6Charts.so.6:_ZN28PolarChartLogValueAxisRadial17handleBaseChangedEd
libQt6Charts.so.6:_ZN28PolarChartLogValueAxisRadial24handleLabelFormatChangedERK7QString
libQt6Charts.so.6:_ZN28PolarChartLogValueAxisRadialC1EP13QLogValueAxisP13QGraphicsItem
libQt6Charts.so.6:_ZN28PolarChartLogValueAxisRadialC2EP13QLogValueAxisP13QGraphicsItem
libQt6Charts.so.6:_ZN28PolarChartLogValueAxisRadialD0Ev
libQt6Charts.so.6:_ZN28PolarChartLogValueAxisRadialD1Ev
libQt6Charts.so.6:_ZN28PolarChartLogValueAxisRadialD2Ev
libQt6Charts.so.6:_ZN29CandlestickBodyWicksAnimation10setEndDataERK15CandlestickData
libQt6Charts.so.6:_ZN29CandlestickBodyWicksAnimation11qt_metacallEN11QMetaObject4CallEiPPv
libQt6Charts.so.6:_ZN29CandlestickBodyWicksAnimation11qt_metacastEPKc
libQt6Charts.so.6:_ZN29CandlestickBodyWicksAnimation12setStartDataERK15CandlestickData
libQt6Charts.so.6:_ZN29CandlestickBodyWicksAnimation16staticMetaObjectE
libQt6Charts.so.6:_ZN29CandlestickBodyWicksAnimation18updateCurrentValueERK8QVariant
libQt6Charts.so.6:_ZN29CandlestickBodyWicksAnimation5setupERK15CandlestickDataS2_
libQt6Charts.so.6:_ZN29CandlestickBodyWicksAnimationC1EP11CandlestickP20CandlestickAnimationiR12QEasingCurve
libQt6Charts.so.6:_ZN29CandlestickBodyWicksAnimationC2EP11CandlestickP20CandlestickAnimationiR12QEasingCurve
libQt6Charts.so.6:_ZN29CandlestickBodyWicksAnimationD0Ev
libQt6Charts.so.6:_ZN29CandlestickBodyWicksAnimationD1Ev
libQt6Charts.so.6:_ZN29CandlestickBodyWicksAnimationD2Ev
libQt6Charts.so.6:_ZN29HorizontalPercentBarChartItem11qt_metacallEN11QMetaObject4CallEiPPv
libQt6Charts.so.6:_ZN29HorizontalPercentBarChartItem11qt_metacastEPKc
libQt6Charts.so.6:_ZN29HorizontalPercentBarChartItem12topLeftPointEidd
libQt6Charts.so.6:_ZN29HorizontalPercentBarChartItem15calculateLayoutEv
libQt6Charts.so.6:_ZN29HorizontalPercentBarChartItem15markLabelsDirtyEP7QBarSetii
libQt6Charts.so.6:_ZN29HorizontalPercentBarChartItem16bottomRightPointEidd
libQt6Charts.so.6:_ZN29HorizontalPercentBarChartItem16initializeLayoutEiiib
libQt6Charts.so.6:_ZN29HorizontalPercentBarChartItem16staticMetaObjectE
libQt6Charts.so.6:_ZN29HorizontalPercentBarChartItem17generateLabelTextEiid
libQt6Charts.so.6:_ZN29HorizontalPercentBarChartItemC1EP18QAbstractBarSeriesP13QGraphicsItem
libQt6Charts.so.6:_ZN29HorizontalPercentBarChartItemC2EP18QAbstractBarSeriesP13QGraphicsItem
libQt6Charts.so.6:_ZN29HorizontalStackedBarChartItem11qt_metacallEN11QMetaObject4CallEiPPv
libQt6Charts.so.6:_ZN29HorizontalStackedBarChartItem11qt_metacastEPKc
libQt6Charts.so.6:_ZN29HorizontalStackedBarChartItem12topLeftPointEidd
libQt6Charts.so.6:_ZN29HorizontalStackedBarChartItem15calculateLayoutEv
libQt6Charts.so.6:_ZN29HorizontalStackedBarChartItem16bottomRightPointEidd
libQt6Charts.so.6:_ZN29HorizontalStackedBarChartItem16initializeLayoutEiiib
libQt6Charts.so.6:_ZN29HorizontalStackedBarChartItem16staticMetaObjectE
libQt6Charts.so.6:_ZN29HorizontalStackedBarChartItemC1EP18QAbstractBarSeriesP13QGraphicsItem
libQt6Charts.so.6:_ZN29HorizontalStackedBarChartItemC2EP18QAbstractBarSeriesP13QGraphicsItem
libQt6Charts.so.6:_ZN29PolarChartCategoryAxisAngular11qt_metacallEN11QMetaObject4CallEiPPv
libQt6Charts.so.6:_ZN29PolarChartCategoryAxisAngular11qt_metacastEPKc
libQt6Charts.so.6:_ZN29PolarChartCategoryAxisAngular16createAxisLabelsERK5QListIdE
libQt6Charts.so.6:_ZN29PolarChartCategoryAxisAngular16staticMetaObjectE
libQt6Charts.so.6:_ZN29PolarChartCategoryAxisAngular23handleCategoriesChangedEv
libQt6Charts.so.6:_ZN29PolarChartCategoryAxisAngularC1EP13QCategoryAxisP13QGraphicsItem
libQt6Charts.so.6:_ZN29PolarChartCategoryAxisAngularC2EP13QCategoryAxisP13QGraphicsItem
libQt6Charts.so.6:_ZN29PolarChartCategoryAxisAngularD0Ev
libQt6Charts.so.6:_ZN29PolarChartCategoryAxisAngularD1Ev
libQt6Charts.so.6:_ZN29PolarChartCategoryAxisAngularD2Ev
libQt6Charts.so.6:_ZN29PolarChartDateTimeAxisAngular11qt_metacallEN11QMetaObject4CallEiPPv
libQt6Charts.so.6:_ZN29PolarChartDateTimeAxisAngular11qt_metacastEPKc
libQt6Charts.so.6:_ZN29PolarChartDateTimeAxisAngular16createAxisLabelsERK5QListIdE
libQt6Charts.so.6:_ZN29PolarChartDateTimeAxisAngular16staticMetaObjectE
libQt6Charts.so.6:_ZN29PolarChartDateTimeAxisAngular19handleFormatChangedERK7QString
libQt6Charts.so.6:_ZN29PolarChartDateTimeAxisAngular22handleTickCountChangedEi
libQt6Charts.so.6:_ZN29PolarChartDateTimeAxisAngularC1EP13QDateTimeAxisP13QGraphicsItem
libQt6Charts.so.6:_ZN29PolarChartDateTimeAxisAngularC2EP13QDateTimeAxisP13QGraphicsItem
libQt6Charts.so.6:_ZN29PolarChartDateTimeAxisAngularD0Ev
libQt6Charts.so.6:_ZN29PolarChartDateTimeAxisAngularD1Ev
libQt6Charts.so.6:_ZN29PolarChartDateTimeAxisAngularD2Ev
libQt6Charts.so.6:_ZN29PolarChartLogValueAxisAngular11qt_metacallEN11QMetaObject4CallEiPPv
libQt6Charts.so.6:_ZN29PolarChartLogValueAxisAngular11qt_metacastEPKc
libQt6Charts.so.6:_ZN29PolarChartLogValueAxisAngular16createAxisLabelsERK5QListIdE
libQt6Charts.so.6:_ZN29PolarChartLogValueAxisAngular16staticMetaObjectE
libQt6Charts.so.6:_ZN29PolarChartLogValueAxisAngular17handleBaseChangedEd
libQt6Charts.so.6:_ZN29PolarChartLogValueAxisAngular24handleLabelFormatChangedERK7QString
libQt6Charts.so.6:_ZN29PolarChartLogValueAxisAngularC1EP13QLogValueAxisP13QGraphicsItem
libQt6Charts.so.6:_ZN29PolarChartLogValueAxisAngularC2EP13QLogValueAxisP13QGraphicsItem
libQt6Charts.so.6:_ZN29PolarChartLogValueAxisAngularD0Ev
libQt6Charts.so.6:_ZN29PolarChartLogValueAxisAngularD1Ev
libQt6Charts.so.6:_ZN29PolarChartLogValueAxisAngularD2Ev
libQt6Charts.so.6:_ZN30QCandlestickModelMapperPrivate10insertDataEii
libQt6Charts.so.6:_ZN30QCandlestickModelMapperPrivate10lowChangedEv
libQt6Charts.so.6:_ZN30QCandlestickModelMapperPrivate10removeDataEii
libQt6Charts.so.6:_ZN30QCandlestickModelMapperPrivate11highChangedEv
libQt6Charts.so.6:_ZN30QCandlestickModelMapperPrivate11openChangedEv
libQt6Charts.so.6:_ZN30QCandlestickModelMapperPrivate11qt_metacallEN11QMetaObject4CallEiPPv
libQt6Charts.so.6:_ZN30QCandlestickModelMapperPrivate11qt_metacastEPKc
libQt6Charts.so.6:_ZN30QCandlestickModelMapperPrivate12closeChangedEv
libQt6Charts.so.6:_ZN30QCandlestickModelMapperPrivate14candlestickSetE11QModelIndex
libQt6Charts.so.6:_ZN30QCandlestickModelMapperPrivate14modelDestroyedEv
libQt6Charts.so.6:_ZN30QCandlestickModelMapperPrivate15seriesDestroyedEv
libQt6Charts.so.6:_ZN30QCandlestickModelMapperPrivate16modelDataUpdatedE11QModelIndexS0_
libQt6Charts.so.6:_ZN30QCandlestickModelMapperPrivate16modelRowsRemovedE11QModelIndexii
libQt6Charts.so.6:_ZN30QCandlestickModelMapperPrivate16staticMetaObjectE
libQt6Charts.so.6:_ZN30QCandlestickModelMapperPrivate16timestampChangedEv
libQt6Charts.so.6:_ZN30QCandlestickModelMapperPrivate17blockModelSignalsEb
libQt6Charts.so.6:_ZN30QCandlestickModelMapperPrivate17modelRowsInsertedE11QModelIndexii
libQt6Charts.so.6:_ZN30QCandlestickModelMapperPrivate18blockSeriesSignalsEb
libQt6Charts.so.6:_ZN30QCandlestickModelMapperPrivate19modelColumnsRemovedE11QModelIndexii
libQt6Charts.so.6:_ZN30QCandlestickModelMapperPrivate20candlestickSetsAddedERK5QListIP15QCandlestickSetE
libQt6Charts.so.6:_ZN30QCandlestickModelMapperPrivate20modelColumnsInsertedE11QModelIndexii
libQt6Charts.so.6:_ZN30QCandlestickModelMapperPrivate21candlestickModelIndexEii
libQt6Charts.so.6:_ZN30QCandlestickModelMapperPrivate21candlestickSetChangedEv
libQt6Charts.so.6:_ZN30QCandlestickModelMapperPrivate21lastSetSectionChangedEv
libQt6Charts.so.6:_ZN30QCandlestickModelMapperPrivate22candlestickSetsRemovedERK5QListIP15QCandlestickSetE
libQt6Charts.so.6:_ZN30QCandlestickModelMapperPrivate22firstSetSectionChangedEv
libQt6Charts.so.6:_ZN30QCandlestickModelMapperPrivate22modelHeaderDataUpdatedEN2Qt11OrientationEii
libQt6Charts.so.6:_ZN30QCandlestickModelMapperPrivate30initializeCandlestickFromModelEv
libQt6Charts.so.6:_ZN30QCandlestickModelMapperPrivateC1EP23QCandlestickModelMapper
libQt6Charts.so.6:_ZN30QCandlestickModelMapperPrivateC2EP23QCandlestickModelMapper
libQt6Charts.so.6:_ZN31QCandlestickLegendMarkerPrivate11qt_metacallEN11QMetaObject4CallEiPPv
libQt6Charts.so.6:_ZN31QCandlestickLegendMarkerPrivate11qt_metacastEPKc
libQt6Charts.so.6:_ZN31QCandlestickLegendMarkerPrivate13relatedObjectEv
libQt6Charts.so.6:_ZN31QCandlestickLegendMarkerPrivate16staticMetaObjectE
libQt6Charts.so.6:_ZN31QCandlestickLegendMarkerPrivate6seriesEv
libQt6Charts.so.6:_ZN31QCandlestickLegendMarkerPrivate7updatedEv
libQt6Charts.so.6:_ZN31QCandlestickLegendMarkerPrivateC1EP24QCandlestickLegendMarkerP18QCandlestickSeriesP7QLegend
libQt6Charts.so.6:_ZN31QCandlestickLegendMarkerPrivateC2EP24QCandlestickLegendMarkerP18QCandlestickSeriesP7QLegend
libQt6Charts.so.6:_ZN31QCandlestickLegendMarkerPrivateD0Ev
libQt6Charts.so.6:_ZN31QCandlestickLegendMarkerPrivateD1Ev
libQt6Charts.so.6:_ZN31QCandlestickLegendMarkerPrivateD2Ev
libQt6Charts.so.6:_ZN34QHorizontalPercentBarSeriesPrivate16initializeDomainEv
libQt6Charts.so.6:_ZN34QHorizontalPercentBarSeriesPrivate18initializeGraphicsEP13QGraphicsItem
libQt6Charts.so.6:_ZN34QHorizontalPercentBarSeriesPrivateC1EP27QHorizontalPercentBarSeries
libQt6Charts.so.6:_ZN34QHorizontalPercentBarSeriesPrivateC2EP27QHorizontalPercentBarSeries
libQt6Charts.so.6:_ZN34QHorizontalStackedBarSeriesPrivate16initializeDomainEv
libQt6Charts.so.6:_ZN34QHorizontalStackedBarSeriesPrivate18initializeGraphicsEP13QGraphicsItem
libQt6Charts.so.6:_ZN34QHorizontalStackedBarSeriesPrivateC1EP27QHorizontalStackedBarSeries
libQt6Charts.so.6:_ZN34QHorizontalStackedBarSeriesPrivateC2EP27QHorizontalStackedBarSeries
libQt6Charts.so.6:_ZN3Bar11qt_metacallEN11QMetaObject4CallEiPPv
libQt6Charts.so.6:_ZN3Bar11qt_metacastEPKc
libQt6Charts.so.6:_ZN3Bar13doubleClickedEiP7QBarSet
libQt6Charts.so.6:_ZN3Bar15hoverEnterEventEP24QGraphicsSceneHoverEvent
libQt6Charts.so.6:_ZN3Bar15hoverLeaveEventEP24QGraphicsSceneHoverEvent
libQt6Charts.so.6:_ZN3Bar15mousePressEventEP24QGraphicsSceneMouseEvent
libQt6Charts.so.6:_ZN3Bar16staticMetaObjectE
libQt6Charts.so.6:_ZN3Bar17mouseReleaseEventEP24QGraphicsSceneMouseEvent
libQt6Charts.so.6:_ZN3Bar21mouseDoubleClickEventEP24QGraphicsSceneMouseEvent
libQt6Charts.so.6:_ZN3Bar5paintEP8QPainterPK24QStyleOptionGraphicsItemP7QWidget
libQt6Charts.so.6:_ZN3Bar7clickedEiP7QBarSet
libQt6Charts.so.6:_ZN3Bar7hoveredEbiP7QBarSet
libQt6Charts.so.6:_ZN3Bar7pressedEiP7QBarSet
libQt6Charts.so.6:_ZN3Bar8releasedEiP7QBarSet
libQt6Charts.so.6:_ZN3BarC1EP7QBarSetP13QGraphicsItem
libQt6Charts.so.6:_ZN3BarC2EP7QBarSetP13QGraphicsItem
libQt6Charts.so.6:_ZN3BarD0Ev
libQt6Charts.so.6:_ZN3BarD1Ev
libQt6Charts.so.6:_ZN3BarD2Ev
libQt6Charts.so.6:_ZN6QChart10mapToValueERK7QPointFP15QAbstractSeries
libQt6Charts.so.6:_ZN6QChart10removeAxisEP13QAbstractAxis
libQt6Charts.so.6:_ZN6QChart10setMarginsERK8QMargins
libQt6Charts.so.6:_ZN6QChart11qt_metacallEN11QMetaObject4CallEiPPv
libQt6Charts.so.6:_ZN6QChart11qt_metacastEPKc
libQt6Charts.so.6:_ZN6QChart11setPlotAreaERK6QRectF
libQt6Charts.so.6:_ZN6QChart12removeSeriesEP15QAbstractSeries
libQt6Charts.so.6:_ZN6QChart12setTitleFontERK5QFont
libQt6Charts.so.6:_ZN6QChart13mapToPositionERK7QPointFP15QAbstractSeries
libQt6Charts.so.6:_ZN6QChart13setTitleBrushERK6QBrush
libQt6Charts.so.6:_ZN6QChart15plotAreaChangedERK6QRectF
libQt6Charts.so.6:_ZN6QChart15removeAllSeriesEv
libQt6Charts.so.6:_ZN6QChart16setBackgroundPenERK4QPen
libQt6Charts.so.6:_ZN6QChart16staticMetaObjectE
libQt6Charts.so.6:_ZN6QChart17createDefaultAxesEv
libQt6Charts.so.6:_ZN6QChart18setBackgroundBrushERK6QBrush
libQt6Charts.so.6:_ZN6QChart18setLocalizeNumbersEb
libQt6Charts.so.6:_ZN6QChart19setAnimationOptionsE6QFlagsINS_15AnimationOptionEE
libQt6Charts.so.6:_ZN6QChart20setAnimationDurationEi
libQt6Charts.so.6:_ZN6QChart20setBackgroundVisibleEb
libQt6Charts.so.6:_ZN6QChart20setDropShadowEnabledEb
libQt6Charts.so.6:_ZN6QChart22setBackgroundRoundnessEd
libQt6Charts.so.6:_ZN6QChart23setAnimationEasingCurveERK12QEasingCurve
libQt6Charts.so.6:_ZN6QChart24setPlotAreaBackgroundPenERK4QPen
libQt6Charts.so.6:_ZN6QChart26setPlotAreaBackgroundBrushERK6QBrush
libQt6Charts.so.6:_ZN6QChart28setPlotAreaBackgroundVisibleEb
libQt6Charts.so.6:_ZN6QChart4zoomEd
libQt6Charts.so.6:_ZN6QChart6scrollEdd
libQt6Charts.so.6:_ZN6QChart6zoomInERK6QRectF
libQt6Charts.so.6:_ZN6QChart6zoomInEv
libQt6Charts.so.6:_ZN6QChart7addAxisEP13QAbstractAxis6QFlagsIN2Qt13AlignmentFlagEE
libQt6Charts.so.6:_ZN6QChart7zoomOutEv
libQt6Charts.so.6:_ZN6QChart8isZoomedEv
libQt6Charts.so.6:_ZN6QChart8setAxisXEP13QAbstractAxisP15QAbstractSeries
libQt6Charts.so.6:_ZN6QChart8setAxisYEP13QAbstractAxisP15QAbstractSeries
libQt6Charts.so.6:_ZN6QChart8setThemeENS_10ChartThemeE
libQt6Charts.so.6:_ZN6QChart8setTitleERK7QString
libQt6Charts.so.6:_ZN6QChart9addSeriesEP15QAbstractSeries
libQt6Charts.so.6:_ZN6QChart9setLocaleERK7QLocale
libQt6Charts.so.6:_ZN6QChart9zoomResetEv
libQt6Charts.so.6:_ZN6QChartC1ENS_9ChartTypeEP13QGraphicsItem6QFlagsIN2Qt10WindowTypeEE
libQt6Charts.so.6:_ZN6QChartC1EP13QGraphicsItem6QFlagsIN2Qt10WindowTypeEE
libQt6Charts.so.6:_ZN6QChartC2ENS_9ChartTypeEP13QGraphicsItem6QFlagsIN2Qt10WindowTypeEE
libQt6Charts.so.6:_ZN6QChartC2EP13QGraphicsItem6QFlagsIN2Qt10WindowTypeEE
libQt6Charts.so.6:_ZN6QChartD0Ev
libQt6Charts.so.6:_ZN6QChartD1Ev
libQt6Charts.so.6:_ZN6QChartD2Ev
libQt6Charts.so.6:_ZN7QBarSet10labelColorEv
libQt6Charts.so.6:_ZN7QBarSet10penChangedEv
libQt6Charts.so.6:_ZN7QBarSet10selectBarsERK5QListIiE
libQt6Charts.so.6:_ZN7QBarSet11borderColorEv
libQt6Charts.so.6:_ZN7QBarSet11deselectBarEi
libQt6Charts.so.6:_ZN7QBarSet11qt_metacallEN11QMetaObject4CallEiPPv
libQt6Charts.so.6:_ZN7QBarSet11qt_metacastEPKc
libQt6Charts.so.6:_ZN7QBarSet11valuesAddedEii
libQt6Charts.so.6:_ZN7QBarSet12brushChangedEv
libQt6Charts.so.6:_ZN7QBarSet12colorChangedE6QColor
libQt6Charts.so.6:_ZN7QBarSet12deselectBarsERK5QListIiE
libQt6Charts.so.6:_ZN7QBarSet12labelChangedEv
libQt6Charts.so.6:_ZN7QBarSet12setLabelFontERK5QFont
libQt6Charts.so.6:_ZN7QBarSet12valueChangedEi
libQt6Charts.so.6:_ZN7QBarSet13doubleClickedEi
libQt6Charts.so.6:_ZN7QBarSet13selectAllBarsEv
libQt6Charts.so.6:_ZN7QBarSet13setLabelBrushERK6QBrush
libQt6Charts.so.6:_ZN7QBarSet13setLabelColorE6QColor
libQt6Charts.so.6:_ZN7QBarSet13valuesRemovedEii
libQt6Charts.so.6:_ZN7QBarSet14setBarSelectedEib
libQt6Charts.so.6:_ZN7QBarSet14setBorderColorE6QColor
libQt6Charts.so.6:_ZN7QBarSet15deselectAllBarsEv
libQt6Charts.so.6:_ZN7QBarSet15toggleSelectionERK5QListIiE
libQt6Charts.so.6:_ZN7QBarSet16labelFontChangedEv
libQt6Charts.so.6:_ZN7QBarSet16setSelectedColorERK6QColor
libQt6Charts.so.6:_ZN7QBarSet16staticMetaObjectE
libQt6Charts.so.6:_ZN7QBarSet17labelBrushChangedEv
libQt6Charts.so.6:_ZN7QBarSet17labelColorChangedE6QColor
libQt6Charts.so.6:_ZN7QBarSet18borderColorChangedE6QColor
libQt6Charts.so.6:_ZN7QBarSet19selectedBarsChangedERK5QListIiE
libQt6Charts.so.6:_ZN7QBarSet20selectedColorChangedERK6QColor
libQt6Charts.so.6:_ZN7QBarSet5colorEv
libQt6Charts.so.6:_ZN7QBarSet6appendERK5QListIdE
libQt6Charts.so.6:_ZN7QBarSet6appendEd
libQt6Charts.so.6:_ZN7QBarSet6insertEid
libQt6Charts.so.6:_ZN7QBarSet6removeEii
libQt6Charts.so.6:_ZN7QBarSet6setPenERK4QPen
libQt6Charts.so.6:_ZN7QBarSet7clickedEi
libQt6Charts.so.6:_ZN7QBarSet7hoveredEbi
libQt6Charts.so.6:_ZN7QBarSet7pressedEi
libQt6Charts.so.6:_ZN7QBarSet7replaceEid
libQt6Charts.so.6:_ZN7QBarSet8releasedEi
libQt6Charts.so.6:_ZN7QBarSet8setBrushERK6QBrush
libQt6Charts.so.6:_ZN7QBarSet8setColorE6QColor
libQt6Charts.so.6:_ZN7QBarSet8setLabelE7QString
libQt6Charts.so.6:_ZN7QBarSet9selectBarEi
libQt6Charts.so.6:_ZN7QBarSetC1E7QStringP7QObject
libQt6Charts.so.6:_ZN7QBarSetC2E7QStringP7QObject
libQt6Charts.so.6:_ZN7QBarSetD0Ev
libQt6Charts.so.6:_ZN7QBarSetD1Ev
libQt6Charts.so.6:_ZN7QBarSetD2Ev
libQt6Charts.so.6:_ZN7QBarSetlsERKd
libQt6Charts.so.6:_ZN7QBoxSet10penChangedEv
libQt6Charts.so.6:_ZN7QBoxSet11qt_metacallEN11QMetaObject4CallEiPPv
libQt6Charts.so.6:_ZN7QBoxSet11qt_metacastEPKc
libQt6Charts.so.6:_ZN7QBoxSet12brushChangedEv
libQt6Charts.so.6:_ZN7QBoxSet12valueChangedEi
libQt6Charts.so.6:_ZN7QBoxSet13doubleClickedEv
libQt6Charts.so.6:_ZN7QBoxSet13valuesChangedEv
libQt6Charts.so.6:_ZN7QBoxSet16staticMetaObjectE
libQt6Charts.so.6:_ZN7QBoxSet5clearEv
libQt6Charts.so.6:_ZN7QBoxSet6appendERK5QListIdE
libQt6Charts.so.6:_ZN7QBoxSet6appendEd
libQt6Charts.so.6:_ZN7QBoxSet6setPenERK4QPen
libQt6Charts.so.6:_ZN7QBoxSet7clearedEv
libQt6Charts.so.6:_ZN7QBoxSet7clickedEv
libQt6Charts.so.6:_ZN7QBoxSet7hoveredEb
libQt6Charts.so.6:_ZN7QBoxSet7pressedEv
libQt6Charts.so.6:_ZN7QBoxSet8releasedEv
libQt6Charts.so.6:_ZN7QBoxSet8setBrushERK6QBrush
libQt6Charts.so.6:_ZN7QBoxSet8setLabelE7QString
libQt6Charts.so.6:_ZN7QBoxSet8setValueEid
libQt6Charts.so.6:_ZN7QBoxSetC1E7QStringP7QObject
libQt6Charts.so.6:_ZN7QBoxSetC1Eddddd7QStringP7QObject
libQt6Charts.so.6:_ZN7QBoxSetC2E7QStringP7QObject
libQt6Charts.so.6:_ZN7QBoxSetC2Eddddd7QStringP7QObject
libQt6Charts.so.6:_ZN7QBoxSetD0Ev
libQt6Charts.so.6:_ZN7QBoxSetD1Ev
libQt6Charts.so.6:_ZN7QBoxSetD2Ev
libQt6Charts.so.6:_ZN7QBoxSetlsERKd
libQt6Charts.so.6:_ZN7QLegend11borderColorEv
libQt6Charts.so.6:_ZN7QLegend11fontChangedE5QFont
libQt6Charts.so.6:_ZN7QLegend11qt_metacallEN11QMetaObject4CallEiPPv
libQt6Charts.so.6:_ZN7QLegend11qt_metacastEPKc
libQt6Charts.so.6:_ZN7QLegend12colorChangedE6QColor
libQt6Charts.so.6:_ZN7QLegend12setAlignmentE6QFlagsIN2Qt13AlignmentFlagEE
libQt6Charts.so.6:_ZN7QLegend13attachToChartEv
libQt6Charts.so.6:_ZN7QLegend13setLabelBrushERK6QBrush
libQt6Charts.so.6:_ZN7QLegend13setLabelColorE6QColor
libQt6Charts.so.6:_ZN7QLegend14reverseMarkersEv
libQt6Charts.so.6:_ZN7QLegend14setBorderColorE6QColor
libQt6Charts.so.6:_ZN7QLegend14setInteractiveEb
libQt6Charts.so.6:_ZN7QLegend14setMarkerShapeENS_11MarkerShapeE
libQt6Charts.so.6:_ZN7QLegend15detachFromChartEv
libQt6Charts.so.6:_ZN7QLegend15setShowToolTipsEb
libQt6Charts.so.6:_ZN7QLegend16staticMetaObjectE
libQt6Charts.so.6:_ZN7QLegend17isAttachedToChartEv
libQt6Charts.so.6:_ZN7QLegend17labelColorChangedE6QColor
libQt6Charts.so.6:_ZN7QLegend17setReverseMarkersEb
libQt6Charts.so.6:_ZN7QLegend18borderColorChangedE6QColor
libQt6Charts.so.6:_ZN7QLegend18interactiveChangedEb
libQt6Charts.so.6:_ZN7QLegend18markerShapeChangedENS_11MarkerShapeE
libQt6Charts.so.6:_ZN7QLegend19showToolTipsChangedEb
libQt6Charts.so.6:_ZN7QLegend20setBackgroundVisibleEb
libQt6Charts.so.6:_ZN7QLegend21reverseMarkersChangedEb
libQt6Charts.so.6:_ZN7QLegend22attachedToChartChangedEb
libQt6Charts.so.6:_ZN7QLegend24backgroundVisibleChangedEb
libQt6Charts.so.6:_ZN7QLegend5colorEv
libQt6Charts.so.6:_ZN7QLegend5paintEP8QPainterPK24QStyleOptionGraphicsItemP7QWidget
libQt6Charts.so.6:_ZN7QLegend6setPenERK4QPen
libQt6Charts.so.6:_ZN7QLegend7setFontERK5QFont
libQt6Charts.so.6:_ZN7QLegend8setBrushERK6QBrush
libQt6Charts.so.6:_ZN7QLegend8setColorE6QColor
libQt6Charts.so.6:_ZN7QLegend9hideEventEP10QHideEvent
libQt6Charts.so.6:_ZN7QLegend9showEventEP10QShowEvent
libQt6Charts.so.6:_ZN7QLegendC1EP6QChart
libQt6Charts.so.6:_ZN7QLegendC2EP6QChart
libQt6Charts.so.6:_ZN7QLegendD0Ev
libQt6Charts.so.6:_ZN7QLegendD1Ev
libQt6Charts.so.6:_ZN7QLegendD2Ev
libQt6Charts.so.6:_ZN7XYChart11qt_metacallEN11QMetaObject4CallEiPPv
libQt6Charts.so.6:_ZN7XYChart11qt_metacastEPKc
libQt6Charts.so.6:_ZN7XYChart11updateChartERK5QListI7QPointFES4_i
libQt6Charts.so.6:_ZN7XYChart12setAnimationEP11XYAnimation
libQt6Charts.so.6:_ZN7XYChart13doubleClickedERK7QPointF
libQt6Charts.so.6:_ZN7XYChart13updateGlChartEv
libQt6Charts.so.6:_ZN7XYChart14refreshGlChartEv
libQt6Charts.so.6:_ZN7XYChart16handlePointAddedEi
libQt6Charts.so.6:_ZN7XYChart16staticMetaObjectE
libQt6Charts.so.6:_ZN7XYChart17setGeometryPointsERK5QListI7QPointFE
libQt6Charts.so.6:_ZN7XYChart18handlePointRemovedEi
libQt6Charts.so.6:_ZN7XYChart19handleDomainUpdatedEv
libQt6Charts.so.6:_ZN7XYChart19handlePointReplacedEi
libQt6Charts.so.6:_ZN7XYChart19handlePointsRemovedEii
libQt6Charts.so.6:_ZN7XYChart19handleSeriesUpdatedEv
libQt6Charts.so.6:_ZN7XYChart19matchForLightMarkerERK7QPointF
libQt6Charts.so.6:_ZN7XYChart19offGridStatusVectorEv
libQt6Charts.so.6:_ZN7XYChart20handlePointsReplacedEv
libQt6Charts.so.6:_ZN7XYChart7clickedERK7QPointF
libQt6Charts.so.6:_ZN7XYChart7hoveredERK7QPointFb
libQt6Charts.so.6:_ZN7XYChart7pressedERK7QPointF
libQt6Charts.so.6:_ZN7XYChart8releasedERK7QPointF
libQt6Charts.so.6:_ZN7XYChart8setDirtyEb
libQt6Charts.so.6:_ZN7XYChartC1EP9QXYSeriesP13QGraphicsItem
libQt6Charts.so.6:_ZN7XYChartC2EP9QXYSeriesP13QGraphicsItem
libQt6Charts.so.6:_ZN8Scroller10lowerSpeedER7QPointFd
libQt6Charts.so.6:_ZN8Scroller10scrollTickEv
libQt6Charts.so.6:_ZN8Scroller10stopTickerEv
libQt6Charts.so.6:_ZN8Scroller11startTickerEi
libQt6Charts.so.6:_ZN8Scroller20handleMouseMoveEventEP24QGraphicsSceneMouseEvent
libQt6Charts.so.6:_ZN8Scroller21handleMousePressEventEP24QGraphicsSceneMouseEvent
libQt6Charts.so.6:_ZN8Scroller23handleMouseReleaseEventEP24QGraphicsSceneMouseEvent
libQt6Charts.so.6:_ZN8Scroller4moveERK7QPointF
libQt6Charts.so.6:_ZN8Scroller8scrollToERK7QPointF
libQt6Charts.so.6:_ZN8ScrollerC1Ev
libQt6Charts.so.6:_ZN8ScrollerC2Ev
libQt6Charts.so.6:_ZN8ScrollerD0Ev
libQt6Charts.so.6:_ZN8ScrollerD1Ev
libQt6Charts.so.6:_ZN8ScrollerD2Ev
libQt6Charts.so.6:_ZN8XYDomain11qt_metacallEN11QMetaObject4CallEiPPv
libQt6Charts.so.6:_ZN8XYDomain11qt_metacastEPKc
libQt6Charts.so.6:_ZN8XYDomain16staticMetaObjectE
libQt6Charts.so.6:_ZN8XYDomain4moveEdd
libQt6Charts.so.6:_ZN8XYDomain6zoomInERK6QRectF
libQt6Charts.so.6:_ZN8XYDomain7zoomOutERK6QRectF
libQt6Charts.so.6:_ZN8XYDomain8setRangeEdddd
libQt6Charts.so.6:_ZN8XYDomainC1EP7QObject
libQt6Charts.so.6:_ZN8XYDomainC2EP7QObject
libQt6Charts.so.6:_ZN8XYDomainD0Ev
libQt6Charts.so.6:_ZN8XYDomainD1Ev
libQt6Charts.so.6:_ZN8XYDomainD2Ev
libQt6Charts.so.6:_ZN9ChartItem11qt_metacallEN11QMetaObject4CallEiPPv
libQt6Charts.so.6:_ZN9ChartItem11qt_metacastEPKc
libQt6Charts.so.6:_ZN9ChartItem16staticMetaObjectE
libQt6Charts.so.6:_ZN9ChartItem19handleDomainUpdatedEv
libQt6Charts.so.6:_ZN9ChartItem7cleanupEv
libQt6Charts.so.6:_ZN9ChartItemC1EP22QAbstractSeriesPrivateP13QGraphicsItem
libQt6Charts.so.6:_ZN9ChartItemC2EP22QAbstractSeriesPrivateP13QGraphicsItem
libQt6Charts.so.6:_ZN9QPieSlice10labelColorEv
libQt6Charts.so.6:_ZN9QPieSlice10penChangedEv
libQt6Charts.so.6:_ZN9QPieSlice11borderColorEv
libQt6Charts.so.6:_ZN9QPieSlice11borderWidthEv
libQt6Charts.so.6:_ZN9QPieSlice11qt_metacallEN11QMetaObject4CallEiPPv
libQt6Charts.so.6:_ZN9QPieSlice11qt_metacastEPKc
libQt6Charts.so.6:_ZN9QPieSlice11setExplodedEb
libQt6Charts.so.6:_ZN9QPieSlice12brushChangedEv
libQt6Charts.so.6:_ZN9QPieSlice12colorChangedEv
libQt6Charts.so.6:_ZN9QPieSlice12labelChangedEv
libQt6Charts.so.6:_ZN9QPieSlice12setLabelFontERK5QFont
libQt6Charts.so.6:_ZN9QPieSlice12valueChangedEv
libQt6Charts.so.6:_ZN9QPieSlice13doubleClickedEv
libQt6Charts.so.6:_ZN9QPieSlice13labelPositionEv
libQt6Charts.so.6:_ZN9QPieSlice13setLabelBrushERK6QBrush
libQt6Charts.so.6:_ZN9QPieSlice13setLabelColorE6QColor
libQt6Charts.so.6:_ZN9QPieSlice14setBorderColorE6QColor
libQt6Charts.so.6:_ZN9QPieSlice14setBorderWidthEi
libQt6Charts.so.6:_ZN9QPieSlice15setLabelVisibleEb
libQt6Charts.so.6:_ZN9QPieSlice16angleSpanChangedEv
libQt6Charts.so.6:_ZN9QPieSlice16labelFontChangedEv
libQt6Charts.so.6:_ZN9QPieSlice16setLabelPositionENS_13LabelPositionE
libQt6Charts.so.6:_ZN9QPieSlice16staticMetaObjectE
libQt6Charts.so.6:_ZN9QPieSlice17labelBrushChangedEv
libQt6Charts.so.6:_ZN9QPieSlice17labelColorChangedEv
libQt6Charts.so.6:_ZN9QPieSlice17percentageChangedEv
libQt6Charts.so.6:_ZN9QPieSlice17startAngleChangedEv
libQt6Charts.so.6:_ZN9QPieSlice18borderColorChangedEv
libQt6Charts.so.6:_ZN9QPieSlice18borderWidthChangedEv
libQt6Charts.so.6:_ZN9QPieSlice19labelVisibleChangedEv
libQt6Charts.so.6:_ZN9QPieSlice23setLabelArmLengthFactorEd
libQt6Charts.so.6:_ZN9QPieSlice24setExplodeDistanceFactorEd
libQt6Charts.so.6:_ZN9QPieSlice5colorEv
libQt6Charts.so.6:_ZN9QPieSlice6setPenERK4QPen
libQt6Charts.so.6:_ZN9QPieSlice7clickedEv
libQt6Charts.so.6:_ZN9QPieSlice7hoveredEb
libQt6Charts.so.6:_ZN9QPieSlice7pressedEv
libQt6Charts.so.6:_ZN9QPieSlice8releasedEv
libQt6Charts.so.6:_ZN9QPieSlice8setBrushERK6QBrush
libQt6Charts.so.6:_ZN9QPieSlice8setColorE6QColor
libQt6Charts.so.6:_ZN9QPieSlice8setLabelE7QString
libQt6Charts.so.6:_ZN9QPieSlice8setValueEd
libQt6Charts.so.6:_ZN9QPieSliceC1E7QStringdP7QObject
libQt6Charts.so.6:_ZN9QPieSliceC1EP7QObject
libQt6Charts.so.6:_ZN9QPieSliceC2E7QStringdP7QObject
libQt6Charts.so.6:_ZN9QPieSliceC2EP7QObject
libQt6Charts.so.6:_ZN9QPieSliceD0Ev
libQt6Charts.so.6:_ZN9QPieSliceD1Ev
libQt6Charts.so.6:_ZN9QPieSliceD2Ev
libQt6Charts.so.6:_ZN9QXYSeries10penChangedERK4QPen
libQt6Charts.so.6:_ZN9QXYSeries10pointAddedEi
libQt6Charts.so.6:_ZN9QXYSeries11qt_metacallEN11QMetaObject4CallEiPPv
libQt6Charts.so.6:_ZN9QXYSeries11qt_metacastEPKc
libQt6Charts.so.6:_ZN9QXYSeries11selectPointEi
libQt6Charts.so.6:_ZN9QXYSeries12colorChangedE6QColor
libQt6Charts.so.6:_ZN9QXYSeries12pointRemovedEi
libQt6Charts.so.6:_ZN9QXYSeries12removePointsEii
libQt6Charts.so.6:_ZN9QXYSeries12selectPointsERK5QListIiE
libQt6Charts.so.6:_ZN9QXYSeries13deselectPointEi
libQt6Charts.so.6:_ZN9QXYSeries13doubleClickedERK7QPointF
libQt6Charts.so.6:_ZN9QXYSeries13pointReplacedEi
libQt6Charts.so.6:_ZN9QXYSeries13pointsRemovedEii
libQt6Charts.so.6:_ZN9QXYSeries13setMarkerSizeEd
libQt6Charts.so.6:_ZN9QXYSeries14deselectPointsERK5QListIiE
libQt6Charts.so.6:_ZN9QXYSeries14pointsReplacedEv
libQt6Charts.so.6:_ZN9QXYSeries14setLightMarkerERK6QImage
libQt6Charts.so.6:_ZN9QXYSeries15isPointSelectedEi
libQt6Charts.so.6:_ZN9QXYSeries15selectAllPointsEv
libQt6Charts.so.6:_ZN9QXYSeries15toggleSelectionERK5QListIiE
libQt6Charts.so.6:_ZN9QXYSeries16setPointSelectedEib
libQt6Charts.so.6:_ZN9QXYSeries16setPointsVisibleEb
libQt6Charts.so.6:_ZN9QXYSeries16setSelectedColorERK6QColor
libQt6Charts.so.6:_ZN9QXYSeries16staticMetaObjectE
libQt6Charts.so.6:_ZN9QXYSeries17deselectAllPointsEv
libQt6Charts.so.6:_ZN9QXYSeries17markerSizeChangedEd
libQt6Charts.so.6:_ZN9QXYSeries17setBestFitLinePenERK4QPen
libQt6Charts.so.6:_ZN9QXYSeries18lightMarkerChangedERK6QImage
libQt6Charts.so.6:_ZN9QXYSeries18setPointLabelsFontERK5QFont
libQt6Charts.so.6:_ZN9QXYSeries19setBestFitLineColorERK6QColor
libQt6Charts.so.6:_ZN9QXYSeries19setPointLabelsColorERK6QColor
libQt6Charts.so.6:_ZN9QXYSeries20selectedColorChangedERK6QColor
libQt6Charts.so.6:_ZN9QXYSeries20setPointLabelsFormatERK7QString
libQt6Charts.so.6:_ZN9QXYSeries21bestFitLinePenChangedERK4QPen
libQt6Charts.so.6:_ZN9QXYSeries21selectedPointsChangedEv
libQt6Charts.so.6:_ZN9QXYSeries21setBestFitLineVisibleEb
libQt6Charts.so.6:_ZN9QXYSeries21setPointConfigurationEiNS_18PointConfigurationERK8QVariant
libQt6Charts.so.6:_ZN9QXYSeries21setPointConfigurationEiRK5QHashINS_18PointConfigurationE8QVariantE
libQt6Charts.so.6:_ZN9QXYSeries21setPointLabelsVisibleEb
libQt6Charts.so.6:_ZN9QXYSeries22pointLabelsFontChangedERK5QFont
libQt6Charts.so.6:_ZN9QXYSeries22setPointLabelsClippingEb
libQt6Charts.so.6:_ZN9QXYSeries22setPointsConfigurationERK5QHashIiS0_INS_18PointConfigurationE8QVariantEE
libQt6Charts.so.6:_ZN9QXYSeries22setSelectedLightMarkerERK6QImage
libQt6Charts.so.6:_ZN9QXYSeries23bestFitLineColorChangedERK6QColor
libQt6Charts.so.6:_ZN9QXYSeries23clearPointConfigurationEi
libQt6Charts.so.6:_ZN9QXYSeries23clearPointConfigurationEiNS_18PointConfigurationE
libQt6Charts.so.6:_ZN9QXYSeries23pointLabelsColorChangedERK6QColor
libQt6Charts.so.6:_ZN9QXYSeries24clearPointsConfigurationENS_18PointConfigurationE
libQt6Charts.so.6:_ZN9QXYSeries24clearPointsConfigurationEv
libQt6Charts.so.6:_ZN9QXYSeries24pointLabelsFormatChangedERK7QString
libQt6Charts.so.6:_ZN9QXYSeries26pointLabelsClippingChangedEb
libQt6Charts.so.6:_ZN9QXYSeries26pointsConfigurationChangedERK5QHashIiS0_INS_18PointConfigurationE8QVariantEE
libQt6Charts.so.6:_ZN9QXYSeries26selectedLightMarkerChangedERK6QImage
libQt6Charts.so.6:_ZN9QXYSeries28bestFitLineVisibilityChangedEb
libQt6Charts.so.6:_ZN9QXYSeries28pointLabelsVisibilityChangedEb
libQt6Charts.so.6:_ZN9QXYSeries5clearEv
libQt6Charts.so.6:_ZN9QXYSeries6appendERK5QListI7QPointFE
libQt6Charts.so.6:_ZN9QXYSeries6appendERK7QPointF
libQt6Charts.so.6:_ZN9QXYSeries6appendEdd
libQt6Charts.so.6:_ZN9QXYSeries6insertEiRK7QPointF
libQt6Charts.so.6:_ZN9QXYSeries6removeERK7QPointF
libQt6Charts.so.6:_ZN9QXYSeries6removeEdd
libQt6Charts.so.6:_ZN9QXYSeries6removeEi
libQt6Charts.so.6:_ZN9QXYSeries6setPenERK4QPen
libQt6Charts.so.6:_ZN9QXYSeries6sizeByERK5QListIdEdd
libQt6Charts.so.6:_ZN9QXYSeries7clickedERK7QPointF
libQt6Charts.so.6:_ZN9QXYSeries7colorByERK5QListIdERK15QLinearGradient
libQt6Charts.so.6:_ZN9QXYSeries7hoveredERK7QPointFb
libQt6Charts.so.6:_ZN9QXYSeries7pressedERK7QPointF
libQt6Charts.so.6:_ZN9QXYSeries7replaceERK5QListI7QPointFE
libQt6Charts.so.6:_ZN9QXYSeries7replaceERK7QPointFS2_
libQt6Charts.so.6:_ZN9QXYSeries7replaceEdddd
libQt6Charts.so.6:_ZN9QXYSeries7replaceEiRK7QPointF
libQt6Charts.so.6:_ZN9QXYSeries7replaceEidd
libQt6Charts.so.6:_ZN9QXYSeries8releasedERK7QPointF
libQt6Charts.so.6:_ZN9QXYSeries8setBrushERK6QBrush
libQt6Charts.so.6:_ZN9QXYSeries8setColorERK6QColor
libQt6Charts.so.6:_ZN9QXYSeriesC1ER16QXYSeriesPrivateP7QObject
libQt6Charts.so.6:_ZN9QXYSeriesC2ER16QXYSeriesPrivateP7QObject
libQt6Charts.so.6:_ZN9QXYSeriesD0Ev
libQt6Charts.so.6:_ZN9QXYSeriesD1Ev
libQt6Charts.so.6:_ZN9QXYSeriesD2Ev
libQt6Charts.so.6:_ZN9QXYSerieslsERK5QListI7QPointFE
libQt6Charts.so.6:_ZN9QXYSerieslsERK7QPointF
libQt6Charts.so.6:_ZNK10ChartTitle4textEv
libQt6Charts.so.6:_ZNK10ChartTitle8sizeHintEN2Qt8SizeHintERK6QSizeF
libQt6Charts.so.6:_ZNK10QBarSeries10metaObjectEv
libQt6Charts.so.6:_ZNK10QBarSeries4typeEv
libQt6Charts.so.6:_ZNK10QChartView10metaObjectEv
libQt6Charts.so.6:_ZNK10QChartView10rubberBandEv
libQt6Charts.so.6:_ZNK10QChartView5chartEv
libQt6Charts.so.6:_ZNK10QColorAxis10metaObjectEv
libQt6Charts.so.6:_ZNK10QColorAxis3maxEv
libQt6Charts.so.6:_ZNK10QColorAxis3minEv
libQt6Charts.so.6:_ZNK10QColorAxis4sizeEv
libQt6Charts.so.6:_ZNK10QColorAxis4typeEv
libQt6Charts.so.6:_ZNK10QColorAxis8gradientEv
libQt6Charts.so.6:_ZNK10QColorAxis9autoRangeEv
libQt6Charts.so.6:_ZNK10QColorAxis9tickCountEv
libQt6Charts.so.6:_ZNK10QPieSeries10metaObjectEv
libQt6Charts.so.6:_ZNK10QPieSeries11pieEndAngleEv
libQt6Charts.so.6:_ZNK10QPieSeries13pieStartAngleEv
libQt6Charts.so.6:_ZNK10QPieSeries16verticalPositionEv
libQt6Charts.so.6:_ZNK10QPieSeries18horizontalPositionEv
libQt6Charts.so.6:_ZNK10QPieSeries3sumEv
libQt6Charts.so.6:_ZNK10QPieSeries4typeEv
libQt6Charts.so.6:_ZNK10QPieSeries5countEv
libQt6Charts.so.6:_ZNK10QPieSeries6slicesEv
libQt6Charts.so.6:_ZNK10QPieSeries7isEmptyEv
libQt6Charts.so.6:_ZNK10QPieSeries7pieSizeEv
libQt6Charts.so.6:_ZNK10QPieSeries8holeSizeEv
libQt6Charts.so.6:_ZNK10QValueAxis10metaObjectEv
libQt6Charts.so.6:_ZNK10QValueAxis10tickAnchorEv
libQt6Charts.so.6:_ZNK10QValueAxis11labelFormatEv
libQt6Charts.so.6:_ZNK10QValueAxis12tickIntervalEv
libQt6Charts.so.6:_ZNK10QValueAxis14minorTickCountEv
libQt6Charts.so.6:_ZNK10QValueAxis3maxEv
libQt6Charts.so.6:_ZNK10QValueAxis3minEv
libQt6Charts.so.6:_ZNK10QValueAxis4typeEv
libQt6Charts.so.6:_ZNK10QValueAxis8tickTypeEv
libQt6Charts.so.6:_ZNK10QValueAxis9tickCountEv
libQt6Charts.so.6:_ZNK11BoxWhiskers10metaObjectEv
libQt6Charts.so.6:_ZNK11BoxWhiskers12boundingRectEv
libQt6Charts.so.6:_ZNK11BoxWhiskers8sizeHintEN2Qt8SizeHintERK6QSizeF
libQt6Charts.so.6:_ZNK11Candlestick10metaObjectEv
libQt6Charts.so.6:_ZNK11Candlestick12boundingRectEv
libQt6Charts.so.6:_ZNK11LogXYDomain10metaObjectEv
libQt6Charts.so.6:_ZNK11LogXYDomain20calculateDomainPointERK7QPointF
libQt6Charts.so.6:_ZNK11LogXYDomain22calculateGeometryPointERK7QPointFRb
libQt6Charts.so.6:_ZNK11LogXYDomain23calculateGeometryPointsERK5QListI7QPointFE
libQt6Charts.so.6:_ZNK11PolarDomain10metaObjectEv
libQt6Charts.so.6:_ZNK11PolarDomain22calculateGeometryPointERK7QPointFRb
libQt6Charts.so.6:_ZNK11PolarDomain22polarCoordinateToPointEdd
libQt6Charts.so.6:_ZNK11PolarDomain23calculateGeometryPointsERK5QListI7QPointFE
libQt6Charts.so.6:_ZNK11QAreaSeries10metaObjectEv
libQt6Charts.so.6:_ZNK11QAreaSeries11borderColorEv
libQt6Charts.so.6:_ZNK11QAreaSeries11lowerSeriesEv
libQt6Charts.so.6:_ZNK11QAreaSeries11upperSeriesEv
libQt6Charts.so.6:_ZNK11QAreaSeries13pointsVisibleEv
libQt6Charts.so.6:_ZNK11QAreaSeries15pointLabelsFontEv
libQt6Charts.so.6:_ZNK11QAreaSeries16pointLabelsColorEv
libQt6Charts.so.6:_ZNK11QAreaSeries17pointLabelsFormatEv
libQt6Charts.so.6:_ZNK11QAreaSeries18pointLabelsVisibleEv
libQt6Charts.so.6:_ZNK11QAreaSeries19pointLabelsClippingEv
libQt6Charts.so.6:_ZNK11QAreaSeries3penEv
libQt6Charts.so.6:_ZNK11QAreaSeries4typeEv
libQt6Charts.so.6:_ZNK11QAreaSeries5brushEv
libQt6Charts.so.6:_ZNK11QAreaSeries5colorEv
libQt6Charts.so.6:_ZNK11QLineSeries10metaObjectEv
libQt6Charts.so.6:_ZNK11QLineSeries4typeEv
libQt6Charts.so.6:_ZNK11QPolarChart10metaObjectEv
libQt6Charts.so.6:_ZNK11QPolarChart4axesE6QFlagsINS_16PolarOrientationEEP15QAbstractSeries
libQt6Charts.so.6:_ZNK11XLogYDomain10metaObjectEv
libQt6Charts.so.6:_ZNK11XLogYDomain20calculateDomainPointERK7QPointF
libQt6Charts.so.6:_ZNK11XLogYDomain22calculateGeometryPointERK7QPointFRb
libQt6Charts.so.6:_ZNK11XLogYDomain23calculateGeometryPointsERK5QListI7QPointFE
libQt6Charts.so.6:_ZNK11XYAnimation12interpolatedERK8QVariantS2_d
libQt6Charts.so.6:_ZNK12BarAnimation10metaObjectEv
libQt6Charts.so.6:_ZNK12BarAnimation12interpolatedERK8QVariantS2_d
libQt6Charts.so.6:_ZNK12BarChartItem10metaObjectEv
libQt6Charts.so.6:_ZNK12ChartDataSet10metaObjectEv
libQt6Charts.so.6:_ZNK12ChartDataSet15domainForSeriesEP15QAbstractSeries
libQt6Charts.so.6:_ZNK12ChartDataSet4axesEv
libQt6Charts.so.6:_ZNK12ChartDataSet6seriesEv
libQt6Charts.so.6:_ZNK12ChartElement12themeManagerEv
libQt6Charts.so.6:_ZNK12ChartElement7dataSetEv
libQt6Charts.so.6:_ZNK12ChartElement9presenterEv
libQt6Charts.so.6:_ZNK12LegendLayout6offsetEv
libQt6Charts.so.6:_ZNK12LegendLayout8sizeHintEN2Qt8SizeHintERK6QSizeF
libQt6Charts.so.6:_ZNK12PieAnimation10metaObjectEv
libQt6Charts.so.6:_ZNK12PieChartItem10metaObjectEv
libQt6Charts.so.6:_ZNK12PieChartItem9animationEv
libQt6Charts.so.6:_ZNK12PieSliceItem10metaObjectEv
libQt6Charts.so.6:_ZNK12PieSliceItem12boundingRectEv
libQt6Charts.so.6:_ZNK12PieSliceItem5shapeEv
libQt6Charts.so.6:_ZNK12ScrollTicker10metaObjectEv
libQt6Charts.so.6:_ZNK12VerticalAxis8sizeHintEN2Qt8SizeHintERK6QSizeF
libQt6Charts.so.6:_ZNK13AreaChartItem10metaObjectEv
libQt6Charts.so.6:_ZNK13AreaChartItem12boundingRectEv
libQt6Charts.so.6:_ZNK13AreaChartItem5shapeEv
libQt6Charts.so.6:_ZNK13AxisAnimation12interpolatedERK8QVariantS2_d
libQt6Charts.so.6:_ZNK13LineChartItem10metaObjectEv
libQt6Charts.so.6:_ZNK13LineChartItem12boundingRectEv
libQt6Charts.so.6:_ZNK13LineChartItem5shapeEv
libQt6Charts.so.6:_ZNK13QAbstractAxis10labelsFontEv
libQt6Charts.so.6:_ZNK13QAbstractAxis10metaObjectEv
libQt6Charts.so.6:_ZNK13QAbstractAxis10titleBrushEv
libQt6Charts.so.6:_ZNK13QAbstractAxis11gridLinePenEv
libQt6Charts.so.6:_ZNK13QAbstractAxis11labelsAngleEv
libQt6Charts.so.6:_ZNK13QAbstractAxis11labelsBrushEv
libQt6Charts.so.6:_ZNK13QAbstractAxis11labelsColorEv
libQt6Charts.so.6:_ZNK13QAbstractAxis11orientationEv
libQt6Charts.so.6:_ZNK13QAbstractAxis11shadesBrushEv
libQt6Charts.so.6:_ZNK13QAbstractAxis11shadesColorEv
libQt6Charts.so.6:_ZNK13QAbstractAxis12linePenColorEv
libQt6Charts.so.6:_ZNK13QAbstractAxis13isLineVisibleEv
libQt6Charts.so.6:_ZNK13QAbstractAxis13labelsVisibleEv
libQt6Charts.so.6:_ZNK13QAbstractAxis13shadesVisibleEv
libQt6Charts.so.6:_ZNK13QAbstractAxis14isTitleVisibleEv
libQt6Charts.so.6:_ZNK13QAbstractAxis14labelsEditableEv
libQt6Charts.so.6:_ZNK13QAbstractAxis14truncateLabelsEv
libQt6Charts.so.6:_ZNK13QAbstractAxis15labelsTruncatedEv
libQt6Charts.so.6:_ZNK13QAbstractAxis16minorGridLinePenEv
libQt6Charts.so.6:_ZNK13QAbstractAxis17isGridLineVisibleEv
libQt6Charts.so.6:_ZNK13QAbstractAxis17shadesBorderColorEv
libQt6Charts.so.6:_ZNK13QAbstractAxis22isMinorGridLineVisibleEv
libQt6Charts.so.6:_ZNK13QAbstractAxis7linePenEv
libQt6Charts.so.6:_ZNK13QAbstractAxis9alignmentEv
libQt6Charts.so.6:_ZNK13QAbstractAxis9isReverseEv
libQt6Charts.so.6:_ZNK13QAbstractAxis9isVisibleEv
libQt6Charts.so.6:_ZNK13QAbstractAxis9shadesPenEv
libQt6Charts.so.6:_ZNK13QAbstractAxis9titleFontEv
libQt6Charts.so.6:_ZNK13QAbstractAxis9titleTextEv
libQt6Charts.so.6:_ZNK13QCategoryAxis10metaObjectEv
libQt6Charts.so.6:_ZNK13QCategoryAxis10startValueERK7QString
libQt6Charts.so.6:_ZNK13QCategoryAxis14labelsPositionEv
libQt6Charts.so.6:_ZNK13QCategoryAxis4typeEv
libQt6Charts.so.6:_ZNK13QCategoryAxis5countEv
libQt6Charts.so.6:_ZNK13QCategoryAxis8endValueERK7QString
libQt6Charts.so.6:_ZNK13QDateTimeAxis10metaObjectEv
libQt6Charts.so.6:_ZNK13QDateTimeAxis3maxEv
libQt6Charts.so.6:_ZNK13QDateTimeAxis3minEv
libQt6Charts.so.6:_ZNK13QDateTimeAxis4typeEv
libQt6Charts.so.6:_ZNK13QDateTimeAxis6formatEv
libQt6Charts.so.6:_ZNK13QDateTimeAxis9tickCountEv
libQt6Charts.so.6:_ZNK13QLegendMarker10labelBrushEv
libQt6Charts.so.6:_ZNK13QLegendMarker10metaObjectEv
libQt6Charts.so.6:_ZNK13QLegendMarker3penEv
libQt6Charts.so.6:_ZNK13QLegendMarker4fontEv
libQt6Charts.so.6:_ZNK13QLegendMarker5brushEv
libQt6Charts.so.6:_ZNK13QLegendMarker5labelEv
libQt6Charts.so.6:_ZNK13QLegendMarker5shapeEv
libQt6Charts.so.6:_ZNK13QLegendMarker9isVisibleEv
libQt6Charts.so.6:_ZNK13QLogValueAxis10metaObjectEv
libQt6Charts.so.6:_ZNK13QLogValueAxis11labelFormatEv
libQt6Charts.so.6:_ZNK13QLogValueAxis14minorTickCountEv
libQt6Charts.so.6:_ZNK13QLogValueAxis3maxEv
libQt6Charts.so.6:_ZNK13QLogValueAxis3minEv
libQt6Charts.so.6:_ZNK13QLogValueAxis4baseEv
libQt6Charts.so.6:_ZNK13QLogValueAxis4typeEv
libQt6Charts.so.6:_ZNK13QLogValueAxis9tickCountEv
libQt6Charts.so.6:_ZNK13QSplineSeries10metaObjectEv
libQt6Charts.so.6:_ZNK13QSplineSeries4typeEv
libQt6Charts.so.6:_ZNK13XYPolarDomain10metaObjectEv
libQt6Charts.so.6:_ZNK13XYPolarDomain18toRadialCoordinateEdRb
libQt6Charts.so.6:_ZNK13XYPolarDomain19toAngularCoordinateEdRb
libQt6Charts.so.6:_ZNK13XYPolarDomain20calculateDomainPointERK7QPointF
libQt6Charts.so.6:_ZNK14AbstractDomain10metaObjectEv
libQt6Charts.so.6:_ZNK14AbstractDomain4sizeEv
libQt6Charts.so.6:_ZNK14AbstractDomain5spanXEv
libQt6Charts.so.6:_ZNK14AbstractDomain5spanYEv
libQt6Charts.so.6:_ZNK14AbstractDomain7isEmptyEv
libQt6Charts.so.6:_ZNK14ChartAnimation10metaObjectEv
libQt6Charts.so.6:_ZNK14ChartPresenter10chartItemsEv
libQt6Charts.so.6:_ZNK14ChartPresenter10metaObjectEv
libQt6Charts.so.6:_ZNK14ChartPresenter10titleBrushEv
libQt6Charts.so.6:_ZNK14ChartPresenter13backgroundPenEv
libQt6Charts.so.6:_ZNK14ChartPresenter15backgroundBrushEv
libQt6Charts.so.6:_ZNK14ChartPresenter16animationOptionsEv
libQt6Charts.so.6:_ZNK14ChartPresenter19backgroundRoundnessEv
libQt6Charts.so.6:_ZNK14ChartPresenter19isBackgroundVisibleEv
libQt6Charts.so.6:_ZNK14ChartPresenter21plotAreaBackgroundPenEv
libQt6Charts.so.6:_ZNK14ChartPresenter23plotAreaBackgroundBrushEv
libQt6Charts.so.6:_ZNK14ChartPresenter27isPlotAreaBackgroundVisibleEv
libQt6Charts.so.6:_ZNK14ChartPresenter29isBackgroundDropShadowEnabledEv
libQt6Charts.so.6:_ZNK14ChartPresenter5titleEv
libQt6Charts.so.6:_ZNK14ChartPresenter8geometryEv
libQt6Charts.so.6:_ZNK14ChartPresenter9axisItemsEv
libQt6Charts.so.6:_ZNK14ChartPresenter9titleFontEv
libQt6Charts.so.6:_ZNK14HorizontalAxis8sizeHintEN2Qt8SizeHintERK6QSizeF
libQt6Charts.so.6:_ZNK14LegendScroller10metaObjectEv
libQt6Charts.so.6:_ZNK14LegendScroller6offsetEv
libQt6Charts.so.6:_ZNK14LogXLogYDomain10metaObjectEv
libQt6Charts.so.6:_ZNK14LogXLogYDomain20calculateDomainPointERK7QPointF
libQt6Charts.so.6:_ZNK14LogXLogYDomain22calculateGeometryPointERK7QPointFRb
libQt6Charts.so.6:_ZNK14LogXLogYDomain23calculateGeometryPointsERK5QListI7QPointFE
libQt6Charts.so.6:_ZNK14PolarChartAxis10metaObjectEv
libQt6Charts.so.6:_ZNK14PolarChartAxis12gridGeometryEv
libQt6Charts.so.6:_ZNK14PolarChartAxis9emptyAxisEv
libQt6Charts.so.6:_ZNK14QBarSetPrivate10metaObjectEv
libQt6Charts.so.6:_ZNK14QBarSetPrivate13isBarSelectedEi
libQt6Charts.so.6:_ZNK14QBoxPlotSeries10metaObjectEv
libQt6Charts.so.6:_ZNK14QBoxPlotSeries3penEv
libQt6Charts.so.6:_ZNK14QBoxPlotSeries4typeEv
libQt6Charts.so.6:_ZNK14QBoxPlotSeries5brushEv
libQt6Charts.so.6:_ZNK14QBoxPlotSeries5countEv
libQt6Charts.so.6:_ZNK14QBoxPlotSeries7boxSetsEv
libQt6Charts.so.6:_ZNK14QBoxSetPrivate10metaObjectEv
libQt6Charts.so.6:_ZNK14QLegendPrivate10metaObjectEv
libQt6Charts.so.6:_ZNK14QLegendPrivate14maxMarkerWidthEv
libQt6Charts.so.6:_ZNK14QLegendPrivate6offsetEv
libQt6Charts.so.6:_ZNK14QScatterSeries10markerSizeEv
libQt6Charts.so.6:_ZNK14QScatterSeries10metaObjectEv
libQt6Charts.so.6:_ZNK14QScatterSeries11borderColorEv
libQt6Charts.so.6:_ZNK14QScatterSeries11markerShapeEv
libQt6Charts.so.6:_ZNK14QScatterSeries4typeEv
libQt6Charts.so.6:_ZNK14QScatterSeries5brushEv
libQt6Charts.so.6:_ZNK14QScatterSeries5colorEv
libQt6Charts.so.6:_ZNK14QXYModelMapper10metaObjectEv
libQt6Charts.so.6:_ZNK14QXYModelMapper11orientationEv
libQt6Charts.so.6:_ZNK14QXYModelMapper5countEv
libQt6Charts.so.6:_ZNK14QXYModelMapper5firstEv
libQt6Charts.so.6:_ZNK14QXYModelMapper5modelEv
libQt6Charts.so.6:_ZNK14QXYModelMapper6seriesEv
libQt6Charts.so.6:_ZNK14QXYModelMapper8xSectionEv
libQt6Charts.so.6:_ZNK14QXYModelMapper8ySectionEv
libQt6Charts.so.6:_ZNK14ValueAxisLabel10metaObjectEv
libQt6Charts.so.6:_ZNK14ValueAxisLabel5valueEv
libQt6Charts.so.6:_ZNK15ChartBackground8diameterEv
libQt6Charts.so.6:_ZNK15ChartColorAxisX10metaObjectEv
libQt6Charts.so.6:_ZNK15ChartColorAxisX15calculateLayoutEv
libQt6Charts.so.6:_ZNK15ChartColorAxisX8sizeHintEN2Qt8SizeHintERK6QSizeF
libQt6Charts.so.6:_ZNK15ChartColorAxisY10metaObjectEv
libQt6Charts.so.6:_ZNK15ChartColorAxisY15calculateLayoutEv
libQt6Charts.so.6:_ZNK15ChartColorAxisY8sizeHintEN2Qt8SizeHintERK6QSizeF
libQt6Charts.so.6:_ZNK15ChartValueAxisX10metaObjectEv
libQt6Charts.so.6:_ZNK15ChartValueAxisX15calculateLayoutEv
libQt6Charts.so.6:_ZNK15ChartValueAxisX8sizeHintEN2Qt8SizeHintERK6QSizeF
libQt6Charts.so.6:_ZNK15ChartValueAxisY10metaObjectEv
libQt6Charts.so.6:_ZNK15ChartValueAxisY15calculateLayoutEv
libQt6Charts.so.6:_ZNK15ChartValueAxisY8sizeHintEN2Qt8SizeHintERK6QSizeF
libQt6Charts.so.6:_ZNK15QAbstractSeries10metaObjectEv
libQt6Charts.so.6:_ZNK15QAbstractSeries4nameEv
libQt6Charts.so.6:_ZNK15QAbstractSeries5chartEv
libQt6Charts.so.6:_ZNK15QAbstractSeries7opacityEv
libQt6Charts.so.6:_ZNK15QAbstractSeries9isVisibleEv
libQt6Charts.so.6:_ZNK15QAbstractSeries9useOpenGLEv
libQt6Charts.so.6:_ZNK15QBarModelMapper10metaObjectEv
libQt6Charts.so.6:_ZNK15QBarModelMapper11orientationEv
libQt6Charts.so.6:_ZNK15QBarModelMapper17lastBarSetSectionEv
libQt6Charts.so.6:_ZNK15QBarModelMapper18firstBarSetSectionEv
libQt6Charts.so.6:_ZNK15QBarModelMapper5countEv
libQt6Charts.so.6:_ZNK15QBarModelMapper5firstEv
libQt6Charts.so.6:_ZNK15QBarModelMapper5modelEv
libQt6Charts.so.6:_ZNK15QBarModelMapper6seriesEv
libQt6Charts.so.6:_ZNK15QCandlestickSet10metaObjectEv
libQt6Charts.so.6:_ZNK15QCandlestickSet3lowEv
libQt6Charts.so.6:_ZNK15QCandlestickSet3penEv
libQt6Charts.so.6:_ZNK15QCandlestickSet4highEv
libQt6Charts.so.6:_ZNK15QCandlestickSet4openEv
libQt6Charts.so.6:_ZNK15QCandlestickSet5brushEv
libQt6Charts.so.6:_ZNK15QCandlestickSet5closeEv
libQt6Charts.so.6:_ZNK15QCandlestickSet9timestampEv
libQt6Charts.so.6:_ZNK15QHXYModelMapper10metaObjectEv
libQt6Charts.so.6:_ZNK15QHXYModelMapper11columnCountEv
libQt6Charts.so.6:_ZNK15QHXYModelMapper11firstColumnEv
libQt6Charts.so.6:_ZNK15QHXYModelMapper4xRowEv
libQt6Charts.so.6:_ZNK15QHXYModelMapper4yRowEv
libQt6Charts.so.6:_ZNK15QHXYModelMapper5modelEv
libQt6Charts.so.6:_ZNK15QHXYModelMapper6seriesEv
libQt6Charts.so.6:_ZNK15QPieModelMapper10metaObjectEv
libQt6Charts.so.6:_ZNK15QPieModelMapper11orientationEv
libQt6Charts.so.6:_ZNK15QPieModelMapper13labelsSectionEv
libQt6Charts.so.6:_ZNK15QPieModelMapper13valuesSectionEv
libQt6Charts.so.6:_ZNK15QPieModelMapper5countEv
libQt6Charts.so.6:_ZNK15QPieModelMapper5firstEv
libQt6Charts.so.6:_ZNK15QPieModelMapper5modelEv
libQt6Charts.so.6:_ZNK15QPieModelMapper6seriesEv
libQt6Charts.so.6:_ZNK15QVXYModelMapper10metaObjectEv
libQt6Charts.so.6:_ZNK15QVXYModelMapper5modelEv
libQt6Charts.so.6:_ZNK15QVXYModelMapper6seriesEv
libQt6Charts.so.6:_ZNK15QVXYModelMapper7xColumnEv
libQt6Charts.so.6:_ZNK15QVXYModelMapper7yColumnEv
libQt6Charts.so.6:_ZNK15QVXYModelMapper8firstRowEv
libQt6Charts.so.6:_ZNK15QVXYModelMapper8rowCountEv
libQt6Charts.so.6:_ZNK15QXYLegendMarker10metaObjectEv
libQt6Charts.so.6:_ZNK15SplineAnimation12interpolatedERK8QVariantS2_d
libQt6Charts.so.6:_ZNK15SplineChartItem10metaObjectEv
libQt6Charts.so.6:_ZNK15SplineChartItem12boundingRectEv
libQt6Charts.so.6:_ZNK15SplineChartItem21controlGeometryPointsEv
libQt6Charts.so.6:_ZNK15SplineChartItem5shapeEv
libQt6Charts.so.6:_ZNK15SplineChartItem9animationEv
libQt6Charts.so.6:_ZNK16BoxPlotAnimation10metaObjectEv
libQt6Charts.so.6:_ZNK16BoxPlotChartItem10metaObjectEv
libQt6Charts.so.6:_ZNK16BoxPlotChartItem12boundingRectEv
libQt6Charts.so.6:_ZNK16ChartAxisElement10metaObjectEv
libQt6Charts.so.6:_ZNK16ChartAxisElement10tickAnchorEv
libQt6Charts.so.6:_ZNK16ChartAxisElement11formatLabelERK7QStringRK10QByteArraydiS2_S2_
libQt6Charts.so.6:_ZNK16ChartAxisElement12tickIntervalEv
libQt6Charts.so.6:_ZNK16ChartAxisElement14labelsEditableEv
libQt6Charts.so.6:_ZNK16ChartAxisElement17createColorLabelsEddi
libQt6Charts.so.6:_ZNK16ChartAxisElement17createValueLabelsEddiddN10QValueAxis8TickTypeERK7QString
libQt6Charts.so.6:_ZNK16ChartAxisElement20createDateTimeLabelsEddiRK7QString
libQt6Charts.so.6:_ZNK16ChartAxisElement20createLogValueLabelsEdddiRK7QString
libQt6Charts.so.6:_ZNK16ChartAxisElement3maxEv
libQt6Charts.so.6:_ZNK16ChartAxisElement3minEv
libQt6Charts.so.6:_ZNK16ChartAxisElement9emptyAxisEv
libQt6Charts.so.6:_ZNK16LegendMarkerItem10labelBrushEv
libQt6Charts.so.6:_ZNK16LegendMarkerItem10markerRectEv
libQt6Charts.so.6:_ZNK16LegendMarkerItem10metaObjectEv
libQt6Charts.so.6:_ZNK16LegendMarkerItem11markerShapeEv
libQt6Charts.so.6:_ZNK16LegendMarkerItem11useMaxWidthEv
libQt6Charts.so.6:_ZNK16LegendMarkerItem12boundingRectEv
libQt6Charts.so.6:_ZNK16LegendMarkerItem14displayedLabelEv
libQt6Charts.so.6:_ZNK16LegendMarkerItem20effectiveMarkerShapeEv
libQt6Charts.so.6:_ZNK16LegendMarkerItem20effectiveMarkerWidthEv
libQt6Charts.so.6:_ZNK16LegendMarkerItem3penEv
libQt6Charts.so.6:_ZNK16LegendMarkerItem4fontEv
libQt6Charts.so.6:_ZNK16LegendMarkerItem5brushEv
libQt6Charts.so.6:_ZNK16LegendMarkerItem5labelEv
libQt6Charts.so.6:_ZNK16LegendMarkerItem8sizeHintEN2Qt8SizeHintERK6QSizeF
libQt6Charts.so.6:_ZNK16LogXYPolarDomain10metaObjectEv
libQt6Charts.so.6:_ZNK16LogXYPolarDomain18toRadialCoordinateEdRb
libQt6Charts.so.6:_ZNK16LogXYPolarDomain19toAngularCoordinateEdRb
libQt6Charts.so.6:_ZNK16LogXYPolarDomain20calculateDomainPointERK7QPointF
libQt6Charts.so.6:_ZNK16PolarChartLayout20calculateAxisMinimumERK6QRectFRK5QListIP16ChartAxisElementE
libQt6Charts.so.6:_ZNK16PolarChartLayout21calculateAxisGeometryERK6QRectFRK5QListIP16ChartAxisElementEb
libQt6Charts.so.6:_ZNK16QBarCategoryAxis10metaObjectEv
libQt6Charts.so.6:_ZNK16QBarCategoryAxis2atEi
libQt6Charts.so.6:_ZNK16QBarCategoryAxis3maxEv
libQt6Charts.so.6:_ZNK16QBarCategoryAxis3minEv
libQt6Charts.so.6:_ZNK16QBarCategoryAxis4typeEv
libQt6Charts.so.6:_ZNK16QBarCategoryAxis5countEv
libQt6Charts.so.6:_ZNK16QBarLegendMarker10metaObjectEv
libQt6Charts.so.6:_ZNK16QHBarModelMapper10metaObjectEv
libQt6Charts.so.6:_ZNK16QHBarModelMapper11columnCountEv
libQt6Charts.so.6:_ZNK16QHBarModelMapper11firstColumnEv
libQt6Charts.so.6:_ZNK16QHBarModelMapper13lastBarSetRowEv
libQt6Charts.so.6:_ZNK16QHBarModelMapper14firstBarSetRowEv
libQt6Charts.so.6:_ZNK16QHBarModelMapper5modelEv
libQt6Charts.so.6:_ZNK16QHBarModelMapper6seriesEv
libQt6Charts.so.6:_ZNK16QHPieModelMapper10metaObjectEv
libQt6Charts.so.6:_ZNK16QHPieModelMapper11columnCountEv
libQt6Charts.so.6:_ZNK16QHPieModelMapper11firstColumnEv
libQt6Charts.so.6:_ZNK16QHPieModelMapper5modelEv
libQt6Charts.so.6:_ZNK16QHPieModelMapper6seriesEv
libQt6Charts.so.6:_ZNK16QHPieModelMapper9labelsRowEv
libQt6Charts.so.6:_ZNK16QHPieModelMapper9valuesRowEv
libQt6Charts.so.6:_ZNK16QPieLegendMarker10metaObjectEv
libQt6Charts.so.6:_ZNK16QPieSlicePrivate10metaObjectEv
libQt6Charts.so.6:_ZNK16QVBarModelMapper10metaObjectEv
libQt6Charts.so.6:_ZNK16QVBarModelMapper16lastBarSetColumnEv
libQt6Charts.so.6:_ZNK16QVBarModelMapper17firstBarSetColumnEv
libQt6Charts.so.6:_ZNK16QVBarModelMapper5modelEv
libQt6Charts.so.6:_ZNK16QVBarModelMapper6seriesEv
libQt6Charts.so.6:_ZNK16QVBarModelMapper8firstRowEv
libQt6Charts.so.6:_ZNK16QVBarModelMapper8rowCountEv
libQt6Charts.so.6:_ZNK16QVPieModelMapper10metaObjectEv
libQt6Charts.so.6:_ZNK16QVPieModelMapper12labelsColumnEv
libQt6Charts.so.6:_ZNK16QVPieModelMapper12valuesColumnEv
libQt6Charts.so.6:_ZNK16QVPieModelMapper5modelEv
libQt6Charts.so.6:_ZNK16QVPieModelMapper6seriesEv
libQt6Charts.so.6:_ZNK16QVPieModelMapper8firstRowEv
libQt6Charts.so.6:_ZNK16QVPieModelMapper8rowCountEv
libQt6Charts.so.6:_ZNK16QXYSeriesPrivate10metaObjectEv
libQt6Charts.so.6:_ZNK16QXYSeriesPrivate11colorByDataEv
libQt6Charts.so.6:_ZNK16QXYSeriesPrivate15defaultAxisTypeEN2Qt11OrientationE
libQt6Charts.so.6:_ZNK16QXYSeriesPrivate17createDefaultAxisEN2Qt11OrientationE
libQt6Charts.so.6:_ZNK16QXYSeriesPrivate19bestFitLineEquationERb
libQt6Charts.so.6:_ZNK16ScatterChartItem10metaObjectEv
libQt6Charts.so.6:_ZNK16ScatterChartItem12boundingRectEv
libQt6Charts.so.6:_ZNK16XLogYPolarDomain10metaObjectEv
libQt6Charts.so.6:_ZNK16XLogYPolarDomain18toRadialCoordinateEdRb
libQt6Charts.so.6:_ZNK16XLogYPolarDomain19toAngularCoordinateEdRb
libQt6Charts.so.6:_ZNK16XLogYPolarDomain20calculateDomainPointERK7QPointF
libQt6Charts.so.6:_ZNK17ChartThemeManager10metaObjectEv
libQt6Charts.so.6:_ZNK17ChartThemeManager11seriesCountEN15QAbstractSeries10SeriesTypeE
libQt6Charts.so.6:_ZNK17ChartThemeManager13decorateChartEP6QChartP10ChartTheme
libQt6Charts.so.6:_ZNK17ChartThemeManager14createIndexKeyERK5QListIiE
libQt6Charts.so.6:_ZNK17ChartThemeManager14decorateLegendEP7QLegendP10ChartTheme
libQt6Charts.so.6:_ZNK17DateTimeAxisLabel10metaObjectEv
libQt6Charts.so.6:_ZNK17DateTimeAxisLabel5valueEv
libQt6Charts.so.6:_ZNK17EditableAxisLabel10metaObjectEv
libQt6Charts.so.6:_ZNK17EditableAxisLabel12boundingRectEv
libQt6Charts.so.6:_ZNK17PieSliceAnimation12interpolatedERK8QVariantS2_d
libQt6Charts.so.6:_ZNK17QAreaLegendMarker10metaObjectEv
libQt6Charts.so.6:_ZNK17QColorAxisPrivate10metaObjectEv
libQt6Charts.so.6:_ZNK17QPercentBarSeries10metaObjectEv
libQt6Charts.so.6:_ZNK17QPercentBarSeries4typeEv
libQt6Charts.so.6:_ZNK17QPieSeriesPrivate10metaObjectEv
libQt6Charts.so.6:_ZNK17QPieSeriesPrivate15defaultAxisTypeEN2Qt11OrientationE
libQt6Charts.so.6:_ZNK17QPieSeriesPrivate17createDefaultAxisEN2Qt11OrientationE
libQt6Charts.so.6:_ZNK17QStackedBarSeries10metaObjectEv
libQt6Charts.so.6:_ZNK17QStackedBarSeries4typeEv
libQt6Charts.so.6:_ZNK17QValueAxisPrivate10metaObjectEv
libQt6Charts.so.6:_ZNK18CartesianChartAxis10metaObjectEv
libQt6Charts.so.6:_ZNK18CartesianChartAxis8sizeHintEN2Qt8SizeHintERK6QSizeF
libQt6Charts.so.6:_ZNK18CartesianChartAxis9emptyAxisEv
libQt6Charts.so.6:_ZNK18ChartCategoryAxisX10metaObjectEv
libQt6Charts.so.6:_ZNK18ChartCategoryAxisX15calculateLayoutEv
libQt6Charts.so.6:_ZNK18ChartCategoryAxisX8sizeHintEN2Qt8SizeHintERK6QSizeF
libQt6Charts.so.6:_ZNK18ChartCategoryAxisY10metaObjectEv
libQt6Charts.so.6:_ZNK18ChartCategoryAxisY15calculateLayoutEv
libQt6Charts.so.6:_ZNK18ChartCategoryAxisY8sizeHintEN2Qt8SizeHintERK6QSizeF
libQt6Charts.so.6:_ZNK18ChartDateTimeAxisX10metaObjectEv
libQt6Charts.so.6:_ZNK18ChartDateTimeAxisX15calculateLayoutEv
libQt6Charts.so.6:_ZNK18ChartDateTimeAxisX8sizeHintEN2Qt8SizeHintERK6QSizeF
libQt6Charts.so.6:_ZNK18ChartDateTimeAxisY10metaObjectEv
libQt6Charts.so.6:_ZNK18ChartDateTimeAxisY15calculateLayoutEv
libQt6Charts.so.6:_ZNK18ChartDateTimeAxisY8sizeHintEN2Qt8SizeHintERK6QSizeF
libQt6Charts.so.6:_ZNK18ChartLogValueAxisX10metaObjectEv
libQt6Charts.so.6:_ZNK18ChartLogValueAxisX15calculateLayoutEv
libQt6Charts.so.6:_ZNK18ChartLogValueAxisX8sizeHintEN2Qt8SizeHintERK6QSizeF
libQt6Charts.so.6:_ZNK18ChartLogValueAxisY10metaObjectEv
libQt6Charts.so.6:_ZNK18ChartLogValueAxisY15calculateLayoutEv
libQt6Charts.so.6:_ZNK18ChartLogValueAxisY8sizeHintEN2Qt8SizeHintERK6QSizeF
libQt6Charts.so.6:_ZNK18QAbstractBarSeries10metaObjectEv
libQt6Charts.so.6:_ZNK18QAbstractBarSeries11labelsAngleEv
libQt6Charts.so.6:_ZNK18QAbstractBarSeries12labelsFormatEv
libQt6Charts.so.6:_ZNK18QAbstractBarSeries14labelsPositionEv
libQt6Charts.so.6:_ZNK18QAbstractBarSeries15isLabelsVisibleEv
libQt6Charts.so.6:_ZNK18QAbstractBarSeries15labelsPrecisionEv
libQt6Charts.so.6:_ZNK18QAbstractBarSeries5countEv
libQt6Charts.so.6:_ZNK18QAbstractBarSeries7barSetsEv
libQt6Charts.so.6:_ZNK18QAbstractBarSeries8barWidthEv
libQt6Charts.so.6:_ZNK18QAreaSeriesPrivate10metaObjectEv
libQt6Charts.so.6:_ZNK18QAreaSeriesPrivate15defaultAxisTypeEN2Qt11OrientationE
libQt6Charts.so.6:_ZNK18QAreaSeriesPrivate17createDefaultAxisEN2Qt11OrientationE
libQt6Charts.so.6:_ZNK18QCandlestickSeries10metaObjectEv
libQt6Charts.so.6:_ZNK18QCandlestickSeries11capsVisibleEv
libQt6Charts.so.6:_ZNK18QCandlestickSeries15decreasingColorEv
libQt6Charts.so.6:_ZNK18QCandlestickSeries15increasingColorEv
libQt6Charts.so.6:_ZNK18QCandlestickSeries18bodyOutlineVisibleEv
libQt6Charts.so.6:_ZNK18QCandlestickSeries18maximumColumnWidthEv
libQt6Charts.so.6:_ZNK18QCandlestickSeries18minimumColumnWidthEv
libQt6Charts.so.6:_ZNK18QCandlestickSeries3penEv
libQt6Charts.so.6:_ZNK18QCandlestickSeries4setsEv
libQt6Charts.so.6:_ZNK18QCandlestickSeries4typeEv
libQt6Charts.so.6:_ZNK18QCandlestickSeries5brushEv
libQt6Charts.so.6:_ZNK18QCandlestickSeries5countEv
libQt6Charts.so.6:_ZNK18QCandlestickSeries9bodyWidthEv
libQt6Charts.so.6:_ZNK18QCandlestickSeries9capsWidthEv
libQt6Charts.so.6:_ZNK19AbstractChartLayout21calculateTitleMinimumERK6QRectFP10ChartTitle
libQt6Charts.so.6:_ZNK19AbstractChartLayout22calculateLegendMinimumERK6QRectFP7QLegend
libQt6Charts.so.6:_ZNK19AbstractChartLayout22calculateTitleGeometryERK6QRectFP10ChartTitleb
libQt6Charts.so.6:_ZNK19AbstractChartLayout23calculateContentMinimumERK6QRectF
libQt6Charts.so.6:_ZNK19AbstractChartLayout23calculateLegendGeometryERK6QRectFP7QLegendb
libQt6Charts.so.6:_ZNK19AbstractChartLayout24calculateContentGeometryERK6QRectF
libQt6Charts.so.6:_ZNK19AbstractChartLayout26calculateBackgroundMinimumERK6QRectF
libQt6Charts.so.6:_ZNK19AbstractChartLayout27calculateBackgroundGeometryERK6QRectFP15ChartBackgroundb
libQt6Charts.so.6:_ZNK19AbstractChartLayout7marginsEv
libQt6Charts.so.6:_ZNK19AbstractChartLayout8sizeHintEN2Qt8SizeHintERK6QSizeF
libQt6Charts.so.6:_ZNK19LogXLogYPolarDomain10metaObjectEv
libQt6Charts.so.6:_ZNK19LogXLogYPolarDomain18toRadialCoordinateEdRb
libQt6Charts.so.6:_ZNK19LogXLogYPolarDomain19toAngularCoordinateEdRb
libQt6Charts.so.6:_ZNK19LogXLogYPolarDomain20calculateDomainPointERK7QPointF
libQt6Charts.so.6:_ZNK19PercentBarChartItem10metaObjectEv
libQt6Charts.so.6:_ZNK19QBoxPlotModelMapper10metaObjectEv
libQt6Charts.so.6:_ZNK19QBoxPlotModelMapper11orientationEv
libQt6Charts.so.6:_ZNK19QBoxPlotModelMapper17lastBoxSetSectionEv
libQt6Charts.so.6:_ZNK19QBoxPlotModelMapper18firstBoxSetSectionEv
libQt6Charts.so.6:_ZNK19QBoxPlotModelMapper5countEv
libQt6Charts.so.6:_ZNK19QBoxPlotModelMapper5firstEv
libQt6Charts.so.6:_ZNK19QBoxPlotModelMapper5modelEv
libQt6Charts.so.6:_ZNK19QBoxPlotModelMapper6seriesEv
libQt6Charts.so.6:_ZNK19StackedBarChartItem10metaObjectEv
libQt6Charts.so.6:_ZNK20AbstractBarChartItem10metaObjectEv
libQt6Charts.so.6:_ZNK20AbstractBarChartItem12boundingRectEv
libQt6Charts.so.6:_ZNK20AbstractBarChartItem9animationEv
libQt6Charts.so.6:_ZNK20BoxWhiskersAnimation10metaObjectEv
libQt6Charts.so.6:_ZNK20BoxWhiskersAnimation12interpolatedERK8QVariantS2_d
libQt6Charts.so.6:_ZNK20CandlestickAnimation10metaObjectEv
libQt6Charts.so.6:_ZNK20CandlestickChartItem10metaObjectEv
libQt6Charts.so.6:_ZNK20CandlestickChartItem12boundingRectEv
libQt6Charts.so.6:_ZNK20CartesianChartLayout20calculateAxisMinimumERK6QRectFRK5QListIP16ChartAxisElementE
libQt6Charts.so.6:_ZNK20CartesianChartLayout21calculateAxisGeometryERK6QRectFRK5QListIP16ChartAxisElementEb
libQt6Charts.so.6:_ZNK20PolarChartAxisRadial10metaObjectEv
libQt6Charts.so.6:_ZNK20PolarChartAxisRadial11orientationEv
libQt6Charts.so.6:_ZNK20PolarChartAxisRadial8sizeHintEN2Qt8SizeHintERK6QSizeF
libQt6Charts.so.6:_ZNK20QAbstractAxisPrivate10metaObjectEv
libQt6Charts.so.6:_ZNK20QBoxPlotLegendMarker10metaObjectEv
libQt6Charts.so.6:_ZNK20QCategoryAxisPrivate10metaObjectEv
libQt6Charts.so.6:_ZNK20QCategoryAxisPrivate10ticksCountEv
libQt6Charts.so.6:_ZNK20QDateTimeAxisPrivate10metaObjectEv
libQt6Charts.so.6:_ZNK20QHBoxPlotModelMapper10metaObjectEv
libQt6Charts.so.6:_ZNK20QHBoxPlotModelMapper11columnCountEv
libQt6Charts.so.6:_ZNK20QHBoxPlotModelMapper11firstColumnEv
libQt6Charts.so.6:_ZNK20QHBoxPlotModelMapper13lastBoxSetRowEv
libQt6Charts.so.6:_ZNK20QHBoxPlotModelMapper14firstBoxSetRowEv
libQt6Charts.so.6:_ZNK20QHBoxPlotModelMapper5modelEv
libQt6Charts.so.6:_ZNK20QHBoxPlotModelMapper6seriesEv
libQt6Charts.so.6:_ZNK20QHorizontalBarSeries10metaObjectEv
libQt6Charts.so.6:_ZNK20QHorizontalBarSeries4typeEv
libQt6Charts.so.6:_ZNK20QLegendMarkerPrivate10metaObjectEv
libQt6Charts.so.6:_ZNK20QLogValueAxisPrivate10metaObjectEv
libQt6Charts.so.6:_ZNK20QSplineSeriesPrivate10metaObjectEv
libQt6Charts.so.6:_ZNK20QVBoxPlotModelMapper10metaObjectEv
libQt6Charts.so.6:_ZNK20QVBoxPlotModelMapper16lastBoxSetColumnEv
libQt6Charts.so.6:_ZNK20QVBoxPlotModelMapper17firstBoxSetColumnEv
libQt6Charts.so.6:_ZNK20QVBoxPlotModelMapper5modelEv
libQt6Charts.so.6:_ZNK20QVBoxPlotModelMapper6seriesEv
libQt6Charts.so.6:_ZNK20QVBoxPlotModelMapper8firstRowEv
libQt6Charts.so.6:_ZNK20QVBoxPlotModelMapper8rowCountEv
libQt6Charts.so.6:_ZNK21ChartBarCategoryAxisX10metaObjectEv
libQt6Charts.so.6:_ZNK21ChartBarCategoryAxisX15calculateLayoutEv
libQt6Charts.so.6:_ZNK21ChartBarCategoryAxisX20createCategoryLabelsERK5QListIdE
libQt6Charts.so.6:_ZNK21ChartBarCategoryAxisX8sizeHintEN2Qt8SizeHintERK6QSizeF
libQt6Charts.so.6:_ZNK21ChartBarCategoryAxisY10metaObjectEv
libQt6Charts.so.6:_ZNK21ChartBarCategoryAxisY15calculateLayoutEv
libQt6Charts.so.6:_ZNK21ChartBarCategoryAxisY20createCategoryLabelsERK5QListIdE
libQt6Charts.so.6:_ZNK21ChartBarCategoryAxisY8sizeHintEN2Qt8SizeHintERK6QSizeF
libQt6Charts.so.6:_ZNK21GLXYSeriesDataManager10metaObjectEv
libQt6Charts.so.6:_ZNK21PolarChartAxisAngular10metaObjectEv
libQt6Charts.so.6:_ZNK21PolarChartAxisAngular11orientationEv
libQt6Charts.so.6:_ZNK21PolarChartAxisAngular19moveLabelToPositionEd7QPointF6QRectF
libQt6Charts.so.6:_ZNK21PolarChartAxisAngular8sizeHintEN2Qt8SizeHintERK6QSizeF
libQt6Charts.so.6:_ZNK21QBoxPlotSeriesPrivate10metaObjectEv
libQt6Charts.so.6:_ZNK21QBoxPlotSeriesPrivate15defaultAxisTypeEN2Qt11OrientationE
libQt6Charts.so.6:_ZNK21QBoxPlotSeriesPrivate17createDefaultAxisEN2Qt11OrientationE
libQt6Charts.so.6:_ZNK21QXYModelMapperPrivate10metaObjectEv
libQt6Charts.so.6:_ZNK22HorizontalBarChartItem10metaObjectEv
libQt6Charts.so.6:_ZNK22QAbstractSeriesPrivate10metaObjectEv
libQt6Charts.so.6:_ZNK22QAbstractSeriesPrivate9presenterEv
libQt6Charts.so.6:_ZNK22QBarModelMapperPrivate10metaObjectEv
libQt6Charts.so.6:_ZNK22QCandlestickSetPrivate10metaObjectEv
libQt6Charts.so.6:_ZNK22QPieModelMapperPrivate10metaObjectEv
libQt6Charts.so.6:_ZNK22QPieModelMapperPrivate12isLabelIndexE11QModelIndex
libQt6Charts.so.6:_ZNK22QPieModelMapperPrivate12isValueIndexE11QModelIndex
libQt6Charts.so.6:_ZNK22QPieModelMapperPrivate8pieSliceE11QModelIndex
libQt6Charts.so.6:_ZNK22QXYLegendMarkerPrivate10metaObjectEv
libQt6Charts.so.6:_ZNK23QBarCategoryAxisPrivate10metaObjectEv
libQt6Charts.so.6:_ZNK23QBarLegendMarkerPrivate10metaObjectEv
libQt6Charts.so.6:_ZNK23QCandlestickModelMapper10metaObjectEv
libQt6Charts.so.6:_ZNK23QCandlestickModelMapper14lastSetSectionEv
libQt6Charts.so.6:_ZNK23QCandlestickModelMapper15firstSetSectionEv
libQt6Charts.so.6:_ZNK23QCandlestickModelMapper3lowEv
libQt6Charts.so.6:_ZNK23QCandlestickModelMapper4highEv
libQt6Charts.so.6:_ZNK23QCandlestickModelMapper4openEv
libQt6Charts.so.6:_ZNK23QCandlestickModelMapper5closeEv
libQt6Charts.so.6:_ZNK23QCandlestickModelMapper5modelEv
libQt6Charts.so.6:_ZNK23QCandlestickModelMapper6seriesEv
libQt6Charts.so.6:_ZNK23QCandlestickModelMapper9timestampEv
libQt6Charts.so.6:_ZNK23QPieLegendMarkerPrivate10metaObjectEv
libQt6Charts.so.6:_ZNK24QAreaLegendMarkerPrivate10metaObjectEv
libQt6Charts.so.6:_ZNK24QCandlestickLegendMarker10metaObjectEv
libQt6Charts.so.6:_ZNK24QHCandlestickModelMapper10highColumnEv
libQt6Charts.so.6:_ZNK24QHCandlestickModelMapper10lastSetRowEv
libQt6Charts.so.6:_ZNK24QHCandlestickModelMapper10metaObjectEv
libQt6Charts.so.6:_ZNK24QHCandlestickModelMapper10openColumnEv
libQt6Charts.so.6:_ZNK24QHCandlestickModelMapper11closeColumnEv
libQt6Charts.so.6:_ZNK24QHCandlestickModelMapper11firstSetRowEv
libQt6Charts.so.6:_ZNK24QHCandlestickModelMapper11orientationEv
libQt6Charts.so.6:_ZNK24QHCandlestickModelMapper15timestampColumnEv
libQt6Charts.so.6:_ZNK24QHCandlestickModelMapper9lowColumnEv
libQt6Charts.so.6:_ZNK24QVCandlestickModelMapper10metaObjectEv
libQt6Charts.so.6:_ZNK24QVCandlestickModelMapper11orientationEv
libQt6Charts.so.6:_ZNK24QVCandlestickModelMapper12timestampRowEv
libQt6Charts.so.6:_ZNK24QVCandlestickModelMapper13lastSetColumnEv
libQt6Charts.so.6:_ZNK24QVCandlestickModelMapper14firstSetColumnEv
libQt6Charts.so.6:_ZNK24QVCandlestickModelMapper6lowRowEv
libQt6Charts.so.6:_ZNK24QVCandlestickModelMapper7highRowEv
libQt6Charts.so.6:_ZNK24QVCandlestickModelMapper7openRowEv
libQt6Charts.so.6:_ZNK24QVCandlestickModelMapper8closeRowEv
libQt6Charts.so.6:_ZNK25PolarChartValueAxisRadial10metaObjectEv
libQt6Charts.so.6:_ZNK25PolarChartValueAxisRadial15calculateLayoutEv
libQt6Charts.so.6:_ZNK25QAbstractBarSeriesPrivate10metaObjectEv
libQt6Charts.so.6:_ZNK25QAbstractBarSeriesPrivate11labelsAngleEv
libQt6Charts.so.6:_ZNK25QAbstractBarSeriesPrivate13categoryCountEv
libQt6Charts.so.6:_ZNK25QAbstractBarSeriesPrivate15defaultAxisTypeEN2Qt11OrientationE
libQt6Charts.so.6:_ZNK25QAbstractBarSeriesPrivate17createDefaultAxisEN2Qt11OrientationE
libQt6Charts.so.6:_ZNK25QAbstractBarSeriesPrivate8barWidthEv
libQt6Charts.so.6:_ZNK25QCandlestickSeriesPrivate10metaObjectEv
libQt6Charts.so.6:_ZNK25QCandlestickSeriesPrivate15defaultAxisTypeEN2Qt11OrientationE
libQt6Charts.so.6:_ZNK25QCandlestickSeriesPrivate17createDefaultAxisEN2Qt11OrientationE
libQt6Charts.so.6:_ZNK26PolarChartValueAxisAngular10metaObjectEv
libQt6Charts.so.6:_ZNK26PolarChartValueAxisAngular15calculateLayoutEv
libQt6Charts.so.6:_ZNK27QBoxPlotLegendMarkerPrivate10metaObjectEv
libQt6Charts.so.6:_ZNK27QHorizontalPercentBarSeries10metaObjectEv
libQt6Charts.so.6:_ZNK27QHorizontalPercentBarSeries4typeEv
libQt6Charts.so.6:_ZNK27QHorizontalStackedBarSeries10metaObjectEv
libQt6Charts.so.6:_ZNK27QHorizontalStackedBarSeries4typeEv
libQt6Charts.so.6:_ZNK28PolarChartCategoryAxisRadial10metaObjectEv
libQt6Charts.so.6:_ZNK28PolarChartCategoryAxisRadial15calculateLayoutEv
libQt6Charts.so.6:_ZNK28PolarChartDateTimeAxisRadial10metaObjectEv
libQt6Charts.so.6:_ZNK28PolarChartDateTimeAxisRadial15calculateLayoutEv
libQt6Charts.so.6:_ZNK28PolarChartLogValueAxisRadial10metaObjectEv
libQt6Charts.so.6:_ZNK28PolarChartLogValueAxisRadial15calculateLayoutEv
libQt6Charts.so.6:_ZNK29CandlestickBodyWicksAnimation10metaObjectEv
libQt6Charts.so.6:_ZNK29CandlestickBodyWicksAnimation12interpolatedERK8QVariantS2_d
libQt6Charts.so.6:_ZNK29HorizontalPercentBarChartItem10metaObjectEv
libQt6Charts.so.6:_ZNK29HorizontalStackedBarChartItem10metaObjectEv
libQt6Charts.so.6:_ZNK29PolarChartCategoryAxisAngular10metaObjectEv
libQt6Charts.so.6:_ZNK29PolarChartCategoryAxisAngular15calculateLayoutEv
libQt6Charts.so.6:_ZNK29PolarChartDateTimeAxisAngular10metaObjectEv
libQt6Charts.so.6:_ZNK29PolarChartDateTimeAxisAngular15calculateLayoutEv
libQt6Charts.so.6:_ZNK29PolarChartLogValueAxisAngular10metaObjectEv
libQt6Charts.so.6:_ZNK29PolarChartLogValueAxisAngular15calculateLayoutEv
libQt6Charts.so.6:_ZNK30QCandlestickModelMapperPrivate10metaObjectEv
libQt6Charts.so.6:_ZNK31QCandlestickLegendMarkerPrivate10metaObjectEv
libQt6Charts.so.6:_ZNK3Bar10metaObjectEv
libQt6Charts.so.6:_ZNK6QChart10metaObjectEv
libQt6Charts.so.6:_ZNK6QChart10titleBrushEv
libQt6Charts.so.6:_ZNK6QChart13backgroundPenEv
libQt6Charts.so.6:_ZNK6QChart15backgroundBrushEv
libQt6Charts.so.6:_ZNK6QChart15localizeNumbersEv
libQt6Charts.so.6:_ZNK6QChart16animationOptionsEv
libQt6Charts.so.6:_ZNK6QChart17animationDurationEv
libQt6Charts.so.6:_ZNK6QChart19backgroundRoundnessEv
libQt6Charts.so.6:_ZNK6QChart19isBackgroundVisibleEv
libQt6Charts.so.6:_ZNK6QChart19isDropShadowEnabledEv
libQt6Charts.so.6:_ZNK6QChart20animationEasingCurveEv
libQt6Charts.so.6:_ZNK6QChart21plotAreaBackgroundPenEv
libQt6Charts.so.6:_ZNK6QChart23plotAreaBackgroundBrushEv
libQt6Charts.so.6:_ZNK6QChart27isPlotAreaBackgroundVisibleEv
libQt6Charts.so.6:_ZNK6QChart4axesE6QFlagsIN2Qt11OrientationEEP15QAbstractSeries
libQt6Charts.so.6:_ZNK6QChart5axisXEP15QAbstractSeries
libQt6Charts.so.6:_ZNK6QChart5axisYEP15QAbstractSeries
libQt6Charts.so.6:_ZNK6QChart5themeEv
libQt6Charts.so.6:_ZNK6QChart5titleEv
libQt6Charts.so.6:_ZNK6QChart6legendEv
libQt6Charts.so.6:_ZNK6QChart6localeEv
libQt6Charts.so.6:_ZNK6QChart6seriesEv
libQt6Charts.so.6:_ZNK6QChart7marginsEv
libQt6Charts.so.6:_ZNK6QChart8plotAreaEv
libQt6Charts.so.6:_ZNK6QChart9chartTypeEv
libQt6Charts.so.6:_ZNK6QChart9titleFontEv
libQt6Charts.so.6:_ZNK7QBarSet10labelBrushEv
libQt6Charts.so.6:_ZNK7QBarSet10metaObjectEv
libQt6Charts.so.6:_ZNK7QBarSet12selectedBarsEv
libQt6Charts.so.6:_ZNK7QBarSet13isBarSelectedEi
libQt6Charts.so.6:_ZNK7QBarSet13selectedColorEv
libQt6Charts.so.6:_ZNK7QBarSet2atEi
libQt6Charts.so.6:_ZNK7QBarSet3penEv
libQt6Charts.so.6:_ZNK7QBarSet3sumEv
libQt6Charts.so.6:_ZNK7QBarSet5brushEv
libQt6Charts.so.6:_ZNK7QBarSet5countEv
libQt6Charts.so.6:_ZNK7QBarSet5labelEv
libQt6Charts.so.6:_ZNK7QBarSet9labelFontEv
libQt6Charts.so.6:_ZNK7QBarSetixEi
libQt6Charts.so.6:_ZNK7QBoxSet10metaObjectEv
libQt6Charts.so.6:_ZNK7QBoxSet2atEi
libQt6Charts.so.6:_ZNK7QBoxSet3penEv
libQt6Charts.so.6:_ZNK7QBoxSet5brushEv
libQt6Charts.so.6:_ZNK7QBoxSet5countEv
libQt6Charts.so.6:_ZNK7QBoxSet5labelEv
libQt6Charts.so.6:_ZNK7QBoxSetixEi
libQt6Charts.so.6:_ZNK7QLegend10labelBrushEv
libQt6Charts.so.6:_ZNK7QLegend10labelColorEv
libQt6Charts.so.6:_ZNK7QLegend10metaObjectEv
libQt6Charts.so.6:_ZNK7QLegend11markerShapeEv
libQt6Charts.so.6:_ZNK7QLegend12showToolTipsEv
libQt6Charts.so.6:_ZNK7QLegend13isInteractiveEv
libQt6Charts.so.6:_ZNK7QLegend19isBackgroundVisibleEv
libQt6Charts.so.6:_ZNK7QLegend3penEv
libQt6Charts.so.6:_ZNK7QLegend4fontEv
libQt6Charts.so.6:_ZNK7QLegend5brushEv
libQt6Charts.so.6:_ZNK7QLegend7markersEP15QAbstractSeries
libQt6Charts.so.6:_ZNK7QLegend9alignmentEv
libQt6Charts.so.6:_ZNK7XYChart10metaObjectEv
libQt6Charts.so.6:_ZNK8XYDomain10metaObjectEv
libQt6Charts.so.6:_ZNK8XYDomain20calculateDomainPointERK7QPointF
libQt6Charts.so.6:_ZNK8XYDomain22calculateGeometryPointERK7QPointFRb
libQt6Charts.so.6:_ZNK8XYDomain23calculateGeometryPointsERK5QListI7QPointFE
libQt6Charts.so.6:_ZNK9ChartItem10metaObjectEv
libQt6Charts.so.6:_ZNK9ChartItem6domainEv
libQt6Charts.so.6:_ZNK9QPieSlice10isExplodedEv
libQt6Charts.so.6:_ZNK9QPieSlice10labelBrushEv
libQt6Charts.so.6:_ZNK9QPieSlice10metaObjectEv
libQt6Charts.so.6:_ZNK9QPieSlice10percentageEv
libQt6Charts.so.6:_ZNK9QPieSlice10startAngleEv
libQt6Charts.so.6:_ZNK9QPieSlice14isLabelVisibleEv
libQt6Charts.so.6:_ZNK9QPieSlice20labelArmLengthFactorEv
libQt6Charts.so.6:_ZNK9QPieSlice21explodeDistanceFactorEv
libQt6Charts.so.6:_ZNK9QPieSlice3penEv
libQt6Charts.so.6:_ZNK9QPieSlice5brushEv
libQt6Charts.so.6:_ZNK9QPieSlice5labelEv
libQt6Charts.so.6:_ZNK9QPieSlice5valueEv
libQt6Charts.so.6:_ZNK9QPieSlice6seriesEv
libQt6Charts.so.6:_ZNK9QPieSlice9angleSpanEv
libQt6Charts.so.6:_ZNK9QPieSlice9labelFontEv
libQt6Charts.so.6:_ZNK9QXYSeries10markerSizeEv
libQt6Charts.so.6:_ZNK9QXYSeries10metaObjectEv
libQt6Charts.so.6:_ZNK9QXYSeries11lightMarkerEv
libQt6Charts.so.6:_ZNK9QXYSeries12pointsVectorEv
libQt6Charts.so.6:_ZNK9QXYSeries13pointsVisibleEv
libQt6Charts.so.6:_ZNK9QXYSeries13selectedColorEv
libQt6Charts.so.6:_ZNK9QXYSeries14bestFitLinePenEv
libQt6Charts.so.6:_ZNK9QXYSeries14selectedPointsEv
libQt6Charts.so.6:_ZNK9QXYSeries15pointLabelsFontEv
libQt6Charts.so.6:_ZNK9QXYSeries16bestFitLineColorEv
libQt6Charts.so.6:_ZNK9QXYSeries16pointLabelsColorEv
libQt6Charts.so.6:_ZNK9QXYSeries17pointLabelsFormatEv
libQt6Charts.so.6:_ZNK9QXYSeries18bestFitLineVisibleEv
libQt6Charts.so.6:_ZNK9QXYSeries18pointConfigurationEi
libQt6Charts.so.6:_ZNK9QXYSeries18pointLabelsVisibleEv
libQt6Charts.so.6:_ZNK9QXYSeries19bestFitLineEquationERb
libQt6Charts.so.6:_ZNK9QXYSeries19pointLabelsClippingEv
libQt6Charts.so.6:_ZNK9QXYSeries19pointsConfigurationEv
libQt6Charts.so.6:_ZNK9QXYSeries19selectedLightMarkerEv
libQt6Charts.so.6:_ZNK9QXYSeries2atEi
libQt6Charts.so.6:_ZNK9QXYSeries3penEv
libQt6Charts.so.6:_ZNK9QXYSeries5brushEv
libQt6Charts.so.6:_ZNK9QXYSeries5colorEv
libQt6Charts.so.6:_ZNK9QXYSeries5countEv
libQt6Charts.so.6:_ZNK9QXYSeries6pointsEv
libQt6Charts.so.6:_ZThn16_N10ChartTitleD0Ev
libQt6Charts.so.6:_ZThn16_N10ChartTitleD1Ev
libQt6Charts.so.6:_ZThn16_N10QChartViewD0Ev
libQt6Charts.so.6:_ZThn16_N10QChartViewD1Ev
libQt6Charts.so.6:_ZThn16_N11BoxWhiskers15hoverEnterEventEP24QGraphicsSceneHoverEvent
libQt6Charts.so.6:_ZThn16_N11BoxWhiskers15hoverLeaveEventEP24QGraphicsSceneHoverEvent
libQt6Charts.so.6:_ZThn16_N11BoxWhiskers15mousePressEventEP24QGraphicsSceneMouseEvent
libQt6Charts.so.6:_ZThn16_N11BoxWhiskers17mouseReleaseEventEP24QGraphicsSceneMouseEvent
libQt6Charts.so.6:_ZThn16_N11BoxWhiskers21mouseDoubleClickEventEP24QGraphicsSceneMouseEvent
libQt6Charts.so.6:_ZThn16_N11BoxWhiskers5paintEP8QPainterPK24QStyleOptionGraphicsItemP7QWidget
libQt6Charts.so.6:_ZThn16_N11BoxWhiskersD0Ev
libQt6Charts.so.6:_ZThn16_N11BoxWhiskersD1Ev
libQt6Charts.so.6:_ZThn16_N11Candlestick15hoverEnterEventEP24QGraphicsSceneHoverEvent
libQt6Charts.so.6:_ZThn16_N11Candlestick15hoverLeaveEventEP24QGraphicsSceneHoverEvent
libQt6Charts.so.6:_ZThn16_N11Candlestick15mousePressEventEP24QGraphicsSceneMouseEvent
libQt6Charts.so.6:_ZThn16_N11Candlestick17mouseReleaseEventEP24QGraphicsSceneMouseEvent
libQt6Charts.so.6:_ZThn16_N11Candlestick21mouseDoubleClickEventEP24QGraphicsSceneMouseEvent
libQt6Charts.so.6:_ZThn16_N11Candlestick5paintEP8QPainterPK24QStyleOptionGraphicsItemP7QWidget
libQt6Charts.so.6:_ZThn16_N11CandlestickD0Ev
libQt6Charts.so.6:_ZThn16_N11CandlestickD1Ev
libQt6Charts.so.6:_ZThn16_N11QPolarChartD0Ev
libQt6Charts.so.6:_ZThn16_N11QPolarChartD1Ev
libQt6Charts.so.6:_ZThn16_N12PieChartItem15hoverEnterEventEP24QGraphicsSceneHoverEvent
libQt6Charts.so.6:_ZThn16_N12PieChartItem15hoverLeaveEventEP24QGraphicsSceneHoverEvent
libQt6Charts.so.6:_ZThn16_N12PieChartItem15mousePressEventEP24QGraphicsSceneMouseEvent
libQt6Charts.so.6:_ZThn16_N12PieChartItem17mouseReleaseEventEP24QGraphicsSceneMouseEvent
libQt6Charts.so.6:_ZThn16_N12PieChartItem21mouseDoubleClickEventEP24QGraphicsSceneMouseEvent
libQt6Charts.so.6:_ZThn16_N12PieChartItemD0Ev
libQt6Charts.so.6:_ZThn16_N12PieChartItemD1Ev
libQt6Charts.so.6:_ZThn16_N12PieSliceItem15hoverEnterEventEP24QGraphicsSceneHoverEvent
libQt6Charts.so.6:_ZThn16_N12PieSliceItem15hoverLeaveEventEP24QGraphicsSceneHoverEvent
libQt6Charts.so.6:_ZThn16_N12PieSliceItem15mousePressEventEP24QGraphicsSceneMouseEvent
libQt6Charts.so.6:_ZThn16_N12PieSliceItem17mouseReleaseEventEP24QGraphicsSceneMouseEvent
libQt6Charts.so.6:_ZThn16_N12PieSliceItem21mouseDoubleClickEventEP24QGraphicsSceneMouseEvent
libQt6Charts.so.6:_ZThn16_N12PieSliceItem5paintEP8QPainterPK24QStyleOptionGraphicsItemP7QWidget
libQt6Charts.so.6:_ZThn16_N12PieSliceItemD0Ev
libQt6Charts.so.6:_ZThn16_N12PieSliceItemD1Ev
libQt6Charts.so.6:_ZThn16_N12VerticalAxisD0Ev
libQt6Charts.so.6:_ZThn16_N12VerticalAxisD1Ev
libQt6Charts.so.6:_ZThn16_N13AreaChartItem15hoverEnterEventEP24QGraphicsSceneHoverEvent
libQt6Charts.so.6:_ZThn16_N13AreaChartItem15hoverLeaveEventEP24QGraphicsSceneHoverEvent
libQt6Charts.so.6:_ZThn16_N13AreaChartItem15mousePressEventEP24QGraphicsSceneMouseEvent
libQt6Charts.so.6:_ZThn16_N13AreaChartItem17mouseReleaseEventEP24QGraphicsSceneMouseEvent
libQt6Charts.so.6:_ZThn16_N13AreaChartItem21mouseDoubleClickEventEP24QGraphicsSceneMouseEvent
libQt6Charts.so.6:_ZThn16_N13AreaChartItem5paintEP8QPainterPK24QStyleOptionGraphicsItemP7QWidget
libQt6Charts.so.6:_ZThn16_N13AreaChartItemD0Ev
libQt6Charts.so.6:_ZThn16_N13AreaChartItemD1Ev
libQt6Charts.so.6:_ZThn16_N13LineChartItem15hoverEnterEventEP24QGraphicsSceneHoverEvent
libQt6Charts.so.6:_ZThn16_N13LineChartItem15hoverLeaveEventEP24QGraphicsSceneHoverEvent
libQt6Charts.so.6:_ZThn16_N13LineChartItem15mousePressEventEP24QGraphicsSceneMouseEvent
libQt6Charts.so.6:_ZThn16_N13LineChartItem17mouseReleaseEventEP24QGraphicsSceneMouseEvent
libQt6Charts.so.6:_ZThn16_N13LineChartItem21mouseDoubleClickEventEP24QGraphicsSceneMouseEvent
libQt6Charts.so.6:_ZThn16_N13LineChartItem5paintEP8QPainterPK24QStyleOptionGraphicsItemP7QWidget
libQt6Charts.so.6:_ZThn16_N14HorizontalAxisD0Ev
libQt6Charts.so.6:_ZThn16_N14HorizontalAxisD1Ev
libQt6Charts.so.6:_ZThn16_N14LegendScroller14hoverMoveEventEP24QGraphicsSceneHoverEvent
libQt6Charts.so.6:_ZThn16_N14LegendScroller14mouseMoveEventEP24QGraphicsSceneMouseEvent
libQt6Charts.so.6:_ZThn16_N14LegendScroller15hoverEnterEventEP24QGraphicsSceneHoverEvent
libQt6Charts.so.6:_ZThn16_N14LegendScroller15hoverLeaveEventEP24QGraphicsSceneHoverEvent
libQt6Charts.so.6:_ZThn16_N14LegendScroller15mousePressEventEP24QGraphicsSceneMouseEvent
libQt6Charts.so.6:_ZThn16_N14LegendScroller17mouseReleaseEventEP24QGraphicsSceneMouseEvent
libQt6Charts.so.6:_ZThn16_N14LegendScroller21mouseDoubleClickEventEP24QGraphicsSceneMouseEvent
libQt6Charts.so.6:_ZThn16_N14LegendScroller5paintEP8QPainterPK24QStyleOptionGraphicsItemP7QWidget
libQt6Charts.so.6:_ZThn16_N14PolarChartAxisD0Ev
libQt6Charts.so.6:_ZThn16_N14PolarChartAxisD1Ev
libQt6Charts.so.6:_ZThn16_N14ValueAxisLabel13keyPressEventEP9QKeyEvent
libQt6Charts.so.6:_ZThn16_N15ChartColorAxisXD0Ev
libQt6Charts.so.6:_ZThn16_N15ChartColorAxisXD1Ev
libQt6Charts.so.6:_ZThn16_N15ChartColorAxisYD0Ev
libQt6Charts.so.6:_ZThn16_N15ChartColorAxisYD1Ev
libQt6Charts.so.6:_ZThn16_N15ChartValueAxisXD0Ev
libQt6Charts.so.6:_ZThn16_N15ChartValueAxisXD1Ev
libQt6Charts.so.6:_ZThn16_N15ChartValueAxisYD0Ev
libQt6Charts.so.6:_ZThn16_N15ChartValueAxisYD1Ev
libQt6Charts.so.6:_ZThn16_N15SplineChartItem15hoverEnterEventEP24QGraphicsSceneHoverEvent
libQt6Charts.so.6:_ZThn16_N15SplineChartItem15hoverLeaveEventEP24QGraphicsSceneHoverEvent
libQt6Charts.so.6:_ZThn16_N15SplineChartItem15mousePressEventEP24QGraphicsSceneMouseEvent
libQt6Charts.so.6:_ZThn16_N15SplineChartItem17mouseReleaseEventEP24QGraphicsSceneMouseEvent
libQt6Charts.so.6:_ZThn16_N15SplineChartItem21mouseDoubleClickEventEP24QGraphicsSceneMouseEvent
libQt6Charts.so.6:_ZThn16_N15SplineChartItem5paintEP8QPainterPK24QStyleOptionGraphicsItemP7QWidget
libQt6Charts.so.6:_ZThn16_N16BoxPlotChartItem5paintEP8QPainterPK24QStyleOptionGraphicsItemP7QWidget
libQt6Charts.so.6:_ZThn16_N16BoxPlotChartItemD0Ev
libQt6Charts.so.6:_ZThn16_N16BoxPlotChartItemD1Ev
libQt6Charts.so.6:_ZThn16_N16ChartAxisElementD0Ev
libQt6Charts.so.6:_ZThn16_N16ChartAxisElementD1Ev
libQt6Charts.so.6:_ZThn16_N16LegendMarkerItem15hoverEnterEventEP24QGraphicsSceneHoverEvent
libQt6Charts.so.6:_ZThn16_N16LegendMarkerItem15hoverLeaveEventEP24QGraphicsSceneHoverEvent
libQt6Charts.so.6:_ZThn16_N16LegendMarkerItem5paintEP8QPainterPK24QStyleOptionGraphicsItemP7QWidget
libQt6Charts.so.6:_ZThn16_N16LegendMarkerItemD0Ev
libQt6Charts.so.6:_ZThn16_N16LegendMarkerItemD1Ev
libQt6Charts.so.6:_ZThn16_N16ScatterChartItem14hoverMoveEventEP24QGraphicsSceneHoverEvent
libQt6Charts.so.6:_ZThn16_N16ScatterChartItem15mousePressEventEP24QGraphicsSceneMouseEvent
libQt6Charts.so.6:_ZThn16_N16ScatterChartItem17mouseReleaseEventEP24QGraphicsSceneMouseEvent
libQt6Charts.so.6:_ZThn16_N16ScatterChartItem21mouseDoubleClickEventEP24QGraphicsSceneMouseEvent
libQt6Charts.so.6:_ZThn16_N16ScatterChartItem5paintEP8QPainterPK24QStyleOptionGraphicsItemP7QWidget
libQt6Charts.so.6:_ZThn16_N17DateTimeAxisLabel13keyPressEventEP9QKeyEvent
libQt6Charts.so.6:_ZThn16_N17EditableAxisLabel10sceneEventEP6QEvent
libQt6Charts.so.6:_ZThn16_N17EditableAxisLabel12focusInEventEP11QFocusEvent
libQt6Charts.so.6:_ZThn16_N17EditableAxisLabel13focusOutEventEP11QFocusEvent
libQt6Charts.so.6:_ZThn16_N18CartesianChartAxisD0Ev
libQt6Charts.so.6:_ZThn16_N18CartesianChartAxisD1Ev
libQt6Charts.so.6:_ZThn16_N18ChartCategoryAxisXD0Ev
libQt6Charts.so.6:_ZThn16_N18ChartCategoryAxisXD1Ev
libQt6Charts.so.6:_ZThn16_N18ChartCategoryAxisYD0Ev
libQt6Charts.so.6:_ZThn16_N18ChartCategoryAxisYD1Ev
libQt6Charts.so.6:_ZThn16_N18ChartDateTimeAxisXD0Ev
libQt6Charts.so.6:_ZThn16_N18ChartDateTimeAxisXD1Ev
libQt6Charts.so.6:_ZThn16_N18ChartDateTimeAxisYD0Ev
libQt6Charts.so.6:_ZThn16_N18ChartDateTimeAxisYD1Ev
libQt6Charts.so.6:_ZThn16_N18ChartLogValueAxisXD0Ev
libQt6Charts.so.6:_ZThn16_N18ChartLogValueAxisXD1Ev
libQt6Charts.so.6:_ZThn16_N18ChartLogValueAxisYD0Ev
libQt6Charts.so.6:_ZThn16_N18ChartLogValueAxisYD1Ev
libQt6Charts.so.6:_ZThn16_N20AbstractBarChartItem5paintEP8QPainterPK24QStyleOptionGraphicsItemP7QWidget
libQt6Charts.so.6:_ZThn16_N20AbstractBarChartItemD0Ev
libQt6Charts.so.6:_ZThn16_N20AbstractBarChartItemD1Ev
libQt6Charts.so.6:_ZThn16_N20CandlestickChartItem5paintEP8QPainterPK24QStyleOptionGraphicsItemP7QWidget
libQt6Charts.so.6:_ZThn16_N20CandlestickChartItemD0Ev
libQt6Charts.so.6:_ZThn16_N20CandlestickChartItemD1Ev
libQt6Charts.so.6:_ZThn16_N20PolarChartAxisRadialD0Ev
libQt6Charts.so.6:_ZThn16_N20PolarChartAxisRadialD1Ev
libQt6Charts.so.6:_ZThn16_N21ChartBarCategoryAxisXD0Ev
libQt6Charts.so.6:_ZThn16_N21ChartBarCategoryAxisXD1Ev
libQt6Charts.so.6:_ZThn16_N21ChartBarCategoryAxisYD0Ev
libQt6Charts.so.6:_ZThn16_N21ChartBarCategoryAxisYD1Ev
libQt6Charts.so.6:_ZThn16_N21PolarChartAxisAngularD0Ev
libQt6Charts.so.6:_ZThn16_N21PolarChartAxisAngularD1Ev
libQt6Charts.so.6:_ZThn16_N25PolarChartValueAxisRadialD0Ev
libQt6Charts.so.6:_ZThn16_N25PolarChartValueAxisRadialD1Ev
libQt6Charts.so.6:_ZThn16_N26PolarChartValueAxisAngularD0Ev
libQt6Charts.so.6:_ZThn16_N26PolarChartValueAxisAngularD1Ev
libQt6Charts.so.6:_ZThn16_N28PolarChartCategoryAxisRadialD0Ev
libQt6Charts.so.6:_ZThn16_N28PolarChartCategoryAxisRadialD1Ev
libQt6Charts.so.6:_ZThn16_N28PolarChartDateTimeAxisRadialD0Ev
libQt6Charts.so.6:_ZThn16_N28PolarChartDateTimeAxisRadialD1Ev
libQt6Charts.so.6:_ZThn16_N28PolarChartLogValueAxisRadialD0Ev
libQt6Charts.so.6:_ZThn16_N28PolarChartLogValueAxisRadialD1Ev
libQt6Charts.so.6:_ZThn16_N29PolarChartCategoryAxisAngularD0Ev
libQt6Charts.so.6:_ZThn16_N29PolarChartCategoryAxisAngularD1Ev
libQt6Charts.so.6:_ZThn16_N29PolarChartDateTimeAxisAngularD0Ev
libQt6Charts.so.6:_ZThn16_N29PolarChartDateTimeAxisAngularD1Ev
libQt6Charts.so.6:_ZThn16_N29PolarChartLogValueAxisAngularD0Ev
libQt6Charts.so.6:_ZThn16_N29PolarChartLogValueAxisAngularD1Ev
libQt6Charts.so.6:_ZThn16_N3Bar15hoverEnterEventEP24QGraphicsSceneHoverEvent
libQt6Charts.so.6:_ZThn16_N3Bar15hoverLeaveEventEP24QGraphicsSceneHoverEvent
libQt6Charts.so.6:_ZThn16_N3Bar15mousePressEventEP24QGraphicsSceneMouseEvent
libQt6Charts.so.6:_ZThn16_N3Bar17mouseReleaseEventEP24QGraphicsSceneMouseEvent
libQt6Charts.so.6:_ZThn16_N3Bar21mouseDoubleClickEventEP24QGraphicsSceneMouseEvent
libQt6Charts.so.6:_ZThn16_N3Bar5paintEP8QPainterPK24QStyleOptionGraphicsItemP7QWidget
libQt6Charts.so.6:_ZThn16_N3BarD0Ev
libQt6Charts.so.6:_ZThn16_N3BarD1Ev
libQt6Charts.so.6:_ZThn16_N6QChartD0Ev
libQt6Charts.so.6:_ZThn16_N6QChartD1Ev
libQt6Charts.so.6:_ZThn16_N7QLegend5paintEP8QPainterPK24QStyleOptionGraphicsItemP7QWidget
libQt6Charts.so.6:_ZThn16_N7QLegendD0Ev
libQt6Charts.so.6:_ZThn16_N7QLegendD1Ev
libQt6Charts.so.6:_ZThn16_NK11BoxWhiskers12boundingRectEv
libQt6Charts.so.6:_ZThn16_NK11Candlestick12boundingRectEv
libQt6Charts.so.6:_ZThn16_NK12PieSliceItem12boundingRectEv
libQt6Charts.so.6:_ZThn16_NK12PieSliceItem5shapeEv
libQt6Charts.so.6:_ZThn16_NK13AreaChartItem12boundingRectEv
libQt6Charts.so.6:_ZThn16_NK13AreaChartItem5shapeEv
libQt6Charts.so.6:_ZThn16_NK13LineChartItem12boundingRectEv
libQt6Charts.so.6:_ZThn16_NK13LineChartItem5shapeEv
libQt6Charts.so.6:_ZThn16_NK15SplineChartItem12boundingRectEv
libQt6Charts.so.6:_ZThn16_NK15SplineChartItem5shapeEv
libQt6Charts.so.6:_ZThn16_NK16BoxPlotChartItem12boundingRectEv
libQt6Charts.so.6:_ZThn16_NK16LegendMarkerItem12boundingRectEv
libQt6Charts.so.6:_ZThn16_NK16ScatterChartItem12boundingRectEv
libQt6Charts.so.6:_ZThn16_NK17EditableAxisLabel12boundingRectEv
libQt6Charts.so.6:_ZThn16_NK20AbstractBarChartItem12boundingRectEv
libQt6Charts.so.6:_ZThn16_NK20CandlestickChartItem12boundingRectEv
libQt6Charts.so.6:_ZThn32_N11QPolarChartD0Ev
libQt6Charts.so.6:_ZThn32_N11QPolarChartD1Ev
libQt6Charts.so.6:_ZThn32_N16LegendMarkerItem11setGeometryERK6QRectF
libQt6Charts.so.6:_ZThn32_N16LegendMarkerItemD0Ev
libQt6Charts.so.6:_ZThn32_N16LegendMarkerItemD1Ev
libQt6Charts.so.6:_ZThn32_N6QChartD0Ev
libQt6Charts.so.6:_ZThn32_N6QChartD1Ev
libQt6Charts.so.6:_ZThn32_N7QLegendD0Ev
libQt6Charts.so.6:_ZThn32_N7QLegendD1Ev
libQt6Charts.so.6:_ZThn32_NK16LegendMarkerItem8sizeHintEN2Qt8SizeHintERK6QSizeF
libQt6Charts.so.6:_ZThn56_N12VerticalAxis14updateGeometryEv
libQt6Charts.so.6:_ZThn56_N12VerticalAxisD0Ev
libQt6Charts.so.6:_ZThn56_N12VerticalAxisD1Ev
libQt6Charts.so.6:_ZThn56_N14HorizontalAxis14updateGeometryEv
libQt6Charts.so.6:_ZThn56_N14HorizontalAxisD0Ev
libQt6Charts.so.6:_ZThn56_N14HorizontalAxisD1Ev
libQt6Charts.so.6:_ZThn56_N14LegendScroller9setOffsetERK7QPointF
libQt6Charts.so.6:_ZThn56_N14PolarChartAxisD0Ev
libQt6Charts.so.6:_ZThn56_N14PolarChartAxisD1Ev
libQt6Charts.so.6:_ZThn56_N15ChartColorAxisX14updateGeometryEv
libQt6Charts.so.6:_ZThn56_N15ChartColorAxisXD0Ev
libQt6Charts.so.6:_ZThn56_N15ChartColorAxisXD1Ev
libQt6Charts.so.6:_ZThn56_N15ChartColorAxisY14updateGeometryEv
libQt6Charts.so.6:_ZThn56_N15ChartColorAxisYD0Ev
libQt6Charts.so.6:_ZThn56_N15ChartColorAxisYD1Ev
libQt6Charts.so.6:_ZThn56_N15ChartValueAxisX14updateGeometryEv
libQt6Charts.so.6:_ZThn56_N15ChartValueAxisXD0Ev
libQt6Charts.so.6:_ZThn56_N15ChartValueAxisXD1Ev
libQt6Charts.so.6:_ZThn56_N15ChartValueAxisY14updateGeometryEv
libQt6Charts.so.6:_ZThn56_N15ChartValueAxisYD0Ev
libQt6Charts.so.6:_ZThn56_N15ChartValueAxisYD1Ev
libQt6Charts.so.6:_ZThn56_N16ChartAxisElementD0Ev
libQt6Charts.so.6:_ZThn56_N16ChartAxisElementD1Ev
libQt6Charts.so.6:_ZThn56_N18CartesianChartAxisD0Ev
libQt6Charts.so.6:_ZThn56_N18CartesianChartAxisD1Ev
libQt6Charts.so.6:_ZThn56_N18ChartCategoryAxisX14updateGeometryEv
libQt6Charts.so.6:_ZThn56_N18ChartCategoryAxisXD0Ev
libQt6Charts.so.6:_ZThn56_N18ChartCategoryAxisXD1Ev
libQt6Charts.so.6:_ZThn56_N18ChartCategoryAxisY14updateGeometryEv
libQt6Charts.so.6:_ZThn56_N18ChartCategoryAxisYD0Ev
libQt6Charts.so.6:_ZThn56_N18ChartCategoryAxisYD1Ev
libQt6Charts.so.6:_ZThn56_N18ChartDateTimeAxisX14updateGeometryEv
libQt6Charts.so.6:_ZThn56_N18ChartDateTimeAxisXD0Ev
libQt6Charts.so.6:_ZThn56_N18ChartDateTimeAxisXD1Ev
libQt6Charts.so.6:_ZThn56_N18ChartDateTimeAxisY14updateGeometryEv
libQt6Charts.so.6:_ZThn56_N18ChartDateTimeAxisYD0Ev
libQt6Charts.so.6:_ZThn56_N18ChartDateTimeAxisYD1Ev
libQt6Charts.so.6:_ZThn56_N18ChartLogValueAxisX14updateGeometryEv
libQt6Charts.so.6:_ZThn56_N18ChartLogValueAxisXD0Ev
libQt6Charts.so.6:_ZThn56_N18ChartLogValueAxisXD1Ev
libQt6Charts.so.6:_ZThn56_N18ChartLogValueAxisY14updateGeometryEv
libQt6Charts.so.6:_ZThn56_N18ChartLogValueAxisYD0Ev
libQt6Charts.so.6:_ZThn56_N18ChartLogValueAxisYD1Ev
libQt6Charts.so.6:_ZThn56_N20PolarChartAxisRadial14updateGeometryEv
libQt6Charts.so.6:_ZThn56_N20PolarChartAxisRadialD0Ev
libQt6Charts.so.6:_ZThn56_N20PolarChartAxisRadialD1Ev
libQt6Charts.so.6:_ZThn56_N21ChartBarCategoryAxisX14updateGeometryEv
libQt6Charts.so.6:_ZThn56_N21ChartBarCategoryAxisXD0Ev
libQt6Charts.so.6:_ZThn56_N21ChartBarCategoryAxisXD1Ev
libQt6Charts.so.6:_ZThn56_N21ChartBarCategoryAxisY14updateGeometryEv
libQt6Charts.so.6:_ZThn56_N21ChartBarCategoryAxisYD0Ev
libQt6Charts.so.6:_ZThn56_N21ChartBarCategoryAxisYD1Ev
libQt6Charts.so.6:_ZThn56_N21PolarChartAxisAngular14updateGeometryEv
libQt6Charts.so.6:_ZThn56_N21PolarChartAxisAngularD0Ev
libQt6Charts.so.6:_ZThn56_N21PolarChartAxisAngularD1Ev
libQt6Charts.so.6:_ZThn56_N25PolarChartValueAxisRadialD0Ev
libQt6Charts.so.6:_ZThn56_N25PolarChartValueAxisRadialD1Ev
libQt6Charts.so.6:_ZThn56_N26PolarChartValueAxisAngularD0Ev
libQt6Charts.so.6:_ZThn56_N26PolarChartValueAxisAngularD1Ev
libQt6Charts.so.6:_ZThn56_N28PolarChartCategoryAxisRadialD0Ev
libQt6Charts.so.6:_ZThn56_N28PolarChartCategoryAxisRadialD1Ev
libQt6Charts.so.6:_ZThn56_N28PolarChartDateTimeAxisRadialD0Ev
libQt6Charts.so.6:_ZThn56_N28PolarChartDateTimeAxisRadialD1Ev
libQt6Charts.so.6:_ZThn56_N28PolarChartLogValueAxisRadialD0Ev
libQt6Charts.so.6:_ZThn56_N28PolarChartLogValueAxisRadialD1Ev
libQt6Charts.so.6:_ZThn56_N29PolarChartCategoryAxisAngularD0Ev
libQt6Charts.so.6:_ZThn56_N29PolarChartCategoryAxisAngularD1Ev
libQt6Charts.so.6:_ZThn56_N29PolarChartDateTimeAxisAngularD0Ev
libQt6Charts.so.6:_ZThn56_N29PolarChartDateTimeAxisAngularD1Ev
libQt6Charts.so.6:_ZThn56_N29PolarChartLogValueAxisAngularD0Ev
libQt6Charts.so.6:_ZThn56_N29PolarChartLogValueAxisAngularD1Ev
libQt6Charts.so.6:_ZThn56_NK12VerticalAxis8sizeHintEN2Qt8SizeHintERK6QSizeF
libQt6Charts.so.6:_ZThn56_NK14HorizontalAxis8sizeHintEN2Qt8SizeHintERK6QSizeF
libQt6Charts.so.6:_ZThn56_NK14LegendScroller6offsetEv
libQt6Charts.so.6:_ZThn56_NK15ChartColorAxisX8sizeHintEN2Qt8SizeHintERK6QSizeF
libQt6Charts.so.6:_ZThn56_NK15ChartColorAxisY8sizeHintEN2Qt8SizeHintERK6QSizeF
libQt6Charts.so.6:_ZThn56_NK15ChartValueAxisX8sizeHintEN2Qt8SizeHintERK6QSizeF
libQt6Charts.so.6:_ZThn56_NK15ChartValueAxisY8sizeHintEN2Qt8SizeHintERK6QSizeF
libQt6Charts.so.6:_ZThn56_NK18CartesianChartAxis8sizeHintEN2Qt8SizeHintERK6QSizeF
libQt6Charts.so.6:_ZThn56_NK18ChartCategoryAxisX8sizeHintEN2Qt8SizeHintERK6QSizeF
libQt6Charts.so.6:_ZThn56_NK18ChartCategoryAxisY8sizeHintEN2Qt8SizeHintERK6QSizeF
libQt6Charts.so.6:_ZThn56_NK18ChartDateTimeAxisX8sizeHintEN2Qt8SizeHintERK6QSizeF
libQt6Charts.so.6:_ZThn56_NK18ChartDateTimeAxisY8sizeHintEN2Qt8SizeHintERK6QSizeF
libQt6Charts.so.6:_ZThn56_NK18ChartLogValueAxisX8sizeHintEN2Qt8SizeHintERK6QSizeF
libQt6Charts.so.6:_ZThn56_NK18ChartLogValueAxisY8sizeHintEN2Qt8SizeHintERK6QSizeF
libQt6Charts.so.6:_ZThn56_NK20PolarChartAxisRadial8sizeHintEN2Qt8SizeHintERK6QSizeF
libQt6Charts.so.6:_ZThn56_NK21ChartBarCategoryAxisX8sizeHintEN2Qt8SizeHintERK6QSizeF
libQt6Charts.so.6:_ZThn56_NK21ChartBarCategoryAxisY8sizeHintEN2Qt8SizeHintERK6QSizeF
libQt6Charts.so.6:_ZThn56_NK21PolarChartAxisAngular8sizeHintEN2Qt8SizeHintERK6QSizeF
libQt6Charts.so.6:qt_allocate_bar_set
libQt6ChartsQml.so.6:_Z27qml_register_types_QtChartsv
libQt6ChartsQml.so.6:_ZN15DeclarativeAxes11qt_metacallEN11QMetaObject4CallEiPPv
libQt6ChartsQml.so.6:_ZN15DeclarativeAxes11qt_metacastEPKc
libQt6ChartsQml.so.6:_ZN15DeclarativeAxes11setAxisXTopEP13QAbstractAxis
libQt6ChartsQml.so.6:_ZN15DeclarativeAxes12axisXChangedEP13QAbstractAxis
libQt6ChartsQml.so.6:_ZN15DeclarativeAxes12axisYChangedEP13QAbstractAxis
libQt6ChartsQml.so.6:_ZN15DeclarativeAxes13setAxisYRightEP13QAbstractAxis
libQt6ChartsQml.so.6:_ZN15DeclarativeAxes15axisXTopChangedEP13QAbstractAxis
libQt6ChartsQml.so.6:_ZN15DeclarativeAxes16staticMetaObjectE
libQt6ChartsQml.so.6:_ZN15DeclarativeAxes17axisYRightChangedEP13QAbstractAxis
libQt6ChartsQml.so.6:_ZN15DeclarativeAxes8setAxisXEP13QAbstractAxis
libQt6ChartsQml.so.6:_ZN15DeclarativeAxes8setAxisYEP13QAbstractAxis
libQt6ChartsQml.so.6:_ZN15DeclarativeAxesC1EP7QObject
libQt6ChartsQml.so.6:_ZN15DeclarativeAxesC2EP7QObject
libQt6ChartsQml.so.6:_ZN16DeclarativeChart10axesAtFuncEP16QQmlListPropertyI13QAbstractAxisEx
libQt6ChartsQml.so.6:_ZN16DeclarativeChart10childEventEP11QChildEvent
libQt6ChartsQml.so.6:_ZN16DeclarativeChart10mapToValueERK7QPointFP15QAbstractSeries
libQt6ChartsQml.so.6:_ZN16DeclarativeChart10needRenderEv
libQt6ChartsQml.so.6:_ZN16DeclarativeChart10scrollDownEd
libQt6ChartsQml.so.6:_ZN16DeclarativeChart10scrollLeftEd
libQt6ChartsQml.so.6:_ZN16DeclarativeChart10titleColorEv
libQt6ChartsQml.so.6:_ZN16DeclarativeChart11defaultAxisEN2Qt11OrientationEP15QAbstractSeries
libQt6ChartsQml.so.6:_ZN16DeclarativeChart11qt_metacallEN11QMetaObject4CallEiPPv
libQt6ChartsQml.so.6:_ZN16DeclarativeChart11qt_metacastEPKc
libQt6ChartsQml.so.6:_ZN16DeclarativeChart11renderSceneEv
libQt6ChartsQml.so.6:_ZN16DeclarativeChart11scrollRightEd
libQt6ChartsQml.so.6:_ZN16DeclarativeChart11seriesAddedEP15QAbstractSeries
libQt6ChartsQml.so.6:_ZN16DeclarativeChart11setPlotAreaERK6QRectF
libQt6ChartsQml.so.6:_ZN16DeclarativeChart12createSeriesEi7QStringP13QAbstractAxisS2_
libQt6ChartsQml.so.6:_ZN16DeclarativeChart12removeSeriesEP15QAbstractSeries
libQt6ChartsQml.so.6:_ZN16DeclarativeChart12sceneChangedERK5QListI6QRectFE
libQt6ChartsQml.so.6:_ZN16DeclarativeChart12setTitleFontERK5QFont
libQt6ChartsQml.so.6:_ZN16DeclarativeChart13axesClearFuncEP16QQmlListPropertyI13QAbstractAxisE
libQt6ChartsQml.so.6:_ZN16DeclarativeChart13axesCountFuncEP16QQmlListPropertyI13QAbstractAxisE
libQt6ChartsQml.so.6:_ZN16DeclarativeChart13changeMarginsEiiii
libQt6ChartsQml.so.6:_ZN16DeclarativeChart13localeChangedEv
libQt6ChartsQml.so.6:_ZN16DeclarativeChart13mapToPositionERK7QPointFP15QAbstractSeries
libQt6ChartsQml.so.6:_ZN16DeclarativeChart13plotAreaColorEv
libQt6ChartsQml.so.6:_ZN16DeclarativeChart13seriesRemovedEP15QAbstractSeries
libQt6ChartsQml.so.6:_ZN16DeclarativeChart13setTitleColorE6QColor
libQt6ChartsQml.so.6:_ZN16DeclarativeChart14axesAppendFuncEP16QQmlListPropertyI13QAbstractAxisEPS1_
libQt6ChartsQml.so.6:_ZN16DeclarativeChart14geometryChangeERK6QRectFS2_
libQt6ChartsQml.so.6:_ZN16DeclarativeChart14handleAxisXSetEP13QAbstractAxis
libQt6ChartsQml.so.6:_ZN16DeclarativeChart14handleAxisYSetEP13QAbstractAxis
libQt6ChartsQml.so.6:_ZN16DeclarativeChart14hoverMoveEventEP11QHoverEvent
libQt6ChartsQml.so.6:_ZN16DeclarativeChart14initializeAxesEP15QAbstractSeries
libQt6ChartsQml.so.6:_ZN16DeclarativeChart14marginsChangedEv
libQt6ChartsQml.so.6:_ZN16DeclarativeChart15backgroundColorEv
libQt6ChartsQml.so.6:_ZN16DeclarativeChart15mousePressEventEP11QMouseEvent
libQt6ChartsQml.so.6:_ZN16DeclarativeChart15plotAreaChangedE6QRectF
libQt6ChartsQml.so.6:_ZN16DeclarativeChart15updatePaintNodeEP7QSGNodePN10QQuickItem19UpdatePaintNodeDataE
libQt6ChartsQml.so.6:_ZN16DeclarativeChart16animationOptionsEv
libQt6ChartsQml.so.6:_ZN16DeclarativeChart16doInitializeAxesEP15QAbstractSeriesP15DeclarativeAxes
libQt6ChartsQml.so.6:_ZN16DeclarativeChart16setPlotAreaColorE6QColor
libQt6ChartsQml.so.6:_ZN16DeclarativeChart16staticMetaObjectE
libQt6ChartsQml.so.6:_ZN16DeclarativeChart17axisLabelsChangedEv
libQt6ChartsQml.so.6:_ZN16DeclarativeChart17componentCompleteEv
libQt6ChartsQml.so.6:_ZN16DeclarativeChart17dropShadowEnabledEv
libQt6ChartsQml.so.6:_ZN16DeclarativeChart17handleAxisXTopSetEP13QAbstractAxis
libQt6ChartsQml.so.6:_ZN16DeclarativeChart17handleSeriesAddedEP15QAbstractSeries
libQt6ChartsQml.so.6:_ZN16DeclarativeChart17mouseReleaseEventEP11QMouseEvent
libQt6ChartsQml.so.6:_ZN16DeclarativeChart17titleColorChangedE6QColor
libQt6ChartsQml.so.6:_ZN16DeclarativeChart18setBackgroundColorE6QColor
libQt6ChartsQml.so.6:_ZN16DeclarativeChart18setLocalizeNumbersEb
libQt6ChartsQml.so.6:_ZN16DeclarativeChart19findMinMaxForSeriesEP15QAbstractSeries6QFlagsIN2Qt11OrientationEERdS6_
libQt6ChartsQml.so.6:_ZN16DeclarativeChart19handleAxisYRightSetEP13QAbstractAxis
libQt6ChartsQml.so.6:_ZN16DeclarativeChart19setAnimationOptionsENS_9AnimationE
libQt6ChartsQml.so.6:_ZN16DeclarativeChart20plotAreaColorChangedEv
libQt6ChartsQml.so.6:_ZN16DeclarativeChart20setAnimationDurationEi
libQt6ChartsQml.so.6:_ZN16DeclarativeChart20setDropShadowEnabledEb
libQt6ChartsQml.so.6:_ZN16DeclarativeChart21mouseDoubleClickEventEP11QMouseEvent
libQt6ChartsQml.so.6:_ZN16DeclarativeChart22backgroundColorChangedEv
libQt6ChartsQml.so.6:_ZN16DeclarativeChart22localizeNumbersChangedEv
libQt6ChartsQml.so.6:_ZN16DeclarativeChart22seriesAxisAttachHelperEP15QAbstractSeriesP13QAbstractAxis6QFlagsIN2Qt11OrientationEES4_INS5_13AlignmentFlagEE
libQt6ChartsQml.so.6:_ZN16DeclarativeChart22setBackgroundRoundnessEd
libQt6ChartsQml.so.6:_ZN16DeclarativeChart23queueRendererMouseEventEP11QMouseEvent
libQt6ChartsQml.so.6:_ZN16DeclarativeChart23setAnimationEasingCurveERK12QEasingCurve
libQt6ChartsQml.so.6:_ZN16DeclarativeChart24animationDurationChangedEi
libQt6ChartsQml.so.6:_ZN16DeclarativeChart24dropShadowEnabledChangedEb
libQt6ChartsQml.so.6:_ZN16DeclarativeChart25handleAntialiasingChangedEb
libQt6ChartsQml.so.6:_ZN16DeclarativeChart26backgroundRoundnessChangedEd
libQt6ChartsQml.so.6:_ZN16DeclarativeChart27animationEasingCurveChangedE12QEasingCurve
libQt6ChartsQml.so.6:_ZN16DeclarativeChart36pendingRenderNodeMouseEventResponsesEv
libQt6ChartsQml.so.6:_ZN16DeclarativeChart42handlePendingRenderNodeMouseEventResponsesEv
libQt6ChartsQml.so.6:_ZN16DeclarativeChart4axesEv
libQt6ChartsQml.so.6:_ZN16DeclarativeChart4zoomEd
libQt6ChartsQml.so.6:_ZN16DeclarativeChart5axisXEP15QAbstractSeries
libQt6ChartsQml.so.6:_ZN16DeclarativeChart5axisYEP15QAbstractSeries
libQt6ChartsQml.so.6:_ZN16DeclarativeChart5countEv
libQt6ChartsQml.so.6:_ZN16DeclarativeChart5themeEv
libQt6ChartsQml.so.6:_ZN16DeclarativeChart5titleEv
libQt6ChartsQml.so.6:_ZN16DeclarativeChart6legendEv
libQt6ChartsQml.so.6:_ZN16DeclarativeChart6seriesE7QString
libQt6ChartsQml.so.6:_ZN16DeclarativeChart6seriesEi
libQt6ChartsQml.so.6:_ZN16DeclarativeChart6zoomInERK6QRectF
libQt6ChartsQml.so.6:_ZN16DeclarativeChart6zoomInEv
libQt6ChartsQml.so.6:_ZN16DeclarativeChart7zoomOutEv
libQt6ChartsQml.so.6:_ZN16DeclarativeChart8isZoomedEv
libQt6ChartsQml.so.6:_ZN16DeclarativeChart8scrollUpEd
libQt6ChartsQml.so.6:_ZN16DeclarativeChart8setAxisXEP13QAbstractAxisP15QAbstractSeries
libQt6ChartsQml.so.6:_ZN16DeclarativeChart8setAxisYEP13QAbstractAxisP15QAbstractSeries
libQt6ChartsQml.so.6:_ZN16DeclarativeChart8setThemeENS_5ThemeE
libQt6ChartsQml.so.6:_ZN16DeclarativeChart8setTitleE7QString
libQt6ChartsQml.so.6:_ZN16DeclarativeChart9initChartEN6QChart9ChartTypeE
libQt6ChartsQml.so.6:_ZN16DeclarativeChart9setLocaleERK7QLocale
libQt6ChartsQml.so.6:_ZN16DeclarativeChart9zoomResetEv
libQt6ChartsQml.so.6:_ZN16DeclarativeChartC1EN6QChart9ChartTypeEP10QQuickItem
libQt6ChartsQml.so.6:_ZN16DeclarativeChartC1EP10QQuickItem
libQt6ChartsQml.so.6:_ZN16DeclarativeChartC2EN6QChart9ChartTypeEP10QQuickItem
libQt6ChartsQml.so.6:_ZN16DeclarativeChartC2EP10QQuickItem
libQt6ChartsQml.so.6:_ZN16DeclarativeChartD0Ev
libQt6ChartsQml.so.6:_ZN16DeclarativeChartD1Ev
libQt6ChartsQml.so.6:_ZN16DeclarativeChartD2Ev
libQt6ChartsQml.so.6:_ZN17DeclarativeBarSet11qt_metacallEN11QMetaObject4CallEiPPv
libQt6ChartsQml.so.6:_ZN17DeclarativeBarSet11qt_metacastEPKc
libQt6ChartsQml.so.6:_ZN17DeclarativeBarSet12countChangedEi
libQt6ChartsQml.so.6:_ZN17DeclarativeBarSet14setBorderWidthEd
libQt6ChartsQml.so.6:_ZN17DeclarativeBarSet16setBrushFilenameERK7QString
libQt6ChartsQml.so.6:_ZN17DeclarativeBarSet16staticMetaObjectE
libQt6ChartsQml.so.6:_ZN17DeclarativeBarSet18borderWidthChangedEd
libQt6ChartsQml.so.6:_ZN17DeclarativeBarSet18handleBrushChangedEv
libQt6ChartsQml.so.6:_ZN17DeclarativeBarSet18handleCountChangedEii
libQt6ChartsQml.so.6:_ZN17DeclarativeBarSet20brushFilenameChangedERK7QString
libQt6ChartsQml.so.6:_ZN17DeclarativeBarSet6valuesEv
libQt6ChartsQml.so.6:_ZN17DeclarativeBarSet9setValuesE5QListI8QVariantE
libQt6ChartsQml.so.6:_ZN17DeclarativeBarSetC1EP7QObject
libQt6ChartsQml.so.6:_ZN17DeclarativeBarSetC2EP7QObject
libQt6ChartsQml.so.6:_ZN17DeclarativeBoxSet11qt_metacallEN11QMetaObject4CallEiPPv
libQt6ChartsQml.so.6:_ZN17DeclarativeBoxSet11qt_metacastEPKc
libQt6ChartsQml.so.6:_ZN17DeclarativeBoxSet12changedValueEi
libQt6ChartsQml.so.6:_ZN17DeclarativeBoxSet13changedValuesEv
libQt6ChartsQml.so.6:_ZN17DeclarativeBoxSet16setBrushFilenameERK7QString
libQt6ChartsQml.so.6:_ZN17DeclarativeBoxSet16staticMetaObjectE
libQt6ChartsQml.so.6:_ZN17DeclarativeBoxSet18handleBrushChangedEv
libQt6ChartsQml.so.6:_ZN17DeclarativeBoxSet20brushFilenameChangedERK7QString
libQt6ChartsQml.so.6:_ZN17DeclarativeBoxSet6valuesEv
libQt6ChartsQml.so.6:_ZN17DeclarativeBoxSet9setValuesE5QListI8QVariantE
libQt6ChartsQml.so.6:_ZN17DeclarativeBoxSetC1E7QStringP7QObject
libQt6ChartsQml.so.6:_ZN17DeclarativeBoxSetC2E7QStringP7QObject
libQt6ChartsQml.so.6:_ZN18DeclarativeMargins10topChangedEiiii
libQt6ChartsQml.so.6:_ZN18DeclarativeMargins11leftChangedEiiii
libQt6ChartsQml.so.6:_ZN18DeclarativeMargins11qt_metacallEN11QMetaObject4CallEiPPv
libQt6ChartsQml.so.6:_ZN18DeclarativeMargins11qt_metacastEPKc
libQt6ChartsQml.so.6:_ZN18DeclarativeMargins12rightChangedEiiii
libQt6ChartsQml.so.6:_ZN18DeclarativeMargins13bottomChangedEiiii
libQt6ChartsQml.so.6:_ZN18DeclarativeMargins16staticMetaObjectE
libQt6ChartsQml.so.6:_ZN18DeclarativeMargins6setTopEi
libQt6ChartsQml.so.6:_ZN18DeclarativeMargins7setLeftEi
libQt6ChartsQml.so.6:_ZN18DeclarativeMargins8setRightEi
libQt6ChartsQml.so.6:_ZN18DeclarativeMargins9setBottomEi
libQt6ChartsQml.so.6:_ZN18DeclarativeMarginsC1EP7QObject
libQt6ChartsQml.so.6:_ZN18DeclarativeMarginsC2EP7QObject
libQt6ChartsQml.so.6:_ZN18DeclarativeXYPoint11qt_metacallEN11QMetaObject4CallEiPPv
libQt6ChartsQml.so.6:_ZN18DeclarativeXYPoint11qt_metacastEPKc
libQt6ChartsQml.so.6:_ZN18DeclarativeXYPoint16staticMetaObjectE
libQt6ChartsQml.so.6:_ZN18DeclarativeXYPointC1EP7QObject
libQt6ChartsQml.so.6:_ZN18DeclarativeXYPointC2EP7QObject
libQt6ChartsQml.so.6:_ZN19DeclarativePieSlice11qt_metacallEN11QMetaObject4CallEiPPv
libQt6ChartsQml.so.6:_ZN19DeclarativePieSlice11qt_metacastEPKc
libQt6ChartsQml.so.6:_ZN19DeclarativePieSlice16setBrushFilenameERK7QString
libQt6ChartsQml.so.6:_ZN19DeclarativePieSlice16staticMetaObjectE
libQt6ChartsQml.so.6:_ZN19DeclarativePieSlice18handleBrushChangedEv
libQt6ChartsQml.so.6:_ZN19DeclarativePieSlice20brushFilenameChangedERK7QString
libQt6ChartsQml.so.6:_ZN19DeclarativePieSliceC1EP7QObject
libQt6ChartsQml.so.6:_ZN19DeclarativePieSliceC2EP7QObject
libQt6ChartsQml.so.6:_ZN19DeclarativeXySeries10classBeginEv
libQt6ChartsQml.so.6:_ZN19DeclarativeXySeries12removePointsEii
libQt6ChartsQml.so.6:_ZN19DeclarativeXySeries17componentCompleteEv
libQt6ChartsQml.so.6:_ZN19DeclarativeXySeries2atEi
libQt6ChartsQml.so.6:_ZN19DeclarativeXySeries5clearEv
libQt6ChartsQml.so.6:_ZN19DeclarativeXySeries6appendEdd
libQt6ChartsQml.so.6:_ZN19DeclarativeXySeries6insertEidd
libQt6ChartsQml.so.6:_ZN19DeclarativeXySeries6removeEdd
libQt6ChartsQml.so.6:_ZN19DeclarativeXySeries6removeEi
libQt6ChartsQml.so.6:_ZN19DeclarativeXySeries7replaceEdddd
libQt6ChartsQml.so.6:_ZN19DeclarativeXySeries7replaceEidd
libQt6ChartsQml.so.6:_ZN19DeclarativeXySeriesC1Ev
libQt6ChartsQml.so.6:_ZN19DeclarativeXySeriesC2Ev
libQt6ChartsQml.so.6:_ZN19DeclarativeXySeriesD1Ev
libQt6ChartsQml.so.6:_ZN19DeclarativeXySeriesD2Ev
libQt6ChartsQml.so.6:_ZN20DeclarativeBarSeries10classBeginEv
libQt6ChartsQml.so.6:_ZN20DeclarativeBarSeries11qt_metacallEN11QMetaObject4CallEiPPv
libQt6ChartsQml.so.6:_ZN20DeclarativeBarSeries11qt_metacastEPKc
libQt6ChartsQml.so.6:_ZN20DeclarativeBarSeries12axisXChangedEP13QAbstractAxis
libQt6ChartsQml.so.6:_ZN20DeclarativeBarSeries12axisYChangedEP13QAbstractAxis
libQt6ChartsQml.so.6:_ZN20DeclarativeBarSeries14seriesChildrenEv
libQt6ChartsQml.so.6:_ZN20DeclarativeBarSeries15axisXTopChangedEP13QAbstractAxis
libQt6ChartsQml.so.6:_ZN20DeclarativeBarSeries16staticMetaObjectE
libQt6ChartsQml.so.6:_ZN20DeclarativeBarSeries17axisYRightChangedEP13QAbstractAxis
libQt6ChartsQml.so.6:_ZN20DeclarativeBarSeries17componentCompleteEv
libQt6ChartsQml.so.6:_ZN20DeclarativeBarSeries20appendSeriesChildrenEP16QQmlListPropertyI7QObjectEPS1_
libQt6ChartsQml.so.6:_ZN20DeclarativeBarSeries2atEi
libQt6ChartsQml.so.6:_ZN20DeclarativeBarSeries6insertEi7QString5QListI8QVariantE
libQt6ChartsQml.so.6:_ZN20DeclarativeBarSeriesC1EP10QQuickItem
libQt6ChartsQml.so.6:_ZN20DeclarativeBarSeriesC2EP10QQuickItem
libQt6ChartsQml.so.6:_ZN21DeclarativeAreaSeries11qt_metacallEN11QMetaObject4CallEiPPv
libQt6ChartsQml.so.6:_ZN21DeclarativeAreaSeries11qt_metacastEPKc
libQt6ChartsQml.so.6:_ZN21DeclarativeAreaSeries12axisXChangedEP13QAbstractAxis
libQt6ChartsQml.so.6:_ZN21DeclarativeAreaSeries12axisYChangedEP13QAbstractAxis
libQt6ChartsQml.so.6:_ZN21DeclarativeAreaSeries12brushChangedEv
libQt6ChartsQml.so.6:_ZN21DeclarativeAreaSeries14setBorderWidthEd
libQt6ChartsQml.so.6:_ZN21DeclarativeAreaSeries14setLowerSeriesEP21DeclarativeLineSeries
libQt6ChartsQml.so.6:_ZN21DeclarativeAreaSeries14setUpperSeriesEP21DeclarativeLineSeries
libQt6ChartsQml.so.6:_ZN21DeclarativeAreaSeries15axisXTopChangedEP13QAbstractAxis
libQt6ChartsQml.so.6:_ZN21DeclarativeAreaSeries16setBrushFilenameERK7QString
libQt6ChartsQml.so.6:_ZN21DeclarativeAreaSeries16staticMetaObjectE
libQt6ChartsQml.so.6:_ZN21DeclarativeAreaSeries17axisRadialChangedEP13QAbstractAxis
libQt6ChartsQml.so.6:_ZN21DeclarativeAreaSeries17axisYRightChangedEP13QAbstractAxis
libQt6ChartsQml.so.6:_ZN21DeclarativeAreaSeries18axisAngularChangedEP13QAbstractAxis
libQt6ChartsQml.so.6:_ZN21DeclarativeAreaSeries18borderWidthChangedEd
libQt6ChartsQml.so.6:_ZN21DeclarativeAreaSeries18handleBrushChangedEv
libQt6ChartsQml.so.6:_ZN21DeclarativeAreaSeries20brushFilenameChangedERK7QString
libQt6ChartsQml.so.6:_ZN21DeclarativeAreaSeries8setBrushERK6QBrush
libQt6ChartsQml.so.6:_ZN21DeclarativeAreaSeriesC1EP7QObject
libQt6ChartsQml.so.6:_ZN21DeclarativeAreaSeriesC2EP7QObject
libQt6ChartsQml.so.6:_ZN21DeclarativeLineSeries11qt_metacallEN11QMetaObject4CallEiPPv
libQt6ChartsQml.so.6:_ZN21DeclarativeLineSeries11qt_metacastEPKc
libQt6ChartsQml.so.6:_ZN21DeclarativeLineSeries11setCapStyleEN2Qt11PenCapStyleE
libQt6ChartsQml.so.6:_ZN21DeclarativeLineSeries12axisXChangedEP13QAbstractAxis
libQt6ChartsQml.so.6:_ZN21DeclarativeLineSeries12axisYChangedEP13QAbstractAxis
libQt6ChartsQml.so.6:_ZN21DeclarativeLineSeries12countChangedEi
libQt6ChartsQml.so.6:_ZN21DeclarativeLineSeries12styleChangedEN2Qt8PenStyleE
libQt6ChartsQml.so.6:_ZN21DeclarativeLineSeries12widthChangedEd
libQt6ChartsQml.so.6:_ZN21DeclarativeLineSeries15axisXTopChangedEP13QAbstractAxis
libQt6ChartsQml.so.6:_ZN21DeclarativeLineSeries15capStyleChangedEN2Qt11PenCapStyleE
libQt6ChartsQml.so.6:_ZN21DeclarativeLineSeries16staticMetaObjectE
libQt6ChartsQml.so.6:_ZN21DeclarativeLineSeries17axisRadialChangedEP13QAbstractAxis
libQt6ChartsQml.so.6:_ZN21DeclarativeLineSeries17axisYRightChangedEP13QAbstractAxis
libQt6ChartsQml.so.6:_ZN21DeclarativeLineSeries18axisAngularChangedEP13QAbstractAxis
libQt6ChartsQml.so.6:_ZN21DeclarativeLineSeries18handleCountChangedEi
libQt6ChartsQml.so.6:_ZN21DeclarativeLineSeries19declarativeChildrenEv
libQt6ChartsQml.so.6:_ZN21DeclarativeLineSeries25appendDeclarativeChildrenEP16QQmlListPropertyI7QObjectEPS1_
libQt6ChartsQml.so.6:_ZN21DeclarativeLineSeries8setStyleEN2Qt8PenStyleE
libQt6ChartsQml.so.6:_ZN21DeclarativeLineSeries8setWidthEd
libQt6ChartsQml.so.6:_ZN21DeclarativeLineSeriesC1EP7QObject
libQt6ChartsQml.so.6:_ZN21DeclarativeLineSeriesC2EP7QObject
libQt6ChartsQml.so.6:_ZN21DeclarativePolarChart11qt_metacallEN11QMetaObject4CallEiPPv
libQt6ChartsQml.so.6:_ZN21DeclarativePolarChart11qt_metacastEPKc
libQt6ChartsQml.so.6:_ZN21DeclarativePolarChart16staticMetaObjectE
libQt6ChartsQml.so.6:_ZN21DeclarativePolarChartC1EP10QQuickItem
libQt6ChartsQml.so.6:_ZN21DeclarativePolarChartC2EP10QQuickItem
libQt6ChartsQml.so.6:_ZN21DeclarativePolarChartD0Ev
libQt6ChartsQml.so.6:_ZN21DeclarativePolarChartD1Ev
libQt6ChartsQml.so.6:_ZN21DeclarativePolarChartD2Ev
libQt6ChartsQml.so.6:_ZN23DeclarativeSplineSeries11qt_metacallEN11QMetaObject4CallEiPPv
libQt6ChartsQml.so.6:_ZN23DeclarativeSplineSeries11qt_metacastEPKc
libQt6ChartsQml.so.6:_ZN23DeclarativeSplineSeries11setCapStyleEN2Qt11PenCapStyleE
libQt6ChartsQml.so.6:_ZN23DeclarativeSplineSeries12axisXChangedEP13QAbstractAxis
libQt6ChartsQml.so.6:_ZN23DeclarativeSplineSeries12axisYChangedEP13QAbstractAxis
libQt6ChartsQml.so.6:_ZN23DeclarativeSplineSeries12countChangedEi
libQt6ChartsQml.so.6:_ZN23DeclarativeSplineSeries12styleChangedEN2Qt8PenStyleE
libQt6ChartsQml.so.6:_ZN23DeclarativeSplineSeries12widthChangedEd
libQt6ChartsQml.so.6:_ZN23DeclarativeSplineSeries15axisXTopChangedEP13QAbstractAxis
libQt6ChartsQml.so.6:_ZN23DeclarativeSplineSeries15capStyleChangedEN2Qt11PenCapStyleE
libQt6ChartsQml.so.6:_ZN23DeclarativeSplineSeries16staticMetaObjectE
libQt6ChartsQml.so.6:_ZN23DeclarativeSplineSeries17axisRadialChangedEP13QAbstractAxis
libQt6ChartsQml.so.6:_ZN23DeclarativeSplineSeries17axisYRightChangedEP13QAbstractAxis
libQt6ChartsQml.so.6:_ZN23DeclarativeSplineSeries18axisAngularChangedEP13QAbstractAxis
libQt6ChartsQml.so.6:_ZN23DeclarativeSplineSeries18handleCountChangedEi
libQt6ChartsQml.so.6:_ZN23DeclarativeSplineSeries19declarativeChildrenEv
libQt6ChartsQml.so.6:_ZN23DeclarativeSplineSeries25appendDeclarativeChildrenEP16QQmlListPropertyI7QObjectEPS1_
libQt6ChartsQml.so.6:_ZN23DeclarativeSplineSeries8setStyleEN2Qt8PenStyleE
libQt6ChartsQml.so.6:_ZN23DeclarativeSplineSeries8setWidthEd
libQt6ChartsQml.so.6:_ZN23DeclarativeSplineSeriesC1EP7QObject
libQt6ChartsQml.so.6:_ZN23DeclarativeSplineSeriesC2EP7QObject
libQt6ChartsQml.so.6:_ZN24DeclarativeBoxPlotSeries10classBeginEv
libQt6ChartsQml.so.6:_ZN24DeclarativeBoxPlotSeries10onReleasedEP7QBoxSet
libQt6ChartsQml.so.6:_ZN24DeclarativeBoxPlotSeries11qt_metacallEN11QMetaObject4CallEiPPv
libQt6ChartsQml.so.6:_ZN24DeclarativeBoxPlotSeries11qt_metacastEPKc
libQt6ChartsQml.so.6:_ZN24DeclarativeBoxPlotSeries12axisXChangedEP13QAbstractAxis
libQt6ChartsQml.so.6:_ZN24DeclarativeBoxPlotSeries12axisYChangedEP13QAbstractAxis
libQt6ChartsQml.so.6:_ZN24DeclarativeBoxPlotSeries13doubleClickedEP17DeclarativeBoxSet
libQt6ChartsQml.so.6:_ZN24DeclarativeBoxPlotSeries14seriesChildrenEv
libQt6ChartsQml.so.6:_ZN24DeclarativeBoxPlotSeries15axisXTopChangedEP13QAbstractAxis
libQt6ChartsQml.so.6:_ZN24DeclarativeBoxPlotSeries15onDoubleClickedEP7QBoxSet
libQt6ChartsQml.so.6:_ZN24DeclarativeBoxPlotSeries16setBrushFilenameERK7QString
libQt6ChartsQml.so.6:_ZN24DeclarativeBoxPlotSeries16staticMetaObjectE
libQt6ChartsQml.so.6:_ZN24DeclarativeBoxPlotSeries17axisYRightChangedEP13QAbstractAxis
libQt6ChartsQml.so.6:_ZN24DeclarativeBoxPlotSeries17componentCompleteEv
libQt6ChartsQml.so.6:_ZN24DeclarativeBoxPlotSeries18handleBrushChangedEv
libQt6ChartsQml.so.6:_ZN24DeclarativeBoxPlotSeries20appendSeriesChildrenEP16QQmlListPropertyI7QObjectEPS1_
libQt6ChartsQml.so.6:_ZN24DeclarativeBoxPlotSeries20brushFilenameChangedERK7QString
libQt6ChartsQml.so.6:_ZN24DeclarativeBoxPlotSeries2atEi
libQt6ChartsQml.so.6:_ZN24DeclarativeBoxPlotSeries6insertEi7QString5QListI8QVariantE
libQt6ChartsQml.so.6:_ZN24DeclarativeBoxPlotSeries7clickedEP17DeclarativeBoxSet
libQt6ChartsQml.so.6:_ZN24DeclarativeBoxPlotSeries7hoveredEbP17DeclarativeBoxSet
libQt6ChartsQml.so.6:_ZN24DeclarativeBoxPlotSeries7pressedEP17DeclarativeBoxSet
libQt6ChartsQml.so.6:_ZN24DeclarativeBoxPlotSeries8releasedEP17DeclarativeBoxSet
libQt6ChartsQml.so.6:_ZN24DeclarativeBoxPlotSeries9onClickedEP7QBoxSet
libQt6ChartsQml.so.6:_ZN24DeclarativeBoxPlotSeries9onHoveredEbP7QBoxSet
libQt6ChartsQml.so.6:_ZN24DeclarativeBoxPlotSeries9onPressedEP7QBoxSet
libQt6ChartsQml.so.6:_ZN24DeclarativeBoxPlotSeriesC1EP10QQuickItem
libQt6ChartsQml.so.6:_ZN24DeclarativeBoxPlotSeriesC2EP10QQuickItem
libQt6ChartsQml.so.6:_ZN24DeclarativeCategoryRange11qt_metacallEN11QMetaObject4CallEiPPv
libQt6ChartsQml.so.6:_ZN24DeclarativeCategoryRange11qt_metacastEPKc
libQt6ChartsQml.so.6:_ZN24DeclarativeCategoryRange16staticMetaObjectE
libQt6ChartsQml.so.6:_ZN24DeclarativeCategoryRange8setLabelERK7QString
libQt6ChartsQml.so.6:_ZN24DeclarativeCategoryRangeC1EP7QObject
libQt6ChartsQml.so.6:_ZN24DeclarativeCategoryRangeC2EP7QObject
libQt6ChartsQml.so.6:_ZN24DeclarativeScatterSeries11qt_metacallEN11QMetaObject4CallEiPPv
libQt6ChartsQml.so.6:_ZN24DeclarativeScatterSeries11qt_metacastEPKc
libQt6ChartsQml.so.6:_ZN24DeclarativeScatterSeries12axisXChangedEP13QAbstractAxis
libQt6ChartsQml.so.6:_ZN24DeclarativeScatterSeries12axisYChangedEP13QAbstractAxis
libQt6ChartsQml.so.6:_ZN24DeclarativeScatterSeries12brushChangedEv
libQt6ChartsQml.so.6:_ZN24DeclarativeScatterSeries12countChangedEi
libQt6ChartsQml.so.6:_ZN24DeclarativeScatterSeries14setBorderWidthEd
libQt6ChartsQml.so.6:_ZN24DeclarativeScatterSeries15axisXTopChangedEP13QAbstractAxis
libQt6ChartsQml.so.6:_ZN24DeclarativeScatterSeries16setBrushFilenameERK7QString
libQt6ChartsQml.so.6:_ZN24DeclarativeScatterSeries16staticMetaObjectE
libQt6ChartsQml.so.6:_ZN24DeclarativeScatterSeries17axisRadialChangedEP13QAbstractAxis
libQt6ChartsQml.so.6:_ZN24DeclarativeScatterSeries17axisYRightChangedEP13QAbstractAxis
libQt6ChartsQml.so.6:_ZN24DeclarativeScatterSeries18axisAngularChangedEP13QAbstractAxis
libQt6ChartsQml.so.6:_ZN24DeclarativeScatterSeries18borderWidthChangedEd
libQt6ChartsQml.so.6:_ZN24DeclarativeScatterSeries18handleBrushChangedEv
libQt6ChartsQml.so.6:_ZN24DeclarativeScatterSeries18handleCountChangedEi
libQt6ChartsQml.so.6:_ZN24DeclarativeScatterSeries19declarativeChildrenEv
libQt6ChartsQml.so.6:_ZN24DeclarativeScatterSeries20brushFilenameChangedERK7QString
libQt6ChartsQml.so.6:_ZN24DeclarativeScatterSeries25appendDeclarativeChildrenEP16QQmlListPropertyI7QObjectEPS1_
libQt6ChartsQml.so.6:_ZN24DeclarativeScatterSeries8setBrushERK6QBrush
libQt6ChartsQml.so.6:_ZN24DeclarativeScatterSeriesC1EP7QObject
libQt6ChartsQml.so.6:_ZN24DeclarativeScatterSeriesC2EP7QObject
libQt6ChartsQml.so.6:_ZN25DeclarativeCandlestickSet11qt_metacallEN11QMetaObject4CallEiPPv
libQt6ChartsQml.so.6:_ZN25DeclarativeCandlestickSet11qt_metacastEPKc
libQt6ChartsQml.so.6:_ZN25DeclarativeCandlestickSet16setBrushFilenameERK7QString
libQt6ChartsQml.so.6:_ZN25DeclarativeCandlestickSet16staticMetaObjectE
libQt6ChartsQml.so.6:_ZN25DeclarativeCandlestickSet18handleBrushChangedEv
libQt6ChartsQml.so.6:_ZN25DeclarativeCandlestickSet20brushFilenameChangedERK7QString
libQt6ChartsQml.so.6:_ZN25DeclarativeCandlestickSetC1EdP7QObject
libQt6ChartsQml.so.6:_ZN25DeclarativeCandlestickSetC2EdP7QObject
libQt6ChartsQml.so.6:_ZN27DeclarativePercentBarSeries10classBeginEv
libQt6ChartsQml.so.6:_ZN27DeclarativePercentBarSeries11qt_metacallEN11QMetaObject4CallEiPPv
libQt6ChartsQml.so.6:_ZN27DeclarativePercentBarSeries11qt_metacastEPKc
libQt6ChartsQml.so.6:_ZN27DeclarativePercentBarSeries12axisXChangedEP13QAbstractAxis
libQt6ChartsQml.so.6:_ZN27DeclarativePercentBarSeries12axisYChangedEP13QAbstractAxis
libQt6ChartsQml.so.6:_ZN27DeclarativePercentBarSeries14seriesChildrenEv
libQt6ChartsQml.so.6:_ZN27DeclarativePercentBarSeries15axisXTopChangedEP13QAbstractAxis
libQt6ChartsQml.so.6:_ZN27DeclarativePercentBarSeries16staticMetaObjectE
libQt6ChartsQml.so.6:_ZN27DeclarativePercentBarSeries17axisYRightChangedEP13QAbstractAxis
libQt6ChartsQml.so.6:_ZN27DeclarativePercentBarSeries17componentCompleteEv
libQt6ChartsQml.so.6:_ZN27DeclarativePercentBarSeries20appendSeriesChildrenEP16QQmlListPropertyI7QObjectEPS1_
libQt6ChartsQml.so.6:_ZN27DeclarativePercentBarSeries2atEi
libQt6ChartsQml.so.6:_ZN27DeclarativePercentBarSeries6insertEi7QString5QListI8QVariantE
libQt6ChartsQml.so.6:_ZN27DeclarativePercentBarSeriesC1EP10QQuickItem
libQt6ChartsQml.so.6:_ZN27DeclarativePercentBarSeriesC2EP10QQuickItem
libQt6ChartsQml.so.6:_ZN27DeclarativeStackedBarSeries10classBeginEv
libQt6ChartsQml.so.6:_ZN27DeclarativeStackedBarSeries11qt_metacallEN11QMetaObject4CallEiPPv
libQt6ChartsQml.so.6:_ZN27DeclarativeStackedBarSeries11qt_metacastEPKc
libQt6ChartsQml.so.6:_ZN27DeclarativeStackedBarSeries12axisXChangedEP13QAbstractAxis
libQt6ChartsQml.so.6:_ZN27DeclarativeStackedBarSeries12axisYChangedEP13QAbstractAxis
libQt6ChartsQml.so.6:_ZN27DeclarativeStackedBarSeries14seriesChildrenEv
libQt6ChartsQml.so.6:_ZN27DeclarativeStackedBarSeries15axisXTopChangedEP13QAbstractAxis
libQt6ChartsQml.so.6:_ZN27DeclarativeStackedBarSeries16staticMetaObjectE
libQt6ChartsQml.so.6:_ZN27DeclarativeStackedBarSeries17axisYRightChangedEP13QAbstractAxis
libQt6ChartsQml.so.6:_ZN27DeclarativeStackedBarSeries17componentCompleteEv
libQt6ChartsQml.so.6:_ZN27DeclarativeStackedBarSeries20appendSeriesChildrenEP16QQmlListPropertyI7QObjectEPS1_
libQt6ChartsQml.so.6:_ZN27DeclarativeStackedBarSeries2atEi
libQt6ChartsQml.so.6:_ZN27DeclarativeStackedBarSeries6insertEi7QString5QListI8QVariantE
libQt6ChartsQml.so.6:_ZN27DeclarativeStackedBarSeriesC1EP10QQuickItem
libQt6ChartsQml.so.6:_ZN27DeclarativeStackedBarSeriesC2EP10QQuickItem
libQt6ChartsQml.so.6:_ZN30DeclarativeHorizontalBarSeries10classBeginEv
libQt6ChartsQml.so.6:_ZN30DeclarativeHorizontalBarSeries11qt_metacallEN11QMetaObject4CallEiPPv
libQt6ChartsQml.so.6:_ZN30DeclarativeHorizontalBarSeries11qt_metacastEPKc
libQt6ChartsQml.so.6:_ZN30DeclarativeHorizontalBarSeries12axisXChangedEP13QAbstractAxis
libQt6ChartsQml.so.6:_ZN30DeclarativeHorizontalBarSeries12axisYChangedEP13QAbstractAxis
libQt6ChartsQml.so.6:_ZN30DeclarativeHorizontalBarSeries14seriesChildrenEv
libQt6ChartsQml.so.6:_ZN30DeclarativeHorizontalBarSeries15axisXTopChangedEP13QAbstractAxis
libQt6ChartsQml.so.6:_ZN30DeclarativeHorizontalBarSeries16staticMetaObjectE
libQt6ChartsQml.so.6:_ZN30DeclarativeHorizontalBarSeries17axisYRightChangedEP13QAbstractAxis
libQt6ChartsQml.so.6:_ZN30DeclarativeHorizontalBarSeries17componentCompleteEv
libQt6ChartsQml.so.6:_ZN30DeclarativeHorizontalBarSeries20appendSeriesChildrenEP16QQmlListPropertyI7QObjectEPS1_
libQt6ChartsQml.so.6:_ZN30DeclarativeHorizontalBarSeries2atEi
libQt6ChartsQml.so.6:_ZN30DeclarativeHorizontalBarSeries6insertEi7QString5QListI8QVariantE
libQt6ChartsQml.so.6:_ZN30DeclarativeHorizontalBarSeriesC1EP10QQuickItem
libQt6ChartsQml.so.6:_ZN30DeclarativeHorizontalBarSeriesC2EP10QQuickItem
libQt6ChartsQml.so.6:_ZN37DeclarativeHorizontalPercentBarSeries10classBeginEv
libQt6ChartsQml.so.6:_ZN37DeclarativeHorizontalPercentBarSeries11qt_metacallEN11QMetaObject4CallEiPPv
libQt6ChartsQml.so.6:_ZN37DeclarativeHorizontalPercentBarSeries11qt_metacastEPKc
libQt6ChartsQml.so.6:_ZN37DeclarativeHorizontalPercentBarSeries12axisXChangedEP13QAbstractAxis
libQt6ChartsQml.so.6:_ZN37DeclarativeHorizontalPercentBarSeries12axisYChangedEP13QAbstractAxis
libQt6ChartsQml.so.6:_ZN37DeclarativeHorizontalPercentBarSeries14seriesChildrenEv
libQt6ChartsQml.so.6:_ZN37DeclarativeHorizontalPercentBarSeries15axisXTopChangedEP13QAbstractAxis
libQt6ChartsQml.so.6:_ZN37DeclarativeHorizontalPercentBarSeries16staticMetaObjectE
libQt6ChartsQml.so.6:_ZN37DeclarativeHorizontalPercentBarSeries17axisYRightChangedEP13QAbstractAxis
libQt6ChartsQml.so.6:_ZN37DeclarativeHorizontalPercentBarSeries17componentCompleteEv
libQt6ChartsQml.so.6:_ZN37DeclarativeHorizontalPercentBarSeries20appendSeriesChildrenEP16QQmlListPropertyI7QObjectEPS1_
libQt6ChartsQml.so.6:_ZN37DeclarativeHorizontalPercentBarSeries2atEi
libQt6ChartsQml.so.6:_ZN37DeclarativeHorizontalPercentBarSeries6insertEi7QString5QListI8QVariantE
libQt6ChartsQml.so.6:_ZN37DeclarativeHorizontalPercentBarSeriesC1EP10QQuickItem
libQt6ChartsQml.so.6:_ZN37DeclarativeHorizontalPercentBarSeriesC2EP10QQuickItem
libQt6ChartsQml.so.6:_ZN37DeclarativeHorizontalStackedBarSeries10classBeginEv
libQt6ChartsQml.so.6:_ZN37DeclarativeHorizontalStackedBarSeries11qt_metacallEN11QMetaObject4CallEiPPv
libQt6ChartsQml.so.6:_ZN37DeclarativeHorizontalStackedBarSeries11qt_metacastEPKc
libQt6ChartsQml.so.6:_ZN37DeclarativeHorizontalStackedBarSeries12axisXChangedEP13QAbstractAxis
libQt6ChartsQml.so.6:_ZN37DeclarativeHorizontalStackedBarSeries12axisYChangedEP13QAbstractAxis
libQt6ChartsQml.so.6:_ZN37DeclarativeHorizontalStackedBarSeries14seriesChildrenEv
libQt6ChartsQml.so.6:_ZN37DeclarativeHorizontalStackedBarSeries15axisXTopChangedEP13QAbstractAxis
libQt6ChartsQml.so.6:_ZN37DeclarativeHorizontalStackedBarSeries16staticMetaObjectE
libQt6ChartsQml.so.6:_ZN37DeclarativeHorizontalStackedBarSeries17axisYRightChangedEP13QAbstractAxis
libQt6ChartsQml.so.6:_ZN37DeclarativeHorizontalStackedBarSeries17componentCompleteEv
libQt6ChartsQml.so.6:_ZN37DeclarativeHorizontalStackedBarSeries20appendSeriesChildrenEP16QQmlListPropertyI7QObjectEPS1_
libQt6ChartsQml.so.6:_ZN37DeclarativeHorizontalStackedBarSeries2atEi
libQt6ChartsQml.so.6:_ZN37DeclarativeHorizontalStackedBarSeries6insertEi7QString5QListI8QVariantE
libQt6ChartsQml.so.6:_ZN37DeclarativeHorizontalStackedBarSeriesC1EP10QQuickItem
libQt6ChartsQml.so.6:_ZN37DeclarativeHorizontalStackedBarSeriesC2EP10QQuickItem
libQt6ChartsQml.so.6:_ZNK15DeclarativeAxes10metaObjectEv
libQt6ChartsQml.so.6:_ZNK16DeclarativeChart10metaObjectEv
libQt6ChartsQml.so.6:_ZNK16DeclarativeChart15localizeNumbersEv
libQt6ChartsQml.so.6:_ZNK16DeclarativeChart17animationDurationEv
libQt6ChartsQml.so.6:_ZNK16DeclarativeChart19backgroundRoundnessEv
libQt6ChartsQml.so.6:_ZNK16DeclarativeChart20animationEasingCurveEv
libQt6ChartsQml.so.6:_ZNK16DeclarativeChart6localeEv
libQt6ChartsQml.so.6:_ZNK16DeclarativeChart9titleFontEv
libQt6ChartsQml.so.6:_ZNK17DeclarativeBarSet10metaObjectEv
libQt6ChartsQml.so.6:_ZNK17DeclarativeBarSet11borderWidthEv
libQt6ChartsQml.so.6:_ZNK17DeclarativeBarSet13brushFilenameEv
libQt6ChartsQml.so.6:_ZNK17DeclarativeBoxSet10metaObjectEv
libQt6ChartsQml.so.6:_ZNK17DeclarativeBoxSet13brushFilenameEv
libQt6ChartsQml.so.6:_ZNK18DeclarativeMargins10metaObjectEv
libQt6ChartsQml.so.6:_ZNK18DeclarativeXYPoint10metaObjectEv
libQt6ChartsQml.so.6:_ZNK19DeclarativePieSlice10metaObjectEv
libQt6ChartsQml.so.6:_ZNK19DeclarativePieSlice13brushFilenameEv
libQt6ChartsQml.so.6:_ZNK20DeclarativeBarSeries10metaObjectEv
libQt6ChartsQml.so.6:_ZNK21DeclarativeAreaSeries10metaObjectEv
libQt6ChartsQml.so.6:_ZNK21DeclarativeAreaSeries11borderWidthEv
libQt6ChartsQml.so.6:_ZNK21DeclarativeAreaSeries11lowerSeriesEv
libQt6ChartsQml.so.6:_ZNK21DeclarativeAreaSeries11upperSeriesEv
libQt6ChartsQml.so.6:_ZNK21DeclarativeAreaSeries13brushFilenameEv
libQt6ChartsQml.so.6:_ZNK21DeclarativeAreaSeries5brushEv
libQt6ChartsQml.so.6:_ZNK21DeclarativeLineSeries10metaObjectEv
libQt6ChartsQml.so.6:_ZNK21DeclarativeLineSeries5styleEv
libQt6ChartsQml.so.6:_ZNK21DeclarativeLineSeries5widthEv
libQt6ChartsQml.so.6:_ZNK21DeclarativeLineSeries8capStyleEv
libQt6ChartsQml.so.6:_ZNK21DeclarativePolarChart10metaObjectEv
libQt6ChartsQml.so.6:_ZNK23DeclarativeSplineSeries10metaObjectEv
libQt6ChartsQml.so.6:_ZNK23DeclarativeSplineSeries5styleEv
libQt6ChartsQml.so.6:_ZNK23DeclarativeSplineSeries5widthEv
libQt6ChartsQml.so.6:_ZNK23DeclarativeSplineSeries8capStyleEv
libQt6ChartsQml.so.6:_ZNK24DeclarativeBoxPlotSeries10metaObjectEv
libQt6ChartsQml.so.6:_ZNK24DeclarativeBoxPlotSeries13brushFilenameEv
libQt6ChartsQml.so.6:_ZNK24DeclarativeCategoryRange10metaObjectEv
libQt6ChartsQml.so.6:_ZNK24DeclarativeScatterSeries10metaObjectEv
libQt6ChartsQml.so.6:_ZNK24DeclarativeScatterSeries11borderWidthEv
libQt6ChartsQml.so.6:_ZNK24DeclarativeScatterSeries13brushFilenameEv
libQt6ChartsQml.so.6:_ZNK24DeclarativeScatterSeries5brushEv
libQt6ChartsQml.so.6:_ZNK25DeclarativeCandlestickSet10metaObjectEv
libQt6ChartsQml.so.6:_ZNK25DeclarativeCandlestickSet13brushFilenameEv
libQt6ChartsQml.so.6:_ZNK27DeclarativePercentBarSeries10metaObjectEv
libQt6ChartsQml.so.6:_ZNK27DeclarativeStackedBarSeries10metaObjectEv
libQt6ChartsQml.so.6:_ZNK30DeclarativeHorizontalBarSeries10metaObjectEv
libQt6ChartsQml.so.6:_ZNK37DeclarativeHorizontalPercentBarSeries10metaObjectEv
libQt6ChartsQml.so.6:_ZNK37DeclarativeHorizontalStackedBarSeries10metaObjectEv
libQt6ChartsQml.so.6:_ZThn16_N16DeclarativeChart17componentCompleteEv
libQt6ChartsQml.so.6:_ZThn16_N16DeclarativeChartD0Ev
libQt6ChartsQml.so.6:_ZThn16_N16DeclarativeChartD1Ev
libQt6ChartsQml.so.6:_ZThn16_N21DeclarativePolarChartD0Ev
libQt6ChartsQml.so.6:_ZThn16_N21DeclarativePolarChartD1Ev
libQt6ChartsQml.so.6:_ZThn24_N20DeclarativeBarSeries10classBeginEv
libQt6ChartsQml.so.6:_ZThn24_N20DeclarativeBarSeries17componentCompleteEv
libQt6ChartsQml.so.6:_ZThn24_N24DeclarativeBoxPlotSeries10classBeginEv
libQt6ChartsQml.so.6:_ZThn24_N24DeclarativeBoxPlotSeries17componentCompleteEv
libQt6ChartsQml.so.6:_ZThn24_N27DeclarativePercentBarSeries10classBeginEv
libQt6ChartsQml.so.6:_ZThn24_N27DeclarativePercentBarSeries17componentCompleteEv
libQt6ChartsQml.so.6:_ZThn24_N27DeclarativeStackedBarSeries10classBeginEv
libQt6ChartsQml.so.6:_ZThn24_N27DeclarativeStackedBarSeries17componentCompleteEv
libQt6ChartsQml.so.6:_ZThn24_N30DeclarativeHorizontalBarSeries10classBeginEv
libQt6ChartsQml.so.6:_ZThn24_N30DeclarativeHorizontalBarSeries17componentCompleteEv
libQt6ChartsQml.so.6:_ZThn24_N37DeclarativeHorizontalPercentBarSeries10classBeginEv
libQt6ChartsQml.so.6:_ZThn24_N37DeclarativeHorizontalPercentBarSeries17componentCompleteEv
libQt6ChartsQml.so.6:_ZThn24_N37DeclarativeHorizontalStackedBarSeries10classBeginEv
libQt6ChartsQml.so.6:_ZThn24_N37DeclarativeHorizontalStackedBarSeries17componentCompleteEv
libqtchartsqml2plugin.so:qt_plugin_instance
libqtchartsqml2plugin.so:qt_plugin_query_metadata
