UNKNOWN:_ZNKSt7__cxx1112basic_stringIcSt11char_traitsIcESaIcEE4findEPKcmm
UNKNOWN:_ZNKSt7__cxx1112basic_stringIcSt11char_traitsIcESaIcEE7compareEPKc
UNKNOWN:_ZNSt7__cxx1112basic_stringIcSt11char_traitsIcESaIcEE10_M_replaceEmmPKcm
UNKNOWN:_ZNSt7__cxx1112basic_stringIcSt11char_traitsIcESaIcEE14_M_replace_auxEmmmc
UNKNOWN:_ZNSt7__cxx1112basic_stringIcSt11char_traitsIcESaIcEE4swapERS4_
UNKNOWN:_ZNSt7__cxx1112basic_stringIcSt11char_traitsIcESaIcEE7reserveEm
UNKNOWN:_ZNSt7__cxx1112basic_stringIcSt11char_traitsIcESaIcEE9_M_appendEPKcm
UNKNOWN:_ZNSt7__cxx1112basic_stringIcSt11char_traitsIcESaIcEE9_M_assignERKS4_
UNKNOWN:_ZTIN5Exiv28AnyErrorE
UNKNOWN:_ZTIN5boost15program_options22error_with_option_nameE
UNKNOWN:_ZTIN5boost15program_options29value_semantic_codecvt_helperIcEE
UNKNOWN:_ZTIN7Iex_2_57TypeExcE
UNKNOWN:_ZTIN7Imf_2_59AttributeE
UNKNOWN:_ZTVN5boost15program_options13variables_mapE
UNKNOWN:_ZTVN5boost15program_options22error_with_option_nameE
libIex-2_5.so.25:_ZN7Iex_2_57TypeExcC1EPKc
libIex-2_5.so.25:_ZN7Iex_2_57TypeExcD1Ev
libIlmImf-2_5.so.25:_ZN7Imf_2_510OutputFile11writePixelsEi
libIlmImf-2_5.so.25:_ZN7Imf_2_510OutputFile14setFrameBufferERKNS_11FrameBufferE
libIlmImf-2_5.so.25:_ZN7Imf_2_510OutputFileC1EPKcRKNS_6HeaderEi
libIlmImf-2_5.so.25:_ZN7Imf_2_510OutputFileD1Ev
libIlmImf-2_5.so.25:_ZN7Imf_2_511ChannelList6insertEPKcRKNS_7ChannelE
libIlmImf-2_5.so.25:_ZN7Imf_2_511FrameBuffer6insertEPKcRKNS_5SliceE
libIlmImf-2_5.so.25:_ZN7Imf_2_514TypedAttributeINSt7__cxx1112basic_stringIcSt11char_traitsIcESaIcEEEE13readValueFromERNS_7IStreamEii
libIlmImf-2_5.so.25:_ZN7Imf_2_514TypedAttributeINSt7__cxx1112basic_stringIcSt11char_traitsIcESaIcEEEE14staticTypeNameEv
libIlmImf-2_5.so.25:_ZN7Imf_2_514whiteLuminanceERKNS_6HeaderE
libIlmImf-2_5.so.25:_ZN7Imf_2_517globalThreadCountEv
libIlmImf-2_5.so.25:_ZN7Imf_2_517hasWhiteLuminanceERKNS_6HeaderE
libIlmImf-2_5.so.25:_ZN7Imf_2_55SliceC1ENS_9PixelTypeEPcmmiidbb
libIlmImf-2_5.so.25:_ZN7Imf_2_56Header6insertEPKcRKNS_9AttributeE
libIlmImf-2_5.so.25:_ZN7Imf_2_56Header8channelsEv
libIlmImf-2_5.so.25:_ZN7Imf_2_56HeaderC1EiifRKN9Imath_2_54Vec2IfEEfNS_9LineOrderENS_11CompressionE
libIlmImf-2_5.so.25:_ZN7Imf_2_56HeaderD1Ev
libIlmImf-2_5.so.25:_ZN7Imf_2_57ChannelC1ENS_9PixelTypeEiib
libIlmImf-2_5.so.25:_ZN7Imf_2_59AttributeC2Ev
libIlmImf-2_5.so.25:_ZN7Imf_2_59AttributeD2Ev
libIlmImf-2_5.so.25:_ZN7Imf_2_59InputFile10readPixelsEii
libIlmImf-2_5.so.25:_ZN7Imf_2_59InputFile14setFrameBufferERKNS_11FrameBufferE
libIlmImf-2_5.so.25:_ZN7Imf_2_59InputFileC1EPKci
libIlmImf-2_5.so.25:_ZN7Imf_2_59InputFileD1Ev
libIlmImf-2_5.so.25:_ZNK7Imf_2_511ChannelList3endEv
libIlmImf-2_5.so.25:_ZNK7Imf_2_511ChannelList5beginEv
libIlmImf-2_5.so.25:_ZNK7Imf_2_514TypedAttributeINSt7__cxx1112basic_stringIcSt11char_traitsIcESaIcEEEE12writeValueToERNS_7OStreamEi
libIlmImf-2_5.so.25:_ZNK7Imf_2_56Header10dataWindowEv
libIlmImf-2_5.so.25:_ZNK7Imf_2_56Header3endEv
libIlmImf-2_5.so.25:_ZNK7Imf_2_56Header5beginEv
libIlmImf-2_5.so.25:_ZNK7Imf_2_56Header8channelsEv
libIlmImf-2_5.so.25:_ZNK7Imf_2_59InputFile6headerEv
libQt5Concurrent.so.5:_ZN12QtConcurrent16ThreadEngineBase10isCanceledEv
libQt5Concurrent.so.5:_ZN12QtConcurrent16ThreadEngineBase11startThreadEv
libQt5Concurrent.so.5:_ZN12QtConcurrent16ThreadEngineBase13waitForResumeEv
libQt5Concurrent.so.5:_ZN12QtConcurrent16ThreadEngineBase16setProgressRangeEii
libQt5Concurrent.so.5:_ZN12QtConcurrent16ThreadEngineBase16setProgressValueEi
libQt5Concurrent.so.5:_ZN12QtConcurrent16ThreadEngineBase23acquireBarrierSemaphoreEv
libQt5Concurrent.so.5:_ZN12QtConcurrent16ThreadEngineBase26isProgressReportingEnabledEv
libQt5Concurrent.so.5:_ZN12QtConcurrent16ThreadEngineBase3runEv
libQt5Concurrent.so.5:_ZN12QtConcurrent16ThreadEngineBaseC2Ev
libQt5Concurrent.so.5:_ZN12QtConcurrent16ThreadEngineBaseD2Ev
libQt5Concurrent.so.5:_ZN12QtConcurrent18BlockSizeManagerV213timeAfterUserEv
libQt5Concurrent.so.5:_ZN12QtConcurrent18BlockSizeManagerV214timeBeforeUserEv
libQt5Concurrent.so.5:_ZN12QtConcurrent18BlockSizeManagerV29blockSizeEv
libQt5Concurrent.so.5:_ZN12QtConcurrent18BlockSizeManagerV2C1Ei
libQt5Concurrent.so.5:_ZTIN12QtConcurrent16ThreadEngineBaseE
libQt5Core.so.5:_Z20qt_qFindChild_helperPK7QObjectRK7QStringRK11QMetaObject6QFlagsIN2Qt15FindChildOptionEE
libQt5Core.so.5:_Z21qRegisterResourceDataiPKhS0_S0_
libQt5Core.so.5:_Z23qUnregisterResourceDataiPKhS0_S0_
libQt5Core.so.5:_Z9qBadAllocv
libQt5Core.so.5:_ZN10QArrayData10deallocateEPS_mm
libQt5Core.so.5:_ZN10QArrayData11shared_nullE
libQt5Core.so.5:_ZN10QArrayData8allocateEmmm6QFlagsINS_16AllocationOptionEE
libQt5Core.so.5:_ZN10QByteArray11reallocDataEj6QFlagsIN10QArrayData16AllocationOptionEE
libQt5Core.so.5:_ZN10QByteArray6appendEPKc
libQt5Core.so.5:_ZN10QByteArray6appendEPKci
libQt5Core.so.5:_ZN10QByteArray6appendEc
libQt5Core.so.5:_ZN10QByteArray7replaceEPKciS1_i
libQt5Core.so.5:_ZN10QByteArrayC1EPKci
libQt5Core.so.5:_ZN10QSemaphore10tryAcquireEi
libQt5Core.so.5:_ZN10QSemaphore7releaseEi
libQt5Core.so.5:_ZN10QSemaphoreC1Ei
libQt5Core.so.5:_ZN10QSemaphoreD1Ev
libQt5Core.so.5:_ZN11QFileDevice5closeEv
libQt5Core.so.5:_ZN11QMetaObject10ConnectionD1Ev
libQt5Core.so.5:_ZN11QMetaObject12invokeMethodEP7QObjectPKcN2Qt14ConnectionTypeE22QGenericReturnArgument16QGenericArgumentS7_S7_S7_S7_S7_S7_S7_S7_S7_
libQt5Core.so.5:_ZN11QMetaObject14normalizedTypeEPKc
libQt5Core.so.5:_ZN11QMetaObject18connectSlotsByNameEP7QObject
libQt5Core.so.5:_ZN11QMetaObject8activateEP7QObjectPKS_iPPv
libQt5Core.so.5:_ZN11QTextStream22setRealNumberPrecisionEi
libQt5Core.so.5:_ZN11QTextStream5flushEv
libQt5Core.so.5:_ZN11QTextStream7readAllEv
libQt5Core.so.5:_ZN11QTextStream8readLineEx
libQt5Core.so.5:_ZN11QTextStream8setCodecEPKc
libQt5Core.so.5:_ZN11QTextStreamC1EP10QByteArray6QFlagsIN9QIODevice12OpenModeFlagEE
libQt5Core.so.5:_ZN11QTextStreamC1EP7QString6QFlagsIN9QIODevice12OpenModeFlagEE
libQt5Core.so.5:_ZN11QTextStreamC1EP8_IO_FILE6QFlagsIN9QIODevice12OpenModeFlagEE
libQt5Core.so.5:_ZN11QTextStreamC1EP9QIODevice
libQt5Core.so.5:_ZN11QTextStreamD1Ev
libQt5Core.so.5:_ZN11QTextStreamlsEPKc
libQt5Core.so.5:_ZN11QTextStreamlsERK7QString
libQt5Core.so.5:_ZN11QTextStreamlsEc
libQt5Core.so.5:_ZN11QTextStreamlsEf
libQt5Core.so.5:_ZN11QTextStreamlsEi
libQt5Core.so.5:_ZN11QThreadPool14globalInstanceEv
libQt5Core.so.5:_ZN11QThreadPool5startEP9QRunnablei
libQt5Core.so.5:_ZN11QTranslator4loadERK7QStringS2_S2_S2_
libQt5Core.so.5:_ZN11QTranslatorC1EP7QObject
libQt5Core.so.5:_ZN12QLibraryInfo8locationENS_15LibraryLocationE
libQt5Core.so.5:_ZN12QMapDataBase10createDataEv
libQt5Core.so.5:_ZN12QMapDataBase10createNodeEiiP12QMapNodeBaseb
libQt5Core.so.5:_ZN12QMapDataBase11shared_nullE
libQt5Core.so.5:_ZN12QMapDataBase18recalcMostLeftNodeEv
libQt5Core.so.5:_ZN12QMapDataBase20freeNodeAndRebalanceEP12QMapNodeBase
libQt5Core.so.5:_ZN12QMapDataBase8freeDataEPS_
libQt5Core.so.5:_ZN12QMapDataBase8freeTreeEP12QMapNodeBasei
libQt5Core.so.5:_ZN13QSignalMapper10setMappingEP7QObjectP7QWidget
libQt5Core.so.5:_ZN13QSignalMapper10setMappingEP7QObjecti
libQt5Core.so.5:_ZN13QSignalMapper16staticMetaObjectE
libQt5Core.so.5:_ZN13QSignalMapper6mappedEP7QWidget
libQt5Core.so.5:_ZN13QSignalMapperC1EP7QObject
libQt5Core.so.5:_ZN15QtSharedPointer20ExternalRefCountData16setQObjectSharedEPK7QObjectb
libQt5Core.so.5:_ZN16QCoreApplication16removeTranslatorEP11QTranslator
libQt5Core.so.5:_ZN16QCoreApplication17installTranslatorEP11QTranslator
libQt5Core.so.5:_ZN16QCoreApplication18applicationDirPathEv
libQt5Core.so.5:_ZN16QCoreApplication18setApplicationNameERK7QString
libQt5Core.so.5:_ZN16QCoreApplication19setOrganizationNameERK7QString
libQt5Core.so.5:_ZN16QCoreApplication4execEv
libQt5Core.so.5:_ZN16QCoreApplication4selfE
libQt5Core.so.5:_ZN16QCoreApplication9argumentsEv
libQt5Core.so.5:_ZN16QCoreApplication9translateEPKcS1_S1_i
libQt5Core.so.5:_ZN16QCoreApplicationC1ERiPPci
libQt5Core.so.5:_ZN16QCoreApplicationD1Ev
libQt5Core.so.5:_ZN16QStringListModelC1EP7QObject
libQt5Core.so.5:_ZN18QAbstractItemModel10insertRowsEiiRK11QModelIndex
libQt5Core.so.5:_ZN18QAbstractItemModel10removeRowsEiiRK11QModelIndex
libQt5Core.so.5:_ZN18QAbstractItemModel11moveColumnsERK11QModelIndexiiS2_i
libQt5Core.so.5:_ZN18QAbstractItemModel11qt_metacallEN11QMetaObject4CallEiPPv
libQt5Core.so.5:_ZN18QAbstractItemModel11qt_metacastEPKc
libQt5Core.so.5:_ZN18QAbstractItemModel11setItemDataERK11QModelIndexRK4QMapIi8QVariantE
libQt5Core.so.5:_ZN18QAbstractItemModel12dropMimeDataEPK9QMimeDataN2Qt10DropActionEiiRK11QModelIndex
libQt5Core.so.5:_ZN18QAbstractItemModel13insertColumnsEiiRK11QModelIndex
libQt5Core.so.5:_ZN18QAbstractItemModel13removeColumnsEiiRK11QModelIndex
libQt5Core.so.5:_ZN18QAbstractItemModel13setHeaderDataEiN2Qt11OrientationERK8QVarianti
libQt5Core.so.5:_ZN18QAbstractItemModel4sortEiN2Qt9SortOrderE
libQt5Core.so.5:_ZN18QAbstractItemModel6revertEv
libQt5Core.so.5:_ZN18QAbstractItemModel6submitEv
libQt5Core.so.5:_ZN18QAbstractItemModel7setDataERK11QModelIndexRK8QVarianti
libQt5Core.so.5:_ZN18QAbstractItemModel8moveRowsERK11QModelIndexiiS2_i
libQt5Core.so.5:_ZN18QAbstractItemModel9fetchMoreERK11QModelIndex
libQt5Core.so.5:_ZN18QAbstractItemModelC2EP7QObject
libQt5Core.so.5:_ZN18QAbstractItemModelD2Ev
libQt5Core.so.5:_ZN18QFutureWatcherBase11qt_metacallEN11QMetaObject4CallEiPPv
libQt5Core.so.5:_ZN18QFutureWatcherBase11qt_metacastEPKc
libQt5Core.so.5:_ZN18QFutureWatcherBase13connectNotifyERK11QMetaMethod
libQt5Core.so.5:_ZN18QFutureWatcherBase15waitForFinishedEv
libQt5Core.so.5:_ZN18QFutureWatcherBase16disconnectNotifyERK11QMetaMethod
libQt5Core.so.5:_ZN18QFutureWatcherBase16staticMetaObjectE
libQt5Core.so.5:_ZN18QFutureWatcherBase20progressRangeChangedEii
libQt5Core.so.5:_ZN18QFutureWatcherBase20progressValueChangedEi
libQt5Core.so.5:_ZN18QFutureWatcherBase22connectOutputInterfaceEv
libQt5Core.so.5:_ZN18QFutureWatcherBase25disconnectOutputInterfaceEb
libQt5Core.so.5:_ZN18QFutureWatcherBase5eventEP6QEvent
libQt5Core.so.5:_ZN18QFutureWatcherBase6cancelEv
libQt5Core.so.5:_ZN18QFutureWatcherBase7startedEv
libQt5Core.so.5:_ZN18QFutureWatcherBase8finishedEv
libQt5Core.so.5:_ZN18QFutureWatcherBaseC2EP7QObject
libQt5Core.so.5:_ZN19QItemSelectionModel16selectionChangedERK14QItemSelectionS2_
libQt5Core.so.5:_ZN19QItemSelectionModel16staticMetaObjectE
libQt5Core.so.5:_ZN19QItemSelectionModelC1EP18QAbstractItemModel
libQt5Core.so.5:_ZN19QUnhandledExceptionD1Ev
libQt5Core.so.5:_ZN20QFutureInterfaceBase11setRunnableEP9QRunnable
libQt5Core.so.5:_ZN20QFutureInterfaceBase13reportStartedEv
libQt5Core.so.5:_ZN20QFutureInterfaceBase13setThreadPoolEP11QThreadPool
libQt5Core.so.5:_ZN20QFutureInterfaceBase13waitForResultEi
libQt5Core.so.5:_ZN20QFutureInterfaceBase14reportFinishedEv
libQt5Core.so.5:_ZN20QFutureInterfaceBase15reportExceptionERK10QException
libQt5Core.so.5:_ZN20QFutureInterfaceBase15resultStoreBaseEv
libQt5Core.so.5:_ZN20QFutureInterfaceBase18reportResultsReadyEii
libQt5Core.so.5:_ZN20QFutureInterfaceBaseC1ERKS_
libQt5Core.so.5:_ZN20QFutureInterfaceBaseC2ENS_5StateE
libQt5Core.so.5:_ZN20QFutureInterfaceBaseC2ERKS_
libQt5Core.so.5:_ZN20QFutureInterfaceBaseD1Ev
libQt5Core.so.5:_ZN20QFutureInterfaceBaseD2Ev
libQt5Core.so.5:_ZN20QFutureInterfaceBaseaSERKS_
libQt5Core.so.5:_ZN20QTextStreamFunctions4endlER11QTextStream
libQt5Core.so.5:_ZN20QTextStreamFunctions5fixedER11QTextStream
libQt5Core.so.5:_ZN20QTextStreamFunctions5rightER11QTextStream
libQt5Core.so.5:_ZN20QTextStreamFunctions9forcesignER11QTextStream
libQt5Core.so.5:_ZN21QSortFilterProxyModel15setFilterRegExpERK7QRegExp
libQt5Core.so.5:_ZN21QSortFilterProxyModel20setDynamicSortFilterEb
libQt5Core.so.5:_ZN21QSortFilterProxyModelC1EP7QObject
libQt5Core.so.5:_ZN4QDir10setSortingE6QFlagsINS_8SortFlagEE
libQt5Core.so.5:_ZN4QDir11currentPathEv
libQt5Core.so.5:_ZN4QDir14setNameFiltersERK11QStringList
libQt5Core.so.5:_ZN4QDir18toNativeSeparatorsERK7QString
libQt5Core.so.5:_ZN4QDir8homePathEv
libQt5Core.so.5:_ZN4QDir8tempPathEv
libQt5Core.so.5:_ZN4QDir9cleanPathERK7QString
libQt5Core.so.5:_ZN4QDir9separatorEv
libQt5Core.so.5:_ZN4QDir9setFilterE6QFlagsINS_6FilterEE
libQt5Core.so.5:_ZN4QDirC1ERK7QString
libQt5Core.so.5:_ZN4QDirD1Ev
libQt5Core.so.5:_ZN4QUrl13fromLocalFileERK7QString
libQt5Core.so.5:_ZN4QUrlC1ERK7QStringNS_11ParsingModeE
libQt5Core.so.5:_ZN4QUrlC1Ev
libQt5Core.so.5:_ZN4QUrlD1Ev
libQt5Core.so.5:_ZN4QUrlaSERKS_
libQt5Core.so.5:_ZN5QDate11currentDateEv
libQt5Core.so.5:_ZN5QDateC1Eiii
libQt5Core.so.5:_ZN5QFile4openE6QFlagsIN9QIODevice12OpenModeFlagEE
libQt5Core.so.5:_ZN5QFile6existsERK7QString
libQt5Core.so.5:_ZN5QFile6removeERK7QString
libQt5Core.so.5:_ZN5QFile6removeEv
libQt5Core.so.5:_ZN5QFileC1ERK7QString
libQt5Core.so.5:_ZN5QFileD1Ev
libQt5Core.so.5:_ZN5QUuid10createUuidEv
libQt5Core.so.5:_ZN6QDebug12putByteArrayEPKcmNS_13Latin1ContentE
libQt5Core.so.5:_ZN6QDebug9putStringEPK5QCharm
libQt5Core.so.5:_ZN6QDebugD1Ev
libQt5Core.so.5:_ZN6QMutex4lockEv
libQt5Core.so.5:_ZN6QMutex6unlockEv
libQt5Core.so.5:_ZN6QMutexD1Ev
libQt5Core.so.5:_ZN6QTimer11setIntervalEi
libQt5Core.so.5:_ZN6QTimer14singleShotImplEiN2Qt9TimerTypeEPK7QObjectPN9QtPrivate15QSlotObjectBaseE
libQt5Core.so.5:_ZN6QTimer16staticMetaObjectE
libQt5Core.so.5:_ZN6QTimer4stopEv
libQt5Core.so.5:_ZN6QTimer5startEv
libQt5Core.so.5:_ZN6QTimer7timeoutENS_14QPrivateSignalE
libQt5Core.so.5:_ZN6QTimerC1EP7QObject
libQt5Core.so.5:_ZN7QBufferC1EP10QByteArrayP7QObject
libQt5Core.so.5:_ZN7QBufferD1Ev
libQt5Core.so.5:_ZN7QLocale6systemEv
libQt5Core.so.5:_ZN7QLocaleC1Ev
libQt5Core.so.5:_ZN7QLocaleD1Ev
libQt5Core.so.5:_ZN7QObject10childEventEP11QChildEvent
libQt5Core.so.5:_ZN7QObject10disconnectEPKS_PKcS1_S3_
libQt5Core.so.5:_ZN7QObject10startTimerEiN2Qt9TimerTypeE
libQt5Core.so.5:_ZN7QObject10timerEventEP11QTimerEvent
libQt5Core.so.5:_ZN7QObject11connectImplEPKS_PPvS1_S3_PN9QtPrivate15QSlotObjectBaseEN2Qt14ConnectionTypeEPKiPK11QMetaObject
libQt5Core.so.5:_ZN7QObject11customEventEP6QEvent
libQt5Core.so.5:_ZN7QObject11deleteLaterEv
libQt5Core.so.5:_ZN7QObject11eventFilterEPS_P6QEvent
libQt5Core.so.5:_ZN7QObject11qt_metacallEN11QMetaObject4CallEiPPv
libQt5Core.so.5:_ZN7QObject11qt_metacastEPKc
libQt5Core.so.5:_ZN7QObject12blockSignalsEb
libQt5Core.so.5:_ZN7QObject12moveToThreadEP7QThread
libQt5Core.so.5:_ZN7QObject13connectNotifyERK11QMetaMethod
libQt5Core.so.5:_ZN7QObject13setObjectNameERK7QString
libQt5Core.so.5:_ZN7QObject14disconnectImplEPKS_PPvS1_S3_PK11QMetaObject
libQt5Core.so.5:_ZN7QObject16disconnectNotifyERK11QMetaMethod
libQt5Core.so.5:_ZN7QObject16staticMetaObjectE
libQt5Core.so.5:_ZN7QObject18installEventFilterEPS_
libQt5Core.so.5:_ZN7QObject5eventEP6QEvent
libQt5Core.so.5:_ZN7QObject7connectEPKS_PKcS1_S3_N2Qt14ConnectionTypeE
libQt5Core.so.5:_ZN7QObject9destroyedEPS_
libQt5Core.so.5:_ZN7QObject9killTimerEi
libQt5Core.so.5:_ZN7QObject9setParentEPS_
libQt5Core.so.5:_ZN7QObjectC2EPS_
libQt5Core.so.5:_ZN7QObjectD2Ev
libQt5Core.so.5:_ZN7QRegExp3capEi
libQt5Core.so.5:_ZN7QRegExpC1ERK7QStringN2Qt15CaseSensitivityENS_13PatternSyntaxE
libQt5Core.so.5:_ZN7QRegExpD1Ev
libQt5Core.so.5:_ZN7QString11reallocDataEjb
libQt5Core.so.5:_ZN7QString13toUtf8_helperERKS_
libQt5Core.so.5:_ZN7QString14compare_helperEPK5QChariPKciN2Qt15CaseSensitivityE
libQt5Core.so.5:_ZN7QString14toUpper_helperERKS_
libQt5Core.so.5:_ZN7QString14toUpper_helperERS_
libQt5Core.so.5:_ZN7QString14trimmed_helperERS_
libQt5Core.so.5:_ZN7QString15fromUtf8_helperEPKci
libQt5Core.so.5:_ZN7QString16fromAscii_helperEPKci
libQt5Core.so.5:_ZN7QString17fromLatin1_helperEPKci
libQt5Core.so.5:_ZN7QString18toLocal8Bit_helperEPK5QChari
libQt5Core.so.5:_ZN7QString6appendE13QLatin1String
libQt5Core.so.5:_ZN7QString6appendERK10QStringRef
libQt5Core.so.5:_ZN7QString6appendERKS_
libQt5Core.so.5:_ZN7QString6insertEiPK5QChari
libQt5Core.so.5:_ZN7QString6numberEdci
libQt5Core.so.5:_ZN7QString6numberEii
libQt5Core.so.5:_ZN7QString6removeERKS_N2Qt15CaseSensitivityE
libQt5Core.so.5:_ZN7QStringC1E5QChar
libQt5Core.so.5:_ZN7QStringaSE13QLatin1String
libQt5Core.so.5:_ZN7QStringaSERKS_
libQt5Core.so.5:_ZN7QThread11qt_metacallEN11QMetaObject4CallEiPPv
libQt5Core.so.5:_ZN7QThread11qt_metacastEPKc
libQt5Core.so.5:_ZN7QThread16staticMetaObjectE
libQt5Core.so.5:_ZN7QThread4quitEv
libQt5Core.so.5:_ZN7QThread4waitE14QDeadlineTimer
libQt5Core.so.5:_ZN7QThread5eventEP6QEvent
libQt5Core.so.5:_ZN7QThread5startENS_8PriorityE
libQt5Core.so.5:_ZN7QThread8finishedENS_14QPrivateSignalE
libQt5Core.so.5:_ZN7QThreadC1EP7QObject
libQt5Core.so.5:_ZN7QThreadC2EP7QObject
libQt5Core.so.5:_ZN7QThreadD2Ev
libQt5Core.so.5:_ZN8QProcess13errorOccurredENS_12ProcessErrorE
libQt5Core.so.5:_ZN8QProcess14setEnvironmentERK11QStringList
libQt5Core.so.5:_ZN8QProcess16staticMetaObjectE
libQt5Core.so.5:_ZN8QProcess17systemEnvironmentEv
libQt5Core.so.5:_ZN8QProcess19setWorkingDirectoryERK7QString
libQt5Core.so.5:_ZN8QProcess4killEv
libQt5Core.so.5:_ZN8QProcess5startERK7QStringRK11QStringList6QFlagsIN9QIODevice12OpenModeFlagEE
libQt5Core.so.5:_ZN8QProcess8finishedEiNS_10ExitStatusE
libQt5Core.so.5:_ZN8QProcessC1EP7QObject
libQt5Core.so.5:_ZN8QVariantC1EPKc
libQt5Core.so.5:_ZN8QVariantC1ERK10QByteArray
libQt5Core.so.5:_ZN8QVariantC1ERK11QStringList
libQt5Core.so.5:_ZN8QVariantC1ERK5QDate
libQt5Core.so.5:_ZN8QVariantC1ERK7QString
libQt5Core.so.5:_ZN8QVariantC1ERKS_
libQt5Core.so.5:_ZN8QVariantC1Eb
libQt5Core.so.5:_ZN8QVariantC1Ed
libQt5Core.so.5:_ZN8QVariantC1Ef
libQt5Core.so.5:_ZN8QVariantC1Ei
libQt5Core.so.5:_ZN8QVariantC1Ej
libQt5Core.so.5:_ZN8QVariantD1Ev
libQt5Core.so.5:_ZN9QFileInfoC1ERK7QString
libQt5Core.so.5:_ZN9QFileInfoC1Ev
libQt5Core.so.5:_ZN9QFileInfoD1Ev
libQt5Core.so.5:_ZN9QIODevice16staticMetaObjectE
libQt5Core.so.5:_ZN9QIODevice7readAllEv
libQt5Core.so.5:_ZN9QIODevice9readyReadEv
libQt5Core.so.5:_ZN9QListData11detach_growEPii
libQt5Core.so.5:_ZN9QListData11shared_nullE
libQt5Core.so.5:_ZN9QListData5eraseEPPv
libQt5Core.so.5:_ZN9QListData6appendERKS_
libQt5Core.so.5:_ZN9QListData6appendEv
libQt5Core.so.5:_ZN9QListData6detachEi
libQt5Core.so.5:_ZN9QListData6insertEi
libQt5Core.so.5:_ZN9QListData6removeEi
libQt5Core.so.5:_ZN9QListData7disposeEPNS_4DataE
libQt5Core.so.5:_ZN9QListData7prependEv
libQt5Core.so.5:_ZN9QMetaType22registerNormalizedTypeERK10QByteArrayPFvPvEPFS3_S3_PKvEi6QFlagsINS_8TypeFlagEEPK11QMetaObject
libQt5Core.so.5:_ZN9QMetaType25registerConverterFunctionEPKN9QtPrivate25AbstractConverterFunctionEii
libQt5Core.so.5:_ZN9QMetaType25registerNormalizedTypedefERK10QByteArrayi
libQt5Core.so.5:_ZN9QMetaType27unregisterConverterFunctionEii
libQt5Core.so.5:_ZN9QMetaType30hasRegisteredConverterFunctionEii
libQt5Core.so.5:_ZN9QMetaType8typeNameEi
libQt5Core.so.5:_ZN9QMimeData12setImageDataERK8QVariant
libQt5Core.so.5:_ZN9QMimeDataC1Ev
libQt5Core.so.5:_ZN9QRunnableD2Ev
libQt5Core.so.5:_ZN9QSettings16setDefaultFormatENS_6FormatE
libQt5Core.so.5:_ZN9QSettings7setPathENS_6FormatENS_5ScopeERK7QString
libQt5Core.so.5:_ZN9QSettings8setValueERK7QStringRK8QVariant
libQt5Core.so.5:_ZN9QSettingsC1EP7QObject
libQt5Core.so.5:_ZN9QSettingsC1ERK7QStringNS_6FormatEP7QObject
libQt5Core.so.5:_ZN9QtPrivate12argToQStringE11QStringViewmPPKNS_7ArgBaseE
libQt5Core.so.5:_ZN9QtPrivate15ResultStoreBase9addResultEiPKv
libQt5Core.so.5:_ZN9QtPrivate16QStringList_joinEPK11QStringListPK5QChari
libQt5Core.so.5:_ZN9QtPrivate20QStringList_containsEPK11QStringListRK7QStringN2Qt15CaseSensitivityE
libQt5Core.so.5:_ZN9QtPrivate28QStringList_replaceInStringsEP11QStringListRK7QRegExpRK7QString
libQt5Core.so.5:_ZNK10QByteArray7indexOfEPKci
libQt5Core.so.5:_ZNK10QByteArray7indexOfEci
libQt5Core.so.5:_ZNK10QByteArray8endsWithEc
libQt5Core.so.5:_ZNK11QMetaObject2trEPKcS1_i
libQt5Core.so.5:_ZNK11QMetaObject4castEP7QObject
libQt5Core.so.5:_ZNK11QMetaObject9classNameEv
libQt5Core.so.5:_ZNK11QObjectData17dynamicMetaObjectEv
libQt5Core.so.5:_ZNK11QTextStream5atEndEv
libQt5Core.so.5:_ZNK12QMapNodeBase8nextNodeEv
libQt5Core.so.5:_ZNK14QItemSelection7indexesEv
libQt5Core.so.5:_ZNK14QMessageLogger5debugEPKcz
libQt5Core.so.5:_ZNK14QMessageLogger5debugEv
libQt5Core.so.5:_ZNK18QAbstractItemModel10metaObjectEv
libQt5Core.so.5:_ZNK18QAbstractItemModel11hasChildrenERK11QModelIndex
libQt5Core.so.5:_ZNK18QAbstractItemModel12canFetchMoreERK11QModelIndex
libQt5Core.so.5:_ZNK18QAbstractItemModel15canDropMimeDataEPK9QMimeDataN2Qt10DropActionEiiRK11QModelIndex
libQt5Core.so.5:_ZNK18QAbstractItemModel20supportedDragActionsEv
libQt5Core.so.5:_ZNK18QAbstractItemModel20supportedDropActionsEv
libQt5Core.so.5:_ZNK18QAbstractItemModel4spanERK11QModelIndex
libQt5Core.so.5:_ZNK18QAbstractItemModel5buddyERK11QModelIndex
libQt5Core.so.5:_ZNK18QAbstractItemModel5matchERK11QModelIndexiRK8QVarianti6QFlagsIN2Qt9MatchFlagEE
libQt5Core.so.5:_ZNK18QAbstractItemModel7siblingEiiRK11QModelIndex
libQt5Core.so.5:_ZNK18QAbstractItemModel8itemDataERK11QModelIndex
libQt5Core.so.5:_ZNK18QAbstractItemModel8mimeDataERK5QListI11QModelIndexE
libQt5Core.so.5:_ZNK18QAbstractItemModel9mimeTypesEv
libQt5Core.so.5:_ZNK18QAbstractItemModel9roleNamesEv
libQt5Core.so.5:_ZNK18QFutureWatcherBase10isCanceledEv
libQt5Core.so.5:_ZNK18QFutureWatcherBase10metaObjectEv
libQt5Core.so.5:_ZNK18QFutureWatcherBase9isRunningEv
libQt5Core.so.5:_ZNK19QItemSelectionModel12selectedRowsEi
libQt5Core.so.5:_ZNK20QFutureInterfaceBase10isCanceledEv
libQt5Core.so.5:_ZNK20QFutureInterfaceBase10queryStateENS_5StateE
libQt5Core.so.5:_ZNK20QFutureInterfaceBase15resultStoreBaseEv
libQt5Core.so.5:_ZNK20QFutureInterfaceBase4refTEv
libQt5Core.so.5:_ZNK20QFutureInterfaceBase5mutexEi
libQt5Core.so.5:_ZNK20QFutureInterfaceBase6derefTEv
libQt5Core.so.5:_ZNK20QFutureInterfaceBase8isPausedEv
libQt5Core.so.5:_ZNK4QDir12absolutePathEv
libQt5Core.so.5:_ZNK4QDir4pathEv
libQt5Core.so.5:_ZNK4QDir5mkdirERK7QString
libQt5Core.so.5:_ZNK4QDir6existsERK7QString
libQt5Core.so.5:_ZNK4QDir6existsEv
libQt5Core.so.5:_ZNK4QDir8filePathERK7QString
libQt5Core.so.5:_ZNK4QDir9entryListE6QFlagsINS_6FilterEES0_INS_8SortFlagEE
libQt5Core.so.5:_ZNK4QDir9entryListERK11QStringList6QFlagsINS_6FilterEES3_INS_8SortFlagEE
libQt5Core.so.5:_ZNK4QUrl11toLocalFileEv
libQt5Core.so.5:_ZNK4QUrl6schemeEv
libQt5Core.so.5:_ZNK4QUrl7isValidEv
libQt5Core.so.5:_ZNK5QFile4sizeEv
libQt5Core.so.5:_ZNK5QFile6existsEv
libQt5Core.so.5:_ZNK5QRect10normalizedEv
libQt5Core.so.5:_ZNK5QRect8containsERK6QPointb
libQt5Core.so.5:_ZNK5QUuid8toStringEv
libQt5Core.so.5:_ZNK6QRectF10normalizedEv
libQt5Core.so.5:_ZNK7QLocale4nameEv
libQt5Core.so.5:_ZNK7QLocale8toStringEx
libQt5Core.so.5:_ZNK7QObject10objectNameEv
libQt5Core.so.5:_ZNK7QObject6senderEv
libQt5Core.so.5:_ZNK7QRegExp10exactMatchERK7QString
libQt5Core.so.5:_ZNK7QRegExp7indexInERK7QStringiNS_9CaretModeE
libQt5Core.so.5:_ZNK7QString10startsWithE13QLatin1StringN2Qt15CaseSensitivityE
libQt5Core.so.5:_ZNK7QString10startsWithE5QCharN2Qt15CaseSensitivityE
libQt5Core.so.5:_ZNK7QString10startsWithERKS_N2Qt15CaseSensitivityE
libQt5Core.so.5:_ZNK7QString3argERKS_i5QChar
libQt5Core.so.5:_ZNK7QString3argEdici5QChar
libQt5Core.so.5:_ZNK7QString3argExii5QChar
libQt5Core.so.5:_ZNK7QString3midEii
libQt5Core.so.5:_ZNK7QString4leftEi
libQt5Core.so.5:_ZNK7QString5countERKS_N2Qt15CaseSensitivityE
libQt5Core.so.5:_ZNK7QString5splitERKS_6QFlagsIN2Qt18SplitBehaviorFlagsEENS3_15CaseSensitivityE
libQt5Core.so.5:_ZNK7QString5splitERKS_NS_13SplitBehaviorEN2Qt15CaseSensitivityE
libQt5Core.so.5:_ZNK7QString5toIntEPbi
libQt5Core.so.5:_ZNK7QString7compareE13QLatin1StringN2Qt15CaseSensitivityE
libQt5Core.so.5:_ZNK7QString7compareERKS_N2Qt15CaseSensitivityE
libQt5Core.so.5:_ZNK7QString7indexOfERKS_iN2Qt15CaseSensitivityE
libQt5Core.so.5:_ZNK7QString7leftRefEi
libQt5Core.so.5:_ZNK7QString7sectionERKS_ii6QFlagsINS_11SectionFlagEE
libQt5Core.so.5:_ZNK7QString7toFloatEPb
libQt5Core.so.5:_ZNK7QStringeqE13QLatin1String
libQt5Core.so.5:_ZNK8QProcess5stateEv
libQt5Core.so.5:_ZNK8QVariant11toByteArrayEv
libQt5Core.so.5:_ZNK8QVariant12toStringListEv
libQt5Core.so.5:_ZNK8QVariant5toIntEPb
libQt5Core.so.5:_ZNK8QVariant6toBoolEv
libQt5Core.so.5:_ZNK8QVariant6toDateEv
libQt5Core.so.5:_ZNK8QVariant6toUIntEPb
libQt5Core.so.5:_ZNK8QVariant7toFloatEPb
libQt5Core.so.5:_ZNK8QVariant8toDoubleEPb
libQt5Core.so.5:_ZNK8QVariant8toStringEv
libQt5Core.so.5:_ZNK9QFileInfo10isReadableEv
libQt5Core.so.5:_ZNK9QFileInfo10isWritableEv
libQt5Core.so.5:_ZNK9QFileInfo12absolutePathEv
libQt5Core.so.5:_ZNK9QFileInfo16absoluteFilePathEv
libQt5Core.so.5:_ZNK9QFileInfo16completeBaseNameEv
libQt5Core.so.5:_ZNK9QFileInfo4pathEv
libQt5Core.so.5:_ZNK9QFileInfo5isDirEv
libQt5Core.so.5:_ZNK9QFileInfo6existsEv
libQt5Core.so.5:_ZNK9QFileInfo6suffixEv
libQt5Core.so.5:_ZNK9QFileInfo8baseNameEv
libQt5Core.so.5:_ZNK9QFileInfo8fileNameEv
libQt5Core.so.5:_ZNK9QFileInfo8filePathEv
libQt5Core.so.5:_ZNK9QMimeData4urlsEv
libQt5Core.so.5:_ZNK9QMimeData7hasUrlsEv
libQt5Core.so.5:_ZNK9QSettings5valueERK7QStringRK8QVariant
libQt5Core.so.5:_ZNK9QSettings7allKeysEv
libQt5Core.so.5:_ZNK9QtPrivate15ResultStoreBase10filterModeEv
libQt5Core.so.5:_ZNK9QtPrivate15ResultStoreBase5countEv
libQt5Core.so.5:_ZNK9QtPrivate15ResultStoreBase8resultAtEi
libQt5Core.so.5:_ZTI10QException
libQt5Core.so.5:_ZTI18QAbstractItemModel
libQt5Core.so.5:_ZTI18QFutureWatcherBase
libQt5Core.so.5:_ZTI20QFutureInterfaceBase
libQt5Core.so.5:_ZTI6QEvent
libQt5Core.so.5:_ZTI7QObject
libQt5Core.so.5:_ZTI7QThread
libQt5Core.so.5:_ZTI9QRunnable
libQt5Core.so.5:_ZTV18QFutureWatcherBase
libQt5Core.so.5:_ZTV19QUnhandledException
libQt5Core.so.5:_ZeqRK7QStringS1_
libQt5Core.so.5:_ZltRK7QStringS1_
libQt5Core.so.5:qt_resourceFeatureZlib
libQt5Core.so.5:qt_version_tag
libQt5Gui.so.5:_ZN12QKeySequenceC1ERK7QStringNS_14SequenceFormatE
libQt5Gui.so.5:_ZN12QKeySequenceD1Ev
libQt5Gui.so.5:_ZN12QPaintDeviceC2Ev
libQt5Gui.so.5:_ZN12QPainterPath6lineToERK7QPointF
libQt5Gui.so.5:_ZN12QPainterPathC1ERK7QPointF
libQt5Gui.so.5:_ZN12QPainterPathC1Ev
libQt5Gui.so.5:_ZN12QPainterPathD1Ev
libQt5Gui.so.5:_ZN15QGuiApplication17setOverrideCursorERK7QCursor
libQt5Gui.so.5:_ZN15QGuiApplication20changeOverrideCursorERK7QCursor
libQt5Gui.so.5:_ZN15QGuiApplication21restoreOverrideCursorEv
libQt5Gui.so.5:_ZN15QGuiApplication7paletteEv
libQt5Gui.so.5:_ZN15QLinearGradientC1Edddd
libQt5Gui.so.5:_ZN15QLinearGradientD1Ev
libQt5Gui.so.5:_ZN16QDesktopServices7openUrlERK4QUrl
libQt5Gui.so.5:_ZN4QPen11setCapStyleEN2Qt11PenCapStyleE
libQt5Gui.so.5:_ZN4QPen12setJoinStyleEN2Qt12PenJoinStyleE
libQt5Gui.so.5:_ZN4QPen8setStyleEN2Qt8PenStyleE
libQt5Gui.so.5:_ZN4QPen8setWidthEi
libQt5Gui.so.5:_ZN4QPenC1ERK6QBrushdN2Qt8PenStyleENS3_11PenCapStyleENS3_12PenJoinStyleE
libQt5Gui.so.5:_ZN4QPenC1ERK6QColor
libQt5Gui.so.5:_ZN4QPenD1Ev
libQt5Gui.so.5:_ZN5QDrag11setMimeDataEP9QMimeData
libQt5Gui.so.5:_ZN5QDrag4execE6QFlagsIN2Qt10DropActionEE
libQt5Gui.so.5:_ZN5QDrag9setPixmapERK7QPixmap
libQt5Gui.so.5:_ZN5QDragC1EP7QObject
libQt5Gui.so.5:_ZN5QFont10setKerningEb
libQt5Gui.so.5:_ZN5QFont12setPointSizeEi
libQt5Gui.so.5:_ZN5QFont9setFamilyERK7QString
libQt5Gui.so.5:_ZN5QFont9setWeightEi
libQt5Gui.so.5:_ZN5QFontC1ERK7QStringiib
libQt5Gui.so.5:_ZN5QFontC1Ev
libQt5Gui.so.5:_ZN5QFontD1Ev
libQt5Gui.so.5:_ZN5QIcon12hasThemeIconERK7QString
libQt5Gui.so.5:_ZN5QIcon7addFileERK7QStringRK5QSizeNS_4ModeENS_5StateE
libQt5Gui.so.5:_ZN5QIcon9fromThemeERK7QString
libQt5Gui.so.5:_ZN5QIcon9fromThemeERK7QStringRKS_
libQt5Gui.so.5:_ZN5QIconC1ERK7QString
libQt5Gui.so.5:_ZN5QIconC1Ev
libQt5Gui.so.5:_ZN5QIconD1Ev
libQt5Gui.so.5:_ZN6QBrushC1EN2Qt11GlobalColorENS0_10BrushStyleE
libQt5Gui.so.5:_ZN6QBrushC1ERK6QColorN2Qt10BrushStyleE
libQt5Gui.so.5:_ZN6QBrushC1ERK9QGradient
libQt5Gui.so.5:_ZN6QBrushC1Ev
libQt5Gui.so.5:_ZN6QBrushD1Ev
libQt5Gui.so.5:_ZN6QColor13setNamedColorE13QLatin1String
libQt5Gui.so.5:_ZN6QColor7fromRgbEiiii
libQt5Gui.so.5:_ZN6QColor7fromRgbEj
libQt5Gui.so.5:_ZN6QColor8setAlphaEi
libQt5Gui.so.5:_ZN6QColor9setAlphaFEd
libQt5Gui.so.5:_ZN6QColorC1EN2Qt11GlobalColorE
libQt5Gui.so.5:_ZN6QColorC1Ej
libQt5Gui.so.5:_ZN6QColoraSEN2Qt11GlobalColorE
libQt5Gui.so.5:_ZN6QColoraSERKS_
libQt5Gui.so.5:_ZN6QImage4bitsEv
libQt5Gui.so.5:_ZN6QImage4fillERK6QColor
libQt5Gui.so.5:_ZN6QImage4fillEj
libQt5Gui.so.5:_ZN6QImage8scanLineEi
libQt5Gui.so.5:_ZN6QImage8setPixelEiij
libQt5Gui.so.5:_ZN6QImageC1EPhiiNS_6FormatEPFvPvES2_
libQt5Gui.so.5:_ZN6QImageC1ERK5QSizeNS_6FormatE
libQt5Gui.so.5:_ZN6QImageC1ERKS_
libQt5Gui.so.5:_ZN6QImageC1EiiNS_6FormatE
libQt5Gui.so.5:_ZN6QImageC1Ev
libQt5Gui.so.5:_ZN6QImageD1Ev
libQt5Gui.so.5:_ZN7QCursor3posEv
libQt5Gui.so.5:_ZN7QCursor6setPosEii
libQt5Gui.so.5:_ZN7QCursorC1EN2Qt11CursorShapeE
libQt5Gui.so.5:_ZN7QCursorC1ERK7QPixmapii
libQt5Gui.so.5:_ZN7QCursorD1Ev
libQt5Gui.so.5:_ZN7QPixmap16fromImageInPlaceER6QImage6QFlagsIN2Qt19ImageConversionFlagEE
libQt5Gui.so.5:_ZN7QPixmap19setDevicePixelRatioEd
libQt5Gui.so.5:_ZN7QPixmap4fillERK6QColor
libQt5Gui.so.5:_ZN7QPixmap9fromImageERK6QImage6QFlagsIN2Qt19ImageConversionFlagEE
libQt5Gui.so.5:_ZN7QPixmapC1ERK7QStringPKc6QFlagsIN2Qt19ImageConversionFlagEE
libQt5Gui.so.5:_ZN7QPixmapC1Eii
libQt5Gui.so.5:_ZN7QPixmapD1Ev
libQt5Gui.so.5:_ZN7QRegionC1ERK5QRectNS_10RegionTypeE
libQt5Gui.so.5:_ZN7QRegionC1Ev
libQt5Gui.so.5:_ZN7QRegionD1Ev
libQt5Gui.so.5:_ZN7QRegionpLERKS_
libQt5Gui.so.5:_ZN8QPainter11drawEllipseERK5QRect
libQt5Gui.so.5:_ZN8QPainter11drawEllipseERK6QRectF
libQt5Gui.so.5:_ZN8QPainter11drawPolygonEPK6QPointiN2Qt8FillRuleE
libQt5Gui.so.5:_ZN8QPainter12boundingRectERK5QRectiRK7QString
libQt5Gui.so.5:_ZN8QPainter13setRenderHintENS_10RenderHintEb
libQt5Gui.so.5:_ZN8QPainter15drawRoundedRectERK6QRectFddN2Qt8SizeModeE
libQt5Gui.so.5:_ZN8QPainter17drawConvexPolygonEPK7QPointFi
libQt5Gui.so.5:_ZN8QPainter18setCompositionModeENS_15CompositionModeE
libQt5Gui.so.5:_ZN8QPainter3endEv
libQt5Gui.so.5:_ZN8QPainter4saveEv
libQt5Gui.so.5:_ZN8QPainter6rotateEd
libQt5Gui.so.5:_ZN8QPainter6setPenEN2Qt8PenStyleE
libQt5Gui.so.5:_ZN8QPainter6setPenERK4QPen
libQt5Gui.so.5:_ZN8QPainter6setPenERK6QColor
libQt5Gui.so.5:_ZN8QPainter7restoreEv
libQt5Gui.so.5:_ZN8QPainter7setFontERK5QFont
libQt5Gui.so.5:_ZN8QPainter8drawPathERK12QPainterPath
libQt5Gui.so.5:_ZN8QPainter8drawTextERK5QRectiRK7QStringPS0_
libQt5Gui.so.5:_ZN8QPainter8fillPathERK12QPainterPathRK6QBrush
libQt5Gui.so.5:_ZN8QPainter8fillRectERK5QRectRK6QBrush
libQt5Gui.so.5:_ZN8QPainter8fillRectERK5QRectRK6QColor
libQt5Gui.so.5:_ZN8QPainter8setBrushEN2Qt10BrushStyleE
libQt5Gui.so.5:_ZN8QPainter8setBrushERK6QBrush
libQt5Gui.so.5:_ZN8QPainter9drawImageERK6QRectFRK6QImageS2_6QFlagsIN2Qt19ImageConversionFlagEE
libQt5Gui.so.5:_ZN8QPainter9drawLinesEPK5QLinei
libQt5Gui.so.5:_ZN8QPainter9drawRectsEPK5QRecti
libQt5Gui.so.5:_ZN8QPainter9drawRectsEPK6QRectFi
libQt5Gui.so.5:_ZN8QPainter9translateERK7QPointF
libQt5Gui.so.5:_ZN8QPainterC1EP12QPaintDevice
libQt5Gui.so.5:_ZN8QPainterD1Ev
libQt5Gui.so.5:_ZN8QPalette8setBrushENS_10ColorGroupENS_9ColorRoleERK6QBrush
libQt5Gui.so.5:_ZN8QPaletteC1ERKS_
libQt5Gui.so.5:_ZN8QPaletteC1Ev
libQt5Gui.so.5:_ZN8QPaletteD1Ev
libQt5Gui.so.5:_ZN9QGradient10setColorAtEdRK6QColor
libQt5Gui.so.5:_ZNK5QIcon6pixmapERK5QSizeNS_4ModeENS_5StateE
libQt5Gui.so.5:_ZNK6QBrushcv8QVariantEv
libQt5Gui.so.5:_ZNK6QColor3redEv
libQt5Gui.so.5:_ZNK6QColor3rgbEv
libQt5Gui.so.5:_ZNK6QColor4blueEv
libQt5Gui.so.5:_ZNK6QColor5greenEv
libQt5Gui.so.5:_ZNK6QColor5toHslEv
libQt5Gui.so.5:_ZNK6QColor6alphaFEv
libQt5Gui.so.5:_ZNK6QColor9lightnessEv
libQt5Gui.so.5:_ZNK6QImage4bitsEv
libQt5Gui.so.5:_ZNK6QImage4copyERK5QRect
libQt5Gui.so.5:_ZNK6QImage4rectEv
libQt5Gui.so.5:_ZNK6QImage4saveERK7QStringPKci
libQt5Gui.so.5:_ZNK6QImage4sizeEv
libQt5Gui.so.5:_ZNK6QImage5pixelEii
libQt5Gui.so.5:_ZNK6QImage5widthEv
libQt5Gui.so.5:_ZNK6QImage6heightEv
libQt5Gui.so.5:_ZNK6QImage6isNullEv
libQt5Gui.so.5:_ZNK6QImage6scaledERK5QSizeN2Qt15AspectRatioModeENS3_18TransformationModeE
libQt5Gui.so.5:_ZNK6QImage8scanLineEi
libQt5Gui.so.5:_ZNK6QImagecv8QVariantEv
libQt5Gui.so.5:_ZNK7QPixmap14scaledToHeightEiN2Qt18TransformationModeE
libQt5Gui.so.5:_ZNK7QPixmap4sizeEv
libQt5Gui.so.5:_ZNK7QPixmap6heightEv
libQt5Gui.so.5:_ZNK7QPixmap7toImageEv
libQt5Gui.so.5:_ZNK7QRegion12boundingRectEv
libQt5Gui.so.5:_ZNK7QRegion5rectsEv
libQt5Gui.so.5:_ZNK7QRegion7isEmptyEv
libQt5Gui.so.5:_ZNK7QRegionmiERKS_
libQt5Gui.so.5:_ZNK9QKeyEvent9modifiersEv
libQt5Gui.so.5:_ZTV6QImage
libQt5Network.so.5:_ZN15QNetworkRequest12setRawHeaderERK10QByteArrayS2_
libQt5Network.so.5:_ZN15QNetworkRequestC1ERK4QUrl
libQt5Network.so.5:_ZN15QNetworkRequestD1Ev
libQt5Network.so.5:_ZN21QNetworkAccessManager16staticMetaObjectE
libQt5Network.so.5:_ZN21QNetworkAccessManager3getERK15QNetworkRequest
libQt5Network.so.5:_ZN21QNetworkAccessManager8finishedEP13QNetworkReply
libQt5Network.so.5:_ZN21QNetworkAccessManagerC1EP7QObject
libQt5Network.so.5:_ZNK13QNetworkReply5errorEv
libQt5PrintSupport.so.5:_ZN12QPrintDialog4execEv
libQt5PrintSupport.so.5:_ZN12QPrintDialogC1EP8QPrinterP7QWidget
libQt5PrintSupport.so.5:_ZN12QPrintDialogD1Ev
libQt5PrintSupport.so.5:_ZN19QPrintPreviewDialog14paintRequestedEP8QPrinter
libQt5PrintSupport.so.5:_ZN19QPrintPreviewDialog16staticMetaObjectE
libQt5PrintSupport.so.5:_ZN19QPrintPreviewDialogC1EP8QPrinterP7QWidget6QFlagsIN2Qt10WindowTypeEE
libQt5PrintSupport.so.5:_ZN19QPrintPreviewDialogD1Ev
libQt5PrintSupport.so.5:_ZN8QPrinter11setFullPageEb
libQt5PrintSupport.so.5:_ZN8QPrinterC1ENS_11PrinterModeE
libQt5PrintSupport.so.5:_ZN8QPrinterD1Ev
libQt5Sql.so.5:_ZN10QSqlRecordD1Ev
libQt5Sql.so.5:_ZN12QSqlDatabase11addDatabaseERK7QStringS2_
libQt5Sql.so.5:_ZN12QSqlDatabase11setHostNameERK7QString
libQt5Sql.so.5:_ZN12QSqlDatabase15setDatabaseNameERK7QString
libQt5Sql.so.5:_ZN12QSqlDatabase17defaultConnectionE
libQt5Sql.so.5:_ZN12QSqlDatabase4openEv
libQt5Sql.so.5:_ZN12QSqlDatabase5closeEv
libQt5Sql.so.5:_ZN12QSqlDatabase8databaseERK7QStringb
libQt5Sql.so.5:_ZN12QSqlDatabaseC1ERKS_
libQt5Sql.so.5:_ZN12QSqlDatabaseD1Ev
libQt5Sql.so.5:_ZN14QSqlQueryModel8setQueryERK7QStringRK12QSqlDatabase
libQt5Sql.so.5:_ZN14QSqlQueryModelC1EP7QObject
libQt5Sql.so.5:_ZN14QSqlQueryModelD1Ev
libQt5Sql.so.5:_ZN14QSqlTableModelC1EP7QObject12QSqlDatabase
libQt5Sql.so.5:_ZN9QSqlErrorD1Ev
libQt5Sql.so.5:_ZN9QSqlQuery4execERK7QString
libQt5Sql.so.5:_ZN9QSqlQuery4execEv
libQt5Sql.so.5:_ZN9QSqlQuery4nextEv
libQt5Sql.so.5:_ZN9QSqlQuery7prepareERK7QString
libQt5Sql.so.5:_ZN9QSqlQuery9bindValueERK7QStringRK8QVariant6QFlagsIN4QSql13ParamTypeFlagEE
libQt5Sql.so.5:_ZN9QSqlQueryC1E12QSqlDatabase
libQt5Sql.so.5:_ZN9QSqlQueryC1ERK7QString12QSqlDatabase
libQt5Sql.so.5:_ZN9QSqlQueryD1Ev
libQt5Sql.so.5:_ZNK10QSqlRecord5valueERK7QString
libQt5Sql.so.5:_ZNK12QSqlDatabase9lastErrorEv
libQt5Sql.so.5:_ZNK14QSqlQueryModel6recordEi
libQt5Sql.so.5:_ZNK14QSqlQueryModel8rowCountERK11QModelIndex
libQt5Sql.so.5:_ZNK9QSqlError12databaseTextEv
libQt5Sql.so.5:_ZNK9QSqlQuery5valueEi
libQt5Sql.so.5:_ZNK9QSqlQuery9lastErrorEv
libQt5Sql.so.5:_Zls6QDebugRK9QSqlError
libQt5WebEngineWidgets.so.5:_ZN14QWebEnginePage11linkHoveredERK7QString
libQt5WebEngineWidgets.so.5:_ZN14QWebEnginePage16staticMetaObjectE
libQt5WebEngineWidgets.so.5:_ZN14QWebEngineView10closeEventEP11QCloseEvent
libQt5WebEngineWidgets.so.5:_ZN14QWebEngineView11loadStartedEv
libQt5WebEngineWidgets.so.5:_ZN14QWebEngineView11qt_metacallEN11QMetaObject4CallEiPPv
libQt5WebEngineWidgets.so.5:_ZN14QWebEngineView11qt_metacastEPKc
libQt5WebEngineWidgets.so.5:_ZN14QWebEngineView12createWindowEN14QWebEnginePage13WebWindowTypeE
libQt5WebEngineWidgets.so.5:_ZN14QWebEngineView12loadFinishedEb
libQt5WebEngineWidgets.so.5:_ZN14QWebEngineView13dragMoveEventEP14QDragMoveEvent
libQt5WebEngineWidgets.so.5:_ZN14QWebEngineView13setZoomFactorEd
libQt5WebEngineWidgets.so.5:_ZN14QWebEngineView14dragEnterEventEP15QDragEnterEvent
libQt5WebEngineWidgets.so.5:_ZN14QWebEngineView14dragLeaveEventEP15QDragLeaveEvent
libQt5WebEngineWidgets.so.5:_ZN14QWebEngineView16contextMenuEventEP17QContextMenuEvent
libQt5WebEngineWidgets.so.5:_ZN14QWebEngineView16staticMetaObjectE
libQt5WebEngineWidgets.so.5:_ZN14QWebEngineView4backEv
libQt5WebEngineWidgets.so.5:_ZN14QWebEngineView4loadERK4QUrl
libQt5WebEngineWidgets.so.5:_ZN14QWebEngineView5eventEP6QEvent
libQt5WebEngineWidgets.so.5:_ZN14QWebEngineView7forwardEv
libQt5WebEngineWidgets.so.5:_ZN14QWebEngineView7setHtmlERK7QStringRK4QUrl
libQt5WebEngineWidgets.so.5:_ZN14QWebEngineView8findTextERK7QString6QFlagsIN14QWebEnginePage8FindFlagEERK18QWebEngineCallbackIbE
libQt5WebEngineWidgets.so.5:_ZN14QWebEngineView9dropEventEP10QDropEvent
libQt5WebEngineWidgets.so.5:_ZN14QWebEngineView9hideEventEP10QHideEvent
libQt5WebEngineWidgets.so.5:_ZN14QWebEngineView9showEventEP10QShowEvent
libQt5WebEngineWidgets.so.5:_ZN14QWebEngineViewC2EP7QWidget
libQt5WebEngineWidgets.so.5:_ZN14QWebEngineViewD2Ev
libQt5WebEngineWidgets.so.5:_ZNK14QWebEnginePage3urlEv
libQt5WebEngineWidgets.so.5:_ZNK14QWebEngineView3urlEv
libQt5WebEngineWidgets.so.5:_ZNK14QWebEngineView4pageEv
libQt5WebEngineWidgets.so.5:_ZNK14QWebEngineView5titleEv
libQt5WebEngineWidgets.so.5:_ZNK14QWebEngineView8sizeHintEv
libQt5WebEngineWidgets.so.5:_ZTI14QWebEngineView
libQt5Widgets.so.5:_ZN10QBoxLayout10setSpacingEi
libQt5Widgets.so.5:_ZN10QBoxLayout10setStretchEii
libQt5Widgets.so.5:_ZN10QBoxLayout9addLayoutEP7QLayouti
libQt5Widgets.so.5:_ZN10QBoxLayout9addWidgetEP7QWidgeti6QFlagsIN2Qt13AlignmentFlagEE
libQt5Widgets.so.5:_ZN10QStatusBar11showMessageERK7QStringi
libQt5Widgets.so.5:_ZN10QStatusBar12clearMessageEv
libQt5Widgets.so.5:_ZN10QStatusBar9addWidgetEP7QWidgeti
libQt5Widgets.so.5:_ZN10QStatusBarC1EP7QWidget
libQt5Widgets.so.5:_ZN10QTabWidget10setTabTextEiRK7QString
libQt5Widgets.so.5:_ZN10QTabWidget13setTabEnabledEib
libQt5Widgets.so.5:_ZN10QTabWidget14currentChangedEi
libQt5Widgets.so.5:_ZN10QTabWidget15setCurrentIndexEi
libQt5Widgets.so.5:_ZN10QTabWidget15setDocumentModeEb
libQt5Widgets.so.5:_ZN10QTabWidget15setTabsClosableEb
libQt5Widgets.so.5:_ZN10QTabWidget16setCurrentWidgetEP7QWidget
libQt5Widgets.so.5:_ZN10QTabWidget16staticMetaObjectE
libQt5Widgets.so.5:_ZN10QTabWidget17tabCloseRequestedEi
libQt5Widgets.so.5:_ZN10QTabWidget6addTabEP7QWidgetRK7QString
libQt5Widgets.so.5:_ZN10QTabWidget9insertTabEiP7QWidgetRK7QString
libQt5Widgets.so.5:_ZN10QTabWidget9removeTabEi
libQt5Widgets.so.5:_ZN10QTabWidgetC1EP7QWidget
libQt5Widgets.so.5:_ZN10QTableView9selectRowEi
libQt5Widgets.so.5:_ZN10QTableViewC1EP7QWidget
libQt5Widgets.so.5:_ZN10QWhatsThis18enterWhatsThisModeEv
libQt5Widgets.so.5:_ZN11QDockWidget10closeEventEP11QCloseEvent
libQt5Widgets.so.5:_ZN11QDockWidget10paintEventEP11QPaintEvent
libQt5Widgets.so.5:_ZN11QDockWidget11qt_metacallEN11QMetaObject4CallEiPPv
libQt5Widgets.so.5:_ZN11QDockWidget11qt_metacastEPKc
libQt5Widgets.so.5:_ZN11QDockWidget11setFeaturesE6QFlagsINS_17DockWidgetFeatureEE
libQt5Widgets.so.5:_ZN11QDockWidget16staticMetaObjectE
libQt5Widgets.so.5:_ZN11QDockWidget5eventEP6QEvent
libQt5Widgets.so.5:_ZN11QDockWidget9setWidgetEP7QWidget
libQt5Widgets.so.5:_ZN11QDockWidgetC2ERK7QStringP7QWidget6QFlagsIN2Qt10WindowTypeEE
libQt5Widgets.so.5:_ZN11QDockWidgetD2Ev
libQt5Widgets.so.5:_ZN11QFileDialog15getOpenFileNameEP7QWidgetRK7QStringS4_S4_PS2_6QFlagsINS_6OptionEE
libQt5Widgets.so.5:_ZN11QFileDialog15getSaveFileNameEP7QWidgetRK7QStringS4_S4_PS2_6QFlagsINS_6OptionEE
libQt5Widgets.so.5:_ZN11QFileDialog16getOpenFileNamesEP7QWidgetRK7QStringS4_S4_PS2_6QFlagsINS_6OptionEE
libQt5Widgets.so.5:_ZN11QFileDialog20getExistingDirectoryEP7QWidgetRK7QStringS4_6QFlagsINS_6OptionEE
libQt5Widgets.so.5:_ZN11QFormLayout20setFieldGrowthPolicyENS_17FieldGrowthPolicyE
libQt5Widgets.so.5:_ZN11QFormLayout9setLayoutEiNS_8ItemRoleEP7QLayout
libQt5Widgets.so.5:_ZN11QFormLayout9setWidgetEiNS_8ItemRoleEP7QWidget
libQt5Widgets.so.5:_ZN11QFormLayoutC1EP7QWidget
libQt5Widgets.so.5:_ZN11QGridLayout10setSpacingEi
libQt5Widgets.so.5:_ZN11QGridLayout16setColumnStretchEii
libQt5Widgets.so.5:_ZN11QGridLayout18setVerticalSpacingEi
libQt5Widgets.so.5:_ZN11QGridLayout7addItemEP11QLayoutItemiiii6QFlagsIN2Qt13AlignmentFlagEE
libQt5Widgets.so.5:_ZN11QGridLayout9addLayoutEP7QLayoutiiii6QFlagsIN2Qt13AlignmentFlagEE
libQt5Widgets.so.5:_ZN11QGridLayout9addWidgetEP7QWidgetiiii6QFlagsIN2Qt13AlignmentFlagEE
libQt5Widgets.so.5:_ZN11QGridLayoutC1EP7QWidget
libQt5Widgets.so.5:_ZN11QGridLayoutC1Ev
libQt5Widgets.so.5:_ZN11QHBoxLayoutC1EP7QWidget
libQt5Widgets.so.5:_ZN11QHBoxLayoutC1Ev
libQt5Widgets.so.5:_ZN11QHeaderView20setSectionResizeModeENS_10ResizeModeE
libQt5Widgets.so.5:_ZN11QHeaderView20setSectionResizeModeEiNS_10ResizeModeE
libQt5Widgets.so.5:_ZN11QHeaderView21setStretchLastSectionEb
libQt5Widgets.so.5:_ZN11QLayoutItem10spacerItemEv
libQt5Widgets.so.5:_ZN11QLayoutItem6widgetEv
libQt5Widgets.so.5:_ZN11QListWidget10insertItemEiP15QListWidgetItem
libQt5Widgets.so.5:_ZN11QListWidget10insertItemEiRK7QString
libQt5Widgets.so.5:_ZN11QListWidget13setCurrentRowEi
libQt5Widgets.so.5:_ZN11QListWidget16staticMetaObjectE
libQt5Widgets.so.5:_ZN11QListWidget17currentRowChangedEi
libQt5Widgets.so.5:_ZN11QListWidget5clearEv
libQt5Widgets.so.5:_ZN11QListWidget8takeItemEi
libQt5Widgets.so.5:_ZN11QListWidgetC1EP7QWidget
libQt5Widgets.so.5:_ZN11QMainWindow10addToolBarEN2Qt11ToolBarAreaEP8QToolBar
libQt5Widgets.so.5:_ZN11QMainWindow10setMenuBarEP8QMenuBar
libQt5Widgets.so.5:_ZN11QMainWindow11qt_metacallEN11QMetaObject4CallEiPPv
libQt5Widgets.so.5:_ZN11QMainWindow11qt_metacastEPKc
libQt5Widgets.so.5:_ZN11QMainWindow12restoreStateERK10QByteArrayi
libQt5Widgets.so.5:_ZN11QMainWindow12setStatusBarEP10QStatusBar
libQt5Widgets.so.5:_ZN11QMainWindow13addDockWidgetEN2Qt14DockWidgetAreaEP11QDockWidget
libQt5Widgets.so.5:_ZN11QMainWindow15createPopupMenuEv
libQt5Widgets.so.5:_ZN11QMainWindow16contextMenuEventEP17QContextMenuEvent
libQt5Widgets.so.5:_ZN11QMainWindow16setCentralWidgetEP7QWidget
libQt5Widgets.so.5:_ZN11QMainWindow16staticMetaObjectE
libQt5Widgets.so.5:_ZN11QMainWindow18setToolButtonStyleEN2Qt15ToolButtonStyleE
libQt5Widgets.so.5:_ZN11QMainWindow30setUnifiedTitleAndToolBarOnMacEb
libQt5Widgets.so.5:_ZN11QMainWindow5eventEP6QEvent
libQt5Widgets.so.5:_ZN11QMainWindowC2EP7QWidget6QFlagsIN2Qt10WindowTypeEE
libQt5Widgets.so.5:_ZN11QMainWindowD2Ev
libQt5Widgets.so.5:_ZN11QMessageBox10closeEventEP11QCloseEvent
libQt5Widgets.so.5:_ZN11QMessageBox11changeEventEP6QEvent
libQt5Widgets.so.5:_ZN11QMessageBox11informationEP7QWidgetRK7QStringS4_6QFlagsINS_14StandardButtonEES6_
libQt5Widgets.so.5:_ZN11QMessageBox11qt_metacallEN11QMetaObject4CallEiPPv
libQt5Widgets.so.5:_ZN11QMessageBox11qt_metacastEPKc
libQt5Widgets.so.5:_ZN11QMessageBox11resizeEventEP12QResizeEvent
libQt5Widgets.so.5:_ZN11QMessageBox11setCheckBoxEP9QCheckBox
libQt5Widgets.so.5:_ZN11QMessageBox13keyPressEventEP9QKeyEvent
libQt5Widgets.so.5:_ZN11QMessageBox14setWindowTitleERK7QString
libQt5Widgets.so.5:_ZN11QMessageBox16setDefaultButtonENS_14StandardButtonE
libQt5Widgets.so.5:_ZN11QMessageBox16staticMetaObjectE
libQt5Widgets.so.5:_ZN11QMessageBox18setInformativeTextERK7QString
libQt5Widgets.so.5:_ZN11QMessageBox18setStandardButtonsE6QFlagsINS_14StandardButtonEE
libQt5Widgets.so.5:_ZN11QMessageBox5eventEP6QEvent
libQt5Widgets.so.5:_ZN11QMessageBox7setIconENS_4IconE
libQt5Widgets.so.5:_ZN11QMessageBox7setTextERK7QString
libQt5Widgets.so.5:_ZN11QMessageBox7warningEP7QWidgetRK7QStringS4_6QFlagsINS_14StandardButtonEES6_
libQt5Widgets.so.5:_ZN11QMessageBox8criticalEP7QWidgetRK7QStringS4_6QFlagsINS_14StandardButtonEES6_
libQt5Widgets.so.5:_ZN11QMessageBox9addButtonERK7QStringNS_10ButtonRoleE
libQt5Widgets.so.5:_ZN11QMessageBox9showEventEP10QShowEvent
libQt5Widgets.so.5:_ZN11QMessageBoxC1EP7QWidget
libQt5Widgets.so.5:_ZN11QMessageBoxC2EP7QWidget
libQt5Widgets.so.5:_ZN11QMessageBoxC2ERK7QStringS2_NS_4IconEiiiP7QWidget6QFlagsIN2Qt10WindowTypeEE
libQt5Widgets.so.5:_ZN11QMessageBoxD1Ev
libQt5Widgets.so.5:_ZN11QMessageBoxD2Ev
libQt5Widgets.so.5:_ZN11QPushButton10setDefaultEb
libQt5Widgets.so.5:_ZN11QPushButton14setAutoDefaultEb
libQt5Widgets.so.5:_ZN11QPushButton7setFlatEb
libQt5Widgets.so.5:_ZN11QPushButtonC1EP7QWidget
libQt5Widgets.so.5:_ZN11QScrollArea18setWidgetResizableEb
libQt5Widgets.so.5:_ZN11QScrollArea9setWidgetEP7QWidget
libQt5Widgets.so.5:_ZN11QScrollAreaC1EP7QWidget
libQt5Widgets.so.5:_ZN11QToolButton12setArrowTypeEN2Qt9ArrowTypeE
libQt5Widgets.so.5:_ZN11QToolButton12setAutoRaiseEb
libQt5Widgets.so.5:_ZN11QToolButton18setToolButtonStyleEN2Qt15ToolButtonStyleE
libQt5Widgets.so.5:_ZN11QToolButtonC1EP7QWidget
libQt5Widgets.so.5:_ZN11QTreeWidget11itemClickedEP15QTreeWidgetItemi
libQt5Widgets.so.5:_ZN11QTreeWidget15addTopLevelItemEP15QTreeWidgetItem
libQt5Widgets.so.5:_ZN11QTreeWidget16staticMetaObjectE
libQt5Widgets.so.5:_ZN11QTreeWidget5clearEv
libQt5Widgets.so.5:_ZN11QTreeWidgetC1EP7QWidget
libQt5Widgets.so.5:_ZN11QVBoxLayoutC1EP7QWidget
libQt5Widgets.so.5:_ZN11QVBoxLayoutC1Ev
libQt5Widgets.so.5:_ZN11QWizardPage11cleanupPageEv
libQt5Widgets.so.5:_ZN11QWizardPage11qt_metacallEN11QMetaObject4CallEiPPv
libQt5Widgets.so.5:_ZN11QWizardPage11qt_metacastEPKc
libQt5Widgets.so.5:_ZN11QWizardPage11setSubTitleERK7QString
libQt5Widgets.so.5:_ZN11QWizardPage12validatePageEv
libQt5Widgets.so.5:_ZN11QWizardPage13registerFieldERK7QStringP7QWidgetPKcS6_
libQt5Widgets.so.5:_ZN11QWizardPage13setCommitPageEb
libQt5Widgets.so.5:_ZN11QWizardPage14initializePageEv
libQt5Widgets.so.5:_ZN11QWizardPage15completeChangedEv
libQt5Widgets.so.5:_ZN11QWizardPage16staticMetaObjectE
libQt5Widgets.so.5:_ZN11QWizardPage8setTitleERK7QString
libQt5Widgets.so.5:_ZN11QWizardPageC1EP7QWidget
libQt5Widgets.so.5:_ZN11QWizardPageC2EP7QWidget
libQt5Widgets.so.5:_ZN11QWizardPageD2Ev
libQt5Widgets.so.5:_ZN12QActionGroup9addActionEP7QAction
libQt5Widgets.so.5:_ZN12QActionGroupC1EP7QObject
libQt5Widgets.so.5:_ZN12QApplication10setPaletteERK8QPalettePKc
libQt5Widgets.so.5:_ZN12QApplication15topLevelWidgetsEv
libQt5Widgets.so.5:_ZN12QApplication16staticMetaObjectE
libQt5Widgets.so.5:_ZN12QApplication4execEv
libQt5Widgets.so.5:_ZN12QApplication7desktopEv
libQt5Widgets.so.5:_ZN12QApplication8setStyleEP6QStyle
libQt5Widgets.so.5:_ZN12QApplicationC1ERiPPci
libQt5Widgets.so.5:_ZN12QApplicationD1Ev
libQt5Widgets.so.5:_ZN12QColorDialog8getColorERK6QColorP7QWidgetRK7QString6QFlagsINS_17ColorDialogOptionEE
libQt5Widgets.so.5:_ZN12QInputDialog6getIntEP7QWidgetRK7QStringS4_iiiiPb6QFlagsIN2Qt10WindowTypeEE
libQt5Widgets.so.5:_ZN12QInputDialog7getTextEP7QWidgetRK7QStringS4_N9QLineEdit8EchoModeES4_Pb6QFlagsIN2Qt10WindowTypeEES8_INS9_15InputMethodHintEE
libQt5Widgets.so.5:_ZN12QProgressBar10setMaximumEi
libQt5Widgets.so.5:_ZN12QProgressBar10setMinimumEi
libQt5Widgets.so.5:_ZN12QProgressBar12setAlignmentE6QFlagsIN2Qt13AlignmentFlagEE
libQt5Widgets.so.5:_ZN12QProgressBar14setOrientationEN2Qt11OrientationE
libQt5Widgets.so.5:_ZN12QProgressBar5resetEv
libQt5Widgets.so.5:_ZN12QProgressBar8setRangeEii
libQt5Widgets.so.5:_ZN12QProgressBar8setValueEi
libQt5Widgets.so.5:_ZN12QProgressBarC1EP7QWidget
libQt5Widgets.so.5:_ZN12QRadioButtonC1EP7QWidget
libQt5Widgets.so.5:_ZN12QTableWidget11setRowCountEi
libQt5Widgets.so.5:_ZN12QTableWidget14setColumnCountEi
libQt5Widgets.so.5:_ZN12QTableWidget16staticMetaObjectE
libQt5Widgets.so.5:_ZN12QTableWidget18currentCellChangedEiiii
libQt5Widgets.so.5:_ZN12QTableWidget25setHorizontalHeaderLabelsERK11QStringList
libQt5Widgets.so.5:_ZN12QTableWidget5clearEv
libQt5Widgets.so.5:_ZN12QTableWidget7setItemEiiP16QTableWidgetItem
libQt5Widgets.so.5:_ZN12QTableWidget9insertRowEi
libQt5Widgets.so.5:_ZN12QTableWidgetC1EP7QWidget
libQt5Widgets.so.5:_ZN12QTextBrowser20setOpenExternalLinksEb
libQt5Widgets.so.5:_ZN12QTextBrowserC1EP7QWidget
libQt5Widgets.so.5:_ZN13QGraphicsItem10itemChangeENS_18GraphicsItemChangeERK8QVariant
libQt5Widgets.so.5:_ZN13QGraphicsItem10sceneEventEP6QEvent
libQt5Widgets.so.5:_ZN13QGraphicsItem10setVisibleEb
libQt5Widgets.so.5:_ZN13QGraphicsItem10wheelEventEP24QGraphicsSceneWheelEvent
libQt5Widgets.so.5:_ZN13QGraphicsItem11unsetCursorEv
libQt5Widgets.so.5:_ZN13QGraphicsItem12focusInEventEP11QFocusEvent
libQt5Widgets.so.5:_ZN13QGraphicsItem12setExtensionENS_9ExtensionERK8QVariant
libQt5Widgets.so.5:_ZN13QGraphicsItem13dragMoveEventEP27QGraphicsSceneDragDropEvent
libQt5Widgets.so.5:_ZN13QGraphicsItem13focusOutEventEP11QFocusEvent
libQt5Widgets.so.5:_ZN13QGraphicsItem13keyPressEventEP9QKeyEvent
libQt5Widgets.so.5:_ZN13QGraphicsItem13setParentItemEPS_
libQt5Widgets.so.5:_ZN13QGraphicsItem14dragEnterEventEP27QGraphicsSceneDragDropEvent
libQt5Widgets.so.5:_ZN13QGraphicsItem14dragLeaveEventEP27QGraphicsSceneDragDropEvent
libQt5Widgets.so.5:_ZN13QGraphicsItem14hoverMoveEventEP24QGraphicsSceneHoverEvent
libQt5Widgets.so.5:_ZN13QGraphicsItem15hoverEnterEventEP24QGraphicsSceneHoverEvent
libQt5Widgets.so.5:_ZN13QGraphicsItem15hoverLeaveEventEP24QGraphicsSceneHoverEvent
libQt5Widgets.so.5:_ZN13QGraphicsItem15keyReleaseEventEP9QKeyEvent
libQt5Widgets.so.5:_ZN13QGraphicsItem16contextMenuEventEP30QGraphicsSceneContextMenuEvent
libQt5Widgets.so.5:_ZN13QGraphicsItem16inputMethodEventEP17QInputMethodEvent
libQt5Widgets.so.5:_ZN13QGraphicsItem16sceneEventFilterEPS_P6QEvent
libQt5Widgets.so.5:_ZN13QGraphicsItem20setAcceptHoverEventsEb
libQt5Widgets.so.5:_ZN13QGraphicsItem21mouseDoubleClickEventEP24QGraphicsSceneMouseEvent
libQt5Widgets.so.5:_ZN13QGraphicsItem23installSceneEventFilterEPS_
libQt5Widgets.so.5:_ZN13QGraphicsItem23setAcceptedMouseButtonsE6QFlagsIN2Qt11MouseButtonEE
libQt5Widgets.so.5:_ZN13QGraphicsItem6setPosERK7QPointF
libQt5Widgets.so.5:_ZN13QGraphicsItem6updateERK6QRectF
libQt5Widgets.so.5:_ZN13QGraphicsItem7advanceEi
libQt5Widgets.so.5:_ZN13QGraphicsItem9dropEventEP27QGraphicsSceneDragDropEvent
libQt5Widgets.so.5:_ZN13QGraphicsItem9setCursorERK7QCursor
libQt5Widgets.so.5:_ZN13QGraphicsItem9setZValueEd
libQt5Widgets.so.5:_ZN13QGraphicsItemC2EPS_
libQt5Widgets.so.5:_ZN13QGraphicsItemD2Ev
libQt5Widgets.so.5:_ZN13QGraphicsView10paintEventEP11QPaintEvent
libQt5Widgets.so.5:_ZN13QGraphicsView10wheelEventEP11QWheelEvent
libQt5Widgets.so.5:_ZN13QGraphicsView11qt_metacallEN11QMetaObject4CallEiPPv
libQt5Widgets.so.5:_ZN13QGraphicsView11qt_metacastEPKc
libQt5Widgets.so.5:_ZN13QGraphicsView11resizeEventEP12QResizeEvent
libQt5Widgets.so.5:_ZN13QGraphicsView12focusInEventEP11QFocusEvent
libQt5Widgets.so.5:_ZN13QGraphicsView12setCacheModeE6QFlagsINS_13CacheModeFlagEE
libQt5Widgets.so.5:_ZN13QGraphicsView13dragMoveEventEP14QDragMoveEvent
libQt5Widgets.so.5:_ZN13QGraphicsView13focusOutEventEP11QFocusEvent
libQt5Widgets.so.5:_ZN13QGraphicsView13keyPressEventEP9QKeyEvent
libQt5Widgets.so.5:_ZN13QGraphicsView13setupViewportEP7QWidget
libQt5Widgets.so.5:_ZN13QGraphicsView13viewportEventEP6QEvent
libQt5Widgets.so.5:_ZN13QGraphicsView14dragEnterEventEP15QDragEnterEvent
libQt5Widgets.so.5:_ZN13QGraphicsView14dragLeaveEventEP15QDragLeaveEvent
libQt5Widgets.so.5:_ZN13QGraphicsView14drawBackgroundEP8QPainterRK6QRectF
libQt5Widgets.so.5:_ZN13QGraphicsView14drawForegroundEP8QPainterRK6QRectF
libQt5Widgets.so.5:_ZN13QGraphicsView14mouseMoveEventEP11QMouseEvent
libQt5Widgets.so.5:_ZN13QGraphicsView14setRenderHintsE6QFlagsIN8QPainter10RenderHintEE
libQt5Widgets.so.5:_ZN13QGraphicsView15keyReleaseEventEP9QKeyEvent
libQt5Widgets.so.5:_ZN13QGraphicsView15mousePressEventEP11QMouseEvent
libQt5Widgets.so.5:_ZN13QGraphicsView16contextMenuEventEP17QContextMenuEvent
libQt5Widgets.so.5:_ZN13QGraphicsView16inputMethodEventEP17QInputMethodEvent
libQt5Widgets.so.5:_ZN13QGraphicsView16scrollContentsByEii
libQt5Widgets.so.5:_ZN13QGraphicsView16staticMetaObjectE
libQt5Widgets.so.5:_ZN13QGraphicsView17mouseReleaseEventEP11QMouseEvent
libQt5Widgets.so.5:_ZN13QGraphicsView18focusNextPrevChildEb
libQt5Widgets.so.5:_ZN13QGraphicsView21mouseDoubleClickEventEP11QMouseEvent
libQt5Widgets.so.5:_ZN13QGraphicsView21setViewportUpdateModeENS_18ViewportUpdateModeE
libQt5Widgets.so.5:_ZN13QGraphicsView5eventEP6QEvent
libQt5Widgets.so.5:_ZN13QGraphicsView5scaleEdd
libQt5Widgets.so.5:_ZN13QGraphicsView9drawItemsEP8QPainteriPP13QGraphicsItemPK24QStyleOptionGraphicsItem
libQt5Widgets.so.5:_ZN13QGraphicsView9dropEventEP10QDropEvent
libQt5Widgets.so.5:_ZN13QGraphicsView9showEventEP10QShowEvent
libQt5Widgets.so.5:_ZN13QGraphicsViewC2EP14QGraphicsSceneP7QWidget
libQt5Widgets.so.5:_ZN13QGraphicsViewC2EP7QWidget
libQt5Widgets.so.5:_ZN13QGraphicsViewD2Ev
libQt5Widgets.so.5:_ZN13QStyleFactory4keysEv
libQt5Widgets.so.5:_ZN13QStyleFactory6createERK7QString
libQt5Widgets.so.5:_ZN14QDoubleSpinBox10setMaximumEd
libQt5Widgets.so.5:_ZN14QDoubleSpinBox10setMinimumEd
libQt5Widgets.so.5:_ZN14QDoubleSpinBox11setDecimalsEi
libQt5Widgets.so.5:_ZN14QDoubleSpinBox13setSingleStepEd
libQt5Widgets.so.5:_ZN14QDoubleSpinBox8setValueEd
libQt5Widgets.so.5:_ZN14QDoubleSpinBox9setPrefixERK7QString
libQt5Widgets.so.5:_ZN14QDoubleSpinBox9setSuffixERK7QString
libQt5Widgets.so.5:_ZN14QDoubleSpinBoxC1EP7QWidget
libQt5Widgets.so.5:_ZN14QGraphicsScene12setSceneRectERK6QRectF
libQt5Widgets.so.5:_ZN14QGraphicsScene18setBackgroundBrushERK6QBrush
libQt5Widgets.so.5:_ZN14QGraphicsScene7addItemEP13QGraphicsItem
libQt5Widgets.so.5:_ZN14QGraphicsSceneC1EP7QObject
libQt5Widgets.so.5:_ZN14QStackedWidget14currentChangedEi
libQt5Widgets.so.5:_ZN14QStackedWidget15setCurrentIndexEi
libQt5Widgets.so.5:_ZN14QStackedWidget16setCurrentWidgetEP7QWidget
libQt5Widgets.so.5:_ZN14QStackedWidget16staticMetaObjectE
libQt5Widgets.so.5:_ZN14QStackedWidget9addWidgetEP7QWidget
libQt5Widgets.so.5:_ZN14QStackedWidgetC1EP7QWidget
libQt5Widgets.so.5:_ZN15QAbstractButton10setCheckedEb
libQt5Widgets.so.5:_ZN15QAbstractButton11setIconSizeERK5QSize
libQt5Widgets.so.5:_ZN15QAbstractButton11setShortcutERK12QKeySequence
libQt5Widgets.so.5:_ZN15QAbstractButton12animateClickEi
libQt5Widgets.so.5:_ZN15QAbstractButton12setCheckableEb
libQt5Widgets.so.5:_ZN15QAbstractButton13setAutoRepeatEb
libQt5Widgets.so.5:_ZN15QAbstractButton16setAutoExclusiveEb
libQt5Widgets.so.5:_ZN15QAbstractButton16staticMetaObjectE
libQt5Widgets.so.5:_ZN15QAbstractButton7clickedEb
libQt5Widgets.so.5:_ZN15QAbstractButton7pressedEv
libQt5Widgets.so.5:_ZN15QAbstractButton7setIconERK5QIcon
libQt5Widgets.so.5:_ZN15QAbstractButton7setTextERK7QString
libQt5Widgets.so.5:_ZN15QAbstractButton7toggledEb
libQt5Widgets.so.5:_ZN15QAbstractSlider10setMaximumEi
libQt5Widgets.so.5:_ZN15QAbstractSlider10setMinimumEi
libQt5Widgets.so.5:_ZN15QAbstractSlider11setPageStepEi
libQt5Widgets.so.5:_ZN15QAbstractSlider11setTrackingEb
libQt5Widgets.so.5:_ZN15QAbstractSlider11sliderMovedEi
libQt5Widgets.so.5:_ZN15QAbstractSlider12valueChangedEi
libQt5Widgets.so.5:_ZN15QAbstractSlider13setSingleStepEi
libQt5Widgets.so.5:_ZN15QAbstractSlider14setOrientationEN2Qt11OrientationE
libQt5Widgets.so.5:_ZN15QAbstractSlider16staticMetaObjectE
libQt5Widgets.so.5:_ZN15QAbstractSlider17setSliderPositionEi
libQt5Widgets.so.5:_ZN15QAbstractSlider8setValueEi
libQt5Widgets.so.5:_ZN15QListWidgetItem7setDataEiRK8QVariant
libQt5Widgets.so.5:_ZN15QListWidgetItemC1EP11QListWidgeti
libQt5Widgets.so.5:_ZN15QListWidgetItemC1ERK7QStringP11QListWidgeti
libQt5Widgets.so.5:_ZN15QListWidgetItemC1ERKS_
libQt5Widgets.so.5:_ZN15QSystemTrayIcon10setToolTipERK7QString
libQt5Widgets.so.5:_ZN15QSystemTrayIcon10setVisibleEb
libQt5Widgets.so.5:_ZN15QSystemTrayIcon11showMessageERK7QStringS2_NS_11MessageIconEi
libQt5Widgets.so.5:_ZN15QSystemTrayIcon14messageClickedEv
libQt5Widgets.so.5:_ZN15QSystemTrayIcon16staticMetaObjectE
libQt5Widgets.so.5:_ZN15QSystemTrayIcon16supportsMessagesEv
libQt5Widgets.so.5:_ZN15QSystemTrayIcon9activatedENS_16ActivationReasonE
libQt5Widgets.so.5:_ZN15QSystemTrayIconC1ERK5QIconP7QObject
libQt5Widgets.so.5:_ZN15QTreeWidgetItemC1EP11QTreeWidgetRK11QStringListi
libQt5Widgets.so.5:_ZN16QAbstractSpinBox12setAlignmentE6QFlagsIN2Qt13AlignmentFlagEE
libQt5Widgets.so.5:_ZN16QAbstractSpinBox15editingFinishedEv
libQt5Widgets.so.5:_ZN16QAbstractSpinBox16setButtonSymbolsENS_13ButtonSymbolsE
libQt5Widgets.so.5:_ZN16QAbstractSpinBox16staticMetaObjectE
libQt5Widgets.so.5:_ZN16QAbstractSpinBox8setFrameEb
libQt5Widgets.so.5:_ZN16QDialogButtonBox14setOrientationEN2Qt11OrientationE
libQt5Widgets.so.5:_ZN16QDialogButtonBox18setStandardButtonsE6QFlagsINS_14StandardButtonEE
libQt5Widgets.so.5:_ZN16QDialogButtonBoxC1EP7QWidget
libQt5Widgets.so.5:_ZN16QTableWidgetItemC1ERK7QStringi
libQt5Widgets.so.5:_ZN17QAbstractItemView14scrollToBottomEv
libQt5Widgets.so.5:_ZN17QAbstractItemView15setEditTriggersE6QFlagsINS_11EditTriggerEE
libQt5Widgets.so.5:_ZN17QAbstractItemView16setSelectionModeENS_13SelectionModeE
libQt5Widgets.so.5:_ZN17QAbstractItemView20setSelectionBehaviorENS_17SelectionBehaviorE
libQt5Widgets.so.5:_ZN17QAbstractItemView23setAlternatingRowColorsEb
libQt5Widgets.so.5:_ZN18QCommandLinkButton14setDescriptionERK7QString
libQt5Widgets.so.5:_ZN18QCommandLinkButtonC1EP7QWidget
libQt5Widgets.so.5:_ZN19QAbstractScrollArea11eventFilterEP7QObjectP6QEvent
libQt5Widgets.so.5:_ZN19QAbstractScrollArea15setCornerWidgetEP7QWidget
libQt5Widgets.so.5:_ZN19QAbstractScrollArea19setSizeAdjustPolicyENS_16SizeAdjustPolicyE
libQt5Widgets.so.5:_ZN19QAbstractScrollArea26setVerticalScrollBarPolicyEN2Qt15ScrollBarPolicyE
libQt5Widgets.so.5:_ZN19QAbstractScrollArea28setHorizontalScrollBarPolicyEN2Qt15ScrollBarPolicyE
libQt5Widgets.so.5:_ZN19QGraphicsPixmapItem12setExtensionEN13QGraphicsItem9ExtensionERK8QVariant
libQt5Widgets.so.5:_ZN19QGraphicsPixmapItem21setTransformationModeEN2Qt18TransformationModeE
libQt5Widgets.so.5:_ZN19QGraphicsPixmapItem5paintEP8QPainterPK24QStyleOptionGraphicsItemP7QWidget
libQt5Widgets.so.5:_ZN19QGraphicsPixmapItem9setPixmapERK7QPixmap
libQt5Widgets.so.5:_ZN19QGraphicsPixmapItemC2EP13QGraphicsItem
libQt5Widgets.so.5:_ZN19QGraphicsPixmapItemD2Ev
libQt5Widgets.so.5:_ZN23QTreeWidgetItemIteratorC1EP11QTreeWidget6QFlagsINS_12IteratorFlagEE
libQt5Widgets.so.5:_ZN23QTreeWidgetItemIteratorD1Ev
libQt5Widgets.so.5:_ZN23QTreeWidgetItemIteratorppEv
libQt5Widgets.so.5:_ZN25QGraphicsDropShadowEffect13setBlurRadiusEd
libQt5Widgets.so.5:_ZN25QGraphicsDropShadowEffect9setOffsetERK7QPointF
libQt5Widgets.so.5:_ZN25QGraphicsDropShadowEffectC1EP7QObject
libQt5Widgets.so.5:_ZN5QMenu11aboutToShowEv
libQt5Widgets.so.5:_ZN5QMenu12addSeparatorEv
libQt5Widgets.so.5:_ZN5QMenu16staticMetaObjectE
libQt5Widgets.so.5:_ZN5QMenu4execERK6QPointP7QAction
libQt5Widgets.so.5:_ZN5QMenu8setTitleERK7QString
libQt5Widgets.so.5:_ZN5QMenu9addActionERK7QString
libQt5Widgets.so.5:_ZN5QMenu9triggeredEP7QAction
libQt5Widgets.so.5:_ZN5QMenuC1EP7QWidget
libQt5Widgets.so.5:_ZN5QMenuD1Ev
libQt5Widgets.so.5:_ZN6QFrame10paintEventEP11QPaintEvent
libQt5Widgets.so.5:_ZN6QFrame11changeEventEP6QEvent
libQt5Widgets.so.5:_ZN6QFrame11qt_metacallEN11QMetaObject4CallEiPPv
libQt5Widgets.so.5:_ZN6QFrame11qt_metacastEPKc
libQt5Widgets.so.5:_ZN6QFrame12setLineWidthEi
libQt5Widgets.so.5:_ZN6QFrame13setFrameShapeENS_5ShapeE
libQt5Widgets.so.5:_ZN6QFrame13setFrameStyleEi
libQt5Widgets.so.5:_ZN6QFrame14setFrameShadowENS_6ShadowE
libQt5Widgets.so.5:_ZN6QFrame16staticMetaObjectE
libQt5Widgets.so.5:_ZN6QFrame5eventEP6QEvent
libQt5Widgets.so.5:_ZN6QFrameC1EP7QWidget6QFlagsIN2Qt10WindowTypeEE
libQt5Widgets.so.5:_ZN6QFrameC2EP7QWidget6QFlagsIN2Qt10WindowTypeEE
libQt5Widgets.so.5:_ZN6QFrameD2Ev
libQt5Widgets.so.5:_ZN6QLabel10paintEventEP11QPaintEvent
libQt5Widgets.so.5:_ZN6QLabel11changeEventEP6QEvent
libQt5Widgets.so.5:_ZN6QLabel11qt_metacallEN11QMetaObject4CallEiPPv
libQt5Widgets.so.5:_ZN6QLabel11qt_metacastEPKc
libQt5Widgets.so.5:_ZN6QLabel11setWordWrapEb
libQt5Widgets.so.5:_ZN6QLabel12focusInEventEP11QFocusEvent
libQt5Widgets.so.5:_ZN6QLabel12setAlignmentE6QFlagsIN2Qt13AlignmentFlagEE
libQt5Widgets.so.5:_ZN6QLabel13focusOutEventEP11QFocusEvent
libQt5Widgets.so.5:_ZN6QLabel13keyPressEventEP9QKeyEvent
libQt5Widgets.so.5:_ZN6QLabel13setTextFormatEN2Qt10TextFormatE
libQt5Widgets.so.5:_ZN6QLabel14mouseMoveEventEP11QMouseEvent
libQt5Widgets.so.5:_ZN6QLabel16contextMenuEventEP17QContextMenuEvent
libQt5Widgets.so.5:_ZN6QLabel16staticMetaObjectE
libQt5Widgets.so.5:_ZN6QLabel17mouseReleaseEventEP11QMouseEvent
libQt5Widgets.so.5:_ZN6QLabel17setScaledContentsEb
libQt5Widgets.so.5:_ZN6QLabel18focusNextPrevChildEb
libQt5Widgets.so.5:_ZN6QLabel20setOpenExternalLinksEb
libQt5Widgets.so.5:_ZN6QLabel23setTextInteractionFlagsE6QFlagsIN2Qt19TextInteractionFlagEE
libQt5Widgets.so.5:_ZN6QLabel5clearEv
libQt5Widgets.so.5:_ZN6QLabel5eventEP6QEvent
libQt5Widgets.so.5:_ZN6QLabel7setTextERK7QString
libQt5Widgets.so.5:_ZN6QLabel8setBuddyEP7QWidget
libQt5Widgets.so.5:_ZN6QLabel9setIndentEi
libQt5Widgets.so.5:_ZN6QLabel9setMarginEi
libQt5Widgets.so.5:_ZN6QLabel9setPixmapERK7QPixmap
libQt5Widgets.so.5:_ZN6QLabelC1EP7QWidget6QFlagsIN2Qt10WindowTypeEE
libQt5Widgets.so.5:_ZN6QLabelC2EP7QWidget6QFlagsIN2Qt10WindowTypeEE
libQt5Widgets.so.5:_ZN6QLabelD2Ev
libQt5Widgets.so.5:_ZN7QAction10setCheckedEb
libQt5Widgets.so.5:_ZN7QAction10setEnabledEb
libQt5Widgets.so.5:_ZN7QAction10setToolTipERK7QString
libQt5Widgets.so.5:_ZN7QAction10setVisibleEb
libQt5Widgets.so.5:_ZN7QAction11setIconTextERK7QString
libQt5Widgets.so.5:_ZN7QAction11setShortcutERK12QKeySequence
libQt5Widgets.so.5:_ZN7QAction12setCheckableEb
libQt5Widgets.so.5:_ZN7QAction12setStatusTipERK7QString
libQt5Widgets.so.5:_ZN7QAction12setWhatsThisERK7QString
libQt5Widgets.so.5:_ZN7QAction16staticMetaObjectE
libQt5Widgets.so.5:_ZN7QAction7setDataERK8QVariant
libQt5Widgets.so.5:_ZN7QAction7setIconERK5QIcon
libQt5Widgets.so.5:_ZN7QAction7setMenuEP5QMenu
libQt5Widgets.so.5:_ZN7QAction7setTextERK7QString
libQt5Widgets.so.5:_ZN7QAction7toggledEb
libQt5Widgets.so.5:_ZN7QAction9triggeredEb
libQt5Widgets.so.5:_ZN7QActionC1EP7QObject
libQt5Widgets.so.5:_ZN7QActionC1ERK7QStringP7QObject
libQt5Widgets.so.5:_ZN7QDialog10closeEventEP11QCloseEvent
libQt5Widgets.so.5:_ZN7QDialog10setVisibleEb
libQt5Widgets.so.5:_ZN7QDialog11eventFilterEP7QObjectP6QEvent
libQt5Widgets.so.5:_ZN7QDialog11qt_metacallEN11QMetaObject4CallEiPPv
libQt5Widgets.so.5:_ZN7QDialog11qt_metacastEPKc
libQt5Widgets.so.5:_ZN7QDialog11resizeEventEP12QResizeEvent
libQt5Widgets.so.5:_ZN7QDialog13keyPressEventEP9QKeyEvent
libQt5Widgets.so.5:_ZN7QDialog16contextMenuEventEP17QContextMenuEvent
libQt5Widgets.so.5:_ZN7QDialog16staticMetaObjectE
libQt5Widgets.so.5:_ZN7QDialog4doneEi
libQt5Widgets.so.5:_ZN7QDialog4execEv
libQt5Widgets.so.5:_ZN7QDialog4openEv
libQt5Widgets.so.5:_ZN7QDialog6acceptEv
libQt5Widgets.so.5:_ZN7QDialog6rejectEv
libQt5Widgets.so.5:_ZN7QDialog8setModalEb
libQt5Widgets.so.5:_ZN7QDialog9showEventEP10QShowEvent
libQt5Widgets.so.5:_ZN7QDialogC1EP7QWidget6QFlagsIN2Qt10WindowTypeEE
libQt5Widgets.so.5:_ZN7QDialogC2EP7QWidget6QFlagsIN2Qt10WindowTypeEE
libQt5Widgets.so.5:_ZN7QDialogD2Ev
libQt5Widgets.so.5:_ZN7QLayout10childEventEP11QChildEvent
libQt5Widgets.so.5:_ZN7QLayout10invalidateEv
libQt5Widgets.so.5:_ZN7QLayout11qt_metacallEN11QMetaObject4CallEiPPv
libQt5Widgets.so.5:_ZN7QLayout11qt_metacastEPKc
libQt5Widgets.so.5:_ZN7QLayout11setGeometryERK5QRect
libQt5Widgets.so.5:_ZN7QLayout16staticMetaObjectE
libQt5Widgets.so.5:_ZN7QLayout18setContentsMarginsEiiii
libQt5Widgets.so.5:_ZN7QLayout6layoutEv
libQt5Widgets.so.5:_ZN7QLayout9addWidgetEP7QWidget
libQt5Widgets.so.5:_ZN7QLayout9setMarginEi
libQt5Widgets.so.5:_ZN7QLayoutC2EP7QWidget
libQt5Widgets.so.5:_ZN7QLayoutC2Ev
libQt5Widgets.so.5:_ZN7QLayoutD2Ev
libQt5Widgets.so.5:_ZN7QSlider15setTickIntervalEi
libQt5Widgets.so.5:_ZN7QSlider15setTickPositionENS_12TickPositionE
libQt5Widgets.so.5:_ZN7QSliderC1EP7QWidget
libQt5Widgets.so.5:_ZN7QTabBar16staticMetaObjectE
libQt5Widgets.so.5:_ZN7QWidget10addActionsE5QListIP7QActionE
libQt5Widgets.so.5:_ZN7QWidget10adjustSizeEv
libQt5Widgets.so.5:_ZN7QWidget10closeEventEP11QCloseEvent
libQt5Widgets.so.5:_ZN7QWidget10enterEventEP6QEvent
libQt5Widgets.so.5:_ZN7QWidget10leaveEventEP6QEvent
libQt5Widgets.so.5:_ZN7QWidget10paintEventEP11QPaintEvent
libQt5Widgets.so.5:_ZN7QWidget10setEnabledEb
libQt5Widgets.so.5:_ZN7QWidget10setPaletteERK8QPalette
libQt5Widgets.so.5:_ZN7QWidget10setToolTipERK7QString
libQt5Widgets.so.5:_ZN7QWidget10setVisibleEb
libQt5Widgets.so.5:_ZN7QWidget10showNormalEv
libQt5Widgets.so.5:_ZN7QWidget10wheelEventEP11QWheelEvent
libQt5Widgets.so.5:_ZN7QWidget11actionEventEP12QActionEvent
libQt5Widgets.so.5:_ZN7QWidget11changeEventEP6QEvent
libQt5Widgets.so.5:_ZN7QWidget11nativeEventERK10QByteArrayPvPl
libQt5Widgets.so.5:_ZN7QWidget11qt_metacallEN11QMetaObject4CallEiPPv
libQt5Widgets.so.5:_ZN7QWidget11qt_metacastEPKc
libQt5Widgets.so.5:_ZN7QWidget11resizeEventEP12QResizeEvent
libQt5Widgets.so.5:_ZN7QWidget11setDisabledEb
libQt5Widgets.so.5:_ZN7QWidget11setGeometryERK5QRect
libQt5Widgets.so.5:_ZN7QWidget11setTabOrderEPS_S0_
libQt5Widgets.so.5:_ZN7QWidget11tabletEventEP12QTabletEvent
libQt5Widgets.so.5:_ZN7QWidget11unsetCursorEv
libQt5Widgets.so.5:_ZN7QWidget12focusInEventEP11QFocusEvent
libQt5Widgets.so.5:_ZN7QWidget12removeActionEP7QAction
libQt5Widgets.so.5:_ZN7QWidget12setAttributeEN2Qt15WidgetAttributeEb
libQt5Widgets.so.5:_ZN7QWidget12setFixedSizeEii
libQt5Widgets.so.5:_ZN7QWidget12setWhatsThisERK7QString
libQt5Widgets.so.5:_ZN7QWidget13dragMoveEventEP14QDragMoveEvent
libQt5Widgets.so.5:_ZN7QWidget13focusOutEventEP11QFocusEvent
libQt5Widgets.so.5:_ZN7QWidget13keyPressEventEP9QKeyEvent
libQt5Widgets.so.5:_ZN7QWidget13setSizePolicyE11QSizePolicy
libQt5Widgets.so.5:_ZN7QWidget13setStyleSheetERK7QString
libQt5Widgets.so.5:_ZN7QWidget13setWindowIconERK5QIcon
libQt5Widgets.so.5:_ZN7QWidget13showMaximizedEv
libQt5Widgets.so.5:_ZN7QWidget13showMinimizedEv
libQt5Widgets.so.5:_ZN7QWidget14activateWindowEv
libQt5Widgets.so.5:_ZN7QWidget14dragEnterEventEP15QDragEnterEvent
libQt5Widgets.so.5:_ZN7QWidget14dragLeaveEventEP15QDragLeaveEvent
libQt5Widgets.so.5:_ZN7QWidget14mouseMoveEventEP11QMouseEvent
libQt5Widgets.so.5:_ZN7QWidget14setAcceptDropsEb
libQt5Widgets.so.5:_ZN7QWidget14setFixedHeightEi
libQt5Widgets.so.5:_ZN7QWidget14setFocusPolicyEN2Qt11FocusPolicyE
libQt5Widgets.so.5:_ZN7QWidget14setMaximumSizeEii
libQt5Widgets.so.5:_ZN7QWidget14setMinimumSizeEii
libQt5Widgets.so.5:_ZN7QWidget14setWindowTitleERK7QString
libQt5Widgets.so.5:_ZN7QWidget14showFullScreenEv
libQt5Widgets.so.5:_ZN7QWidget15keyReleaseEventEP9QKeyEvent
libQt5Widgets.so.5:_ZN7QWidget15mousePressEventEP11QMouseEvent
libQt5Widgets.so.5:_ZN7QWidget15restoreGeometryERK10QByteArray
libQt5Widgets.so.5:_ZN7QWidget16contextMenuEventEP17QContextMenuEvent
libQt5Widgets.so.5:_ZN7QWidget16inputMethodEventEP17QInputMethodEvent
libQt5Widgets.so.5:_ZN7QWidget16setSizeIncrementEii
libQt5Widgets.so.5:_ZN7QWidget16staticMetaObjectE
libQt5Widgets.so.5:_ZN7QWidget17mouseReleaseEventEP11QMouseEvent
libQt5Widgets.so.5:_ZN7QWidget17setBackgroundRoleEN8QPalette9ColorRoleE
libQt5Widgets.so.5:_ZN7QWidget17setWindowModalityEN2Qt14WindowModalityE
libQt5Widgets.so.5:_ZN7QWidget17setWindowModifiedEb
libQt5Widgets.so.5:_ZN7QWidget18focusNextPrevChildEb
libQt5Widgets.so.5:_ZN7QWidget18setLayoutDirectionEN2Qt15LayoutDirectionE
libQt5Widgets.so.5:_ZN7QWidget21mouseDoubleClickEventEP11QMouseEvent
libQt5Widgets.so.5:_ZN7QWidget21setAutoFillBackgroundEb
libQt5Widgets.so.5:_ZN7QWidget4hideEv
libQt5Widgets.so.5:_ZN7QWidget4moveERK6QPoint
libQt5Widgets.so.5:_ZN7QWidget4showEv
libQt5Widgets.so.5:_ZN7QWidget5closeEv
libQt5Widgets.so.5:_ZN7QWidget5eventEP6QEvent
libQt5Widgets.so.5:_ZN7QWidget5raiseEv
libQt5Widgets.so.5:_ZN7QWidget6resizeERK5QSize
libQt5Widgets.so.5:_ZN7QWidget6updateERK5QRect
libQt5Widgets.so.5:_ZN7QWidget6updateEv
libQt5Widgets.so.5:_ZN7QWidget7repaintEv
libQt5Widgets.so.5:_ZN7QWidget7setFontERK5QFont
libQt5Widgets.so.5:_ZN7QWidget8setFocusEN2Qt11FocusReasonE
libQt5Widgets.so.5:_ZN7QWidget9addActionEP7QAction
libQt5Widgets.so.5:_ZN7QWidget9dropEventEP10QDropEvent
libQt5Widgets.so.5:_ZN7QWidget9hideEventEP10QHideEvent
libQt5Widgets.so.5:_ZN7QWidget9moveEventEP10QMoveEvent
libQt5Widgets.so.5:_ZN7QWidget9setCursorERK7QCursor
libQt5Widgets.so.5:_ZN7QWidget9setLayoutEP7QLayout
libQt5Widgets.so.5:_ZN7QWidget9setParentEPS_
libQt5Widgets.so.5:_ZN7QWidget9showEventEP10QShowEvent
libQt5Widgets.so.5:_ZN7QWidgetC1EPS_6QFlagsIN2Qt10WindowTypeEE
libQt5Widgets.so.5:_ZN7QWidgetC2EPS_6QFlagsIN2Qt10WindowTypeEE
libQt5Widgets.so.5:_ZN7QWidgetD2Ev
libQt5Widgets.so.5:_ZN7QWizard10paintEventEP11QPaintEvent
libQt5Widgets.so.5:_ZN7QWizard10setVisibleEb
libQt5Widgets.so.5:_ZN7QWizard11cleanupPageEi
libQt5Widgets.so.5:_ZN7QWizard11qt_metacallEN11QMetaObject4CallEiPPv
libQt5Widgets.so.5:_ZN7QWizard11qt_metacastEPKc
libQt5Widgets.so.5:_ZN7QWizard11resizeEventEP12QResizeEvent
libQt5Widgets.so.5:_ZN7QWizard16staticMetaObjectE
libQt5Widgets.so.5:_ZN7QWizard19validateCurrentPageEv
libQt5Widgets.so.5:_ZN7QWizard4doneEi
libQt5Widgets.so.5:_ZN7QWizard5eventEP6QEvent
libQt5Widgets.so.5:_ZN7QWizard7setPageEiP11QWizardPage
libQt5Widgets.so.5:_ZN7QWizard9setPixmapENS_12WizardPixmapERK7QPixmap
libQt5Widgets.so.5:_ZN7QWizardC2EP7QWidget6QFlagsIN2Qt10WindowTypeEE
libQt5Widgets.so.5:_ZN7QWizardD2Ev
libQt5Widgets.so.5:_ZN8QMenuBarC1EP7QWidget
libQt5Widgets.so.5:_ZN8QSpinBox10setMaximumEi
libQt5Widgets.so.5:_ZN8QSpinBox10setMinimumEi
libQt5Widgets.so.5:_ZN8QSpinBox12valueChangedEi
libQt5Widgets.so.5:_ZN8QSpinBox13setSingleStepEi
libQt5Widgets.so.5:_ZN8QSpinBox16staticMetaObjectE
libQt5Widgets.so.5:_ZN8QSpinBox8setValueEi
libQt5Widgets.so.5:_ZN8QSpinBox9setSuffixERK7QString
libQt5Widgets.so.5:_ZN8QSpinBoxC1EP7QWidget
libQt5Widgets.so.5:_ZN8QToolBar11setIconSizeERK5QSize
libQt5Widgets.so.5:_ZN8QToolBar12addSeparatorEv
libQt5Widgets.so.5:_ZN8QToolBar14setOrientationEN2Qt11OrientationE
libQt5Widgets.so.5:_ZN8QToolBar18setToolButtonStyleEN2Qt15ToolButtonStyleE
libQt5Widgets.so.5:_ZN8QToolBar9addWidgetEP7QWidget
libQt5Widgets.so.5:_ZN8QToolBarC1EP7QWidget
libQt5Widgets.so.5:_ZN8QToolBarC1ERK7QStringP7QWidget
libQt5Widgets.so.5:_ZN8QToolBox10insertItemEiP7QWidgetRK5QIconRK7QString
libQt5Widgets.so.5:_ZN8QToolBox11setItemTextEiRK7QString
libQt5Widgets.so.5:_ZN8QToolBox15setCurrentIndexEi
libQt5Widgets.so.5:_ZN8QToolBoxC1EP7QWidget6QFlagsIN2Qt10WindowTypeEE
libQt5Widgets.so.5:_ZN9QCheckBox12stateChangedEi
libQt5Widgets.so.5:_ZN9QCheckBox13setCheckStateEN2Qt10CheckStateE
libQt5Widgets.so.5:_ZN9QCheckBox16staticMetaObjectE
libQt5Widgets.so.5:_ZN9QCheckBoxC1EP7QWidget
libQt5Widgets.so.5:_ZN9QCheckBoxC1ERK7QStringP7QWidget
libQt5Widgets.so.5:_ZN9QCheckBoxD1Ev
libQt5Widgets.so.5:_ZN9QComboBox10insertItemEiRK5QIconRK7QStringRK8QVariant
libQt5Widgets.so.5:_ZN9QComboBox11insertItemsEiRK11QStringList
libQt5Widgets.so.5:_ZN9QComboBox11setEditableEb
libQt5Widgets.so.5:_ZN9QComboBox11setItemTextEiRK7QString
libQt5Widgets.so.5:_ZN9QComboBox14setCurrentTextERK7QString
libQt5Widgets.so.5:_ZN9QComboBox15setCurrentIndexEi
libQt5Widgets.so.5:_ZN9QComboBox16staticMetaObjectE
libQt5Widgets.so.5:_ZN9QComboBox19currentIndexChangedEi
libQt5Widgets.so.5:_ZN9QComboBox5clearEv
libQt5Widgets.so.5:_ZN9QComboBox8setFrameEb
libQt5Widgets.so.5:_ZN9QComboBox9activatedEi
libQt5Widgets.so.5:_ZN9QComboBoxC1EP7QWidget
libQt5Widgets.so.5:_ZN9QGroupBox12setAlignmentEi
libQt5Widgets.so.5:_ZN9QGroupBox8setTitleERK7QString
libQt5Widgets.so.5:_ZN9QGroupBoxC1EP7QWidget
libQt5Widgets.so.5:_ZN9QLineEdit10textEditedERK7QString
libQt5Widgets.so.5:_ZN9QLineEdit11setReadOnlyEb
libQt5Widgets.so.5:_ZN9QLineEdit11textChangedERK7QString
libQt5Widgets.so.5:_ZN9QLineEdit12setInputMaskERK7QString
libQt5Widgets.so.5:_ZN9QLineEdit13returnPressedEv
libQt5Widgets.so.5:_ZN9QLineEdit15editingFinishedEv
libQt5Widgets.so.5:_ZN9QLineEdit16staticMetaObjectE
libQt5Widgets.so.5:_ZN9QLineEdit18setPlaceholderTextERK7QString
libQt5Widgets.so.5:_ZN9QLineEdit21setClearButtonEnabledEb
libQt5Widgets.so.5:_ZN9QLineEdit5clearEv
libQt5Widgets.so.5:_ZN9QLineEdit7setTextERK7QString
libQt5Widgets.so.5:_ZN9QLineEditC1EP7QWidget
libQt5Widgets.so.5:_ZN9QListView11setWordWrapEb
libQt5Widgets.so.5:_ZN9QListView13setResizeModeENS_10ResizeModeE
libQt5Widgets.so.5:_ZN9QListViewC1EP7QWidget
libQt5Widgets.so.5:_ZN9QSplitter12restoreStateERK10QByteArray
libQt5Widgets.so.5:_ZN9QSplitter14setCollapsibleEib
libQt5Widgets.so.5:_ZN9QSplitter14setOrientationEN2Qt11OrientationE
libQt5Widgets.so.5:_ZN9QSplitter16setStretchFactorEii
libQt5Widgets.so.5:_ZN9QSplitter22setChildrenCollapsibleEb
libQt5Widgets.so.5:_ZN9QSplitter9addWidgetEP7QWidget
libQt5Widgets.so.5:_ZN9QSplitterC1EP7QWidget
libQt5Widgets.so.5:_ZN9QTextEdit11setReadOnlyEb
libQt5Widgets.so.5:_ZN9QTextEdit12setPlainTextERK7QString
libQt5Widgets.so.5:_ZN9QTextEdit15setTabStopWidthEi
libQt5Widgets.so.5:_ZN9QTextEdit17setAcceptRichTextEb
libQt5Widgets.so.5:_ZN9QTextEdit17setAutoFormattingE6QFlagsINS_18AutoFormattingFlagEE
libQt5Widgets.so.5:_ZN9QTextEdit23setTextInteractionFlagsE6QFlagsIN2Qt19TextInteractionFlagEE
libQt5Widgets.so.5:_ZN9QTextEdit6appendERK7QString
libQt5Widgets.so.5:_ZN9QTextEdit7setHtmlERK7QString
libQt5Widgets.so.5:_ZN9QTextEditC1EP7QWidget
libQt5Widgets.so.5:_ZN9QTreeView15setColumnHiddenEib
libQt5Widgets.so.5:_ZN9QTreeViewC1EP7QWidget
libQt5Widgets.so.5:_ZNK10QTabWidget12currentIndexEv
libQt5Widgets.so.5:_ZNK10QTabWidget13currentWidgetEv
libQt5Widgets.so.5:_ZNK10QTabWidget5countEv
libQt5Widgets.so.5:_ZNK10QTabWidget6widgetEi
libQt5Widgets.so.5:_ZNK10QTabWidget7indexOfEP7QWidget
libQt5Widgets.so.5:_ZNK10QTabWidget7tabTextEi
libQt5Widgets.so.5:_ZNK10QTableView14verticalHeaderEv
libQt5Widgets.so.5:_ZNK10QTableView16horizontalHeaderEv
libQt5Widgets.so.5:_ZNK11QGridLayout11columnCountEv
libQt5Widgets.so.5:_ZNK11QGridLayout8rowCountEv
libQt5Widgets.so.5:_ZNK11QLayoutItem21minimumHeightForWidthEi
libQt5Widgets.so.5:_ZNK11QListWidget10currentRowEv
libQt5Widgets.so.5:_ZNK11QListWidget11currentItemEv
libQt5Widgets.so.5:_ZNK11QListWidget13selectedItemsEv
libQt5Widgets.so.5:_ZNK11QListWidget14isItemSelectedEPK15QListWidgetItem
libQt5Widgets.so.5:_ZNK11QListWidget3rowEPK15QListWidgetItem
libQt5Widgets.so.5:_ZNK11QListWidget4itemEi
libQt5Widgets.so.5:_ZNK11QListWidget5countEv
libQt5Widgets.so.5:_ZNK11QListWidget9findItemsERK7QString6QFlagsIN2Qt9MatchFlagEE
libQt5Widgets.so.5:_ZNK11QMainWindow9saveStateEi
libQt5Widgets.so.5:_ZNK11QMainWindow9statusBarEv
libQt5Widgets.so.5:_ZNK11QMessageBox13clickedButtonEv
libQt5Widgets.so.5:_ZNK11QMessageBox8checkBoxEv
libQt5Widgets.so.5:_ZNK11QTreeWidget10headerItemEv
libQt5Widgets.so.5:_ZNK11QTreeWidget11currentItemEv
libQt5Widgets.so.5:_ZNK11QWizardPage10isCompleteEv
libQt5Widgets.so.5:_ZNK11QWizardPage6nextIdEv
libQt5Widgets.so.5:_ZNK12QProgressBar5valueEv
libQt5Widgets.so.5:_ZNK12QProgressBar7maximumEv
libQt5Widgets.so.5:_ZNK12QProgressBar7minimumEv
libQt5Widgets.so.5:_ZNK12QTableWidget10currentRowEv
libQt5Widgets.so.5:_ZNK12QTableWidget11columnCountEv
libQt5Widgets.so.5:_ZNK12QTableWidget4itemEii
libQt5Widgets.so.5:_ZNK12QTableWidget8rowCountEv
libQt5Widgets.so.5:_ZNK13QGraphicsItem10opaqueAreaEv
libQt5Widgets.so.5:_ZNK13QGraphicsItem12isObscuredByEPKS_
libQt5Widgets.so.5:_ZNK13QGraphicsItem14boundingRegionERK10QTransform
libQt5Widgets.so.5:_ZNK13QGraphicsItem14sceneTransformEv
libQt5Widgets.so.5:_ZNK13QGraphicsItem16collidesWithItemEPKS_N2Qt17ItemSelectionModeE
libQt5Widgets.so.5:_ZNK13QGraphicsItem16collidesWithPathERK12QPainterPathN2Qt17ItemSelectionModeE
libQt5Widgets.so.5:_ZNK13QGraphicsItem16inputMethodQueryEN2Qt16InputMethodQueryE
libQt5Widgets.so.5:_ZNK13QGraphicsItem17supportsExtensionENS_9ExtensionE
libQt5Widgets.so.5:_ZNK13QGraphicsItem4typeEv
libQt5Widgets.so.5:_ZNK13QGraphicsItem5sceneEv
libQt5Widgets.so.5:_ZNK13QGraphicsItem5shapeEv
libQt5Widgets.so.5:_ZNK13QGraphicsItem8containsERK7QPointF
libQt5Widgets.so.5:_ZNK13QGraphicsItem9extensionERK8QVariant
libQt5Widgets.so.5:_ZNK13QGraphicsView10mapToSceneERK6QPoint
libQt5Widgets.so.5:_ZNK13QGraphicsView16inputMethodQueryEN2Qt16InputMethodQueryE
libQt5Widgets.so.5:_ZNK13QGraphicsView8sizeHintEv
libQt5Widgets.so.5:_ZNK13QGraphicsView9transformEv
libQt5Widgets.so.5:_ZNK14QDesktopWidget14screenGeometryEi
libQt5Widgets.so.5:_ZNK14QDoubleSpinBox5valueEv
libQt5Widgets.so.5:_ZNK14QDoubleSpinBox7maximumEv
libQt5Widgets.so.5:_ZNK14QDoubleSpinBox7minimumEv
libQt5Widgets.so.5:_ZNK14QGraphicsScene5viewsEv
libQt5Widgets.so.5:_ZNK14QStackedWidget12currentIndexEv
libQt5Widgets.so.5:_ZNK14QStackedWidget13currentWidgetEv
libQt5Widgets.so.5:_ZNK14QStackedWidget5countEv
libQt5Widgets.so.5:_ZNK15QAbstractButton9isCheckedEv
libQt5Widgets.so.5:_ZNK15QAbstractSlider5valueEv
libQt5Widgets.so.5:_ZNK15QAbstractSlider7maximumEv
libQt5Widgets.so.5:_ZNK15QAbstractSlider7minimumEv
libQt5Widgets.so.5:_ZNK17QAbstractItemView12currentIndexEv
libQt5Widgets.so.5:_ZNK17QAbstractItemView14selectionModelEv
libQt5Widgets.so.5:_ZNK19QAbstractScrollArea15minimumSizeHintEv
libQt5Widgets.so.5:_ZNK19QAbstractScrollArea16viewportSizeHintEv
libQt5Widgets.so.5:_ZNK19QAbstractScrollArea17verticalScrollBarEv
libQt5Widgets.so.5:_ZNK19QAbstractScrollArea19horizontalScrollBarEv
libQt5Widgets.so.5:_ZNK19QAbstractScrollArea19maximumViewportSizeEv
libQt5Widgets.so.5:_ZNK19QAbstractScrollArea8viewportEv
libQt5Widgets.so.5:_ZNK19QGraphicsPixmapItem10opaqueAreaEv
libQt5Widgets.so.5:_ZNK19QGraphicsPixmapItem12boundingRectEv
libQt5Widgets.so.5:_ZNK19QGraphicsPixmapItem12isObscuredByEPK13QGraphicsItem
libQt5Widgets.so.5:_ZNK19QGraphicsPixmapItem17supportsExtensionEN13QGraphicsItem9ExtensionE
libQt5Widgets.so.5:_ZNK19QGraphicsPixmapItem4typeEv
libQt5Widgets.so.5:_ZNK19QGraphicsPixmapItem5shapeEv
libQt5Widgets.so.5:_ZNK19QGraphicsPixmapItem6pixmapEv
libQt5Widgets.so.5:_ZNK19QGraphicsPixmapItem8containsERK7QPointF
libQt5Widgets.so.5:_ZNK19QGraphicsPixmapItem9extensionERK8QVariant
libQt5Widgets.so.5:_ZNK24QGraphicsSceneMouseEvent12lastScenePosEv
libQt5Widgets.so.5:_ZNK24QGraphicsSceneMouseEvent18buttonDownScenePosEN2Qt11MouseButtonE
libQt5Widgets.so.5:_ZNK24QGraphicsSceneMouseEvent6buttonEv
libQt5Widgets.so.5:_ZNK24QGraphicsSceneMouseEvent8scenePosEv
libQt5Widgets.so.5:_ZNK5QMenu10menuActionEv
libQt5Widgets.so.5:_ZNK6QFrame10frameWidthEv
libQt5Widgets.so.5:_ZNK6QFrame8sizeHintEv
libQt5Widgets.so.5:_ZNK6QFrame9frameRectEv
libQt5Widgets.so.5:_ZNK6QLabel14heightForWidthEi
libQt5Widgets.so.5:_ZNK6QLabel15minimumSizeHintEv
libQt5Widgets.so.5:_ZNK6QLabel4textEv
libQt5Widgets.so.5:_ZNK6QLabel6pixmapEv
libQt5Widgets.so.5:_ZNK6QLabel8sizeHintEv
libQt5Widgets.so.5:_ZNK7QAction4dataEv
libQt5Widgets.so.5:_ZNK7QAction9isCheckedEv
libQt5Widgets.so.5:_ZNK7QDialog15minimumSizeHintEv
libQt5Widgets.so.5:_ZNK7QDialog8sizeHintEv
libQt5Widgets.so.5:_ZNK7QLayout11maximumSizeEv
libQt5Widgets.so.5:_ZNK7QLayout12controlTypesEv
libQt5Widgets.so.5:_ZNK7QLayout18getContentsMarginsEPiS0_S0_S0_
libQt5Widgets.so.5:_ZNK7QLayout6marginEv
libQt5Widgets.so.5:_ZNK7QLayout7indexOfEP7QWidget
libQt5Widgets.so.5:_ZNK7QLayout7isEmptyEv
libQt5Widgets.so.5:_ZNK7QLayout7spacingEv
libQt5Widgets.so.5:_ZNK7QLayout8geometryEv
libQt5Widgets.so.5:_ZNK7QWidget10redirectedEP6QPoint
libQt5Widgets.so.5:_ZNK7QWidget10sizePolicyEv
libQt5Widgets.so.5:_ZNK7QWidget10windowIconEv
libQt5Widgets.so.5:_ZNK7QWidget11initPainterEP8QPainter
libQt5Widgets.so.5:_ZNK7QWidget11mapToGlobalERK6QPoint
libQt5Widgets.so.5:_ZNK7QWidget11paintEngineEv
libQt5Widgets.so.5:_ZNK7QWidget11windowTitleEv
libQt5Widgets.so.5:_ZNK7QWidget12isFullScreenEv
libQt5Widgets.so.5:_ZNK7QWidget12saveGeometryEv
libQt5Widgets.so.5:_ZNK7QWidget13frameGeometryEv
libQt5Widgets.so.5:_ZNK7QWidget13mapFromGlobalERK6QPoint
libQt5Widgets.so.5:_ZNK7QWidget13sharedPainterEv
libQt5Widgets.so.5:_ZNK7QWidget14heightForWidthEi
libQt5Widgets.so.5:_ZNK7QWidget15minimumSizeHintEv
libQt5Widgets.so.5:_ZNK7QWidget16inputMethodQueryEN2Qt16InputMethodQueryE
libQt5Widgets.so.5:_ZNK7QWidget17hasHeightForWidthEv
libQt5Widgets.so.5:_ZNK7QWidget1xEv
libQt5Widgets.so.5:_ZNK7QWidget1yEv
libQt5Widgets.so.5:_ZNK7QWidget3posEv
libQt5Widgets.so.5:_ZNK7QWidget5styleEv
libQt5Widgets.so.5:_ZNK7QWidget6layoutEv
libQt5Widgets.so.5:_ZNK7QWidget6metricEN12QPaintDevice17PaintDeviceMetricE
libQt5Widgets.so.5:_ZNK7QWidget7actionsEv
libQt5Widgets.so.5:_ZNK7QWidget7devTypeEv
libQt5Widgets.so.5:_ZNK7QWidget7paletteEv
libQt5Widgets.so.5:_ZNK7QWidget8sizeHintEv
libQt5Widgets.so.5:_ZNK7QWizard6nextIdEv
libQt5Widgets.so.5:_ZNK7QWizard8sizeHintEv
libQt5Widgets.so.5:_ZNK7QWizard9currentIdEv
libQt5Widgets.so.5:_ZNK8QSpinBox5valueEv
libQt5Widgets.so.5:_ZNK8QToolBar16toggleViewActionEv
libQt5Widgets.so.5:_ZNK8QToolBox7indexOfEP7QWidget
libQt5Widgets.so.5:_ZNK9QComboBox11currentDataEi
libQt5Widgets.so.5:_ZNK9QComboBox11currentTextEv
libQt5Widgets.so.5:_ZNK9QComboBox12currentIndexEv
libQt5Widgets.so.5:_ZNK9QComboBox5countEv
libQt5Widgets.so.5:_ZNK9QComboBox8findDataERK8QVarianti6QFlagsIN2Qt9MatchFlagEE
libQt5Widgets.so.5:_ZNK9QComboBox8itemTextEi
libQt5Widgets.so.5:_ZNK9QLineEdit4textEv
libQt5Widgets.so.5:_ZNK9QSplitter9saveStateEv
libQt5Widgets.so.5:_ZNK9QTextEdit5printEP17QPagedPaintDevice
libQt5Widgets.so.5:_ZNK9QTreeView6headerEv
libQt5Widgets.so.5:_ZTI11QDockWidget
libQt5Widgets.so.5:_ZTI11QMainWindow
libQt5Widgets.so.5:_ZTI11QMessageBox
libQt5Widgets.so.5:_ZTI11QToolButton
libQt5Widgets.so.5:_ZTI11QWizardPage
libQt5Widgets.so.5:_ZTI13QGraphicsItem
libQt5Widgets.so.5:_ZTI13QGraphicsView
libQt5Widgets.so.5:_ZTI19QGraphicsPixmapItem
libQt5Widgets.so.5:_ZTI24QGraphicsSceneMouseEvent
libQt5Widgets.so.5:_ZTI6QFrame
libQt5Widgets.so.5:_ZTI6QLabel
libQt5Widgets.so.5:_ZTI7QDialog
libQt5Widgets.so.5:_ZTI7QLayout
libQt5Widgets.so.5:_ZTI7QWidget
libQt5Widgets.so.5:_ZTI7QWizard
libQt5Widgets.so.5:_ZTV11QSpacerItem
libQt5Widgets.so.5:_ZThn16_N7QLayout10invalidateEv
libQt5Widgets.so.5:_ZThn16_N7QLayout6layoutEv
libQt5Widgets.so.5:_ZThn16_NK7QLayout11maximumSizeEv
libQt5Widgets.so.5:_ZThn16_NK7QLayout12controlTypesEv
libQt5Widgets.so.5:_ZThn16_NK7QLayout7isEmptyEv
libQt5Widgets.so.5:_ZThn16_NK7QLayout8geometryEv
libQt5Widgets.so.5:_ZThn16_NK7QWidget10redirectedEP6QPoint
libQt5Widgets.so.5:_ZThn16_NK7QWidget11initPainterEP8QPainter
libQt5Widgets.so.5:_ZThn16_NK7QWidget11paintEngineEv
libQt5Widgets.so.5:_ZThn16_NK7QWidget13sharedPainterEv
libQt5Widgets.so.5:_ZThn16_NK7QWidget6metricEN12QPaintDevice17PaintDeviceMetricE
libQt5Widgets.so.5:_ZThn16_NK7QWidget7devTypeEv
libQt5Xml.so.5:_ZN11QDomElement13attributeNodeERK7QString
libQt5Xml.so.5:_ZN12QDomDocument10setContentEP9QIODeviceP7QStringPiS4_
libQt5Xml.so.5:_ZN12QDomDocumentC1ERK7QString
libQt5Xml.so.5:_ZN12QDomDocumentC1Ev
libQt5Xml.so.5:_ZN12QDomDocumentD1Ev
libQt5Xml.so.5:_ZN12QDomNodeListD1Ev
libQt5Xml.so.5:_ZN15QXmlInputSourceC1EP9QIODevice
libQt5Xml.so.5:_ZN15QXmlInputSourceD1Ev
libQt5Xml.so.5:_ZN16QXmlSimpleReader17setContentHandlerEP18QXmlContentHandler
libQt5Xml.so.5:_ZN16QXmlSimpleReader5parseERK15QXmlInputSource
libQt5Xml.so.5:_ZN16QXmlSimpleReaderC1Ev
libQt5Xml.so.5:_ZN16QXmlSimpleReaderD1Ev
libQt5Xml.so.5:_ZN18QXmlDefaultHandler10charactersERK7QString
libQt5Xml.so.5:_ZN18QXmlDefaultHandler10fatalErrorERK18QXmlParseException
libQt5Xml.so.5:_ZN18QXmlDefaultHandler10startCDATAEv
libQt5Xml.so.5:_ZN18QXmlDefaultHandler11endDocumentEv
libQt5Xml.so.5:_ZN18QXmlDefaultHandler11startEntityERK7QString
libQt5Xml.so.5:_ZN18QXmlDefaultHandler12notationDeclERK7QStringS2_S2_
libQt5Xml.so.5:_ZN18QXmlDefaultHandler13attributeDeclERK7QStringS2_S2_S2_S2_
libQt5Xml.so.5:_ZN18QXmlDefaultHandler13resolveEntityERK7QStringS2_RP15QXmlInputSource
libQt5Xml.so.5:_ZN18QXmlDefaultHandler13skippedEntityERK7QString
libQt5Xml.so.5:_ZN18QXmlDefaultHandler16endPrefixMappingERK7QString
libQt5Xml.so.5:_ZN18QXmlDefaultHandler18externalEntityDeclERK7QStringS2_S2_
libQt5Xml.so.5:_ZN18QXmlDefaultHandler18internalEntityDeclERK7QStringS2_
libQt5Xml.so.5:_ZN18QXmlDefaultHandler18setDocumentLocatorEP11QXmlLocator
libQt5Xml.so.5:_ZN18QXmlDefaultHandler18startPrefixMappingERK7QStringS2_
libQt5Xml.so.5:_ZN18QXmlDefaultHandler18unparsedEntityDeclERK7QStringS2_S2_S2_
libQt5Xml.so.5:_ZN18QXmlDefaultHandler19ignorableWhitespaceERK7QString
libQt5Xml.so.5:_ZN18QXmlDefaultHandler21processingInstructionERK7QStringS2_
libQt5Xml.so.5:_ZN18QXmlDefaultHandler5errorERK18QXmlParseException
libQt5Xml.so.5:_ZN18QXmlDefaultHandler6endDTDEv
libQt5Xml.so.5:_ZN18QXmlDefaultHandler7commentERK7QString
libQt5Xml.so.5:_ZN18QXmlDefaultHandler7warningERK18QXmlParseException
libQt5Xml.so.5:_ZN18QXmlDefaultHandler8endCDATAEv
libQt5Xml.so.5:_ZN18QXmlDefaultHandler8startDTDERK7QStringS2_S2_
libQt5Xml.so.5:_ZN18QXmlDefaultHandler9endEntityERK7QString
libQt5Xml.so.5:_ZN18QXmlDefaultHandlerC2Ev
libQt5Xml.so.5:_ZN18QXmlDefaultHandlerD2Ev
libQt5Xml.so.5:_ZN8QDomNodeC1ERKS_
libQt5Xml.so.5:_ZN8QDomNodeD1Ev
libQt5Xml.so.5:_ZN8QDomNodeD2Ev
libQt5Xml.so.5:_ZN8QDomNodeaSERKS_
libQt5Xml.so.5:_ZNK11QDomElement12hasAttributeERK7QString
libQt5Xml.so.5:_ZNK11QDomElement4textEv
libQt5Xml.so.5:_ZNK12QDomDocument15documentElementEv
libQt5Xml.so.5:_ZNK12QDomNodeList4itemEi
libQt5Xml.so.5:_ZNK12QDomNodeList6lengthEv
libQt5Xml.so.5:_ZNK14QXmlAttributes5valueEi
libQt5Xml.so.5:_ZNK18QXmlDefaultHandler11errorStringEv
libQt5Xml.so.5:_ZNK8QDomAttr5valueEv
libQt5Xml.so.5:_ZNK8QDomNode10childNodesEv
libQt5Xml.so.5:_ZNK8QDomNode10firstChildEv
libQt5Xml.so.5:_ZNK8QDomNode11nextSiblingEv
libQt5Xml.so.5:_ZNK8QDomNode17firstChildElementERK7QString
libQt5Xml.so.5:_ZNK8QDomNode6isNullEv
libQt5Xml.so.5:_ZNK8QDomNode9isElementEv
libQt5Xml.so.5:_ZNK8QDomNode9toElementEv
libQt5Xml.so.5:_ZTI18QXmlDefaultHandler
libQt5Xml.so.5:_ZThn16_N18QXmlDefaultHandler12notationDeclERK7QStringS2_S2_
libQt5Xml.so.5:_ZThn16_N18QXmlDefaultHandler18unparsedEntityDeclERK7QStringS2_S2_S2_
libQt5Xml.so.5:_ZThn16_NK18QXmlDefaultHandler11errorStringEv
libQt5Xml.so.5:_ZThn24_N18QXmlDefaultHandler13resolveEntityERK7QStringS2_RP15QXmlInputSource
libQt5Xml.so.5:_ZThn24_NK18QXmlDefaultHandler11errorStringEv
libQt5Xml.so.5:_ZThn32_N18QXmlDefaultHandler10startCDATAEv
libQt5Xml.so.5:_ZThn32_N18QXmlDefaultHandler11startEntityERK7QString
libQt5Xml.so.5:_ZThn32_N18QXmlDefaultHandler6endDTDEv
libQt5Xml.so.5:_ZThn32_N18QXmlDefaultHandler7commentERK7QString
libQt5Xml.so.5:_ZThn32_N18QXmlDefaultHandler8endCDATAEv
libQt5Xml.so.5:_ZThn32_N18QXmlDefaultHandler8startDTDERK7QStringS2_S2_
libQt5Xml.so.5:_ZThn32_N18QXmlDefaultHandler9endEntityERK7QString
libQt5Xml.so.5:_ZThn32_NK18QXmlDefaultHandler11errorStringEv
libQt5Xml.so.5:_ZThn40_N18QXmlDefaultHandler13attributeDeclERK7QStringS2_S2_S2_S2_
libQt5Xml.so.5:_ZThn40_N18QXmlDefaultHandler18externalEntityDeclERK7QStringS2_S2_
libQt5Xml.so.5:_ZThn40_N18QXmlDefaultHandler18internalEntityDeclERK7QStringS2_
libQt5Xml.so.5:_ZThn40_NK18QXmlDefaultHandler11errorStringEv
libQt5Xml.so.5:_ZThn8_N18QXmlDefaultHandler10fatalErrorERK18QXmlParseException
libQt5Xml.so.5:_ZThn8_N18QXmlDefaultHandler5errorERK18QXmlParseException
libQt5Xml.so.5:_ZThn8_N18QXmlDefaultHandler7warningERK18QXmlParseException
libQt5Xml.so.5:_ZThn8_NK18QXmlDefaultHandler11errorStringEv
libboost_program_options.so.1.72.0:_ZN5boost15program_options10validators22check_first_occurrenceERKNS_3anyE
libboost_program_options.so.1.72.0:_ZN5boost15program_options11to_internalERKNSt7__cxx1112basic_stringIcSt11char_traitsIcESaIcEEE
libboost_program_options.so.1.72.0:_ZN5boost15program_options13variables_mapC1Ev
libboost_program_options.so.1.72.0:_ZN5boost15program_options16validation_error12get_templateB5cxx11ENS1_6kind_tE
libboost_program_options.so.1.72.0:_ZN5boost15program_options19options_description11add_optionsEv
libboost_program_options.so.1.72.0:_ZN5boost15program_options19options_description21m_default_line_lengthE
libboost_program_options.so.1.72.0:_ZN5boost15program_options19options_description3addERKS1_
libboost_program_options.so.1.72.0:_ZN5boost15program_options19options_descriptionC1ERKNSt7__cxx1112basic_stringIcSt11char_traitsIcESaIcEEEjj
libboost_program_options.so.1.72.0:_ZN5boost15program_options19options_descriptionC1Ejj
libboost_program_options.so.1.72.0:_ZN5boost15program_options20invalid_option_valueC1ERKNSt7__cxx1112basic_stringIcSt11char_traitsIcESaIcEEE
libboost_program_options.so.1.72.0:_ZN5boost15program_options22error_with_option_nameC2ERKNSt7__cxx1112basic_stringIcSt11char_traitsIcESaIcEEES9_S9_i
libboost_program_options.so.1.72.0:_ZN5boost15program_options29options_description_easy_initclEPKcPKNS0_14value_semanticES3_
libboost_program_options.so.1.72.0:_ZN5boost15program_options29options_description_easy_initclEPKcS3_
libboost_program_options.so.1.72.0:_ZN5boost15program_options30positional_options_description3addEPKci
libboost_program_options.so.1.72.0:_ZN5boost15program_options30positional_options_descriptionC1Ev
libboost_program_options.so.1.72.0:_ZN5boost15program_options3argB5cxx11E
libboost_program_options.so.1.72.0:_ZN5boost15program_options5storeERKNS0_20basic_parsed_optionsIcEERNS0_13variables_mapEb
libboost_program_options.so.1.72.0:_ZN5boost15program_options6detail7cmdline22set_positional_optionsERKNS0_30positional_options_descriptionE
libboost_program_options.so.1.72.0:_ZN5boost15program_options6detail7cmdline23set_options_descriptionERKNS0_19options_descriptionE
libboost_program_options.so.1.72.0:_ZN5boost15program_options6detail7cmdline27get_canonical_option_prefixEv
libboost_program_options.so.1.72.0:_ZN5boost15program_options6detail7cmdline3runEv
libboost_program_options.so.1.72.0:_ZN5boost15program_options6detail7cmdlineC2ERKSt6vectorINSt7__cxx1112basic_stringIcSt11char_traitsIcESaIcEEESaIS9_EE
libboost_program_options.so.1.72.0:_ZN5boost15program_options6notifyERNS0_13variables_mapE
libboost_program_options.so.1.72.0:_ZN5boost15program_options8validateERNS_3anyERKSt6vectorINSt7__cxx1112basic_stringIcSt11char_traitsIcESaIcEEESaIS9_EEPS9_i
libboost_program_options.so.1.72.0:_ZN5boost15program_options8validateERNS_3anyERKSt6vectorINSt7__cxx1112basic_stringIcSt11char_traitsIcESaIcEEESaIS9_EEPbi
libboost_program_options.so.1.72.0:_ZN5boost15program_optionslsERSoRKNS0_19options_descriptionE
libboost_program_options.so.1.72.0:_ZNK5boost15program_options22abstract_variables_mapixERKNSt7__cxx1112basic_stringIcSt11char_traitsIcESaIcEEE
libboost_program_options.so.1.72.0:_ZNK5boost15program_options22error_with_option_name23substitute_placeholdersERKNSt7__cxx1112basic_stringIcSt11char_traitsIcESaIcEEE
libboost_program_options.so.1.72.0:_ZNK5boost15program_options22error_with_option_name4whatEv
libboost_program_options.so.1.72.0:_ZNK5boost15program_options29value_semantic_codecvt_helperIcE5parseERNS_3anyERKSt6vectorINSt7__cxx1112basic_stringIcSt11char_traitsIcESaIcEEESaISB_EEb
libc.so.6:__cxa_atexit
libc.so.6:__fprintf_chk
libc.so.6:__isoc99_fscanf
libc.so.6:__isoc99_sscanf
libc.so.6:__libc_start_main
libc.so.6:__longjmp_chk
libc.so.6:__sprintf_chk
libc.so.6:__stack_chk_fail
libc.so.6:_setjmp
libc.so.6:calloc
libc.so.6:exit
libc.so.6:fclose
libc.so.6:feof
libc.so.6:fflush
libc.so.6:fgets
libc.so.6:fopen
libc.so.6:fputc
libc.so.6:fputs
libc.so.6:fread
libc.so.6:free
libc.so.6:fwrite
libc.so.6:gettimeofday
libc.so.6:malloc
libc.so.6:memcmp
libc.so.6:memcpy
libc.so.6:memmove
libc.so.6:memset
libc.so.6:puts
libc.so.6:realloc
libc.so.6:remove
libc.so.6:stderr
libc.so.6:stdout
libc.so.6:strcasecmp
libc.so.6:strchr
libc.so.6:strcmp
libc.so.6:strerror_r
libc.so.6:strlen
libc.so.6:strncpy
libc.so.6:strtod
libc.so.6:strtof
libc.so.6:strtok
libc.so.6:tolower
libcfitsio.so.9:ffclos
libcfitsio.so.9:ffgerr
libcfitsio.so.9:ffgknj
libcfitsio.so.9:ffgkye
libcfitsio.so.9:ffgkyj
libcfitsio.so.9:ffgpv
libcfitsio.so.9:ffopentest
libexiv2.so.27:_ZN5Exiv212ImageFactory4openERKNSt7__cxx1112basic_stringIcSt11char_traitsIcESaIcEEEb
libexiv2.so.27:_ZN5Exiv27ExifKeyC1ERKNSt7__cxx1112basic_stringIcSt11char_traitsIcESaIcEEE
libexiv2.so.27:_ZN5Exiv27ExifKeyD1Ev
libexiv2.so.27:_ZN5Exiv28ExifData7findKeyERKNS_7ExifKeyE
libexiv2.so.27:_ZN5Exiv28ExifDataixERKNSt7__cxx1112basic_stringIcSt11char_traitsIcESaIcEEE
libexiv2.so.27:_ZN5Exiv29ExifdatumC1ERKS0_
libexiv2.so.27:_ZN5Exiv29ExifdatumaSERKNS_5ValueE
libexiv2.so.27:_ZN5Exiv29ExifdatumaSERKNSt7__cxx1112basic_stringIcSt11char_traitsIcESaIcEEE
libexiv2.so.27:_ZN5Exiv29ExifdatumaSERKS0_
libexiv2.so.27:_ZN5Exiv29ExifdatumaSERKi
libfftw3f.so.3:fftwf_alloc_complex
libfftw3f.so.3:fftwf_alloc_real
libfftw3f.so.3:fftwf_destroy_plan
libfftw3f.so.3:fftwf_execute
libfftw3f.so.3:fftwf_execute_r2r
libfftw3f.so.3:fftwf_export_wisdom_to_filename
libfftw3f.so.3:fftwf_free
libfftw3f.so.3:fftwf_import_wisdom_from_filename
libfftw3f.so.3:fftwf_malloc
libfftw3f.so.3:fftwf_plan_dft_2d
libfftw3f.so.3:fftwf_plan_dft_c2r_2d
libfftw3f.so.3:fftwf_plan_dft_r2c_2d
libfftw3f.so.3:fftwf_plan_r2r_1d
libfftw3f.so.3:fftwf_plan_r2r_2d
libfftw3f_threads.so.3:fftwf_init_threads
libfftw3f_threads.so.3:fftwf_plan_with_nthreads
libgcc_s.so.1:_Unwind_Resume
libgomp.so.1:GOMP_atomic_end
libgomp.so.1:GOMP_atomic_start
libgomp.so.1:GOMP_barrier
libgomp.so.1:GOMP_critical_end
libgomp.so.1:GOMP_critical_start
libgomp.so.1:GOMP_loop_end
libgomp.so.1:GOMP_loop_end_nowait
libgomp.so.1:GOMP_loop_nonmonotonic_dynamic_next
libgomp.so.1:GOMP_loop_nonmonotonic_dynamic_start
libgomp.so.1:GOMP_loop_ull_nonmonotonic_dynamic_next
libgomp.so.1:GOMP_loop_ull_nonmonotonic_dynamic_start
libgomp.so.1:GOMP_parallel
libgomp.so.1:GOMP_parallel_sections
libgomp.so.1:GOMP_sections_end_nowait
libgomp.so.1:GOMP_sections_next
libgomp.so.1:GOMP_single_start
libgomp.so.1:omp_get_max_threads
libgomp.so.1:omp_get_nested
libgomp.so.1:omp_get_num_threads
libgomp.so.1:omp_get_thread_num
libgomp.so.1:omp_set_nested
libgsl.so.25:gsl_blas_daxpy
libgsl.so.25:gsl_blas_dcopy
libgsl.so.25:gsl_blas_ddot
libgsl.so.25:gsl_blas_dgemm
libgsl.so.25:gsl_blas_dgemv
libgsl.so.25:gsl_blas_dscal
libgsl.so.25:gsl_blas_dsymv
libgsl.so.25:gsl_error
libgsl.so.25:gsl_linalg_LU_decomp
libgsl.so.25:gsl_linalg_LU_solve
libgsl.so.25:gsl_matrix_alloc
libgsl.so.25:gsl_matrix_calloc
libgsl.so.25:gsl_matrix_free
libgsl.so.25:gsl_matrix_memcpy
libgsl.so.25:gsl_matrix_set_all
libgsl.so.25:gsl_matrix_set_identity
libgsl.so.25:gsl_matrix_set_zero
libgsl.so.25:gsl_matrix_submatrix
libgsl.so.25:gsl_matrix_transpose_memcpy
libgsl.so.25:gsl_permutation_alloc
libgsl.so.25:gsl_permutation_free
libgsl.so.25:gsl_poly_complex_solve
libgsl.so.25:gsl_poly_complex_workspace_alloc
libgsl.so.25:gsl_poly_complex_workspace_free
libgsl.so.25:gsl_set_error_handler
libgsl.so.25:gsl_vector_add_constant
libgsl.so.25:gsl_vector_alloc
libgsl.so.25:gsl_vector_calloc
libgsl.so.25:gsl_vector_free
libgsl.so.25:gsl_vector_memcpy
libgsl.so.25:gsl_vector_min
libgsl.so.25:gsl_vector_set_all
libgsl.so.25:gsl_vector_set_zero
libgsl.so.25:gsl_vector_subvector
libjpeg.so.8:jpeg_CreateCompress
libjpeg.so.8:jpeg_CreateDecompress
libjpeg.so.8:jpeg_destroy_compress
libjpeg.so.8:jpeg_destroy_decompress
libjpeg.so.8:jpeg_finish_compress
libjpeg.so.8:jpeg_finish_decompress
libjpeg.so.8:jpeg_read_header
libjpeg.so.8:jpeg_read_scanlines
libjpeg.so.8:jpeg_save_markers
libjpeg.so.8:jpeg_set_colorspace
libjpeg.so.8:jpeg_set_defaults
libjpeg.so.8:jpeg_set_quality
libjpeg.so.8:jpeg_start_compress
libjpeg.so.8:jpeg_start_decompress
libjpeg.so.8:jpeg_std_error
libjpeg.so.8:jpeg_stdio_dest
libjpeg.so.8:jpeg_stdio_src
libjpeg.so.8:jpeg_write_m_byte
libjpeg.so.8:jpeg_write_m_header
libjpeg.so.8:jpeg_write_scanlines
liblcms2.so.2:cmsBuildTabulatedToneCurve16
liblcms2.so.2:cmsCloseProfile
liblcms2.so.2:cmsCreateProofingTransform
liblcms2.so.2:cmsCreateRGBProfile
liblcms2.so.2:cmsCreateTransform
liblcms2.so.2:cmsCreate_sRGBProfile
liblcms2.so.2:cmsDeleteTransform
liblcms2.so.2:cmsDoTransform
liblcms2.so.2:cmsFreeToneCurve
liblcms2.so.2:cmsOpenProfileFromFile
liblcms2.so.2:cmsOpenProfileFromMem
liblcms2.so.2:cmsSaveProfileToMem
liblcms2.so.2:cmsSetAlarmCodes
libm.so.6:acos
libm.so.6:asin
libm.so.6:atan2
libm.so.6:atanf
libm.so.6:cbrt
libm.so.6:cbrtf
libm.so.6:cos
libm.so.6:erff
libm.so.6:exp
libm.so.6:exp10f
libm.so.6:exp2
libm.so.6:exp2f
libm.so.6:expf
libm.so.6:frexp
libm.so.6:ldexp
libm.so.6:log
libm.so.6:log10
libm.so.6:log10f
libm.so.6:log1pf
libm.so.6:log2
libm.so.6:log2f
libm.so.6:logf
libm.so.6:pow
libm.so.6:powf
libm.so.6:sin
libm.so.6:sincos
libmvec.so.1:_ZGVbN2v_exp
libmvec.so.1:_ZGVbN2v_sin
libmvec.so.1:_ZGVbN4v_expf
libmvec.so.1:_ZGVbN4v_logf
libmvec.so.1:_ZGVbN4vv_powf
libpng16.so.16:png_create_info_struct
libpng16.so.16:png_create_write_struct
libpng16.so.16:png_destroy_write_struct
libpng16.so.16:png_get_io_ptr
libpng16.so.16:png_init_io
libpng16.so.16:png_set_IHDR
libpng16.so.16:png_set_bgr
libpng16.so.16:png_set_compression_level
libpng16.so.16:png_set_iCCP
libpng16.so.16:png_set_longjmp_fn
libpng16.so.16:png_set_write_fn
libpng16.so.16:png_write_end
libpng16.so.16:png_write_info
libpng16.so.16:png_write_row
libpthread.so.0:pthread_mutex_destroy
libpthread.so.0:pthread_mutex_init
libpthread.so.0:pthread_mutex_lock
libpthread.so.0:pthread_mutex_unlock
libraw_r.so.20:_ZN6LibRaw10cameraListEv
libraw_r.so.20:_ZN6LibRaw11cameraCountEv
libraw_r.so.20:_ZN6LibRaw13dcraw_processEv
libraw_r.so.20:_ZN6LibRaw15dcraw_clear_memEP24libraw_processed_image_t
libraw_r.so.20:_ZN6LibRaw20dcraw_make_mem_imageEPi
libraw_r.so.20:_ZN6LibRaw22adjust_sizes_info_onlyEv
libraw_r.so.20:_ZN6LibRaw6unpackEv
libraw_r.so.20:_ZN6LibRaw7recycleEv
libraw_r.so.20:_ZN6LibRaw7versionEv
libraw_r.so.20:_ZN6LibRaw9open_fileEPKcx
libraw_r.so.20:_ZN6LibRawC1Ej
libraw_r.so.20:_ZN6LibRawD1Ev
libstdc++.so.6:_ZNKSt11logic_error4whatEv
libstdc++.so.6:_ZNKSt12__basic_fileIcE7is_openEv
libstdc++.so.6:_ZNKSt13runtime_error4whatEv
libstdc++.so.6:_ZNKSt3_V214error_category10_M_messageB5cxx11Ei
libstdc++.so.6:_ZNKSt5ctypeIcE13_M_widen_initEv
libstdc++.so.6:_ZNKSt6locale4nameB5cxx11Ev
libstdc++.so.6:_ZNKSt6localeeqERKS_
libstdc++.so.6:_ZNKSt7__cxx1112basic_stringIcSt11char_traitsIcESaIcEE12find_last_ofEPKcmm
libstdc++.so.6:_ZNKSt7__cxx1112basic_stringIcSt11char_traitsIcESaIcEE13find_first_ofEPKcmm
libstdc++.so.6:_ZNKSt7__cxx1112basic_stringIcSt11char_traitsIcESaIcEE4findEcm
libstdc++.so.6:_ZNKSt7__cxx1112basic_stringIcSt11char_traitsIcESaIcEE5rfindEcm
libstdc++.so.6:_ZNKSt7__cxx1112basic_stringIcSt11char_traitsIcESaIcEE7compareEmmPKc
libstdc++.so.6:_ZNKSt7__cxx1115basic_stringbufIcSt11char_traitsIcESaIcEE3strEv
libstdc++.so.6:_ZNSdD2Ev
libstdc++.so.6:_ZNSi10_M_extractIfEERSiRT_
libstdc++.so.6:_ZNSi3getEv
libstdc++.so.6:_ZNSi7getlineEPclc
libstdc++.so.6:_ZNSo3putEc
libstdc++.so.6:_ZNSo5flushEv
libstdc++.so.6:_ZNSo9_M_insertIbEERSoT_
libstdc++.so.6:_ZNSo9_M_insertIdEERSoT_
libstdc++.so.6:_ZNSo9_M_insertImEERSoT_
libstdc++.so.6:_ZNSolsEi
libstdc++.so.6:_ZNSt11logic_errorC2ERKS_
libstdc++.so.6:_ZNSt11logic_errorD2Ev
libstdc++.so.6:_ZNSt12__basic_fileIcED1Ev
libstdc++.so.6:_ZNSt13basic_filebufIcSt11char_traitsIcEE4openEPKcSt13_Ios_Openmode
libstdc++.so.6:_ZNSt13basic_filebufIcSt11char_traitsIcEE5closeEv
libstdc++.so.6:_ZNSt13basic_filebufIcSt11char_traitsIcEEC1Ev
libstdc++.so.6:_ZNSt13basic_filebufIcSt11char_traitsIcEED1Ev
libstdc++.so.6:_ZNSt13runtime_errorC1EPKc
libstdc++.so.6:_ZNSt13runtime_errorC1ERKNSt7__cxx1112basic_stringIcSt11char_traitsIcESaIcEEE
libstdc++.so.6:_ZNSt13runtime_errorC2EPKc
libstdc++.so.6:_ZNSt13runtime_errorC2ERKNSt7__cxx1112basic_stringIcSt11char_traitsIcESaIcEEE
libstdc++.so.6:_ZNSt13runtime_errorC2ERKS_
libstdc++.so.6:_ZNSt13runtime_errorD1Ev
libstdc++.so.6:_ZNSt13runtime_errorD2Ev
libstdc++.so.6:_ZNSt14basic_ifstreamIcSt11char_traitsIcEED1Ev
libstdc++.so.6:_ZNSt14basic_ofstreamIcSt11char_traitsIcEED1Ev
libstdc++.so.6:_ZNSt15basic_streambufIcSt11char_traitsIcEE4syncEv
libstdc++.so.6:_ZNSt15basic_streambufIcSt11char_traitsIcEE5imbueERKSt6locale
libstdc++.so.6:_ZNSt15basic_streambufIcSt11char_traitsIcEE5uflowEv
libstdc++.so.6:_ZNSt15basic_streambufIcSt11char_traitsIcEE6xsgetnEPcl
libstdc++.so.6:_ZNSt15basic_streambufIcSt11char_traitsIcEE6xsputnEPKcl
libstdc++.so.6:_ZNSt15basic_streambufIcSt11char_traitsIcEE8overflowEi
libstdc++.so.6:_ZNSt15basic_streambufIcSt11char_traitsIcEE9pbackfailEi
libstdc++.so.6:_ZNSt15basic_streambufIcSt11char_traitsIcEE9showmanycEv
libstdc++.so.6:_ZNSt15basic_streambufIcSt11char_traitsIcEE9underflowEv
libstdc++.so.6:_ZNSt3_V214error_categoryD2Ev
libstdc++.so.6:_ZNSt3_V216generic_categoryEv
libstdc++.so.6:_ZNSt6locale6globalERKS_
libstdc++.so.6:_ZNSt6locale7classicEv
libstdc++.so.6:_ZNSt6localeC1EPKc
libstdc++.so.6:_ZNSt6localeC1Ev
libstdc++.so.6:_ZNSt6localeD1Ev
libstdc++.so.6:_ZNSt7__cxx1112basic_stringIcSt11char_traitsIcESaIcEE13_S_copy_charsEPcPKcS7_
libstdc++.so.6:_ZNSt7__cxx1112basic_stringIcSt11char_traitsIcESaIcEE9_M_createERmm
libstdc++.so.6:_ZNSt7__cxx1112basic_stringIcSt11char_traitsIcESaIcEEC1EPKcRKS3_
libstdc++.so.6:_ZNSt7__cxx1112basic_stringIcSt11char_traitsIcESaIcEED1Ev
libstdc++.so.6:_ZNSt7__cxx1118basic_stringstreamIcSt11char_traitsIcESaIcEED1Ev
libstdc++.so.6:_ZNSt7__cxx1119basic_ostringstreamIcSt11char_traitsIcESaIcEED1Ev
libstdc++.so.6:_ZNSt8__detail15_List_node_base11_M_transferEPS0_S1_
libstdc++.so.6:_ZNSt8__detail15_List_node_base7_M_hookEPS0_
libstdc++.so.6:_ZNSt8__detail15_List_node_base9_M_unhookEv
libstdc++.so.6:_ZNSt8bad_castD2Ev
libstdc++.so.6:_ZNSt8ios_base4InitC1Ev
libstdc++.so.6:_ZNSt8ios_base4InitD1Ev
libstdc++.so.6:_ZNSt8ios_baseC2Ev
libstdc++.so.6:_ZNSt8ios_baseD2Ev
libstdc++.so.6:_ZNSt9bad_allocD1Ev
libstdc++.so.6:_ZNSt9basic_iosIcSt11char_traitsIcEE4initEPSt15basic_streambufIcS1_E
libstdc++.so.6:_ZNSt9basic_iosIcSt11char_traitsIcEE5clearESt12_Ios_Iostate
libstdc++.so.6:_ZSt16__ostream_insertIcSt11char_traitsIcEERSt13basic_ostreamIT_T0_ES6_PKS3_l
libstdc++.so.6:_ZSt16__throw_bad_castv
libstdc++.so.6:_ZSt17__throw_bad_allocv
libstdc++.so.6:_ZSt18_Rb_tree_decrementPKSt18_Rb_tree_node_base
libstdc++.so.6:_ZSt18_Rb_tree_decrementPSt18_Rb_tree_node_base
libstdc++.so.6:_ZSt18_Rb_tree_incrementPKSt18_Rb_tree_node_base
libstdc++.so.6:_ZSt18_Rb_tree_incrementPSt18_Rb_tree_node_base
libstdc++.so.6:_ZSt19__throw_logic_errorPKc
libstdc++.so.6:_ZSt20__throw_length_errorPKc
libstdc++.so.6:_ZSt20__throw_system_errori
libstdc++.so.6:_ZSt24__throw_out_of_range_fmtPKcz
libstdc++.so.6:_ZSt28_Rb_tree_rebalance_for_erasePSt18_Rb_tree_node_baseRS_
libstdc++.so.6:_ZSt29_Rb_tree_insert_and_rebalancebPSt18_Rb_tree_node_baseS0_RS_
libstdc++.so.6:_ZSt4cerr
libstdc++.so.6:_ZSt4clog
libstdc++.so.6:_ZSt4cout
libstdc++.so.6:_ZSt4endlIcSt11char_traitsIcEERSt13basic_ostreamIT_T0_ES6_
libstdc++.so.6:_ZSt9terminatev
libstdc++.so.6:_ZSt9use_facetINSt7__cxx118numpunctIcEEERKT_RKSt6locale
libstdc++.so.6:_ZStlsISt11char_traitsIcEERSt13basic_ostreamIcT_ES5_PKc
libstdc++.so.6:_ZTINSt3_V214error_categoryE
libstdc++.so.6:_ZTINSt8ios_base7failureB5cxx11E
libstdc++.so.6:_ZTIPKc
libstdc++.so.6:_ZTISt11logic_error
libstdc++.so.6:_ZTISt13runtime_error
libstdc++.so.6:_ZTISt15basic_streambufIcSt11char_traitsIcEE
libstdc++.so.6:_ZTISt8bad_cast
libstdc++.so.6:_ZTISt9bad_alloc
libstdc++.so.6:_ZTIb
libstdc++.so.6:_ZTId
libstdc++.so.6:_ZTIf
libstdc++.so.6:_ZTIi
libstdc++.so.6:_ZTIj
libstdc++.so.6:_ZTIm
libstdc++.so.6:_ZTIv
libstdc++.so.6:_ZTTNSt7__cxx1118basic_stringstreamIcSt11char_traitsIcESaIcEEE
libstdc++.so.6:_ZTTNSt7__cxx1119basic_ostringstreamIcSt11char_traitsIcESaIcEEE
libstdc++.so.6:_ZTTSt14basic_ifstreamIcSt11char_traitsIcEE
libstdc++.so.6:_ZTTSt14basic_ofstreamIcSt11char_traitsIcEE
libstdc++.so.6:_ZTVN10__cxxabiv116__enum_type_infoE
libstdc++.so.6:_ZTVN10__cxxabiv117__class_type_infoE
libstdc++.so.6:_ZTVN10__cxxabiv120__si_class_type_infoE
libstdc++.so.6:_ZTVN10__cxxabiv121__vmi_class_type_infoE
libstdc++.so.6:_ZTVNSt7__cxx1115basic_stringbufIcSt11char_traitsIcESaIcEEE
libstdc++.so.6:_ZTVNSt7__cxx1118basic_stringstreamIcSt11char_traitsIcESaIcEEE
libstdc++.so.6:_ZTVNSt7__cxx1119basic_ostringstreamIcSt11char_traitsIcESaIcEEE
libstdc++.so.6:_ZTVSi
libstdc++.so.6:_ZTVSt13basic_filebufIcSt11char_traitsIcEE
libstdc++.so.6:_ZTVSt14basic_ifstreamIcSt11char_traitsIcEE
libstdc++.so.6:_ZTVSt14basic_ofstreamIcSt11char_traitsIcEE
libstdc++.so.6:_ZTVSt15basic_streambufIcSt11char_traitsIcEE
libstdc++.so.6:_ZTVSt9bad_alloc
libstdc++.so.6:_ZTVSt9basic_iosIcSt11char_traitsIcEE
libstdc++.so.6:_ZdaPv
libstdc++.so.6:_ZdlPv
libstdc++.so.6:_Znam
libstdc++.so.6:_Znwm
libstdc++.so.6:__cxa_allocate_exception
libstdc++.so.6:__cxa_begin_catch
libstdc++.so.6:__cxa_end_catch
libstdc++.so.6:__cxa_free_exception
libstdc++.so.6:__cxa_guard_abort
libstdc++.so.6:__cxa_guard_acquire
libstdc++.so.6:__cxa_guard_release
libstdc++.so.6:__cxa_pure_virtual
libstdc++.so.6:__cxa_rethrow
libstdc++.so.6:__cxa_throw
libstdc++.so.6:__cxa_throw_bad_array_new_length
libstdc++.so.6:__dynamic_cast
libstdc++.so.6:__gxx_personality_v0
libtiff.so.5:TIFFClose
libtiff.so.5:TIFFGetField
libtiff.so.5:TIFFGetFieldDefaulted
libtiff.so.5:TIFFNumberOfStrips
libtiff.so.5:TIFFOpen
libtiff.so.5:TIFFReadScanline
libtiff.so.5:TIFFSetField
libtiff.so.5:TIFFStripSize
libtiff.so.5:TIFFWriteEncodedStrip
