kcm_bolt.so:_ZTISt14_Function_base
kcm_bolt.so:_ZTISt14unary_functionI7QStringvE
kcm_bolt.so:_ZTISt31_Maybe_unary_or_binary_functionIvJ7QStringEE
kcm_bolt.so:_ZTISt8functionIFv7QStringEE
kcm_bolt.so:_ZTSSt14_Function_base
kcm_bolt.so:_ZTSSt14unary_functionI7QStringvE
kcm_bolt.so:_ZTSSt31_Maybe_unary_or_binary_functionIvJ7QStringEE
kcm_bolt.so:_ZTSSt8functionIFv7QStringEE
kcm_bolt.so:qt_plugin_instance
kcm_bolt.so:qt_plugin_query_metadata_v2
kded_bolt.so:_ZN8KDEDBolt11qt_metacallEN11QMetaObject4CallEiPPv
kded_bolt.so:_ZN8KDEDBolt11qt_metacastEPKc
kded_bolt.so:_ZN8KDEDBolt11sortDevicesERK5QListI14QSharedPointerIN4Bolt6DeviceEEE
kded_bolt.so:_ZN8KDEDBolt16authorizeDevicesE5QListI14QSharedPointerIN4Bolt6DeviceEEENS_8AuthModeE
kded_bolt.so:_ZN8KDEDBolt16staticMetaObjectE
kded_bolt.so:_ZN8KDEDBolt6notifyEv
kded_bolt.so:_ZN8KDEDBoltC1EP7QObjectRK5QListI8QVariantE
kded_bolt.so:_ZN8KDEDBoltC2EP7QObjectRK5QListI8QVariantE
kded_bolt.so:_ZN8KDEDBoltD0Ev
kded_bolt.so:_ZN8KDEDBoltD1Ev
kded_bolt.so:_ZN8KDEDBoltD2Ev
kded_bolt.so:_ZNK8KDEDBolt10metaObjectEv
kded_bolt.so:_ZTI8KDEDBolt
kded_bolt.so:_ZTS8KDEDBolt
kded_bolt.so:_ZTV8KDEDBolt
kded_bolt.so:qt_plugin_instance
kded_bolt.so:qt_plugin_query_metadata_v2
libkbolt.so:_ZGVZN9QMetaType21registerConverterImplI14QSharedPointerIN4Bolt6DeviceEEP7QObjectEEbSt8functionIFbPKvPvEES_S_E10unregister
libkbolt.so:_ZGVZN9QMetaType21registerConverterImplI5QListI14QSharedPointerIN4Bolt6DeviceEEE9QIterableI13QMetaSequenceEEEbSt8functionIFbPKvPvEES_S_E10unregister
libkbolt.so:_ZGVZN9QMetaType21registerConverterImplI5QListI15QDBusObjectPathE9QIterableI13QMetaSequenceEEEbSt8functionIFbPKvPvEES_S_E10unregister
libkbolt.so:_ZGVZN9QMetaType23registerMutableViewImplI5QListI14QSharedPointerIN4Bolt6DeviceEEE9QIterableI13QMetaSequenceEEEbSt8functionIFbPvSB_EES_S_E10unregister
libkbolt.so:_ZGVZN9QMetaType23registerMutableViewImplI5QListI15QDBusObjectPathE9QIterableI13QMetaSequenceEEEbSt8functionIFbPvS8_EES_S_E10unregister
libkbolt.so:_ZN13QMetaSequence12MetaSequenceI5QListI14QSharedPointerIN4Bolt6DeviceEEEE5valueE
libkbolt.so:_ZN13QMetaSequence12MetaSequenceI5QListI15QDBusObjectPathEE5valueE
libkbolt.so:_ZN4Bolt11DeviceModel10setManagerEPNS_7ManagerE
libkbolt.so:_ZN4Bolt11DeviceModel11qt_metacallEN11QMetaObject4CallEiPPv
libkbolt.so:_ZN4Bolt11DeviceModel11qt_metacastEPKc
libkbolt.so:_ZN4Bolt11DeviceModel12setShowHostsEb
libkbolt.so:_ZN4Bolt11DeviceModel14managerChangedEPNS_7ManagerE
libkbolt.so:_ZN4Bolt11DeviceModel16showHostsChangedEb
libkbolt.so:_ZN4Bolt11DeviceModel16staticMetaObjectE
libkbolt.so:_ZN4Bolt11DeviceModel20populateWithoutResetEv
libkbolt.so:_ZN4Bolt16staticMetaObjectE
libkbolt.so:_ZN4Bolt6Device11qt_metacallEN11QMetaObject4CallEiPPv
libkbolt.so:_ZN4Bolt6Device11qt_metacastEPKc
libkbolt.so:_ZN4Bolt6Device13policyChangedENS_6PolicyE
libkbolt.so:_ZN4Bolt6Device13statusChangedENS_6StatusE
libkbolt.so:_ZN4Bolt6Device13storedChangedEb
libkbolt.so:_ZN4Bolt6Device16authFlagsChangedE6QFlagsINS_4AuthEE
libkbolt.so:_ZN4Bolt6Device16staticMetaObjectE
libkbolt.so:_ZN4Bolt6Device17setStatusOverrideENS_6StatusE
libkbolt.so:_ZN4Bolt6Device19clearStatusOverrideEv
libkbolt.so:_ZN4Bolt6Device6createERK15QDBusObjectPath
libkbolt.so:_ZN4Bolt6Device9authorizeE6QFlagsINS_4AuthEESt8functionIFvvEES4_IFvRK7QStringEE
libkbolt.so:_ZN4Bolt6DeviceC1EP7QObject
libkbolt.so:_ZN4Bolt6DeviceC1ERK15QDBusObjectPathP7QObject
libkbolt.so:_ZN4Bolt6DeviceC2EP7QObject
libkbolt.so:_ZN4Bolt6DeviceC2ERK15QDBusObjectPathP7QObject
libkbolt.so:_ZN4Bolt6DeviceD0Ev
libkbolt.so:_ZN4Bolt6DeviceD1Ev
libkbolt.so:_ZN4Bolt6DeviceD2Ev
libkbolt.so:_ZN4Bolt7Manager11deviceAddedERK14QSharedPointerINS_6DeviceEE
libkbolt.so:_ZN4Bolt7Manager11qt_metacallEN11QMetaObject4CallEiPPv
libkbolt.so:_ZN4Bolt7Manager11qt_metacastEPKc
libkbolt.so:_ZN4Bolt7Manager11setAuthModeENS_8AuthModeE
libkbolt.so:_ZN4Bolt7Manager12enrollDeviceERK7QStringNS_6PolicyE6QFlagsINS_4AuthEESt8functionIFvvEES8_IFvS3_EE
libkbolt.so:_ZN4Bolt7Manager12forgetDeviceERK7QStringSt8functionIFvvEES4_IFvS3_EE
libkbolt.so:_ZN4Bolt7Manager13deviceRemovedERK14QSharedPointerINS_6DeviceEE
libkbolt.so:_ZN4Bolt7Manager15authModeChangedENS_8AuthModeE
libkbolt.so:_ZN4Bolt7Manager16staticMetaObjectE
libkbolt.so:_ZN4Bolt7ManagerC1EP7QObject
libkbolt.so:_ZN4Bolt7ManagerC2EP7QObject
libkbolt.so:_ZN4Bolt7ManagerD0Ev
libkbolt.so:_ZN4Bolt7ManagerD1Ev
libkbolt.so:_ZN4Bolt7ManagerD2Ev
libkbolt.so:_ZNK4Bolt11DeviceModel10metaObjectEv
libkbolt.so:_ZNK4Bolt11DeviceModel4dataERK11QModelIndexi
libkbolt.so:_ZNK4Bolt11DeviceModel7managerEv
libkbolt.so:_ZNK4Bolt11DeviceModel8rowCountERK11QModelIndex
libkbolt.so:_ZNK4Bolt11DeviceModel9roleNamesEv
libkbolt.so:_ZNK4Bolt11DeviceModel9showHostsEv
libkbolt.so:_ZNK4Bolt6Device10metaObjectEv
libkbolt.so:_ZNK4Bolt6Device11connectTimeEv
libkbolt.so:_ZNK4Bolt6Device13authorizeTimeEv
libkbolt.so:_ZNK4Bolt6Device3uidEv
libkbolt.so:_ZNK4Bolt6Device4nameEv
libkbolt.so:_ZNK4Bolt6Device4typeEv
libkbolt.so:_ZNK4Bolt6Device5labelEv
libkbolt.so:_ZNK4Bolt6Device6parentEv
libkbolt.so:_ZNK4Bolt6Device6policyEv
libkbolt.so:_ZNK4Bolt6Device6statusEv
libkbolt.so:_ZNK4Bolt6Device6storedEv
libkbolt.so:_ZNK4Bolt6Device6vendorEv
libkbolt.so:_ZNK4Bolt6Device8dbusPathEv
libkbolt.so:_ZNK4Bolt6Device8keyStateEv
libkbolt.so:_ZNK4Bolt6Device9authFlagsEv
libkbolt.so:_ZNK4Bolt6Device9storeTimeEv
libkbolt.so:_ZNK4Bolt6Device9sysfsPathEv
libkbolt.so:_ZNK4Bolt7Manager10metaObjectEv
libkbolt.so:_ZNK4Bolt7Manager11isAvailableEv
libkbolt.so:_ZNK4Bolt7Manager13defaultPolicyEv
libkbolt.so:_ZNK4Bolt7Manager13securityLevelEv
libkbolt.so:_ZNK4Bolt7Manager6deviceEOSt8functionIFbRK14QSharedPointerINS_6DeviceEEEE
libkbolt.so:_ZNK4Bolt7Manager6deviceERK15QDBusObjectPath
libkbolt.so:_ZNK4Bolt7Manager6deviceERK7QString
libkbolt.so:_ZNK4Bolt7Manager7devicesEv
libkbolt.so:_ZNK4Bolt7Manager7versionEv
libkbolt.so:_ZNK4Bolt7Manager8authModeEv
libkbolt.so:_ZNK4Bolt7Manager9isProbingEv
libkbolt.so:_ZTIN4Bolt11DeviceModelE
libkbolt.so:_ZTIN4Bolt6DeviceE
libkbolt.so:_ZTIN4Bolt7ManagerE
libkbolt.so:_ZTIZN9QMetaType17registerConverterI14QSharedPointerIN4Bolt6DeviceEEP7QObjectN9QtPrivate27QSmartPointerConvertFunctorIS4_EEEEbT1_EUlPKvPvE_
libkbolt.so:_ZTIZN9QMetaType17registerConverterI5QListI14QSharedPointerIN4Bolt6DeviceEEE9QIterableI13QMetaSequenceEN9QtPrivate33QSequentialIterableConvertFunctorIS6_EEEEbT1_EUlPKvPvE_
libkbolt.so:_ZTIZN9QMetaType17registerConverterI5QListI15QDBusObjectPathE9QIterableI13QMetaSequenceEN9QtPrivate33QSequentialIterableConvertFunctorIS3_EEEEbT1_EUlPKvPvE_
libkbolt.so:_ZTIZN9QMetaType19registerMutableViewI5QListI14QSharedPointerIN4Bolt6DeviceEEE9QIterableI13QMetaSequenceEN9QtPrivate37QSequentialIterableMutableViewFunctorIS6_EEEEbT1_EUlPvSE_E_
libkbolt.so:_ZTIZN9QMetaType19registerMutableViewI5QListI15QDBusObjectPathE9QIterableI13QMetaSequenceEN9QtPrivate37QSequentialIterableMutableViewFunctorIS3_EEEEbT1_EUlPvSB_E_
libkbolt.so:_ZTSN4Bolt11DeviceModelE
libkbolt.so:_ZTSN4Bolt6DeviceE
libkbolt.so:_ZTSN4Bolt7ManagerE
libkbolt.so:_ZTSZN9QMetaType17registerConverterI14QSharedPointerIN4Bolt6DeviceEEP7QObjectN9QtPrivate27QSmartPointerConvertFunctorIS4_EEEEbT1_EUlPKvPvE_
libkbolt.so:_ZTSZN9QMetaType17registerConverterI5QListI14QSharedPointerIN4Bolt6DeviceEEE9QIterableI13QMetaSequenceEN9QtPrivate33QSequentialIterableConvertFunctorIS6_EEEEbT1_EUlPKvPvE_
libkbolt.so:_ZTSZN9QMetaType17registerConverterI5QListI15QDBusObjectPathE9QIterableI13QMetaSequenceEN9QtPrivate33QSequentialIterableConvertFunctorIS3_EEEEbT1_EUlPKvPvE_
libkbolt.so:_ZTSZN9QMetaType19registerMutableViewI5QListI14QSharedPointerIN4Bolt6DeviceEEE9QIterableI13QMetaSequenceEN9QtPrivate37QSequentialIterableMutableViewFunctorIS6_EEEEbT1_EUlPvSE_E_
libkbolt.so:_ZTSZN9QMetaType19registerMutableViewI5QListI15QDBusObjectPathE9QIterableI13QMetaSequenceEN9QtPrivate37QSequentialIterableMutableViewFunctorIS3_EEEEbT1_EUlPvSB_E_
libkbolt.so:_ZTVN4Bolt11DeviceModelE
libkbolt.so:_ZTVN4Bolt6DeviceE
libkbolt.so:_ZTVN4Bolt7ManagerE
libkbolt.so:_ZZN9QMetaType21registerConverterImplI14QSharedPointerIN4Bolt6DeviceEEP7QObjectEEbSt8functionIFbPKvPvEES_S_E10unregister
libkbolt.so:_ZZN9QMetaType21registerConverterImplI5QListI14QSharedPointerIN4Bolt6DeviceEEE9QIterableI13QMetaSequenceEEEbSt8functionIFbPKvPvEES_S_E10unregister
libkbolt.so:_ZZN9QMetaType21registerConverterImplI5QListI15QDBusObjectPathE9QIterableI13QMetaSequenceEEEbSt8functionIFbPKvPvEES_S_E10unregister
libkbolt.so:_ZZN9QMetaType23registerMutableViewImplI5QListI14QSharedPointerIN4Bolt6DeviceEEE9QIterableI13QMetaSequenceEEEbSt8functionIFbPvSB_EES_S_E10unregister
libkbolt.so:_ZZN9QMetaType23registerMutableViewImplI5QListI15QDBusObjectPathE9QIterableI13QMetaSequenceEEEbSt8functionIFbPvS8_EES_S_E10unregister
