libKF6CoreAddons.so.6:_ZN14KPluginFactory11qt_metacallEN11QMetaObject4CallEiPPv
libKF6CoreAddons.so.6:_ZN14KPluginFactory11qt_metacastEPKc
libKF6CoreAddons.so.6:_ZN14KPluginFactory14registerPluginEPK11QMetaObjectPFP7QObjectP7QWidgetS4_RK15KPluginMetaDataRK5QListI8QVariantEE
libKF6CoreAddons.so.6:_ZN14KPluginFactory16staticMetaObjectE
libKF6CoreAddons.so.6:_ZN14KPluginFactory6createEPKcP7QWidgetP7QObjectRK5QListI8QVariantE
libKF6CoreAddons.so.6:_ZN14KPluginFactoryC2Ev
libKF6CoreAddons.so.6:_ZN14KPluginFactoryD2Ev
libKF6CoreAddons.so.6:_ZTI14KPluginFactory
libKF6DBusAddons.so.6:_ZN10KDEDModule11qt_metacallEN11QMetaObject4CallEiPPv
libKF6DBusAddons.so.6:_ZN10KDEDModule11qt_metacastEPKc
libKF6DBusAddons.so.6:_ZN10KDEDModule16staticMetaObjectE
libKF6DBusAddons.so.6:_ZN10KDEDModuleC2EP7QObject
libKF6DBusAddons.so.6:_ZN10KDEDModuleD2Ev
libKF6DBusAddons.so.6:_ZTI10KDEDModule
libKF6I18n.so.6:_Z6ki18ndPKcS0_
libKF6I18n.so.6:_Z7ki18ndpPKcS0_S0_
libKF6I18n.so.6:_ZN16KLocalizedStringD1Ev
libKF6I18n.so.6:_ZNK16KLocalizedString4subsERK7QStringi5QChar
libKF6I18n.so.6:_ZNK16KLocalizedString4subsExii5QChar
libKF6I18n.so.6:_ZNK16KLocalizedString8toStringEv
libKF6KCMUtilsCore.so.6:_ZN21KAbstractConfigModule4loadEv
libKF6KCMUtilsCore.so.6:_ZN21KAbstractConfigModule4saveEv
libKF6KCMUtilsCore.so.6:_ZN21KAbstractConfigModule8defaultsEv
libKF6KCMUtilsQuick.so.6:_ZN18KQuickConfigModule11qt_metacallEN11QMetaObject4CallEiPPv
libKF6KCMUtilsQuick.so.6:_ZN18KQuickConfigModule11qt_metacastEPKc
libKF6KCMUtilsQuick.so.6:_ZN18KQuickConfigModule16staticMetaObjectE
libKF6KCMUtilsQuick.so.6:_ZN18KQuickConfigModuleC2EP7QObjectRK15KPluginMetaData
libKF6KCMUtilsQuick.so.6:_ZN18KQuickConfigModuleD2Ev
libKF6KCMUtilsQuick.so.6:_ZTI18KQuickConfigModule
libKF6Notifications.so.6:_ZN13KNotification16staticMetaObjectE
libKF6Notifications.so.6:_ZN13KNotification5closeEv
libKF6Notifications.so.6:_ZN13KNotification5eventERK7QStringS2_S2_RK7QPixmapRK6QFlagsINS_16NotificationFlagEES2_
libKF6Notifications.so.6:_ZN13KNotification6closedEv
libKF6Notifications.so.6:_ZN13KNotification9addActionERK7QString
libKF6Notifications.so.6:_ZN19KNotificationAction16staticMetaObjectE
libKF6Notifications.so.6:_ZN19KNotificationAction9activatedEv
libQt6Core.so.6:_Z21qRegisterResourceDataiPKhS0_S0_
libQt6Core.so.6:_Z23qUnregisterResourceDataiPKhS0_S0_
libQt6Core.so.6:_Z25qEnvironmentVariableIsSetPKc
libQt6Core.so.6:_Z26qt_QMetaEnum_debugOperatorR6QDebugxPK11QMetaObjectPKc
libQt6Core.so.6:_Z30qt_QMetaEnum_flagDebugOperatorR6QDebugyPK11QMetaObjectPKc
libQt6Core.so.6:_Z9qBadAllocv
libQt6Core.so.6:_ZN10QArrayData19reallocateUnalignedEPS_PvxxNS_16AllocationOptionE
libQt6Core.so.6:_ZN10QArrayData8allocateEPPS_xxxNS_16AllocationOptionE
libQt6Core.so.6:_ZN10QByteArray11reallocDataExN10QArrayData16AllocationOptionE
libQt6Core.so.6:_ZN10QByteArray6_emptyE
libQt6Core.so.6:_ZN10QByteArray6appendEc
libQt6Core.so.6:_ZN10QByteArray6insertEx14QByteArrayView
libQt6Core.so.6:_ZN10QByteArrayC1EPKcx
libQt6Core.so.6:_ZN10QByteArrayaSEPKc
libQt6Core.so.6:_ZN11QDataStreamlsEi
libQt6Core.so.6:_ZN11QDataStreamrsERi
libQt6Core.so.6:_ZN11QMetaObject10ConnectionD1Ev
libQt6Core.so.6:_ZN11QMetaObject14normalizedTypeEPKc
libQt6Core.so.6:_ZN11QMetaObject8activateEP7QObjectPKS_iPPv
libQt6Core.so.6:_ZN11QTextStreamlsERK7QString
libQt6Core.so.6:_ZN11QTextStreamlsEc
libQt6Core.so.6:_ZN15QtSharedPointer20ExternalRefCountData16setQObjectSharedEPK7QObjectb
libQt6Core.so.6:_ZN15QtSharedPointer20ExternalRefCountData18checkQObjectSharedEPK7QObject
libQt6Core.so.6:_ZN15QtSharedPointer20ExternalRefCountData9getAndRefEPK7QObject
libQt6Core.so.6:_ZN16QDebugStateSaverC1ER6QDebug
libQt6Core.so.6:_ZN16QDebugStateSaverD1Ev
libQt6Core.so.6:_ZN16QLoggingCategoryC1EPKc9QtMsgType
libQt6Core.so.6:_ZN16QLoggingCategoryD1Ev
libQt6Core.so.6:_ZN18QAbstractItemModel10insertRowsEiiRK11QModelIndex
libQt6Core.so.6:_ZN18QAbstractItemModel10removeRowsEiiRK11QModelIndex
libQt6Core.so.6:_ZN18QAbstractItemModel11moveColumnsERK11QModelIndexiiS2_i
libQt6Core.so.6:_ZN18QAbstractItemModel11setItemDataERK11QModelIndexRK4QMapIi8QVariantE
libQt6Core.so.6:_ZN18QAbstractItemModel13clearItemDataERK11QModelIndex
libQt6Core.so.6:_ZN18QAbstractItemModel13endInsertRowsEv
libQt6Core.so.6:_ZN18QAbstractItemModel13endRemoveRowsEv
libQt6Core.so.6:_ZN18QAbstractItemModel13endResetModelEv
libQt6Core.so.6:_ZN18QAbstractItemModel13insertColumnsEiiRK11QModelIndex
libQt6Core.so.6:_ZN18QAbstractItemModel13removeColumnsEiiRK11QModelIndex
libQt6Core.so.6:_ZN18QAbstractItemModel13setHeaderDataEiN2Qt11OrientationERK8QVarianti
libQt6Core.so.6:_ZN18QAbstractItemModel15beginInsertRowsERK11QModelIndexii
libQt6Core.so.6:_ZN18QAbstractItemModel15beginRemoveRowsERK11QModelIndexii
libQt6Core.so.6:_ZN18QAbstractItemModel15beginResetModelEv
libQt6Core.so.6:_ZN18QAbstractItemModel17resetInternalDataEv
libQt6Core.so.6:_ZN18QAbstractItemModel4sortEiN2Qt9SortOrderE
libQt6Core.so.6:_ZN18QAbstractItemModel6revertEv
libQt6Core.so.6:_ZN18QAbstractItemModel6submitEv
libQt6Core.so.6:_ZN18QAbstractItemModel7setDataERK11QModelIndexRK8QVarianti
libQt6Core.so.6:_ZN18QAbstractItemModel8moveRowsERK11QModelIndexiiS2_i
libQt6Core.so.6:_ZN18QAbstractItemModel9fetchMoreERK11QModelIndex
libQt6Core.so.6:_ZN18QAbstractListModel11qt_metacallEN11QMetaObject4CallEiPPv
libQt6Core.so.6:_ZN18QAbstractListModel11qt_metacastEPKc
libQt6Core.so.6:_ZN18QAbstractListModel12dropMimeDataEPK9QMimeDataN2Qt10DropActionEiiRK11QModelIndex
libQt6Core.so.6:_ZN18QAbstractListModel16staticMetaObjectE
libQt6Core.so.6:_ZN18QAbstractListModelC2EP7QObject
libQt6Core.so.6:_ZN18QAbstractListModelD2Ev
libQt6Core.so.6:_ZN6QDebugD1Ev
libQt6Core.so.6:_ZN6QTimer11setIntervalEi
libQt6Core.so.6:_ZN6QTimer13setSingleShotEb
libQt6Core.so.6:_ZN6QTimer16staticMetaObjectE
libQt6Core.so.6:_ZN6QTimer5startEv
libQt6Core.so.6:_ZN6QTimer7timeoutENS_14QPrivateSignalE
libQt6Core.so.6:_ZN6QTimerC1EP7QObject
libQt6Core.so.6:_ZN6QTimerD1Ev
libQt6Core.so.6:_ZN7QObject10childEventEP11QChildEvent
libQt6Core.so.6:_ZN7QObject10disconnectEPKS_PKcS1_S3_
libQt6Core.so.6:_ZN7QObject10timerEventEP11QTimerEvent
libQt6Core.so.6:_ZN7QObject11connectImplEPKS_PPvS1_S3_PN9QtPrivate15QSlotObjectBaseEN2Qt14ConnectionTypeEPKiPK11QMetaObject
libQt6Core.so.6:_ZN7QObject11customEventEP6QEvent
libQt6Core.so.6:_ZN7QObject11deleteLaterEv
libQt6Core.so.6:_ZN7QObject11eventFilterEPS_P6QEvent
libQt6Core.so.6:_ZN7QObject11qt_metacallEN11QMetaObject4CallEiPPv
libQt6Core.so.6:_ZN7QObject11qt_metacastEPKc
libQt6Core.so.6:_ZN7QObject13connectNotifyERK11QMetaMethod
libQt6Core.so.6:_ZN7QObject13doSetPropertyEPKcPK8QVariantPS2_
libQt6Core.so.6:_ZN7QObject16disconnectNotifyERK11QMetaMethod
libQt6Core.so.6:_ZN7QObject16staticMetaObjectE
libQt6Core.so.6:_ZN7QObject5eventEP6QEvent
libQt6Core.so.6:_ZN7QObjectC2EPS_
libQt6Core.so.6:_ZN7QObjectD2Ev
libQt6Core.so.6:_ZN7QString13toUtf8_helperERKS_
libQt6Core.so.6:_ZN7QString14trimmed_helperERKS_
libQt6Core.so.6:_ZN7QString6_emptyE
libQt6Core.so.6:_ZN7QString8fromUtf8E14QByteArrayView
libQt6Core.so.6:_ZN7QStringaSERKS_
libQt6Core.so.6:_ZN8QVariant13moveConstructE9QMetaTypePv
libQt6Core.so.6:_ZN8QVariantC1E9QMetaTypePKv
libQt6Core.so.6:_ZN8QVariantC1ERK7QString
libQt6Core.so.6:_ZN8QVariantC1ERKS_
libQt6Core.so.6:_ZN8QVariantD1Ev
libQt6Core.so.6:_ZN9QDateTime18fromSecsSinceEpochEx
libQt6Core.so.6:_ZN9QDateTimeC1Ev
libQt6Core.so.6:_ZN9QDateTimeD1Ev
libQt6Core.so.6:_ZN9QHashSeed10globalSeedEv
libQt6Core.so.6:_ZN9QMetaType14registerHelperEPKN9QtPrivate18QMetaTypeInterfaceE
libQt6Core.so.6:_ZN9QMetaType25registerConverterFunctionERKSt8functionIFbPKvPvEES_S_
libQt6Core.so.6:_ZN9QMetaType25registerNormalizedTypedefERK10QByteArrayS_
libQt6Core.so.6:_ZN9QMetaType27registerMutableViewFunctionERKSt8functionIFbPvS1_EES_S_
libQt6Core.so.6:_ZN9QMetaType27unregisterConverterFunctionES_S_
libQt6Core.so.6:_ZN9QMetaType29unregisterMutableViewFunctionES_S_
libQt6Core.so.6:_ZN9QMetaType30hasRegisteredConverterFunctionES_S_
libQt6Core.so.6:_ZN9QMetaType32hasRegisteredMutableViewFunctionES_S_
libQt6Core.so.6:_ZN9QMetaType7convertES_PKvS_Pv
libQt6Core.so.6:_ZN9QMetaTypeC1Ei
libQt6Core.so.6:_ZN9QtPrivate12argToQStringE11QStringViewmPPKNS_7ArgBaseE
libQt6Core.so.6:_ZN9QtPrivate12equalStringsE11QStringView13QLatin1String
libQt6Core.so.6:_ZN9QtPrivate12equalStringsE11QStringViewS0_
libQt6Core.so.6:_ZN9QtPrivate14compareStringsE11QStringViewS0_N2Qt15CaseSensitivityE
libQt6Core.so.6:_ZN9QtPrivate16QStringList_joinEPK5QListI7QStringEPK5QCharx
libQt6Core.so.6:_ZN9QtPrivate25QMetaTypeInterfaceWrapperI7QStringE8metaTypeE
libQt6Core.so.6:_ZN9QtPrivate25QMetaTypeInterfaceWrapperI9QDateTimeE8metaTypeE
libQt6Core.so.6:_ZN9QtPrivate25QMetaTypeInterfaceWrapperIP7QObjectE8metaTypeE
libQt6Core.so.6:_ZN9QtPrivate25QMetaTypeInterfaceWrapperIbE8metaTypeE
libQt6Core.so.6:_ZN9QtPrivate25QMetaTypeInterfaceWrapperIjE8metaTypeE
libQt6Core.so.6:_ZN9QtPrivate25QMetaTypeInterfaceWrapperIyE8metaTypeE
libQt6Core.so.6:_ZNK10QByteArray11toStdStringB5cxx11Ev
libQt6Core.so.6:_ZNK11QMetaObject4castEPK7QObject
libQt6Core.so.6:_ZNK11QMetaObject9classNameEv
libQt6Core.so.6:_ZNK11QObjectData17dynamicMetaObjectEv
libQt6Core.so.6:_ZNK14QMessageLogger4infoEPKcz
libQt6Core.so.6:_ZNK14QMessageLogger5debugEPKcz
libQt6Core.so.6:_ZNK14QMessageLogger7warningEPKcz
libQt6Core.so.6:_ZNK14QMessageLogger8criticalEPKcz
libQt6Core.so.6:_ZNK18QAbstractItemModel10headerDataEiN2Qt11OrientationEi
libQt6Core.so.6:_ZNK18QAbstractItemModel12canFetchMoreERK11QModelIndex
libQt6Core.so.6:_ZNK18QAbstractItemModel15canDropMimeDataEPK9QMimeDataN2Qt10DropActionEiiRK11QModelIndex
libQt6Core.so.6:_ZNK18QAbstractItemModel20supportedDragActionsEv
libQt6Core.so.6:_ZNK18QAbstractItemModel20supportedDropActionsEv
libQt6Core.so.6:_ZNK18QAbstractItemModel4spanERK11QModelIndex
libQt6Core.so.6:_ZNK18QAbstractItemModel5buddyERK11QModelIndex
libQt6Core.so.6:_ZNK18QAbstractItemModel5matchERK11QModelIndexiRK8QVarianti6QFlagsIN2Qt9MatchFlagEE
libQt6Core.so.6:_ZNK18QAbstractItemModel8itemDataERK11QModelIndex
libQt6Core.so.6:_ZNK18QAbstractItemModel8mimeDataERK5QListI11QModelIndexE
libQt6Core.so.6:_ZNK18QAbstractItemModel9mimeTypesEv
libQt6Core.so.6:_ZNK18QAbstractItemModel9multiDataERK11QModelIndex18QModelRoleDataSpan
libQt6Core.so.6:_ZNK18QAbstractItemModel9roleNamesEv
libQt6Core.so.6:_ZNK18QAbstractListModel11columnCountERK11QModelIndex
libQt6Core.so.6:_ZNK18QAbstractListModel11hasChildrenERK11QModelIndex
libQt6Core.so.6:_ZNK18QAbstractListModel5flagsERK11QModelIndex
libQt6Core.so.6:_ZNK18QAbstractListModel5indexEiiRK11QModelIndex
libQt6Core.so.6:_ZNK18QAbstractListModel6parentERK11QModelIndex
libQt6Core.so.6:_ZNK18QAbstractListModel7siblingEiiRK11QModelIndex
libQt6Core.so.6:_ZNK7QObject8propertyEPKc
libQt6Core.so.6:_ZNK7QString13toHtmlEscapedEv
libQt6Core.so.6:_ZNK7QString5splitERKS_6QFlagsIN2Qt18SplitBehaviorFlagsEENS3_15CaseSensitivityE
libQt6Core.so.6:_ZNK8QVariant8metaTypeEv
libQt6Core.so.6:_ZTI18QAbstractListModel
libQt6Core.so.6:_ZTI7QObject
libQt6Core.so.6:_Zls6QDebugPK7QObject
libQt6Core.so.6:qt_resourceFeatureZstd
libQt6Core.so.6:qt_version_tag
libQt6DBus.so.6:_Z41qRegisterNormalizedMetaType_QDBusArgumentRK10QByteArray
libQt6DBus.so.6:_Z43qRegisterNormalizedMetaType_QDBusObjectPathRK10QByteArray
libQt6DBus.so.6:_ZN13QDBusArgumentC1ERKS_
libQt6DBus.so.6:_ZN13QDBusArgumentC1Ev
libQt6DBus.so.6:_ZN13QDBusArgumentD1Ev
libQt6DBus.so.6:_ZN13QDBusArgumentlsERK15QDBusObjectPath
libQt6DBus.so.6:_ZN13QDBusMetaType25registerMarshallOperatorsE9QMetaTypePFvR13QDBusArgumentPKvEPFvRKS1_PvE
libQt6DBus.so.6:_ZN15QDBusConnection10sessionBusEv
libQt6DBus.so.6:_ZN15QDBusConnection9systemBusEv
libQt6DBus.so.6:_ZN15QDBusConnectionD1Ev
libQt6DBus.so.6:_ZN16QDBusPendingCallC2ERKS_
libQt6DBus.so.6:_ZN16QDBusPendingCallD1Ev
libQt6DBus.so.6:_ZN21QDBusPendingReplyBase12setMetaTypesEiPK9QMetaType
libQt6DBus.so.6:_ZN21QDBusPendingReplyBase6assignERK16QDBusPendingCall
libQt6DBus.so.6:_ZN21QDBusPendingReplyBaseC2Ev
libQt6DBus.so.6:_ZN21QDBusPendingReplyBaseD2Ev
libQt6DBus.so.6:_ZN22QDBusAbstractInterface11doAsyncCallERK7QStringPK8QVariantm
libQt6DBus.so.6:_ZN22QDBusAbstractInterface11qt_metacallEN11QMetaObject4CallEiPPv
libQt6DBus.so.6:_ZN22QDBusAbstractInterface11qt_metacastEPKc
libQt6DBus.so.6:_ZN22QDBusAbstractInterface13connectNotifyERK11QMetaMethod
libQt6DBus.so.6:_ZN22QDBusAbstractInterface16disconnectNotifyERK11QMetaMethod
libQt6DBus.so.6:_ZN22QDBusAbstractInterface16staticMetaObjectE
libQt6DBus.so.6:_ZN22QDBusAbstractInterface25asyncCallWithArgumentListERK7QStringRK5QListI8QVariantE
libQt6DBus.so.6:_ZN22QDBusAbstractInterfaceC2ERK7QStringS2_PKcRK15QDBusConnectionP7QObject
libQt6DBus.so.6:_ZN22QDBusAbstractInterfaceD2Ev
libQt6DBus.so.6:_ZN23QDBusPendingCallWatcher16staticMetaObjectE
libQt6DBus.so.6:_ZN23QDBusPendingCallWatcher8finishedEPS_
libQt6DBus.so.6:_ZN23QDBusPendingCallWatcherC1ERK16QDBusPendingCallP7QObject
libQt6DBus.so.6:_ZNK10QDBusError7messageEv
libQt6DBus.so.6:_ZNK13QDBusArgument10beginArrayEv
libQt6DBus.so.6:_ZNK13QDBusArgument5atEndEv
libQt6DBus.so.6:_ZNK13QDBusArgument8endArrayEv
libQt6DBus.so.6:_ZNK13QDBusArgumentrsER15QDBusObjectPath
libQt6DBus.so.6:_ZNK16QDBusPendingCall5errorEv
libQt6DBus.so.6:_ZNK16QDBusPendingCall7isErrorEv
libQt6DBus.so.6:_ZNK21QDBusPendingReplyBase10argumentAtEi
libQt6DBus.so.6:_ZNK22QDBusAbstractInterface7isValidEv
libQt6DBus.so.6:_ZNK22QDBusAbstractInterface9lastErrorEv
libQt6DBus.so.6:_ZTI22QDBusAbstractInterface
libQt6Gui.so.6:_ZN7QPixmapC1Ev
libQt6Gui.so.6:_ZN7QPixmapD1Ev
libQt6Qml.so.6:_Z32qmlRegisterUncreatableMetaObjectRK11QMetaObjectPKciiS3_RK7QString
libQt6Qml.so.6:_ZN11QQmlPrivate11qmlregisterENS_16RegistrationTypeEPv
libQt6Qml.so.6:_ZN11QQmlPrivate30qdeclarativeelement_destructorEP7QObject
libQt6Qml.so.6:_ZN8QJSValueC1ENS_12SpecialValueE
libQt6Qml.so.6:_ZN8QJSValueC1ERK7QString
libQt6Qml.so.6:_ZN8QJSValueC1ERKS_
libQt6Qml.so.6:_ZN8QJSValueD1Ev
libQt6Qml.so.6:_ZNK8QJSValue4callERK5QListIS_E
libQt6Qml.so.6:_ZlsR11QDataStreamRK8QJSValue
libQt6Qml.so.6:_ZrsR11QDataStreamR8QJSValue
libc.so.6:__cxa_atexit
libc.so.6:__stack_chk_fail
libc.so.6:free
libc.so.6:memcmp
libc.so.6:memmove
libc.so.6:strcmp
libc.so.6:strlen
libgcc_s.so.1:_Unwind_Resume
libgcc_s.so.1:__gcc_personality_v0
libstdc++.so.6:_ZNKSt13runtime_error4whatEv
libstdc++.so.6:_ZNSt13runtime_errorC2ERKNSt7__cxx1112basic_stringIcSt11char_traitsIcESaIcEEE
libstdc++.so.6:_ZNSt13runtime_errorD2Ev
libstdc++.so.6:_ZNSt7__cxx1112basic_stringIcSt11char_traitsIcESaIcEE10_M_disposeEv
libstdc++.so.6:_ZSt18_Rb_tree_decrementPSt18_Rb_tree_node_base
libstdc++.so.6:_ZSt18_Rb_tree_incrementPKSt18_Rb_tree_node_base
libstdc++.so.6:_ZSt18_Rb_tree_incrementPSt18_Rb_tree_node_base
libstdc++.so.6:_ZSt25__throw_bad_function_callv
libstdc++.so.6:_ZSt28_Rb_tree_rebalance_for_erasePSt18_Rb_tree_node_baseRS_
libstdc++.so.6:_ZSt29_Rb_tree_insert_and_rebalancebPSt18_Rb_tree_node_baseS0_RS_
libstdc++.so.6:_ZTISt13runtime_error
libstdc++.so.6:_ZTVN10__cxxabiv117__class_type_infoE
libstdc++.so.6:_ZTVN10__cxxabiv119__pointer_type_infoE
libstdc++.so.6:_ZTVN10__cxxabiv120__function_type_infoE
libstdc++.so.6:_ZTVN10__cxxabiv120__si_class_type_infoE
libstdc++.so.6:_ZTVN10__cxxabiv121__vmi_class_type_infoE
libstdc++.so.6:_ZdaPv
libstdc++.so.6:_ZdaPvm
libstdc++.so.6:_ZdlPv
libstdc++.so.6:_ZdlPvm
libstdc++.so.6:_Znam
libstdc++.so.6:_Znwm
libstdc++.so.6:__cxa_allocate_exception
libstdc++.so.6:__cxa_begin_catch
libstdc++.so.6:__cxa_end_catch
libstdc++.so.6:__cxa_free_exception
libstdc++.so.6:__cxa_guard_abort
libstdc++.so.6:__cxa_guard_acquire
libstdc++.so.6:__cxa_guard_release
libstdc++.so.6:__cxa_rethrow
libstdc++.so.6:__cxa_throw
libstdc++.so.6:__gxx_personality_v0
