UNKNOWN:SoapySDR_log
UNKNOWN:SoapySDR_vlogf
UNKNOWN:_ZN8SoapySDR13ModuleVersionC1ERKNSt7__cxx1112basic_stringIcSt11char_traitsIcESaIcEEE
UNKNOWN:_ZN8SoapySDR3logE16SoapySDRLogLevelRKNSt7__cxx1112basic_stringIcSt11char_traitsIcESaIcEEE
UNKNOWN:_ZN8SoapySDR5RangeC1Eddd
UNKNOWN:_ZN8SoapySDR6Device11setDCOffsetEimRKSt7complexIdE
UNKNOWN:_ZN8SoapySDR6Device11transactSPIEijm
UNKNOWN:_ZN8SoapySDR6Device11writeStreamEPNS_6StreamEPKPKvmRixl
UNKNOWN:_ZN8SoapySDR6Device12setBandwidthEimd
UNKNOWN:_ZN8SoapySDR6Device12setFrequencyEimdRKSt3mapINSt7__cxx1112basic_stringIcSt11char_traitsIcESaIcEEES7_St4lessIS7_ESaISt4pairIKS7_S7_EEE
UNKNOWN:_ZN8SoapySDR6Device12setIQBalanceEimRKSt7complexIdE
UNKNOWN:_ZN8SoapySDR6Device12writeGPIODirERKNSt7__cxx1112basic_stringIcSt11char_traitsIcESaIcEEEj
UNKNOWN:_ZN8SoapySDR6Device12writeGPIODirERKNSt7__cxx1112basic_stringIcSt11char_traitsIcESaIcEEEjj
UNKNOWN:_ZN8SoapySDR6Device12writeSettingEimRKNSt7__cxx1112basic_stringIcSt11char_traitsIcESaIcEEES8_
UNKNOWN:_ZN8SoapySDR6Device13setTimeSourceERKNSt7__cxx1112basic_stringIcSt11char_traitsIcESaIcEEE
UNKNOWN:_ZN8SoapySDR6Device13writeRegisterERKNSt7__cxx1112basic_stringIcSt11char_traitsIcESaIcEEEjj
UNKNOWN:_ZN8SoapySDR6Device13writeRegisterEjj
UNKNOWN:_ZN8SoapySDR6Device14setClockSourceERKNSt7__cxx1112basic_stringIcSt11char_traitsIcESaIcEEE
UNKNOWN:_ZN8SoapySDR6Device14setCommandTimeExRKNSt7__cxx1112basic_stringIcSt11char_traitsIcESaIcEEE
UNKNOWN:_ZN8SoapySDR6Device14writeRegistersERKNSt7__cxx1112basic_stringIcSt11char_traitsIcESaIcEEEjRKSt6vectorIjSaIjEE
UNKNOWN:_ZN8SoapySDR6Device15setDCOffsetModeEimb
UNKNOWN:_ZN8SoapySDR6Device15setHardwareTimeExRKNSt7__cxx1112basic_stringIcSt11char_traitsIcESaIcEEE
UNKNOWN:_ZN8SoapySDR6Device16readStreamStatusEPNS_6StreamERmRiRxl
UNKNOWN:_ZN8SoapySDR6Device16setIQBalanceModeEimb
UNKNOWN:_ZN8SoapySDR6Device18acquireWriteBufferEPNS_6StreamERmPPvl
UNKNOWN:_ZN8SoapySDR6Device18releaseWriteBufferEPNS_6StreamEmmRix
UNKNOWN:_ZN8SoapySDR6Device18setFrontendMappingEiRKNSt7__cxx1112basic_stringIcSt11char_traitsIcESaIcEEE
UNKNOWN:_ZN8SoapySDR6Device18setMasterClockRateEd
UNKNOWN:_ZN8SoapySDR6Device21setReferenceClockRateEd
UNKNOWN:_ZN8SoapySDR6Device7readI2CB5cxx11Eim
UNKNOWN:_ZN8SoapySDR6Device7setGainEimd
UNKNOWN:_ZN8SoapySDR6Device8writeI2CEiRKNSt7__cxx1112basic_stringIcSt11char_traitsIcESaIcEEE
UNKNOWN:_ZN8SoapySDR6Device9writeGPIOERKNSt7__cxx1112basic_stringIcSt11char_traitsIcESaIcEEEj
UNKNOWN:_ZN8SoapySDR6Device9writeGPIOERKNSt7__cxx1112basic_stringIcSt11char_traitsIcESaIcEEEjj
UNKNOWN:_ZN8SoapySDR6Device9writeUARTERKNSt7__cxx1112basic_stringIcSt11char_traitsIcESaIcEEES8_
UNKNOWN:_ZN8SoapySDR6DeviceD2Ev
UNKNOWN:_ZN8SoapySDR7ArgInfoC1Ev
UNKNOWN:_ZN8SoapySDR8RegistryC1ERKNSt7__cxx1112basic_stringIcSt11char_traitsIcESaIcEEERKPFSt6vectorISt3mapIS6_S6_St4lessIS6_ESaISt4pairIS7_S6_EEESaISG_EERKSG_ERKPFPNS_6DeviceESK_ES8_
UNKNOWN:_ZN8SoapySDR8RegistryD1Ev
UNKNOWN:_ZNK8SoapySDR6Device10readSensorERKNSt7__cxx1112basic_stringIcSt11char_traitsIcESaIcEEE
UNKNOWN:_ZNK8SoapySDR6Device10readSensorEimRKNSt7__cxx1112basic_stringIcSt11char_traitsIcESaIcEEE
UNKNOWN:_ZNK8SoapySDR6Device11getDCOffsetEim
UNKNOWN:_ZNK8SoapySDR6Device11hasDCOffsetEim
UNKNOWN:_ZNK8SoapySDR6Device11listSensorsB5cxx11Eim
UNKNOWN:_ZNK8SoapySDR6Device11listSensorsB5cxx11Ev
UNKNOWN:_ZNK8SoapySDR6Device11readGPIODirERKNSt7__cxx1112basic_stringIcSt11char_traitsIcESaIcEEE
UNKNOWN:_ZNK8SoapySDR6Device11readSettingEimRKNSt7__cxx1112basic_stringIcSt11char_traitsIcESaIcEEE
UNKNOWN:_ZNK8SoapySDR6Device12getBandwidthEim
UNKNOWN:_ZNK8SoapySDR6Device12getFrequencyEim
UNKNOWN:_ZNK8SoapySDR6Device12getGainRangeEim
UNKNOWN:_ZNK8SoapySDR6Device12getIQBalanceEim
UNKNOWN:_ZNK8SoapySDR6Device12hasIQBalanceEim
UNKNOWN:_ZNK8SoapySDR6Device12readRegisterERKNSt7__cxx1112basic_stringIcSt11char_traitsIcESaIcEEEj
UNKNOWN:_ZNK8SoapySDR6Device12readRegisterEj
UNKNOWN:_ZNK8SoapySDR6Device13getFullDuplexEim
UNKNOWN:_ZNK8SoapySDR6Device13getSensorInfoERKNSt7__cxx1112basic_stringIcSt11char_traitsIcESaIcEEE
UNKNOWN:_ZNK8SoapySDR6Device13getSensorInfoEimRKNSt7__cxx1112basic_stringIcSt11char_traitsIcESaIcEEE
UNKNOWN:_ZNK8SoapySDR6Device13getTimeSourceB5cxx11Ev
UNKNOWN:_ZNK8SoapySDR6Device13listGPIOBanksB5cxx11Ev
UNKNOWN:_ZNK8SoapySDR6Device13readRegistersERKNSt7__cxx1112basic_stringIcSt11char_traitsIcESaIcEEEjm
UNKNOWN:_ZNK8SoapySDR6Device14getChannelInfoB5cxx11Eim
UNKNOWN:_ZNK8SoapySDR6Device14getClockSourceB5cxx11Ev
UNKNOWN:_ZNK8SoapySDR6Device14getSettingInfoEim
UNKNOWN:_ZNK8SoapySDR6Device15getDCOffsetModeEim
UNKNOWN:_ZNK8SoapySDR6Device15getHardwareTimeERKNSt7__cxx1112basic_stringIcSt11char_traitsIcESaIcEEE
UNKNOWN:_ZNK8SoapySDR6Device15hasHardwareTimeERKNSt7__cxx1112basic_stringIcSt11char_traitsIcESaIcEEE
UNKNOWN:_ZNK8SoapySDR6Device15listTimeSourcesB5cxx11Ev
UNKNOWN:_ZNK8SoapySDR6Device16getIQBalanceModeEim
UNKNOWN:_ZNK8SoapySDR6Device16hasIQBalanceModeEim
UNKNOWN:_ZNK8SoapySDR6Device16listClockSourcesB5cxx11Ev
UNKNOWN:_ZNK8SoapySDR6Device17getBandwidthRangeEim
UNKNOWN:_ZNK8SoapySDR6Device17getFrequencyRangeEim
UNKNOWN:_ZNK8SoapySDR6Device18getFrontendMappingB5cxx11Ei
UNKNOWN:_ZNK8SoapySDR6Device18getMasterClockRateEv
UNKNOWN:_ZNK8SoapySDR6Device18getSampleRateRangeEim
UNKNOWN:_ZNK8SoapySDR6Device19getMasterClockRatesEv
UNKNOWN:_ZNK8SoapySDR6Device21getNativeDeviceHandleEv
UNKNOWN:_ZNK8SoapySDR6Device21getReferenceClockRateEv
UNKNOWN:_ZNK8SoapySDR6Device22getReferenceClockRatesEv
UNKNOWN:_ZNK8SoapySDR6Device22listRegisterInterfacesB5cxx11Ev
UNKNOWN:_ZNK8SoapySDR6Device7getGainEim
UNKNOWN:_ZNK8SoapySDR6Device8readGPIOERKNSt7__cxx1112basic_stringIcSt11char_traitsIcESaIcEEE
UNKNOWN:_ZNK8SoapySDR6Device8readUARTERKNSt7__cxx1112basic_stringIcSt11char_traitsIcESaIcEEEl
UNKNOWN:_ZNK8SoapySDR6Device9listUARTsB5cxx11Ev
UNKNOWN:_ZTIN8SoapySDR6DeviceE
UNKNOWN:rtlsdr_cancel_async
UNKNOWN:rtlsdr_close
UNKNOWN:rtlsdr_get_device_count
UNKNOWN:rtlsdr_get_device_name
UNKNOWN:rtlsdr_get_device_usb_strings
UNKNOWN:rtlsdr_get_tuner_gain
UNKNOWN:rtlsdr_get_tuner_gains
UNKNOWN:rtlsdr_get_tuner_type
UNKNOWN:rtlsdr_open
UNKNOWN:rtlsdr_read_async
UNKNOWN:rtlsdr_reset_buffer
UNKNOWN:rtlsdr_set_agc_mode
UNKNOWN:rtlsdr_set_center_freq
UNKNOWN:rtlsdr_set_direct_sampling
UNKNOWN:rtlsdr_set_freq_correction
UNKNOWN:rtlsdr_set_offset_tuning
UNKNOWN:rtlsdr_set_sample_rate
UNKNOWN:rtlsdr_set_tuner_gain
UNKNOWN:rtlsdr_set_tuner_gain_mode
UNKNOWN:rtlsdr_set_tuner_if_gain
libc.so.6:__cxa_atexit
libc.so.6:__stack_chk_fail
libc.so.6:free
libc.so.6:malloc
libc.so.6:memcmp
libc.so.6:memcpy
libc.so.6:memmove
libc.so.6:memset
libc.so.6:strlen
libc.so.6:strtol
libgcc_s.so.1:_Unwind_Resume
libpthread.so.0:__errno_location
libpthread.so.0:pthread_cond_clockwait
libpthread.so.0:pthread_create
libstdc++.so.6:_ZNKSt7__cxx1112basic_stringIcSt11char_traitsIcESaIcEE7compareEPKc
libstdc++.so.6:_ZNSt13runtime_errorC1EPKc
libstdc++.so.6:_ZNSt13runtime_errorC1ERKNSt7__cxx1112basic_stringIcSt11char_traitsIcESaIcEEE
libstdc++.so.6:_ZNSt13runtime_errorD1Ev
libstdc++.so.6:_ZNSt18condition_variable10notify_oneEv
libstdc++.so.6:_ZNSt18condition_variableC1Ev
libstdc++.so.6:_ZNSt18condition_variableD1Ev
libstdc++.so.6:_ZNSt6chrono3_V212steady_clock3nowEv
libstdc++.so.6:_ZNSt6thread15_M_start_threadESt10unique_ptrINS_6_StateESt14default_deleteIS1_EEPFvvE
libstdc++.so.6:_ZNSt6thread4joinEv
libstdc++.so.6:_ZNSt6thread6_StateD2Ev
libstdc++.so.6:_ZNSt7__cxx1112basic_stringIcSt11char_traitsIcESaIcEE10_M_replaceEmmPKcm
libstdc++.so.6:_ZNSt7__cxx1112basic_stringIcSt11char_traitsIcESaIcEE12_M_constructEmc
libstdc++.so.6:_ZNSt7__cxx1112basic_stringIcSt11char_traitsIcESaIcEE13_S_copy_charsEPcPKcS7_
libstdc++.so.6:_ZNSt7__cxx1112basic_stringIcSt11char_traitsIcESaIcEE7reserveEm
libstdc++.so.6:_ZNSt7__cxx1112basic_stringIcSt11char_traitsIcESaIcEE9_M_appendEPKcm
libstdc++.so.6:_ZNSt7__cxx1112basic_stringIcSt11char_traitsIcESaIcEE9_M_assignERKS4_
libstdc++.so.6:_ZNSt7__cxx1112basic_stringIcSt11char_traitsIcESaIcEE9_M_createERmm
libstdc++.so.6:_ZSt17__throw_bad_allocv
libstdc++.so.6:_ZSt18_Rb_tree_decrementPSt18_Rb_tree_node_base
libstdc++.so.6:_ZSt18_Rb_tree_incrementPSt18_Rb_tree_node_base
libstdc++.so.6:_ZSt19__throw_logic_errorPKc
libstdc++.so.6:_ZSt20__throw_length_errorPKc
libstdc++.so.6:_ZSt20__throw_out_of_rangePKc
libstdc++.so.6:_ZSt20__throw_system_errori
libstdc++.so.6:_ZSt24__throw_invalid_argumentPKc
libstdc++.so.6:_ZSt24__throw_out_of_range_fmtPKcz
libstdc++.so.6:_ZSt28__throw_bad_array_new_lengthv
libstdc++.so.6:_ZSt29_Rb_tree_insert_and_rebalancebPSt18_Rb_tree_node_baseS0_RS_
libstdc++.so.6:_ZSt9terminatev
libstdc++.so.6:_ZTINSt6thread6_StateE
libstdc++.so.6:_ZTISt13runtime_error
libstdc++.so.6:_ZTISt16invalid_argument
libstdc++.so.6:_ZTVN10__cxxabiv120__si_class_type_infoE
libstdc++.so.6:_ZdlPv
libstdc++.so.6:_Znwm
libstdc++.so.6:__cxa_allocate_exception
libstdc++.so.6:__cxa_begin_catch
libstdc++.so.6:__cxa_end_catch
libstdc++.so.6:__cxa_free_exception
libstdc++.so.6:__cxa_rethrow
libstdc++.so.6:__cxa_throw
libstdc++.so.6:__gxx_personality_v0
