libKF5MailImporter.so.5:_ZN12MailImporter10FilterInfo10setCurrentERK7QString
libKF5MailImporter.so.5:_ZN12MailImporter10FilterInfo10setCurrentEi
libKF5MailImporter.so.5:_ZN12MailImporter10FilterInfo10setOverallEi
libKF5MailImporter.so.5:_ZN12MailImporter10FilterInfo13terminateASAPEv
libKF5MailImporter.so.5:_ZN12MailImporter10FilterInfo15addInfoLogEntryERK7QString
libKF5MailImporter.so.5:_ZN12MailImporter10FilterInfo16addErrorLogEntryERK7QString
libKF5MailImporter.so.5:_ZN12MailImporter10FilterInfo16setFilterInfoGuiEPNS_13FilterInfoGuiE
libKF5MailImporter.so.5:_ZN12MailImporter10FilterInfo16setStatusMessageERK7QString
libKF5MailImporter.so.5:_ZN12MailImporter10FilterInfo19setRemoveDupMessageEb
libKF5MailImporter.so.5:_ZN12MailImporter10FilterInfo5alertERK7QString
libKF5MailImporter.so.5:_ZN12MailImporter10FilterInfo5clearEv
libKF5MailImporter.so.5:_ZN12MailImporter10FilterInfo5setToERK7QString
libKF5MailImporter.so.5:_ZN12MailImporter10FilterInfo7setFromERK7QString
libKF5MailImporter.so.5:_ZN12MailImporter10FilterInfoC1Ev
libKF5MailImporter.so.5:_ZN12MailImporter10FilterInfoC2Ev
libKF5MailImporter.so.5:_ZN12MailImporter10FilterInfoD1Ev
libKF5MailImporter.so.5:_ZN12MailImporter10FilterInfoD2Ev
libKF5MailImporter.so.5:_ZN12MailImporter10FilterMBox11importMailsERK11QStringList
libKF5MailImporter.so.5:_ZN12MailImporter10FilterMBox6importEv
libKF5MailImporter.so.5:_ZN12MailImporter10FilterMBoxC1Ev
libKF5MailImporter.so.5:_ZN12MailImporter10FilterMBoxC2Ev
libKF5MailImporter.so.5:_ZN12MailImporter10FilterMBoxD0Ev
libKF5MailImporter.so.5:_ZN12MailImporter10FilterMBoxD1Ev
libKF5MailImporter.so.5:_ZN12MailImporter10FilterMBoxD2Ev
libKF5MailImporter.so.5:_ZN12MailImporter11FilterBalsa11importFilesERK7QString
libKF5MailImporter.so.5:_ZN12MailImporter11FilterBalsa11importMailsERK7QString
libKF5MailImporter.so.5:_ZN12MailImporter11FilterBalsa13isMailerFoundEv
libKF5MailImporter.so.5:_ZN12MailImporter11FilterBalsa14statusFromFileERK7QString
libKF5MailImporter.so.5:_ZN12MailImporter11FilterBalsa16localMailDirPathEv
libKF5MailImporter.so.5:_ZN12MailImporter11FilterBalsa16processDirectoryERK7QString
libKF5MailImporter.so.5:_ZN12MailImporter11FilterBalsa17importDirContentsERK7QString
libKF5MailImporter.so.5:_ZN12MailImporter11FilterBalsa19defaultSettingsPathEv
libKF5MailImporter.so.5:_ZN12MailImporter11FilterBalsa6importEv
libKF5MailImporter.so.5:_ZN12MailImporter11FilterBalsaC1Ev
libKF5MailImporter.so.5:_ZN12MailImporter11FilterBalsaC2Ev
libKF5MailImporter.so.5:_ZN12MailImporter11FilterBalsaD0Ev
libKF5MailImporter.so.5:_ZN12MailImporter11FilterBalsaD1Ev
libKF5MailImporter.so.5:_ZN12MailImporter11FilterBalsaD2Ev
libKF5MailImporter.so.5:_ZN12MailImporter11FilterOpera11importMailsERK7QString
libKF5MailImporter.so.5:_ZN12MailImporter11FilterOpera13isMailerFoundEv
libKF5MailImporter.so.5:_ZN12MailImporter11FilterOpera15importRecursiveERK4QDirRK7QString
libKF5MailImporter.so.5:_ZN12MailImporter11FilterOpera19defaultSettingsPathEv
libKF5MailImporter.so.5:_ZN12MailImporter11FilterOpera6importEv
libKF5MailImporter.so.5:_ZN12MailImporter11FilterOpera9importBoxERK4QDirRK11QStringListRK7QString
libKF5MailImporter.so.5:_ZN12MailImporter11FilterOperaC1Ev
libKF5MailImporter.so.5:_ZN12MailImporter11FilterOperaC2Ev
libKF5MailImporter.so.5:_ZN12MailImporter11FilterOperaD0Ev
libKF5MailImporter.so.5:_ZN12MailImporter11FilterOperaD1Ev
libKF5MailImporter.so.5:_ZN12MailImporter11FilterOperaD2Ev
libKF5MailImporter.so.5:_ZN12MailImporter11FilterPMail11importMailsERK7QString
libKF5MailImporter.so.5:_ZN12MailImporter11FilterPMail12processFilesERK7QStringMS0_FvS3_E
libKF5MailImporter.so.5:_ZN12MailImporter11FilterPMail13getFolderNameERK7QString
libKF5MailImporter.so.5:_ZN12MailImporter11FilterPMail16importMailFolderERK7QString
libKF5MailImporter.so.5:_ZN12MailImporter11FilterPMail16importNewMessageERK7QString
libKF5MailImporter.so.5:_ZN12MailImporter11FilterPMail17parseFolderMatrixERK7QString
libKF5MailImporter.so.5:_ZN12MailImporter11FilterPMail20importUnixMailFolderERK7QString
libKF5MailImporter.so.5:_ZN12MailImporter11FilterPMail6importEv
libKF5MailImporter.so.5:_ZN12MailImporter11FilterPMailC1Ev
libKF5MailImporter.so.5:_ZN12MailImporter11FilterPMailC2Ev
libKF5MailImporter.so.5:_ZN12MailImporter11FilterPMailD0Ev
libKF5MailImporter.so.5:_ZN12MailImporter11FilterPMailD1Ev
libKF5MailImporter.so.5:_ZN12MailImporter11FilterPMailD2Ev
libKF5MailImporter.so.5:_ZN12MailImporter11FilterPlain11importMailsERK7QString
libKF5MailImporter.so.5:_ZN12MailImporter11FilterPlain6importEv
libKF5MailImporter.so.5:_ZN12MailImporter11FilterPlainC1Ev
libKF5MailImporter.so.5:_ZN12MailImporter11FilterPlainC2Ev
libKF5MailImporter.so.5:_ZN12MailImporter11FilterPlainD0Ev
libKF5MailImporter.so.5:_ZN12MailImporter11FilterPlainD1Ev
libKF5MailImporter.so.5:_ZN12MailImporter11FilterPlainD2Ev
libKF5MailImporter.so.5:_ZN12MailImporter12FilterLNotes12ImportLNotesERK7QString
libKF5MailImporter.so.5:_ZN12MailImporter12FilterLNotes6importEv
libKF5MailImporter.so.5:_ZN12MailImporter12FilterLNotesC1Ev
libKF5MailImporter.so.5:_ZN12MailImporter12FilterLNotesC2Ev
libKF5MailImporter.so.5:_ZN12MailImporter12FilterLNotesD0Ev
libKF5MailImporter.so.5:_ZN12MailImporter12FilterLNotesD1Ev
libKF5MailImporter.so.5:_ZN12MailImporter12FilterLNotesD2Ev
libKF5MailImporter.so.5:_ZN12MailImporter12FilterTheBat11importFilesERK7QString
libKF5MailImporter.so.5:_ZN12MailImporter12FilterTheBat11importMailsERK7QString
libKF5MailImporter.so.5:_ZN12MailImporter12FilterTheBat16processDirectoryERK7QString
libKF5MailImporter.so.5:_ZN12MailImporter12FilterTheBat17importDirContentsERK7QString
libKF5MailImporter.so.5:_ZN12MailImporter12FilterTheBat6importEv
libKF5MailImporter.so.5:_ZN12MailImporter12FilterTheBatC1Ev
libKF5MailImporter.so.5:_ZN12MailImporter12FilterTheBatC2Ev
libKF5MailImporter.so.5:_ZN12MailImporter12FilterTheBatD0Ev
libKF5MailImporter.so.5:_ZN12MailImporter12FilterTheBatD1Ev
libKF5MailImporter.so.5:_ZN12MailImporter12FilterTheBatD2Ev
libKF5MailImporter.so.5:_ZN12MailImporter13FilterIcedove12settingsPathEv
libKF5MailImporter.so.5:_ZN12MailImporter13FilterIcedove13isMailerFoundEv
libKF5MailImporter.so.5:_ZN12MailImporter13FilterIcedove19defaultSettingsPathEv
libKF5MailImporter.so.5:_ZN12MailImporter13FilterIcedoveC1Ev
libKF5MailImporter.so.5:_ZN12MailImporter13FilterIcedoveC2Ev
libKF5MailImporter.so.5:_ZN12MailImporter13FilterIcedoveD0Ev
libKF5MailImporter.so.5:_ZN12MailImporter13FilterIcedoveD1Ev
libKF5MailImporter.so.5:_ZN12MailImporter13FilterIcedoveD2Ev
libKF5MailImporter.so.5:_ZN12MailImporter13FilterInfoGui10setCurrentERK7QString
libKF5MailImporter.so.5:_ZN12MailImporter13FilterInfoGui10setCurrentEi
libKF5MailImporter.so.5:_ZN12MailImporter13FilterInfoGui10setOverallEi
libKF5MailImporter.so.5:_ZN12MailImporter13FilterInfoGui15addInfoLogEntryERK7QString
libKF5MailImporter.so.5:_ZN12MailImporter13FilterInfoGui16addErrorLogEntryERK7QString
libKF5MailImporter.so.5:_ZN12MailImporter13FilterInfoGui16setStatusMessageERK7QString
libKF5MailImporter.so.5:_ZN12MailImporter13FilterInfoGui5alertERK7QString
libKF5MailImporter.so.5:_ZN12MailImporter13FilterInfoGui5clearEv
libKF5MailImporter.so.5:_ZN12MailImporter13FilterInfoGui5setToERK7QString
libKF5MailImporter.so.5:_ZN12MailImporter13FilterInfoGui7setFromERK7QString
libKF5MailImporter.so.5:_ZN12MailImporter13FilterInfoGuiC1Ev
libKF5MailImporter.so.5:_ZN12MailImporter13FilterInfoGuiC2Ev
libKF5MailImporter.so.5:_ZN12MailImporter13FilterInfoGuiD0Ev
libKF5MailImporter.so.5:_ZN12MailImporter13FilterInfoGuiD1Ev
libKF5MailImporter.so.5:_ZN12MailImporter13FilterInfoGuiD2Ev
libKF5MailImporter.so.5:_ZN12MailImporter13FilterMailApp11importMailsERK7QString
libKF5MailImporter.so.5:_ZN12MailImporter13FilterMailApp17traverseDirectoryERK7QString
libKF5MailImporter.so.5:_ZN12MailImporter13FilterMailApp6importEv
libKF5MailImporter.so.5:_ZN12MailImporter13FilterMailAppC1Ev
libKF5MailImporter.so.5:_ZN12MailImporter13FilterMailAppC2Ev
libKF5MailImporter.so.5:_ZN12MailImporter13FilterMailAppD0Ev
libKF5MailImporter.so.5:_ZN12MailImporter13FilterMailAppD1Ev
libKF5MailImporter.so.5:_ZN12MailImporter13FilterMailAppD2Ev
libKF5MailImporter.so.5:_ZN12MailImporter13MessageStatus10setDeletedEb
libKF5MailImporter.so.5:_ZN12MailImporter13MessageStatus10setRepliedEb
libKF5MailImporter.so.5:_ZN12MailImporter13MessageStatus12setForwardedEb
libKF5MailImporter.so.5:_ZN12MailImporter13MessageStatus7setReadEb
libKF5MailImporter.so.5:_ZN12MailImporter13MessageStatusC1Ev
libKF5MailImporter.so.5:_ZN12MailImporter13MessageStatusC2Ev
libKF5MailImporter.so.5:_ZN12MailImporter13MessageStatusD1Ev
libKF5MailImporter.so.5:_ZN12MailImporter13MessageStatusD2Ev
libKF5MailImporter.so.5:_ZN12MailImporter14FilterSylpheed11excludeFileERK7QString
libKF5MailImporter.so.5:_ZN12MailImporter14FilterSylpheed11importFilesERK7QString
libKF5MailImporter.so.5:_ZN12MailImporter14FilterSylpheed11importMailsERK7QString
libKF5MailImporter.so.5:_ZN12MailImporter14FilterSylpheed12readMarkFileERK7QStringR5QHashIS1_mE
libKF5MailImporter.so.5:_ZN12MailImporter14FilterSylpheed13isMailerFoundEv
libKF5MailImporter.so.5:_ZN12MailImporter14FilterSylpheed16localMailDirPathEv
libKF5MailImporter.so.5:_ZN12MailImporter14FilterSylpheed16msgFlagsToStringEm
libKF5MailImporter.so.5:_ZN12MailImporter14FilterSylpheed16processDirectoryERK7QString
libKF5MailImporter.so.5:_ZN12MailImporter14FilterSylpheed17importDirContentsERK7QString
libKF5MailImporter.so.5:_ZN12MailImporter14FilterSylpheed19defaultSettingsPathEv
libKF5MailImporter.so.5:_ZN12MailImporter14FilterSylpheed6importEv
libKF5MailImporter.so.5:_ZN12MailImporter14FilterSylpheedC1Ev
libKF5MailImporter.so.5:_ZN12MailImporter14FilterSylpheedC2Ev
libKF5MailImporter.so.5:_ZN12MailImporter14FilterSylpheedD0Ev
libKF5MailImporter.so.5:_ZN12MailImporter14FilterSylpheedD1Ev
libKF5MailImporter.so.5:_ZN12MailImporter14FilterSylpheedD2Ev
libKF5MailImporter.so.5:_ZN12MailImporter15FilterClawsMail11excludeFileERK7QString
libKF5MailImporter.so.5:_ZN12MailImporter15FilterClawsMail13isMailerFoundEv
libKF5MailImporter.so.5:_ZN12MailImporter15FilterClawsMail16localMailDirPathEv
libKF5MailImporter.so.5:_ZN12MailImporter15FilterClawsMail19defaultSettingsPathEv
libKF5MailImporter.so.5:_ZN12MailImporter15FilterClawsMailC1Ev
libKF5MailImporter.so.5:_ZN12MailImporter15FilterClawsMailC2Ev
libKF5MailImporter.so.5:_ZN12MailImporter15FilterClawsMailD0Ev
libKF5MailImporter.so.5:_ZN12MailImporter15FilterClawsMailD1Ev
libKF5MailImporter.so.5:_ZN12MailImporter15FilterClawsMailD2Ev
libKF5MailImporter.so.5:_ZN12MailImporter15FilterEvolution10importMBoxERK7QStringS3_S3_
libKF5MailImporter.so.5:_ZN12MailImporter15FilterEvolution11importMailsERK7QString
libKF5MailImporter.so.5:_ZN12MailImporter15FilterEvolution13isMailerFoundEv
libKF5MailImporter.so.5:_ZN12MailImporter15FilterEvolution17importDirContentsERK7QStringS3_S3_
libKF5MailImporter.so.5:_ZN12MailImporter15FilterEvolution19defaultSettingsPathEv
libKF5MailImporter.so.5:_ZN12MailImporter15FilterEvolution6importEv
libKF5MailImporter.so.5:_ZN12MailImporter15FilterEvolutionC1Ev
libKF5MailImporter.so.5:_ZN12MailImporter15FilterEvolutionC2Ev
libKF5MailImporter.so.5:_ZN12MailImporter15FilterEvolutionD0Ev
libKF5MailImporter.so.5:_ZN12MailImporter15FilterEvolutionD1Ev
libKF5MailImporter.so.5:_ZN12MailImporter15FilterEvolutionD2Ev
libKF5MailImporter.so.5:_ZN12MailImporter15FilterSeaMonkey12settingsPathEv
libKF5MailImporter.so.5:_ZN12MailImporter15FilterSeaMonkey19defaultSettingsPathEv
libKF5MailImporter.so.5:_ZN12MailImporter15FilterSeaMonkeyC1Ev
libKF5MailImporter.so.5:_ZN12MailImporter15FilterSeaMonkeyC2Ev
libKF5MailImporter.so.5:_ZN12MailImporter15FilterSeaMonkeyD0Ev
libKF5MailImporter.so.5:_ZN12MailImporter15FilterSeaMonkeyD1Ev
libKF5MailImporter.so.5:_ZN12MailImporter15FilterSeaMonkeyD2Ev
libKF5MailImporter.so.5:_ZN12MailImporter15OtherMailerUtil13isMailerFoundEv
libKF5MailImporter.so.5:_ZN12MailImporter15OtherMailerUtil16gearyDefaultPathEv
libKF5MailImporter.so.5:_ZN12MailImporter15OtherMailerUtil18trojitaDefaultPathEv
libKF5MailImporter.so.5:_ZN12MailImporter15OtherMailerUtil20nylasMailDefaultPathEv
libKF5MailImporter.so.5:_ZN12MailImporter17FilterMailmanGzip11importMailsERK11QStringList
libKF5MailImporter.so.5:_ZN12MailImporter17FilterMailmanGzip6importEv
libKF5MailImporter.so.5:_ZN12MailImporter17FilterMailmanGzipC1Ev
libKF5MailImporter.so.5:_ZN12MailImporter17FilterMailmanGzipC2Ev
libKF5MailImporter.so.5:_ZN12MailImporter17FilterMailmanGzipD0Ev
libKF5MailImporter.so.5:_ZN12MailImporter17FilterMailmanGzipD1Ev
libKF5MailImporter.so.5:_ZN12MailImporter17FilterMailmanGzipD2Ev
libKF5MailImporter.so.5:_ZN12MailImporter17FilterThunderbird10importMBoxERK7QStringS3_S3_
libKF5MailImporter.so.5:_ZN12MailImporter17FilterThunderbird11importMailsERK7QString
libKF5MailImporter.so.5:_ZN12MailImporter17FilterThunderbird11listProfileER7QStringRKS1_
libKF5MailImporter.so.5:_ZN12MailImporter17FilterThunderbird12excludeFilesERK7QString
libKF5MailImporter.so.5:_ZN12MailImporter17FilterThunderbird12settingsPathEv
libKF5MailImporter.so.5:_ZN12MailImporter17FilterThunderbird13isMailerFoundEv
libKF5MailImporter.so.5:_ZN12MailImporter17FilterThunderbird14defaultProfileERK7QStringP7QWidget
libKF5MailImporter.so.5:_ZN12MailImporter17FilterThunderbird17importDirContentsERK7QStringS3_S3_
libKF5MailImporter.so.5:_ZN12MailImporter17FilterThunderbird19defaultSettingsPathEv
libKF5MailImporter.so.5:_ZN12MailImporter17FilterThunderbird6importEv
libKF5MailImporter.so.5:_ZN12MailImporter17FilterThunderbirdC1Ev
libKF5MailImporter.so.5:_ZN12MailImporter17FilterThunderbirdC2Ev
libKF5MailImporter.so.5:_ZN12MailImporter17FilterThunderbirdD0Ev
libKF5MailImporter.so.5:_ZN12MailImporter17FilterThunderbirdD1Ev
libKF5MailImporter.so.5:_ZN12MailImporter17FilterThunderbirdD2Ev
libKF5MailImporter.so.5:_ZN12MailImporter17ImportMailsWidget10setCurrentERK7QString
libKF5MailImporter.so.5:_ZN12MailImporter17ImportMailsWidget10setCurrentEi
libKF5MailImporter.so.5:_ZN12MailImporter17ImportMailsWidget10setOverallEi
libKF5MailImporter.so.5:_ZN12MailImporter17ImportMailsWidget11qt_metacallEN11QMetaObject4CallEiPPv
libKF5MailImporter.so.5:_ZN12MailImporter17ImportMailsWidget11qt_metacastEPKc
libKF5MailImporter.so.5:_ZN12MailImporter17ImportMailsWidget15addInfoLogEntryERK7QString
libKF5MailImporter.so.5:_ZN12MailImporter17ImportMailsWidget16addErrorLogEntryERK7QString
libKF5MailImporter.so.5:_ZN12MailImporter17ImportMailsWidget16setStatusMessageERK7QString
libKF5MailImporter.so.5:_ZN12MailImporter17ImportMailsWidget18setLastCurrentItemEv
libKF5MailImporter.so.5:_ZN12MailImporter17ImportMailsWidget5clearEv
libKF5MailImporter.so.5:_ZN12MailImporter17ImportMailsWidget5setToERK7QString
libKF5MailImporter.so.5:_ZN12MailImporter17ImportMailsWidget7addItemEP15QListWidgetItem
libKF5MailImporter.so.5:_ZN12MailImporter17ImportMailsWidget7setFromERK7QString
libKF5MailImporter.so.5:_ZN12MailImporter17ImportMailsWidgetC1EP7QWidget
libKF5MailImporter.so.5:_ZN12MailImporter17ImportMailsWidgetC2EP7QWidget
libKF5MailImporter.so.5:_ZN12MailImporter17ImportMailsWidgetD0Ev
libKF5MailImporter.so.5:_ZN12MailImporter17ImportMailsWidgetD1Ev
libKF5MailImporter.so.5:_ZN12MailImporter17ImportMailsWidgetD2Ev
libKF5MailImporter.so.5:_ZN12MailImporter18FilterEvolution_v210importMBoxERK7QStringS3_S3_
libKF5MailImporter.so.5:_ZN12MailImporter18FilterEvolution_v211importMailsERK7QString
libKF5MailImporter.so.5:_ZN12MailImporter18FilterEvolution_v212excludeFilesERK7QString
libKF5MailImporter.so.5:_ZN12MailImporter18FilterEvolution_v213isMailerFoundEv
libKF5MailImporter.so.5:_ZN12MailImporter18FilterEvolution_v217importDirContentsERK7QStringS3_S3_
libKF5MailImporter.so.5:_ZN12MailImporter18FilterEvolution_v219defaultSettingsPathEv
libKF5MailImporter.so.5:_ZN12MailImporter18FilterEvolution_v26importEv
libKF5MailImporter.so.5:_ZN12MailImporter18FilterEvolution_v2C1Ev
libKF5MailImporter.so.5:_ZN12MailImporter18FilterEvolution_v2C2Ev
libKF5MailImporter.so.5:_ZN12MailImporter18FilterEvolution_v2D0Ev
libKF5MailImporter.so.5:_ZN12MailImporter18FilterEvolution_v2D1Ev
libKF5MailImporter.so.5:_ZN12MailImporter18FilterEvolution_v2D2Ev
libKF5MailImporter.so.5:_ZN12MailImporter18FilterEvolution_v311importFilesERK7QString
libKF5MailImporter.so.5:_ZN12MailImporter18FilterEvolution_v311importMailsERK7QString
libKF5MailImporter.so.5:_ZN12MailImporter18FilterEvolution_v313isMailerFoundEv
libKF5MailImporter.so.5:_ZN12MailImporter18FilterEvolution_v314statusFromFileERK7QString
libKF5MailImporter.so.5:_ZN12MailImporter18FilterEvolution_v316processDirectoryERK7QString
libKF5MailImporter.so.5:_ZN12MailImporter18FilterEvolution_v317importDirContentsERK7QString
libKF5MailImporter.so.5:_ZN12MailImporter18FilterEvolution_v319defaultSettingsPathEv
libKF5MailImporter.so.5:_ZN12MailImporter18FilterEvolution_v36importEv
libKF5MailImporter.so.5:_ZN12MailImporter18FilterEvolution_v3C1Ev
libKF5MailImporter.so.5:_ZN12MailImporter18FilterEvolution_v3C2Ev
libKF5MailImporter.so.5:_ZN12MailImporter18FilterEvolution_v3D0Ev
libKF5MailImporter.so.5:_ZN12MailImporter18FilterEvolution_v3D1Ev
libKF5MailImporter.so.5:_ZN12MailImporter18FilterEvolution_v3D2Ev
libKF5MailImporter.so.5:_ZN12MailImporter18FilterImporterBase13importMessageEPK12KArchiveFileRK7QStringRiS7_
libKF5MailImporter.so.5:_ZN12MailImporter18FilterImporterBase13importMessageERK7QStringS3_bRKNS_13MessageStatusE
libKF5MailImporter.so.5:_ZN12MailImporter18FilterImporterBase19clearCountDuplicateEv
libKF5MailImporter.so.5:_ZN12MailImporter18FilterImporterBase5clearEv
libKF5MailImporter.so.5:_ZN12MailImporter18FilterImporterBaseC1EPNS_10FilterInfoE
libKF5MailImporter.so.5:_ZN12MailImporter18FilterImporterBaseC2EPNS_10FilterInfoE
libKF5MailImporter.so.5:_ZN12MailImporter18FilterImporterBaseD0Ev
libKF5MailImporter.so.5:_ZN12MailImporter18FilterImporterBaseD1Ev
libKF5MailImporter.so.5:_ZN12MailImporter18FilterImporterBaseD2Ev
libKF5MailImporter.so.5:_ZN12MailImporter18FilterKMailArchive11importMailsERK7QString
libKF5MailImporter.so.5:_ZN12MailImporter18FilterKMailArchive12importFolderEPK17KArchiveDirectoryRK7QString
libKF5MailImporter.so.5:_ZN12MailImporter18FilterKMailArchive13importMessageEPK12KArchiveFileRK7QString
libKF5MailImporter.so.5:_ZN12MailImporter18FilterKMailArchive15importDirectoryEPK17KArchiveDirectoryRK7QString
libKF5MailImporter.so.5:_ZN12MailImporter18FilterKMailArchive6importEv
libKF5MailImporter.so.5:_ZN12MailImporter18FilterKMailArchiveC1Ev
libKF5MailImporter.so.5:_ZN12MailImporter18FilterKMailArchiveC2Ev
libKF5MailImporter.so.5:_ZN12MailImporter18FilterKMailArchiveD0Ev
libKF5MailImporter.so.5:_ZN12MailImporter18FilterKMailArchiveD1Ev
libKF5MailImporter.so.5:_ZN12MailImporter18FilterKMailArchiveD2Ev
libKF5MailImporter.so.5:_ZN12MailImporter19FilterKMail_maildir11importFilesERK7QString
libKF5MailImporter.so.5:_ZN12MailImporter19FilterKMail_maildir11importMailsERK7QString
libKF5MailImporter.so.5:_ZN12MailImporter19FilterKMail_maildir16processDirectoryERK7QString
libKF5MailImporter.so.5:_ZN12MailImporter19FilterKMail_maildir17importDirContentsERK7QString
libKF5MailImporter.so.5:_ZN12MailImporter19FilterKMail_maildir6importEv
libKF5MailImporter.so.5:_ZN12MailImporter19FilterKMail_maildirC1Ev
libKF5MailImporter.so.5:_ZN12MailImporter19FilterKMail_maildirC2Ev
libKF5MailImporter.so.5:_ZN12MailImporter19FilterKMail_maildirD0Ev
libKF5MailImporter.so.5:_ZN12MailImporter19FilterKMail_maildirD1Ev
libKF5MailImporter.so.5:_ZN12MailImporter19FilterKMail_maildirD2Ev
libKF5MailImporter.so.5:_ZN12MailImporter6Filter10setMailDirERK7QString
libKF5MailImporter.so.5:_ZN12MailImporter6Filter13importMessageERK7QStringS3_bRKNS_13MessageStatusE
libKF5MailImporter.so.5:_ZN12MailImporter6Filter13setFilterInfoEPNS_10FilterInfoE
libKF5MailImporter.so.5:_ZN12MailImporter6Filter14countDirectoryERK4QDirb
libKF5MailImporter.so.5:_ZN12MailImporter6Filter17setFilterImporterEPNS_18FilterImporterBaseE
libKF5MailImporter.so.5:_ZN12MailImporter6Filter19clearCountDuplicateEv
libKF5MailImporter.so.5:_ZN12MailImporter6Filter5clearEv
libKF5MailImporter.so.5:_ZN12MailImporter6Filter7setInfoERK7QString
libKF5MailImporter.so.5:_ZN12MailImporter6Filter7setNameERK7QString
libKF5MailImporter.so.5:_ZN12MailImporter6Filter9setAuthorERK7QString
libKF5MailImporter.so.5:_ZN12MailImporter6FilterC1ERK7QStringS3_S3_
libKF5MailImporter.so.5:_ZN12MailImporter6FilterC2ERK7QStringS3_S3_
libKF5MailImporter.so.5:_ZN12MailImporter6FilterD0Ev
libKF5MailImporter.so.5:_ZN12MailImporter6FilterD1Ev
libKF5MailImporter.so.5:_ZN12MailImporter6FilterD2Ev
libKF5MailImporter.so.5:_ZN12MailImporter8FilterOE11importMailsERK7QString
libKF5MailImporter.so.5:_ZN12MailImporter8FilterOE12dbxReadEmailER11QDataStreami
libKF5MailImporter.so.5:_ZN12MailImporter8FilterOE12dbxReadIndexER11QDataStreami
libKF5MailImporter.so.5:_ZN12MailImporter8FilterOE13getFolderNameERK7QString
libKF5MailImporter.so.5:_ZN12MailImporter8FilterOE13importMailBoxERK7QString
libKF5MailImporter.so.5:_ZN12MailImporter8FilterOE16dbxReadDataBlockER11QDataStreami
libKF5MailImporter.so.5:_ZN12MailImporter8FilterOE19parseFolderOEStringER11QDataStreami
libKF5MailImporter.so.5:_ZN12MailImporter8FilterOE6importEv
libKF5MailImporter.so.5:_ZN12MailImporter8FilterOE9dbxImportER11QDataStream
libKF5MailImporter.so.5:_ZN12MailImporter8FilterOE9mbxImportER11QDataStream
libKF5MailImporter.so.5:_ZN12MailImporter8FilterOEC1Ev
libKF5MailImporter.so.5:_ZN12MailImporter8FilterOEC2Ev
libKF5MailImporter.so.5:_ZN12MailImporter8FilterOED0Ev
libKF5MailImporter.so.5:_ZN12MailImporter8FilterOED1Ev
libKF5MailImporter.so.5:_ZN12MailImporter8FilterOED2Ev
libKF5MailImporter.so.5:_ZNK12MailImporter10FilterInfo12parentWidgetEv
libKF5MailImporter.so.5:_ZNK12MailImporter10FilterInfo15shouldTerminateEv
libKF5MailImporter.so.5:_ZNK12MailImporter10FilterInfo16removeDupMessageEv
libKF5MailImporter.so.5:_ZNK12MailImporter13FilterIcedove20defaultInstallFolderEv
libKF5MailImporter.so.5:_ZNK12MailImporter13FilterInfoGui6parentEv
libKF5MailImporter.so.5:_ZNK12MailImporter13MessageStatus11isForwardedEv
libKF5MailImporter.so.5:_ZNK12MailImporter13MessageStatus6isReadEv
libKF5MailImporter.so.5:_ZNK12MailImporter13MessageStatus9isDeletedEv
libKF5MailImporter.so.5:_ZNK12MailImporter13MessageStatus9isRepliedEv
libKF5MailImporter.so.5:_ZNK12MailImporter14FilterSylpheed20defaultInstallFolderEv
libKF5MailImporter.so.5:_ZNK12MailImporter14FilterSylpheed8markFileEv
libKF5MailImporter.so.5:_ZNK12MailImporter15FilterClawsMail20defaultInstallFolderEv
libKF5MailImporter.so.5:_ZNK12MailImporter15FilterClawsMail8markFileEv
libKF5MailImporter.so.5:_ZNK12MailImporter15FilterSeaMonkey20defaultInstallFolderEv
libKF5MailImporter.so.5:_ZNK12MailImporter17FilterThunderbird20defaultInstallFolderEv
libKF5MailImporter.so.5:_ZNK12MailImporter17ImportMailsWidget10metaObjectEv
libKF5MailImporter.so.5:_ZNK12MailImporter18FilterImporterBase14topLevelFolderEv
libKF5MailImporter.so.5:_ZNK12MailImporter18FilterImporterBase15countDuplicatesEv
libKF5MailImporter.so.5:_ZNK12MailImporter18FilterKMailArchive10countFilesEPK17KArchiveDirectory
libKF5MailImporter.so.5:_ZNK12MailImporter6Filter10filterInfoEv
libKF5MailImporter.so.5:_ZNK12MailImporter6Filter14filterImporterEv
libKF5MailImporter.so.5:_ZNK12MailImporter6Filter15countDuplicatesEv
libKF5MailImporter.so.5:_ZNK12MailImporter6Filter4infoEv
libKF5MailImporter.so.5:_ZNK12MailImporter6Filter4nameEv
libKF5MailImporter.so.5:_ZNK12MailImporter6Filter6authorEv
libKF5MailImporter.so.5:_ZNK12MailImporter6Filter7mailDirEv
libKF5MailImporter.so.5:_ZThn16_N12MailImporter17ImportMailsWidgetD0Ev
libKF5MailImporter.so.5:_ZThn16_N12MailImporter17ImportMailsWidgetD1Ev
libKF5MailImporterAkonadi.so.5:_ZN12MailImporter21FilterImporterAkonadi13importMessageEPK12KArchiveFileRK7QStringRiS7_
libKF5MailImporterAkonadi.so.5:_ZN12MailImporter21FilterImporterAkonadi13importMessageERK7QStringS3_bRKNS_13MessageStatusE
libKF5MailImporterAkonadi.so.5:_ZN12MailImporter21FilterImporterAkonadi16addSubCollectionERKN7Akonadi10CollectionERK7QString
libKF5MailImporterAkonadi.so.5:_ZN12MailImporter21FilterImporterAkonadi17addAkonadiMessageERKN7Akonadi10CollectionERK14QSharedPointerIN5KMime7MessageEENS1_13MessageStatusE
libKF5MailImporterAkonadi.so.5:_ZN12MailImporter21FilterImporterAkonadi17parseFolderStringERK7QString
libKF5MailImporterAkonadi.so.5:_ZN12MailImporter21FilterImporterAkonadi17setRootCollectionERKN7Akonadi10CollectionE
libKF5MailImporterAkonadi.so.5:_ZN12MailImporter21FilterImporterAkonadi18checkForDuplicatesERK7QStringRKN7Akonadi10CollectionES3_
libKF5MailImporterAkonadi.so.5:_ZN12MailImporter21FilterImporterAkonadi19clearCountDuplicateEv
libKF5MailImporterAkonadi.so.5:_ZN12MailImporter21FilterImporterAkonadi29convertToAkonadiMessageStatusERKNS_13MessageStatusE
libKF5MailImporterAkonadi.so.5:_ZN12MailImporter21FilterImporterAkonadi5clearEv
libKF5MailImporterAkonadi.so.5:_ZN12MailImporter21FilterImporterAkonadiC1EPNS_10FilterInfoE
libKF5MailImporterAkonadi.so.5:_ZN12MailImporter21FilterImporterAkonadiC2EPNS_10FilterInfoE
libKF5MailImporterAkonadi.so.5:_ZN12MailImporter21FilterImporterAkonadiD0Ev
libKF5MailImporterAkonadi.so.5:_ZN12MailImporter21FilterImporterAkonadiD1Ev
libKF5MailImporterAkonadi.so.5:_ZN12MailImporter21FilterImporterAkonadiD2Ev
libKF5MailImporterAkonadi.so.5:_ZNK12MailImporter21FilterImporterAkonadi14rootCollectionEv
libKF5MailImporterAkonadi.so.5:_ZNK12MailImporter21FilterImporterAkonadi14topLevelFolderEv
libKF5MailImporterAkonadi.so.5:_ZNK12MailImporter21FilterImporterAkonadi15countDuplicatesEv
