libpyothersideplugin.so:PyOtherSide_init
libpyothersideplugin.so:_Z16pyotherside_sendP7_objectS0_
libpyothersideplugin.so:_Z18pyotherside_atexitP7_objectS0_
libpyothersideplugin.so:_Z22pyotherside_qrc_is_dirP7_objectS0_
libpyothersideplugin.so:_Z23pyotherside_qrc_is_fileP7_objectS0_
libpyothersideplugin.so:_Z24pyotherside_QObject_reprP7_object
libpyothersideplugin.so:_Z24pyotherside_qrc_list_dirP7_objectS0_
libpyothersideplugin.so:_Z27pyotherside_QObject_deallocP19pyotherside_QObject
libpyothersideplugin.so:_Z27qInitResources_qrc_importerv
libpyothersideplugin.so:_Z28pyotherside_QObject_getattroP7_objectS0_
libpyothersideplugin.so:_Z28pyotherside_QObject_setattroP7_objectS0_S0_
libpyothersideplugin.so:_Z30pyotherside_QObjectMethod_callP7_objectS0_S0_
libpyothersideplugin.so:_Z30pyotherside_QObjectMethod_reprP7_object
libpyothersideplugin.so:_Z30pyotherside_set_image_providerP7_objectS0_
libpyothersideplugin.so:_Z30qCleanupResources_qrc_importerv
libpyothersideplugin.so:_Z33pyotherside_QObjectMethod_deallocP25pyotherside_QObjectMethod
libpyothersideplugin.so:_Z33pyotherside_qrc_get_file_contentsP7_objectS0_
libpyothersideplugin.so:_ZN10QObjectRef11qt_metacallEN11QMetaObject4CallEiPPv
libpyothersideplugin.so:_ZN10QObjectRef11qt_metacastEPKc
libpyothersideplugin.so:_ZN10QObjectRef15handleDestroyedEP7QObject
libpyothersideplugin.so:_ZN10QObjectRef16staticMetaObjectE
libpyothersideplugin.so:_ZN10QObjectRefC1EP7QObject
libpyothersideplugin.so:_ZN10QObjectRefC1ERKS_
libpyothersideplugin.so:_ZN10QObjectRefC2EP7QObject
libpyothersideplugin.so:_ZN10QObjectRefC2ERKS_
libpyothersideplugin.so:_ZN10QObjectRefD0Ev
libpyothersideplugin.so:_ZN10QObjectRefD1Ev
libpyothersideplugin.so:_ZN10QObjectRefD2Ev
libpyothersideplugin.so:_ZN10QObjectRefaSERKS_
libpyothersideplugin.so:_ZN11PyObjectRefC1EP7_objectb
libpyothersideplugin.so:_ZN11PyObjectRefC1ERKS_
libpyothersideplugin.so:_ZN11PyObjectRefC2EP7_objectb
libpyothersideplugin.so:_ZN11PyObjectRefC2ERKS_
libpyothersideplugin.so:_ZN11PyObjectRefD0Ev
libpyothersideplugin.so:_ZN11PyObjectRefD1Ev
libpyothersideplugin.so:_ZN11PyObjectRefD2Ev
libpyothersideplugin.so:_ZN11PyObjectRefaSERKS_
libpyothersideplugin.so:_ZN11PyObjectRefeqERKS_
libpyothersideplugin.so:_ZN11QPythonPriv11qt_metacallEN11QMetaObject4CallEiPPv
libpyothersideplugin.so:_ZN11QPythonPriv11qt_metacastEPKc
libpyothersideplugin.so:_ZN11QPythonPriv13importFromQRCEPKcRK7QString
libpyothersideplugin.so:_ZN11QPythonPriv13receiveObjectEP7_object
libpyothersideplugin.so:_ZN11QPythonPriv16staticMetaObjectE
libpyothersideplugin.so:_ZN11QPythonPriv4callEP7_object7QString8QVariantPS3_
libpyothersideplugin.so:_ZN11QPythonPriv4evalE7QString
libpyothersideplugin.so:_ZN11QPythonPriv7closingEv
libpyothersideplugin.so:_ZN11QPythonPriv7receiveE8QVariant
libpyothersideplugin.so:_ZN11QPythonPriv8instanceEv
libpyothersideplugin.so:_ZN11QPythonPriv9formatExcEv
libpyothersideplugin.so:_ZN11QPythonPrivC1Ev
libpyothersideplugin.so:_ZN11QPythonPrivC2Ev
libpyothersideplugin.so:_ZN11QPythonPrivD0Ev
libpyothersideplugin.so:_ZN11QPythonPrivD1Ev
libpyothersideplugin.so:_ZN11QPythonPrivD2Ev
libpyothersideplugin.so:_ZN12PyGLRenderer4initEv
libpyothersideplugin.so:_ZN12PyGLRenderer6renderEv
libpyothersideplugin.so:_ZN12PyGLRenderer7cleanupEv
libpyothersideplugin.so:_ZN12PyGLRenderer7reshapeE5QRect
libpyothersideplugin.so:_ZN12PyGLRendererC1E8QVariant
libpyothersideplugin.so:_ZN12PyGLRendererC2E8QVariant
libpyothersideplugin.so:_ZN12PyGLRendererD1Ev
libpyothersideplugin.so:_ZN12PyGLRendererD2Ev
libpyothersideplugin.so:_ZN13QPythonWorker11qt_metacallEN11QMetaObject4CallEiPPv
libpyothersideplugin.so:_ZN13QPythonWorker11qt_metacastEPKc
libpyothersideplugin.so:_ZN13QPythonWorker12import_namesE7QString8QVariantP8QJSValue
libpyothersideplugin.so:_ZN13QPythonWorker16staticMetaObjectE
libpyothersideplugin.so:_ZN13QPythonWorker6importE7QStringP8QJSValue
libpyothersideplugin.so:_ZN13QPythonWorker7processE8QVariantS0_P8QJSValue
libpyothersideplugin.so:_ZN13QPythonWorker8finishedE8QVariantP8QJSValue
libpyothersideplugin.so:_ZN13QPythonWorker8importedEbP8QJSValue
libpyothersideplugin.so:_ZN13QPythonWorkerC1EP7QPython
libpyothersideplugin.so:_ZN13QPythonWorkerC2EP7QPython
libpyothersideplugin.so:_ZN13QPythonWorkerD0Ev
libpyothersideplugin.so:_ZN13QPythonWorkerD1Ev
libpyothersideplugin.so:_ZN13QPythonWorkerD2Ev
libpyothersideplugin.so:_ZN15PythonLibLoader20extractPythonLibraryEv
libpyothersideplugin.so:_ZN20QPythonImageProvider12requestImageERK7QStringP5QSizeRKS3_
libpyothersideplugin.so:_ZN20QPythonImageProviderC1Ev
libpyothersideplugin.so:_ZN20QPythonImageProviderC2Ev
libpyothersideplugin.so:_ZN20QPythonImageProviderD0Ev
libpyothersideplugin.so:_ZN20QPythonImageProviderD1Ev
libpyothersideplugin.so:_ZN20QPythonImageProviderD2Ev
libpyothersideplugin.so:_ZN21GlobalLibPythonLoader18loadPythonGloballyEv
libpyothersideplugin.so:_ZN26PyOtherSideExtensionPlugin11qt_metacallEN11QMetaObject4CallEiPPv
libpyothersideplugin.so:_ZN26PyOtherSideExtensionPlugin11qt_metacastEPKc
libpyothersideplugin.so:_ZN26PyOtherSideExtensionPlugin13registerTypesEPKc
libpyothersideplugin.so:_ZN26PyOtherSideExtensionPlugin16initializeEngineEP10QQmlEnginePKc
libpyothersideplugin.so:_ZN26PyOtherSideExtensionPlugin16staticMetaObjectE
libpyothersideplugin.so:_ZN26PyOtherSideExtensionPluginC1Ev
libpyothersideplugin.so:_ZN26PyOtherSideExtensionPluginC2Ev
libpyothersideplugin.so:_ZN26PyOtherSideExtensionPluginD0Ev
libpyothersideplugin.so:_ZN26PyOtherSideExtensionPluginD1Ev
libpyothersideplugin.so:_ZN26PyOtherSideExtensionPluginD2Ev
libpyothersideplugin.so:_ZN5PyFbo11qt_metacallEN11QMetaObject4CallEiPPv
libpyothersideplugin.so:_ZN5PyFbo11qt_metacastEPKc
libpyothersideplugin.so:_ZN5PyFbo11setRendererE8QVariant
libpyothersideplugin.so:_ZN5PyFbo16staticMetaObjectE
libpyothersideplugin.so:_ZN7QPython10setHandlerE7QString8QJSValue
libpyothersideplugin.so:_ZN7QPython11importNamesE7QString8QVariant8QJSValue
libpyothersideplugin.so:_ZN7QPython11qt_metacallEN11QMetaObject4CallEiPPv
libpyothersideplugin.so:_ZN7QPython11qt_metacastEPKc
libpyothersideplugin.so:_ZN7QPython12importModuleE7QString8QJSValue
libpyothersideplugin.so:_ZN7QPython12import_namesE7QString8QVariantP8QJSValue
libpyothersideplugin.so:_ZN7QPython12unboxArgListER8QVariant
libpyothersideplugin.so:_ZN7QPython13addImportPathE7QString
libpyothersideplugin.so:_ZN7QPython13call_internalE8QVariantS0_b
libpyothersideplugin.so:_ZN7QPython13connectNotifyERK11QMetaMethod
libpyothersideplugin.so:_ZN7QPython13pluginVersionEv
libpyothersideplugin.so:_ZN7QPython13pythonVersionEv
libpyothersideplugin.so:_ZN7QPython16disconnectNotifyERK11QMetaMethod
libpyothersideplugin.so:_ZN7QPython16importNames_syncE7QString8QVariant
libpyothersideplugin.so:_ZN7QPython16staticMetaObjectE
libpyothersideplugin.so:_ZN7QPython17importModule_syncE7QString
libpyothersideplugin.so:_ZN7QPython4callE8QVariantS0_8QJSValue
libpyothersideplugin.so:_ZN7QPython4privE
libpyothersideplugin.so:_ZN7QPython5errorE7QString
libpyothersideplugin.so:_ZN7QPython6importE7QStringP8QJSValue
libpyothersideplugin.so:_ZN7QPython7getattrE8QVariant7QString
libpyothersideplugin.so:_ZN7QPython7processE8QVariantS0_P8QJSValue
libpyothersideplugin.so:_ZN7QPython7receiveE8QVariant
libpyothersideplugin.so:_ZN7QPython8evaluateE7QString
libpyothersideplugin.so:_ZN7QPython8finishedE8QVariantP8QJSValue
libpyothersideplugin.so:_ZN7QPython8importedEbP8QJSValue
libpyothersideplugin.so:_ZN7QPython8receivedE8QVariant
libpyothersideplugin.so:_ZN7QPython9call_syncE8QVariantS0_
libpyothersideplugin.so:_ZN7QPython9emitErrorERK7QString
libpyothersideplugin.so:_ZN7QPythonC1EP7QObjectii
libpyothersideplugin.so:_ZN7QPythonC2EP7QObjectii
libpyothersideplugin.so:_ZN7QPythonD0Ev
libpyothersideplugin.so:_ZN7QPythonD1Ev
libpyothersideplugin.so:_ZN7QPythonD2Ev
libpyothersideplugin.so:_ZN8PyGLArea11qt_metacallEN11QMetaObject4CallEiPPv
libpyothersideplugin.so:_ZN8PyGLArea11qt_metacastEPKc
libpyothersideplugin.so:_ZN8PyGLArea11setRendererE8QVariant
libpyothersideplugin.so:_ZN8PyGLArea16staticMetaObjectE
libpyothersideplugin.so:_ZN8PyGLArea19handleWindowChangedEP12QQuickWindow
libpyothersideplugin.so:_ZN8PyGLArea4syncEv
libpyothersideplugin.so:_ZN8PyGLArea6renderEv
libpyothersideplugin.so:_ZN8PyGLArea6updateEv
libpyothersideplugin.so:_ZN8PyGLArea7cleanupEv
libpyothersideplugin.so:_ZN8PyGLArea9setBeforeEb
libpyothersideplugin.so:_ZN8PyGLAreaC1Ev
libpyothersideplugin.so:_ZN8PyGLAreaC2Ev
libpyothersideplugin.so:_ZN8PyGLAreaD0Ev
libpyothersideplugin.so:_ZN8PyGLAreaD1Ev
libpyothersideplugin.so:_ZN8PyGLAreaD2Ev
libpyothersideplugin.so:_ZN9QPython1011qt_metacallEN11QMetaObject4CallEiPPv
libpyothersideplugin.so:_ZN9QPython1011qt_metacastEPKc
libpyothersideplugin.so:_ZN9QPython1016staticMetaObjectE
libpyothersideplugin.so:_ZN9QPython1211qt_metacallEN11QMetaObject4CallEiPPv
libpyothersideplugin.so:_ZN9QPython1211qt_metacastEPKc
libpyothersideplugin.so:_ZN9QPython1216staticMetaObjectE
libpyothersideplugin.so:_ZN9QPython1311qt_metacallEN11QMetaObject4CallEiPPv
libpyothersideplugin.so:_ZN9QPython1311qt_metacastEPKc
libpyothersideplugin.so:_ZN9QPython1316staticMetaObjectE
libpyothersideplugin.so:_ZN9QPython1411qt_metacallEN11QMetaObject4CallEiPPv
libpyothersideplugin.so:_ZN9QPython1411qt_metacastEPKc
libpyothersideplugin.so:_ZN9QPython1416staticMetaObjectE
libpyothersideplugin.so:_ZN9QPython1511qt_metacallEN11QMetaObject4CallEiPPv
libpyothersideplugin.so:_ZN9QPython1511qt_metacastEPKc
libpyothersideplugin.so:_ZN9QPython1516staticMetaObjectE
libpyothersideplugin.so:_ZNK10QObjectRef10metaObjectEv
libpyothersideplugin.so:_ZNK11PyObjectRef6borrowEv
libpyothersideplugin.so:_ZNK11PyObjectRef6newRefEv
libpyothersideplugin.so:_ZNK11QPythonPriv10metaObjectEv
libpyothersideplugin.so:_ZNK13QPythonWorker10metaObjectEv
libpyothersideplugin.so:_ZNK26PyOtherSideExtensionPlugin10metaObjectEv
libpyothersideplugin.so:_ZNK5PyFbo10metaObjectEv
libpyothersideplugin.so:_ZNK5PyFbo14createRendererEv
libpyothersideplugin.so:_ZNK7QPython10metaObjectEv
libpyothersideplugin.so:_ZNK8PyGLArea10metaObjectEv
libpyothersideplugin.so:_ZNK9QPython1010metaObjectEv
libpyothersideplugin.so:_ZNK9QPython1210metaObjectEv
libpyothersideplugin.so:_ZNK9QPython1310metaObjectEv
libpyothersideplugin.so:_ZNK9QPython1410metaObjectEv
libpyothersideplugin.so:_ZNK9QPython1510metaObjectEv
libpyothersideplugin.so:_ZTI10QObjectRef
libpyothersideplugin.so:_ZTI11PyObjectRef
libpyothersideplugin.so:_ZTI11QPythonPriv
libpyothersideplugin.so:_ZTI13QPythonWorker
libpyothersideplugin.so:_ZTI20QPythonImageProvider
libpyothersideplugin.so:_ZTI26PyOtherSideExtensionPlugin
libpyothersideplugin.so:_ZTI5PyFbo
libpyothersideplugin.so:_ZTI7QPython
libpyothersideplugin.so:_ZTI8PyGLArea
libpyothersideplugin.so:_ZTI9QPython10
libpyothersideplugin.so:_ZTI9QPython12
libpyothersideplugin.so:_ZTI9QPython13
libpyothersideplugin.so:_ZTI9QPython14
libpyothersideplugin.so:_ZTI9QPython15
libpyothersideplugin.so:_ZTS10QObjectRef
libpyothersideplugin.so:_ZTS11PyObjectRef
libpyothersideplugin.so:_ZTS11QPythonPriv
libpyothersideplugin.so:_ZTS13QPythonWorker
libpyothersideplugin.so:_ZTS20QPythonImageProvider
libpyothersideplugin.so:_ZTS26PyOtherSideExtensionPlugin
libpyothersideplugin.so:_ZTS5PyFbo
libpyothersideplugin.so:_ZTS7QPython
libpyothersideplugin.so:_ZTS8PyGLArea
libpyothersideplugin.so:_ZTS9QPython10
libpyothersideplugin.so:_ZTS9QPython12
libpyothersideplugin.so:_ZTS9QPython13
libpyothersideplugin.so:_ZTS9QPython14
libpyothersideplugin.so:_ZTS9QPython15
libpyothersideplugin.so:_ZTV10QObjectRef
libpyothersideplugin.so:_ZTV11PyObjectRef
libpyothersideplugin.so:_ZTV11QPythonPriv
libpyothersideplugin.so:_ZTV13QPythonWorker
libpyothersideplugin.so:_ZTV20QPythonImageProvider
libpyothersideplugin.so:_ZTV26PyOtherSideExtensionPlugin
libpyothersideplugin.so:_ZTV5PyFbo
libpyothersideplugin.so:_ZTV7QPython
libpyothersideplugin.so:_ZTV8PyGLArea
libpyothersideplugin.so:_ZTV9QPython10
libpyothersideplugin.so:_ZTV9QPython12
libpyothersideplugin.so:_ZTV9QPython13
libpyothersideplugin.so:_ZTV9QPython14
libpyothersideplugin.so:_ZTV9QPython15
libpyothersideplugin.so:_ZThn16_N26PyOtherSideExtensionPlugin13registerTypesEPKc
libpyothersideplugin.so:_ZThn16_N26PyOtherSideExtensionPlugin16initializeEngineEP10QQmlEnginePKc
libpyothersideplugin.so:_ZThn16_N26PyOtherSideExtensionPluginD0Ev
libpyothersideplugin.so:_ZThn16_N26PyOtherSideExtensionPluginD1Ev
libpyothersideplugin.so:_ZThn16_N8PyGLAreaD0Ev
libpyothersideplugin.so:_ZThn16_N8PyGLAreaD1Ev
libpyothersideplugin.so:pyotherside_QObjectMethodType
libpyothersideplugin.so:pyotherside_QObjectType
libpyothersideplugin.so:qt_plugin_instance
libpyothersideplugin.so:qt_plugin_query_metadata
