libtinyxml2.so.11:_ZN8tinyxml210XMLComment9ParseDeepEPcPNS_7StrPairEPi
libtinyxml2.so.11:_ZN8tinyxml210XMLCommentC1EPNS_11XMLDocumentE
libtinyxml2.so.11:_ZN8tinyxml210XMLCommentC2EPNS_11XMLDocumentE
libtinyxml2.so.11:_ZN8tinyxml210XMLCommentD0Ev
libtinyxml2.so.11:_ZN8tinyxml210XMLCommentD1Ev
libtinyxml2.so.11:_ZN8tinyxml210XMLCommentD2Ev
libtinyxml2.so.11:_ZN8tinyxml210XMLElement13InsertNewTextEPKc
libtinyxml2.so.11:_ZN8tinyxml210XMLElement15CreateAttributeEv
libtinyxml2.so.11:_ZN8tinyxml210XMLElement15DeleteAttributeEPKc
libtinyxml2.so.11:_ZN8tinyxml210XMLElement15DeleteAttributeEPNS_12XMLAttributeE
libtinyxml2.so.11:_ZN8tinyxml210XMLElement15ParseAttributesEPcPi
libtinyxml2.so.11:_ZN8tinyxml210XMLElement16InsertNewCommentEPKc
libtinyxml2.so.11:_ZN8tinyxml210XMLElement16InsertNewUnknownEPKc
libtinyxml2.so.11:_ZN8tinyxml210XMLElement20InsertNewDeclarationEPKc
libtinyxml2.so.11:_ZN8tinyxml210XMLElement21FindOrCreateAttributeEPKc
libtinyxml2.so.11:_ZN8tinyxml210XMLElement21InsertNewChildElementEPKc
libtinyxml2.so.11:_ZN8tinyxml210XMLElement7SetTextEPKc
libtinyxml2.so.11:_ZN8tinyxml210XMLElement7SetTextEb
libtinyxml2.so.11:_ZN8tinyxml210XMLElement7SetTextEd
libtinyxml2.so.11:_ZN8tinyxml210XMLElement7SetTextEf
libtinyxml2.so.11:_ZN8tinyxml210XMLElement7SetTextEi
libtinyxml2.so.11:_ZN8tinyxml210XMLElement7SetTextEj
libtinyxml2.so.11:_ZN8tinyxml210XMLElement7SetTextEl
libtinyxml2.so.11:_ZN8tinyxml210XMLElement7SetTextEm
libtinyxml2.so.11:_ZN8tinyxml210XMLElement9ParseDeepEPcPNS_7StrPairEPi
libtinyxml2.so.11:_ZN8tinyxml210XMLElementC1EPNS_11XMLDocumentE
libtinyxml2.so.11:_ZN8tinyxml210XMLElementC2EPNS_11XMLDocumentE
libtinyxml2.so.11:_ZN8tinyxml210XMLElementD0Ev
libtinyxml2.so.11:_ZN8tinyxml210XMLElementD1Ev
libtinyxml2.so.11:_ZN8tinyxml210XMLElementD2Ev
libtinyxml2.so.11:_ZN8tinyxml210XMLPrinter10PrintSpaceEi
libtinyxml2.so.11:_ZN8tinyxml210XMLPrinter10PushHeaderEbb
libtinyxml2.so.11:_ZN8tinyxml210XMLPrinter10VisitEnterERKNS_10XMLElementEPKNS_12XMLAttributeE
libtinyxml2.so.11:_ZN8tinyxml210XMLPrinter10VisitEnterERKNS_11XMLDocumentE
libtinyxml2.so.11:_ZN8tinyxml210XMLPrinter11OpenElementEPKcb
libtinyxml2.so.11:_ZN8tinyxml210XMLPrinter11PrintStringEPKcb
libtinyxml2.so.11:_ZN8tinyxml210XMLPrinter11PushCommentEPKc
libtinyxml2.so.11:_ZN8tinyxml210XMLPrinter11PushUnknownEPKc
libtinyxml2.so.11:_ZN8tinyxml210XMLPrinter12CloseElementEb
libtinyxml2.so.11:_ZN8tinyxml210XMLPrinter13PushAttributeEPKcS2_
libtinyxml2.so.11:_ZN8tinyxml210XMLPrinter13PushAttributeEPKcb
libtinyxml2.so.11:_ZN8tinyxml210XMLPrinter13PushAttributeEPKcd
libtinyxml2.so.11:_ZN8tinyxml210XMLPrinter13PushAttributeEPKci
libtinyxml2.so.11:_ZN8tinyxml210XMLPrinter13PushAttributeEPKcj
libtinyxml2.so.11:_ZN8tinyxml210XMLPrinter13PushAttributeEPKcl
libtinyxml2.so.11:_ZN8tinyxml210XMLPrinter13PushAttributeEPKcm
libtinyxml2.so.11:_ZN8tinyxml210XMLPrinter15PushDeclarationEPKc
libtinyxml2.so.11:_ZN8tinyxml210XMLPrinter17PrepareForNewNodeEb
libtinyxml2.so.11:_ZN8tinyxml210XMLPrinter23SealElementIfJustOpenedEv
libtinyxml2.so.11:_ZN8tinyxml210XMLPrinter4PutcEc
libtinyxml2.so.11:_ZN8tinyxml210XMLPrinter5PrintEPKcz
libtinyxml2.so.11:_ZN8tinyxml210XMLPrinter5VisitERKNS_10XMLCommentE
libtinyxml2.so.11:_ZN8tinyxml210XMLPrinter5VisitERKNS_10XMLUnknownE
libtinyxml2.so.11:_ZN8tinyxml210XMLPrinter5VisitERKNS_14XMLDeclarationE
libtinyxml2.so.11:_ZN8tinyxml210XMLPrinter5VisitERKNS_7XMLTextE
libtinyxml2.so.11:_ZN8tinyxml210XMLPrinter5WriteEPKcm
libtinyxml2.so.11:_ZN8tinyxml210XMLPrinter8PushTextEPKcb
libtinyxml2.so.11:_ZN8tinyxml210XMLPrinter8PushTextEb
libtinyxml2.so.11:_ZN8tinyxml210XMLPrinter8PushTextEd
libtinyxml2.so.11:_ZN8tinyxml210XMLPrinter8PushTextEf
libtinyxml2.so.11:_ZN8tinyxml210XMLPrinter8PushTextEi
libtinyxml2.so.11:_ZN8tinyxml210XMLPrinter8PushTextEj
libtinyxml2.so.11:_ZN8tinyxml210XMLPrinter8PushTextEl
libtinyxml2.so.11:_ZN8tinyxml210XMLPrinter8PushTextEm
libtinyxml2.so.11:_ZN8tinyxml210XMLPrinter9VisitExitERKNS_10XMLElementE
libtinyxml2.so.11:_ZN8tinyxml210XMLPrinterC1EP8_IO_FILEbi
libtinyxml2.so.11:_ZN8tinyxml210XMLPrinterC2EP8_IO_FILEbi
libtinyxml2.so.11:_ZN8tinyxml210XMLUnknown9ParseDeepEPcPNS_7StrPairEPi
libtinyxml2.so.11:_ZN8tinyxml210XMLUnknownC1EPNS_11XMLDocumentE
libtinyxml2.so.11:_ZN8tinyxml210XMLUnknownC2EPNS_11XMLDocumentE
libtinyxml2.so.11:_ZN8tinyxml210XMLUnknownD0Ev
libtinyxml2.so.11:_ZN8tinyxml210XMLUnknownD1Ev
libtinyxml2.so.11:_ZN8tinyxml210XMLUnknownD2Ev
libtinyxml2.so.11:_ZN8tinyxml211XMLDocument10ClearErrorEv
libtinyxml2.so.11:_ZN8tinyxml211XMLDocument10DeleteNodeEPNS_7XMLNodeE
libtinyxml2.so.11:_ZN8tinyxml211XMLDocument10NewCommentEPKc
libtinyxml2.so.11:_ZN8tinyxml211XMLDocument10NewElementEPKc
libtinyxml2.so.11:_ZN8tinyxml211XMLDocument10NewUnknownEPKc
libtinyxml2.so.11:_ZN8tinyxml211XMLDocument11_errorNamesE
libtinyxml2.so.11:_ZN8tinyxml211XMLDocument13ErrorIDToNameENS_8XMLErrorE
libtinyxml2.so.11:_ZN8tinyxml211XMLDocument14NewDeclarationEPKc
libtinyxml2.so.11:_ZN8tinyxml211XMLDocument5ClearEv
libtinyxml2.so.11:_ZN8tinyxml211XMLDocument5ParseEPKcm
libtinyxml2.so.11:_ZN8tinyxml211XMLDocument5ParseEv
libtinyxml2.so.11:_ZN8tinyxml211XMLDocument7NewTextEPKc
libtinyxml2.so.11:_ZN8tinyxml211XMLDocument8IdentifyEPcPPNS_7XMLNodeEb
libtinyxml2.so.11:_ZN8tinyxml211XMLDocument8LoadFileEP8_IO_FILE
libtinyxml2.so.11:_ZN8tinyxml211XMLDocument8LoadFileEPKc
libtinyxml2.so.11:_ZN8tinyxml211XMLDocument8PopDepthEv
libtinyxml2.so.11:_ZN8tinyxml211XMLDocument8SaveFileEP8_IO_FILEb
libtinyxml2.so.11:_ZN8tinyxml211XMLDocument8SaveFileEPKcb
libtinyxml2.so.11:_ZN8tinyxml211XMLDocument8SetErrorENS_8XMLErrorEiPKcz
libtinyxml2.so.11:_ZN8tinyxml211XMLDocument9MarkInUseEPKNS_7XMLNodeE
libtinyxml2.so.11:_ZN8tinyxml211XMLDocument9PushDepthEv
libtinyxml2.so.11:_ZN8tinyxml211XMLDocumentC1EbNS_10WhitespaceE
libtinyxml2.so.11:_ZN8tinyxml211XMLDocumentC2EbNS_10WhitespaceE
libtinyxml2.so.11:_ZN8tinyxml211XMLDocumentD0Ev
libtinyxml2.so.11:_ZN8tinyxml211XMLDocumentD1Ev
libtinyxml2.so.11:_ZN8tinyxml211XMLDocumentD2Ev
libtinyxml2.so.11:_ZN8tinyxml212XMLAttribute12SetAttributeEPKc
libtinyxml2.so.11:_ZN8tinyxml212XMLAttribute12SetAttributeEb
libtinyxml2.so.11:_ZN8tinyxml212XMLAttribute12SetAttributeEd
libtinyxml2.so.11:_ZN8tinyxml212XMLAttribute12SetAttributeEf
libtinyxml2.so.11:_ZN8tinyxml212XMLAttribute12SetAttributeEi
libtinyxml2.so.11:_ZN8tinyxml212XMLAttribute12SetAttributeEj
libtinyxml2.so.11:_ZN8tinyxml212XMLAttribute12SetAttributeEl
libtinyxml2.so.11:_ZN8tinyxml212XMLAttribute12SetAttributeEm
libtinyxml2.so.11:_ZN8tinyxml212XMLAttribute7SetNameEPKc
libtinyxml2.so.11:_ZN8tinyxml212XMLAttribute9ParseDeepEPcbPi
libtinyxml2.so.11:_ZN8tinyxml214XMLDeclaration9ParseDeepEPcPNS_7StrPairEPi
libtinyxml2.so.11:_ZN8tinyxml214XMLDeclarationC1EPNS_11XMLDocumentE
libtinyxml2.so.11:_ZN8tinyxml214XMLDeclarationC2EPNS_11XMLDocumentE
libtinyxml2.so.11:_ZN8tinyxml214XMLDeclarationD0Ev
libtinyxml2.so.11:_ZN8tinyxml214XMLDeclarationD1Ev
libtinyxml2.so.11:_ZN8tinyxml214XMLDeclarationD2Ev
libtinyxml2.so.11:_ZN8tinyxml27StrPair10TransferToEPS0_
libtinyxml2.so.11:_ZN8tinyxml27StrPair18CollapseWhitespaceEv
libtinyxml2.so.11:_ZN8tinyxml27StrPair5ResetEv
libtinyxml2.so.11:_ZN8tinyxml27StrPair6GetStrEv
libtinyxml2.so.11:_ZN8tinyxml27StrPair6SetStrEPKci
libtinyxml2.so.11:_ZN8tinyxml27StrPair9ParseNameEPc
libtinyxml2.so.11:_ZN8tinyxml27StrPair9ParseTextEPcPKciPi
libtinyxml2.so.11:_ZN8tinyxml27StrPairD1Ev
libtinyxml2.so.11:_ZN8tinyxml27StrPairD2Ev
libtinyxml2.so.11:_ZN8tinyxml27XMLNode10DeleteNodeEPS0_
libtinyxml2.so.11:_ZN8tinyxml27XMLNode11DeleteChildEPS0_
libtinyxml2.so.11:_ZN8tinyxml27XMLNode14DeleteChildrenEv
libtinyxml2.so.11:_ZN8tinyxml27XMLNode14InsertEndChildEPS0_
libtinyxml2.so.11:_ZN8tinyxml27XMLNode16InsertAfterChildEPS0_S1_
libtinyxml2.so.11:_ZN8tinyxml27XMLNode16InsertFirstChildEPS0_
libtinyxml2.so.11:_ZN8tinyxml27XMLNode6UnlinkEPS0_
libtinyxml2.so.11:_ZN8tinyxml27XMLNode8SetValueEPKcb
libtinyxml2.so.11:_ZN8tinyxml27XMLNode9ParseDeepEPcPNS_7StrPairEPi
libtinyxml2.so.11:_ZN8tinyxml27XMLNodeC1EPNS_11XMLDocumentE
libtinyxml2.so.11:_ZN8tinyxml27XMLNodeC2EPNS_11XMLDocumentE
libtinyxml2.so.11:_ZN8tinyxml27XMLNodeD0Ev
libtinyxml2.so.11:_ZN8tinyxml27XMLNodeD1Ev
libtinyxml2.so.11:_ZN8tinyxml27XMLNodeD2Ev
libtinyxml2.so.11:_ZN8tinyxml27XMLText9ParseDeepEPcPNS_7StrPairEPi
libtinyxml2.so.11:_ZN8tinyxml27XMLUtil10ToUnsignedEPKcPj
libtinyxml2.so.11:_ZN8tinyxml27XMLUtil12ToUnsigned64EPKcPm
libtinyxml2.so.11:_ZN8tinyxml27XMLUtil13writeBoolTrueE
libtinyxml2.so.11:_ZN8tinyxml27XMLUtil14writeBoolFalseE
libtinyxml2.so.11:_ZN8tinyxml27XMLUtil15GetCharacterRefEPKcPcPi
libtinyxml2.so.11:_ZN8tinyxml27XMLUtil18ConvertUTF32ToUTF8EmPcPi
libtinyxml2.so.11:_ZN8tinyxml27XMLUtil20SetBoolSerializationEPKcS2_
libtinyxml2.so.11:_ZN8tinyxml27XMLUtil5ToIntEPKcPi
libtinyxml2.so.11:_ZN8tinyxml27XMLUtil5ToStrEbPci
libtinyxml2.so.11:_ZN8tinyxml27XMLUtil5ToStrEdPci
libtinyxml2.so.11:_ZN8tinyxml27XMLUtil5ToStrEfPci
libtinyxml2.so.11:_ZN8tinyxml27XMLUtil5ToStrEiPci
libtinyxml2.so.11:_ZN8tinyxml27XMLUtil5ToStrEjPci
libtinyxml2.so.11:_ZN8tinyxml27XMLUtil5ToStrElPci
libtinyxml2.so.11:_ZN8tinyxml27XMLUtil5ToStrEmPci
libtinyxml2.so.11:_ZN8tinyxml27XMLUtil6ToBoolEPKcPb
libtinyxml2.so.11:_ZN8tinyxml27XMLUtil7ReadBOMEPKcPb
libtinyxml2.so.11:_ZN8tinyxml27XMLUtil7ToFloatEPKcPf
libtinyxml2.so.11:_ZN8tinyxml27XMLUtil7ToInt64EPKcPl
libtinyxml2.so.11:_ZN8tinyxml27XMLUtil8ToDoubleEPKcPd
libtinyxml2.so.11:_ZNK8tinyxml210XMLComment12ShallowCloneEPNS_11XMLDocumentE
libtinyxml2.so.11:_ZNK8tinyxml210XMLComment12ShallowEqualEPKNS_7XMLNodeE
libtinyxml2.so.11:_ZNK8tinyxml210XMLComment6AcceptEPNS_10XMLVisitorE
libtinyxml2.so.11:_ZNK8tinyxml210XMLElement10DoubleTextEd
libtinyxml2.so.11:_ZNK8tinyxml210XMLElement12IntAttributeEPKci
libtinyxml2.so.11:_ZNK8tinyxml210XMLElement12QueryIntTextEPi
libtinyxml2.so.11:_ZNK8tinyxml210XMLElement12ShallowCloneEPNS_11XMLDocumentE
libtinyxml2.so.11:_ZNK8tinyxml210XMLElement12ShallowEqualEPKNS_7XMLNodeE
libtinyxml2.so.11:_ZNK8tinyxml210XMLElement12UnsignedTextEj
libtinyxml2.so.11:_ZNK8tinyxml210XMLElement13BoolAttributeEPKcb
libtinyxml2.so.11:_ZNK8tinyxml210XMLElement13FindAttributeEPKc
libtinyxml2.so.11:_ZNK8tinyxml210XMLElement13QueryBoolTextEPb
libtinyxml2.so.11:_ZNK8tinyxml210XMLElement14FloatAttributeEPKcf
libtinyxml2.so.11:_ZNK8tinyxml210XMLElement14Int64AttributeEPKcl
libtinyxml2.so.11:_ZNK8tinyxml210XMLElement14QueryFloatTextEPf
libtinyxml2.so.11:_ZNK8tinyxml210XMLElement14QueryInt64TextEPl
libtinyxml2.so.11:_ZNK8tinyxml210XMLElement14Unsigned64TextEm
libtinyxml2.so.11:_ZNK8tinyxml210XMLElement15DoubleAttributeEPKcd
libtinyxml2.so.11:_ZNK8tinyxml210XMLElement15QueryDoubleTextEPd
libtinyxml2.so.11:_ZNK8tinyxml210XMLElement17QueryUnsignedTextEPj
libtinyxml2.so.11:_ZNK8tinyxml210XMLElement17UnsignedAttributeEPKcj
libtinyxml2.so.11:_ZNK8tinyxml210XMLElement19QueryUnsigned64TextEPm
libtinyxml2.so.11:_ZNK8tinyxml210XMLElement19Unsigned64AttributeEPKcm
libtinyxml2.so.11:_ZNK8tinyxml210XMLElement6AcceptEPNS_10XMLVisitorE
libtinyxml2.so.11:_ZNK8tinyxml210XMLElement7GetTextEv
libtinyxml2.so.11:_ZNK8tinyxml210XMLElement7IntTextEi
libtinyxml2.so.11:_ZNK8tinyxml210XMLElement8BoolTextEb
libtinyxml2.so.11:_ZNK8tinyxml210XMLElement9AttributeEPKcS2_
libtinyxml2.so.11:_ZNK8tinyxml210XMLElement9FloatTextEf
libtinyxml2.so.11:_ZNK8tinyxml210XMLElement9Int64TextEl
libtinyxml2.so.11:_ZNK8tinyxml210XMLUnknown12ShallowCloneEPNS_11XMLDocumentE
libtinyxml2.so.11:_ZNK8tinyxml210XMLUnknown12ShallowEqualEPKNS_7XMLNodeE
libtinyxml2.so.11:_ZNK8tinyxml210XMLUnknown6AcceptEPNS_10XMLVisitorE
libtinyxml2.so.11:_ZNK8tinyxml211XMLDocument10PrintErrorEv
libtinyxml2.so.11:_ZNK8tinyxml211XMLDocument5PrintEPNS_10XMLPrinterE
libtinyxml2.so.11:_ZNK8tinyxml211XMLDocument6AcceptEPNS_10XMLVisitorE
libtinyxml2.so.11:_ZNK8tinyxml211XMLDocument8DeepCopyEPS0_
libtinyxml2.so.11:_ZNK8tinyxml211XMLDocument8ErrorStrEv
libtinyxml2.so.11:_ZNK8tinyxml211XMLDocument9ErrorNameEv
libtinyxml2.so.11:_ZNK8tinyxml212XMLAttribute13QueryIntValueEPi
libtinyxml2.so.11:_ZNK8tinyxml212XMLAttribute14QueryBoolValueEPb
libtinyxml2.so.11:_ZNK8tinyxml212XMLAttribute15QueryFloatValueEPf
libtinyxml2.so.11:_ZNK8tinyxml212XMLAttribute15QueryInt64ValueEPl
libtinyxml2.so.11:_ZNK8tinyxml212XMLAttribute16QueryDoubleValueEPd
libtinyxml2.so.11:_ZNK8tinyxml212XMLAttribute18QueryUnsignedValueEPj
libtinyxml2.so.11:_ZNK8tinyxml212XMLAttribute20QueryUnsigned64ValueEPm
libtinyxml2.so.11:_ZNK8tinyxml212XMLAttribute4NameEv
libtinyxml2.so.11:_ZNK8tinyxml212XMLAttribute5ValueEv
libtinyxml2.so.11:_ZNK8tinyxml214XMLDeclaration12ShallowCloneEPNS_11XMLDocumentE
libtinyxml2.so.11:_ZNK8tinyxml214XMLDeclaration12ShallowEqualEPKNS_7XMLNodeE
libtinyxml2.so.11:_ZNK8tinyxml214XMLDeclaration6AcceptEPNS_10XMLVisitorE
libtinyxml2.so.11:_ZNK8tinyxml27XMLNode16LastChildElementEPKc
libtinyxml2.so.11:_ZNK8tinyxml27XMLNode17ChildElementCountEPKc
libtinyxml2.so.11:_ZNK8tinyxml27XMLNode17ChildElementCountEv
libtinyxml2.so.11:_ZNK8tinyxml27XMLNode17FirstChildElementEPKc
libtinyxml2.so.11:_ZNK8tinyxml27XMLNode17ToElementWithNameEPKc
libtinyxml2.so.11:_ZNK8tinyxml27XMLNode18NextSiblingElementEPKc
libtinyxml2.so.11:_ZNK8tinyxml27XMLNode19InsertChildPreambleEPS0_
libtinyxml2.so.11:_ZNK8tinyxml27XMLNode22PreviousSiblingElementEPKc
libtinyxml2.so.11:_ZNK8tinyxml27XMLNode5ValueEv
libtinyxml2.so.11:_ZNK8tinyxml27XMLNode9DeepCloneEPNS_11XMLDocumentE
libtinyxml2.so.11:_ZNK8tinyxml27XMLText12ShallowCloneEPNS_11XMLDocumentE
libtinyxml2.so.11:_ZNK8tinyxml27XMLText12ShallowEqualEPKNS_7XMLNodeE
libtinyxml2.so.11:_ZNK8tinyxml27XMLText6AcceptEPNS_10XMLVisitorE
